Archive member included because of file (symbol)

c:/program files (x86)/microchip/mplabc32/v2.02/bin/../lib/gcc/pic32mx/4.5.1\libgcc.a(_udivdi3.o)
                              obj-tmp\Tick.o (__udivdi3)
c:/program files (x86)/microchip/mplabc32/v2.02/bin/../lib/gcc/pic32mx/4.5.1\libgcc.a(_umoddi3.o)
                              obj-tmp\DHCP.o (__umoddi3)
c:/program files (x86)/microchip/mplabc32/v2.02/bin/../lib/gcc/pic32mx/4.5.1/../../../../pic32mx/lib\libc.a(memcmp.o)
                              obj-tmp\CustomHTTPApp.o (memcmp)
c:/program files (x86)/microchip/mplabc32/v2.02/bin/../lib/gcc/pic32mx/4.5.1/../../../../pic32mx/lib\libc.a(memcpy.o)
                              obj-tmp\Main.o (memcpy)
c:/program files (x86)/microchip/mplabc32/v2.02/bin/../lib/gcc/pic32mx/4.5.1/../../../../pic32mx/lib\libc.a(memset.o)
                              obj-tmp\Main.o (memset)
c:/program files (x86)/microchip/mplabc32/v2.02/bin/../lib/gcc/pic32mx/4.5.1/../../../../pic32mx/lib\libc.a(strcmp.o)
                              obj-tmp\CustomHTTPApp.o (strcmp)
c:/program files (x86)/microchip/mplabc32/v2.02/bin/../lib/gcc/pic32mx/4.5.1/../../../../pic32mx/lib\libc.a(strcpy.o)
                              obj-tmp\CustomHTTPApp.o (strcpy)
c:/program files (x86)/microchip/mplabc32/v2.02/bin/../lib/gcc/pic32mx/4.5.1/../../../../pic32mx/lib\libc.a(strlen.o)
                              obj-tmp\Main.o (strlen)
c:/program files (x86)/microchip/mplabc32/v2.02/bin/../lib/gcc/pic32mx/4.5.1/../../../../pic32mx/lib\libc.a(general-exception.o)
                              c:/program files (x86)/microchip/mplabc32/v2.02/bin/../lib/gcc/pic32mx/4.5.1/../../../../pic32mx/lib/crt0.o (_general_exception_context)
c:/program files (x86)/microchip/mplabc32/v2.02/bin/../lib/gcc/pic32mx/4.5.1/../../../../pic32mx/lib\libc.a(atol.o)
                              obj-tmp\HTTP2.o (atol)
c:/program files (x86)/microchip/mplabc32/v2.02/bin/../lib/gcc/pic32mx/4.5.1/../../../../pic32mx/lib\libc.a(ctype.o)
                              obj-tmp\WFConsoleMsgs.o (_ctype)
c:/program files (x86)/microchip/mplabc32/v2.02/bin/../lib/gcc/pic32mx/4.5.1/../../../../pic32mx/lib\libc.a(puts.o)
                              obj-tmp\Main.o (puts)
c:/program files (x86)/microchip/mplabc32/v2.02/bin/../lib/gcc/pic32mx/4.5.1/../../../../pic32mx/lib\libc.a(strncpy.o)
                              obj-tmp\Helpers.o (strncpy)
c:/program files (x86)/microchip/mplabc32/v2.02/bin/../lib/gcc/pic32mx/4.5.1/../../../../pic32mx/lib\libc.a(printf_cdnopsuxX.eo)
                              (_printf_cdnopsuxX)
c:/program files (x86)/microchip/mplabc32/v2.02/bin/../lib/gcc/pic32mx/4.5.1/../../../../pic32mx/lib\libc.a(printf_cdnopuxX.eo)
                              obj-tmp\Main.o (_printf_cdnopuxX)
c:/program files (x86)/microchip/mplabc32/v2.02/bin/../lib/gcc/pic32mx/4.5.1/../../../../pic32mx/lib\libc.a(printf_s.eo)
                              obj-tmp\CustomHTTPApp.o (_printf_s)
c:/program files (x86)/microchip/mplabc32/v2.02/bin/../lib/gcc/pic32mx/4.5.1/../../../../pic32mx/lib\libc.a(sprintf_cdnopsuxX.eo)
                              obj-tmp\WF_Config.o (_sprintf_cdnopsuxX)
c:/program files (x86)/microchip/mplabc32/v2.02/bin/../lib/gcc/pic32mx/4.5.1/../../../../pic32mx/lib\libc.a(sprintf_cdnopuxX.eo)
                              obj-tmp\Main.o (_sprintf_cdnopuxX)
c:/program files (x86)/microchip/mplabc32/v2.02/bin/../lib/gcc/pic32mx/4.5.1/../../../../pic32mx/lib\libc.a(default-bootstrap-exception-handler.o)
                              c:/program files (x86)/microchip/mplabc32/v2.02/bin/../lib/gcc/pic32mx/4.5.1/../../../../pic32mx/lib/crt0.o (_bootstrap_exception_handler)
c:/program files (x86)/microchip/mplabc32/v2.02/bin/../lib/gcc/pic32mx/4.5.1/../../../../pic32mx/lib\libc.a(default-on-reset.o)
                              c:/program files (x86)/microchip/mplabc32/v2.02/bin/../lib/gcc/pic32mx/4.5.1/../../../../pic32mx/lib/crt0.o (_on_reset)
c:/program files (x86)/microchip/mplabc32/v2.02/bin/../lib/gcc/pic32mx/4.5.1/../../../../pic32mx/lib\libc.a(default-on-bootstrap.o)
                              c:/program files (x86)/microchip/mplabc32/v2.02/bin/../lib/gcc/pic32mx/4.5.1/../../../../pic32mx/lib/crt0.o (_on_bootstrap)
c:/program files (x86)/microchip/mplabc32/v2.02/bin/../lib/gcc/pic32mx/4.5.1/../../../../pic32mx/lib\libc.a(default-nmi-handler.o)
                              c:/program files (x86)/microchip/mplabc32/v2.02/bin/../lib/gcc/pic32mx/4.5.1/../../../../pic32mx/lib/crt0.o (_nmi_handler)
c:/program files (x86)/microchip/mplabc32/v2.02/bin/../lib/gcc/pic32mx/4.5.1/../../../../pic32mx/lib\libc.a(_iob.o)
                              c:/program files (x86)/microchip/mplabc32/v2.02/bin/../lib/gcc/pic32mx/4.5.1/../../../../pic32mx/lib\libc.a(puts.o) (_iob)
c:/program files (x86)/microchip/mplabc32/v2.02/bin/../lib/gcc/pic32mx/4.5.1/../../../../pic32mx/lib\libc.a(_fputc_simple.o)
                              c:/program files (x86)/microchip/mplabc32/v2.02/bin/../lib/gcc/pic32mx/4.5.1/../../../../pic32mx/lib\libc.a(puts.o) (fputc)
c:/program files (x86)/microchip/mplabc32/v2.02/bin/../lib/gcc/pic32mx/4.5.1/../../../../pic32mx/lib\libc.a(doprnt_cdnopsuxX.eo)
                              c:/program files (x86)/microchip/mplabc32/v2.02/bin/../lib/gcc/pic32mx/4.5.1/../../../../pic32mx/lib\libc.a(printf_cdnopsuxX.eo) (_vfprintf_cdnopsuxX)
c:/program files (x86)/microchip/mplabc32/v2.02/bin/../lib/gcc/pic32mx/4.5.1/../../../../pic32mx/lib\libc.a(doprnt_cdnopuxX.eo)
                              c:/program files (x86)/microchip/mplabc32/v2.02/bin/../lib/gcc/pic32mx/4.5.1/../../../../pic32mx/lib\libc.a(printf_cdnopuxX.eo) (_vfprintf_cdnopuxX)
c:/program files (x86)/microchip/mplabc32/v2.02/bin/../lib/gcc/pic32mx/4.5.1/../../../../pic32mx/lib\libc.a(doprnt_s.eo)
                              c:/program files (x86)/microchip/mplabc32/v2.02/bin/../lib/gcc/pic32mx/4.5.1/../../../../pic32mx/lib\libc.a(printf_s.eo) (_vfprintf_s)
c:/program files (x86)/microchip/mplabc32/v2.02/bin/../lib/gcc/pic32mx/4.5.1/../../../../pic32mx/lib\libc.a(write.o)
                              c:/program files (x86)/microchip/mplabc32/v2.02/bin/../lib/gcc/pic32mx/4.5.1/../../../../pic32mx/lib\libc.a(_fputc_simple.o) (write)
c:/program files (x86)/microchip/mplabc32/v2.02/bin/../lib/gcc/pic32mx/4.5.1/../../../../pic32mx/lib\libc.a(_flsbuf_simple.o)
                              c:/program files (x86)/microchip/mplabc32/v2.02/bin/../lib/gcc/pic32mx/4.5.1/../../../../pic32mx/lib\libc.a(_fputc_simple.o) (_flsbuf)
c:/program files (x86)/microchip/mplabc32/v2.02/bin/../lib/gcc/pic32mx/4.5.1/../../../../pic32mx/lib\libc.a(_mon_putc.o)
                              c:/program files (x86)/microchip/mplabc32/v2.02/bin/../lib/gcc/pic32mx/4.5.1/../../../../pic32mx/lib\libc.a(write.o) (_mon_putc)
c:/program files (x86)/microchip/mplabc32/v2.02/bin/../lib/gcc/pic32mx/4.5.1/../../../../pic32mx/lib\libc.a(c32_uart.o)
                              c:/program files (x86)/microchip/mplabc32/v2.02/bin/../lib/gcc/pic32mx/4.5.1/../../../../pic32mx/lib\libc.a(_mon_putc.o) (__C32_UART)
c:/program files (x86)/microchip/mplabc32/v2.02/bin/../lib/gcc/pic32mx/4.5.1/../../../../pic32mx/lib\libmchp_peripheral_32MX575F256L.a(soft_reset_lib.o)
                              obj-tmp\Reboot.o (SoftReset)
c:/program files (x86)/microchip/mplabc32/v2.02/bin/../lib/gcc/pic32mx/4.5.1/../../../../pic32mx/lib\libmchp_peripheral_32MX575F256L.a(pcache.o)
                              obj-tmp\Main.o (CheKseg0CacheOn)
c:/program files (x86)/microchip/mplabc32/v2.02/bin/../lib/gcc/pic32mx/4.5.1/../../../../pic32mx/lib\libmchp_peripheral_32MX575F256L.a(int_disable_interrupts_lib.o)
                              obj-tmp\Main.o (INTDisableInterrupts)
c:/program files (x86)/microchip/mplabc32/v2.02/bin/../lib/gcc/pic32mx/4.5.1/../../../../pic32mx/lib\libmchp_peripheral_32MX575F256L.a(int_restore_interrupts_lib.o)
                              obj-tmp\Main.o (INTRestoreInterrupts)
c:/program files (x86)/microchip/mplabc32/v2.02/bin/../lib/gcc/pic32mx/4.5.1/../../../../pic32mx/lib\libmchp_peripheral_32MX575F256L.a(int_enable_mv_int_lib.o)
                              obj-tmp\Main.o (INTEnableSystemMultiVectoredInt)
c:/program files (x86)/microchip/mplabc32/v2.02/bin/../lib/gcc/pic32mx/4.5.1/../../../../pic32mx/lib\libmchp_peripheral_32MX575F256L.a(uart_lib.o)
                              obj-tmp\Main.o (UARTEnable)
c:/program files (x86)/microchip/mplabc32/v2.02/bin/../lib/gcc/pic32mx/4.5.1/../../../../pic32mx/lib\libmchp_peripheral_32MX575F256L.a(puts_uartx_lib_legacy.o)
                              obj-tmp\Main.o (putsUART2)
c:/program files (x86)/microchip/mplabc32/v2.02/bin/../lib/gcc/pic32mx/4.5.1/../../../../pic32mx/lib\libmchp_peripheral_32MX575F256L.a(int_enable_interrupts_lib.o)
                              c:/program files (x86)/microchip/mplabc32/v2.02/bin/../lib/gcc/pic32mx/4.5.1/../../../../pic32mx/lib\libmchp_peripheral_32MX575F256L.a(int_enable_mv_int_lib.o) (INTEnableInterrupts)

Allocating common symbols
Common symbol       size              file

UDPTxCount          0x2               obj-tmp\UDP.o
curHTTP             0x8c              obj-tmp\HTTP2.o
g_rxBufferLength    0x2               obj-tmp\WFMac_24G.o
RawWindowState      0x2               obj-tmp\WFDriverRaw_24G.o
DhcpIpPool          0x78              obj-tmp\DHCPs.o
g_easyConfigCtx     0x94              obj-tmp\WFEasyConfig.o
activeUDPSocket     0x1               obj-tmp\UDP.o
curHTTPID           0x1               obj-tmp\HTTP2.o
remoteNode          0xa               obj-tmp\StackTsk.o
RawMoveState        0x8               obj-tmp\WFDriverCom_24G.o
preScanResult       0xb54             obj-tmp\WFEasyConfig.o
AppConfig           0x9a              obj-tmp\Main.o
UDPRxCount          0x2               obj-tmp\UDP.o
WF_hibernate        0x2               obj-tmp\WFMac_24G.o
g_ScanCtx           0x6               obj-tmp\WFEasyConfig.o
UDPSocketInfo       0xe0              obj-tmp\UDP.o
httpStubs           0x10              obj-tmp\HTTP2.o
g_rxDtim            0x4               obj-tmp\WFPowerSave.o

Microchip PIC32 Memory-Usage Report

kseg0 Program-Memory Usage
section                    address  length [bytes]      (dec)  Description
-------                 ----------  -------------------------  -----------
.rodata                 0x9d000008         0x8728       34600  Read-only const 
.text                   0x9d008730        0x23738      145208  App's exec code 
.rodata                 0x9d02be68          0xe8c        3724  Read-only const 
.text                   0x9d02ccf4         0x3bac       15276  App's exec code 
.text._vfprintf_cdnopsu 0x9d0308a0          0xae4        2788   
.text                   0x9d031384         0x1134        4404  App's exec code 
.dinit                  0x9d0324b8          0x6ec        1772   
.text                   0x9d032ba4         0x1284        4740  App's exec code 
.rodata                 0x9d033e28          0x520        1312  Read-only const 
.text                   0x9d034348         0x22a4        8868  App's exec code 
.rodata                 0x9d0365ec          0x3b4         948  Read-only const 
.text                   0x9d0369a0          0xd0c        3340  App's exec code 
.rodata                 0x9d0376ac          0x1bc         444  Read-only const 
.text                   0x9d037868          0x8a0        2208  App's exec code 
.text.fputc             0x9d038108          0x140         320   
.text                   0x9d038248          0x258         600  App's exec code 
.text._flsbuf           0x9d0384a0          0x12c         300   
.text                   0x9d0385cc          0x120         288  App's exec code 
.rodata                 0x9d0386ec          0x328         808  Read-only const 
.text                   0x9d038a14           0xf0         240  App's exec code 
.rodata                 0x9d038b04           0xe8         232  Read-only const 
.text.general_exception 0x9d038bec           0xd0         208   
.rodata                 0x9d038cbc            0x4           4  Read-only const 
.rodata                 0x9d038cc0           0xd0         208  Read-only const 
.text                   0x9d038d90          0x188         392  App's exec code 
.text._mon_putc         0x9d038f18           0xb4         180   
.rodata                 0x9d038fcc           0xb0         176  Read-only const 
.text                   0x9d03907c           0xa8         168  App's exec code 
.text.atol              0x9d039124           0xa4         164   
.text                   0x9d0391c8           0x98         152  App's exec code 
.text.write             0x9d039260           0x88         136   
.text.UARTEnable        0x9d0392e8           0x80         128   
.text.fputs             0x9d039368           0x78         120   
.text.SoftReset         0x9d0393e0           0x78         120   
.text._sprintf_cdnopsux 0x9d039458           0x68         104   
.text.strncpy           0x9d0394c0           0x64         100   
.text.UARTSetDataRate   0x9d039524           0x5c          92   
.rodata                 0x9d039580           0xa0         160  Read-only const 
.text.putsUART1         0x9d039620           0x4c          76   
.text.putsUART2         0x9d03966c           0x4c          76   
.text.puts              0x9d0396b8           0x44          68   
.text._printf_cdnopsuxX 0x9d0396fc           0x40          64   
.text.UARTGetDataRate   0x9d03973c           0x40          64   
.rodata                 0x9d03977c           0x3c          60  Read-only const 
.text.UARTConfigure     0x9d0397b8           0x3c          60   
.text.UARTSetAddress    0x9d0397f4           0x3c          60   
.text.UARTWatchForAddre 0x9d039830           0x38          56   
.text.INTEnableSystemMu 0x9d039868           0x34          52   
.text.UARTSetFifoMode   0x9d03989c           0x28          40   
.text.UARTSetLineContro 0x9d0398c4           0x28          40   
.rodata                 0x9d0398ec           0x58          88  Read-only const 
.text.INTRestoreInterru 0x9d039944           0x1c          28   
.text                   0x9d039960           0x18          24  App's exec code 
.text.CheKseg0CacheOff  0x9d039978           0x18          24   
.text.CheKseg0CacheOn   0x9d039990           0x18          24   
.rodata                 0x9d0399a8           0x2c          44  Read-only const 
.text                   0x9d0399d4           0x10          16  App's exec code 
.text._bootstrap_except 0x9d0399e4            0xc          12   
.rodata                 0x9d0399f0           0x20          32  Read-only const 
.text._on_reset         0x9d039a10            0x8           8   
.text._on_bootstrap     0x9d039a18            0x8           8   
.text.INTDisableInterru 0x9d039a20            0x8           8   
.text.INTEnableInterrup 0x9d039a28            0x8           8   
.rodata                 0x9d039a30            0x1           1  Read-only const 
      Total kseg0_program_mem used  :     0x39a29      236073  90.1% of 0x40000

kseg0 Boot-Memory Usage
section                    address  length [bytes]      (dec)  Description
-------                 ----------  -------------------------  -----------
         Total kseg0_boot_mem used  :           0           0  <1% of 0x970

Exception-Memory Usage 
section                    address  length [bytes]      (dec)  Description
-------                 ----------  -------------------------  -----------
.app_excpt              0x9fc01180           0x10          16  General-Exception 
.vector_4               0x9fc01280            0x8           8  Interrupt Vector 4 
.vector_15              0x9fc013e0            0x8           8  Interrupt Vector 15 
          Total exception_mem used  :        0x20          32  0.8% of 0x1000

kseg1 Boot-Memory Usage
section                    address  length [bytes]      (dec)  Description
-------                 ----------  -------------------------  -----------
.reset                  0xbfc00000          0x1f4         500  Reset handler 
.bev_excpt              0xbfc00380           0x10          16  BEV-Exception 
         Total kseg1_boot_mem used  :       0x204         516  44.2% of 0x490
        --------------------------------------------------------------------------
         Total Program Memory used  :     0x39c4d      236621  87.7% of 0x41e00
        --------------------------------------------------------------------------


kseg1 Data-Memory Usage
section                    address  length [bytes]      (dec)  Description
-------                 ----------  -------------------------  -----------
.eh_frame               0xa0000000           0x3c          60   
.sdata                  0xa000003c           0x48          72  Small init data 
.sbss                   0xa0000084          0x156         342  Small uninit data 
.bss                    0xa00001dc          0xe84        3716  Uninitialized data 
.pbss                   0xa00001f2            0x2           2   
.bss                    0xa0001078          0x360         864  Uninitialized data 
.data                   0xa00013d8          0x2d4         724  Initialized data 
.bss                    0xa00016ac          0x104         260  Uninitialized data 
.data                   0xa00017b0           0xa0         160  Initialized data 
.bss                    0xa0001850          0x19c         412  Uninitialized data 
.pbss                   0xa00019ec            0x4           4   
.pbss                   0xa00019f0            0x2           2   
         Total kseg1_data_mem used  :      0x19da        6618  10.1% of 0x10000
        --------------------------------------------------------------------------
            Total Data Memory used  :      0x19da        6618  10.1% of 0x10000
        --------------------------------------------------------------------------


Dynamic Data-Memory Reservation
section                    address  length [bytes]      (dec)  Description
-------                 ----------  -------------------------  -----------
heap                    0xa00019f8              0           0  Reserved for heap 
stack                   0xa0001a10         0xe5e0       58848  Reserved for stack 

        --------------------------------------------------------------------------

Discarded input sections

 .reginfo       0x00000000       0x18 c:/program files (x86)/microchip/mplabc32/v2.02/bin/../lib/gcc/pic32mx/4.5.1/../../../../pic32mx/lib/crt0.o
 .pdr           0x00000000       0xa0 c:/program files (x86)/microchip/mplabc32/v2.02/bin/../lib/gcc/pic32mx/4.5.1/../../../../pic32mx/lib/crt0.o
 .reginfo       0x00000000       0x18 obj-tmp\Main.o
 .pdr           0x00000000      0x120 obj-tmp\Main.o
 .reginfo       0x00000000       0x18 obj-tmp\CustomHTTPApp.o
 .pdr           0x00000000      0x2c0 obj-tmp\CustomHTTPApp.o
 .reginfo       0x00000000       0x18 obj-tmp\WF_Config.o
 .pdr           0x00000000       0x40 obj-tmp\WF_Config.o
 .reginfo       0x00000000       0x18 obj-tmp\WifiGDemoMPFSImg.o
 .pdr           0x00000000        0x0 obj-tmp\WifiGDemoMPFSImg.o
 .reginfo       0x00000000       0x18 obj-tmp\Announce.o
 .pdr           0x00000000       0x40 obj-tmp\Announce.o
 .reginfo       0x00000000       0x18 obj-tmp\ARCFOUR.o
 .pdr           0x00000000        0x0 obj-tmp\ARCFOUR.o
 .reginfo       0x00000000       0x18 obj-tmp\ARP.o
 .pdr           0x00000000      0x140 obj-tmp\ARP.o
 .reginfo       0x00000000       0x18 obj-tmp\AutoIP.o
 .pdr           0x00000000        0x0 obj-tmp\AutoIP.o
 .reginfo       0x00000000       0x18 obj-tmp\BerkeleyAPI.o
 .pdr           0x00000000        0x0 obj-tmp\BerkeleyAPI.o
 .reginfo       0x00000000       0x18 obj-tmp\BigInt.o
 .pdr           0x00000000        0x0 obj-tmp\BigInt.o
 .reginfo       0x00000000       0x18 obj-tmp\BigInt_helper_PIC32.o
 .pdr           0x00000000        0x0 obj-tmp\BigInt_helper_PIC32.o
 .reginfo       0x00000000       0x18 obj-tmp\Delay.o
 .pdr           0x00000000       0x40 obj-tmp\Delay.o
 .reginfo       0x00000000       0x18 obj-tmp\DNS.o
 .pdr           0x00000000       0xc0 obj-tmp\DNS.o
 .reginfo       0x00000000       0x18 obj-tmp\DNSs.o
 .pdr           0x00000000       0xa0 obj-tmp\DNSs.o
 .reginfo       0x00000000       0x18 obj-tmp\DynDNS.o
 .pdr           0x00000000        0x0 obj-tmp\DynDNS.o
 .reginfo       0x00000000       0x18 obj-tmp\ENC28J60.o
 .pdr           0x00000000        0x0 obj-tmp\ENC28J60.o
 .reginfo       0x00000000       0x18 obj-tmp\ENCX24J600.o
 .pdr           0x00000000        0x0 obj-tmp\ENCX24J600.o
 .reginfo       0x00000000       0x18 obj-tmp\eth_pic32_ext_phy_rtl8201FL.o
 .pdr           0x00000000        0x0 obj-tmp\eth_pic32_ext_phy_rtl8201FL.o
 .reginfo       0x00000000       0x18 obj-tmp\ETH97J60.o
 .pdr           0x00000000        0x0 obj-tmp\ETH97J60.o
 .reginfo       0x00000000       0x18 obj-tmp\ETHPIC32ExtPhy.o
 .pdr           0x00000000        0x0 obj-tmp\ETHPIC32ExtPhy.o
 .reginfo       0x00000000       0x18 obj-tmp\ETHPIC32ExtPhyDP83640.o
 .pdr           0x00000000        0x0 obj-tmp\ETHPIC32ExtPhyDP83640.o
 .reginfo       0x00000000       0x18 obj-tmp\ETHPIC32ExtPhyDP83848.o
 .pdr           0x00000000        0x0 obj-tmp\ETHPIC32ExtPhyDP83848.o
 .reginfo       0x00000000       0x18 obj-tmp\ETHPIC32ExtPhySMSC8700.o
 .pdr           0x00000000        0x0 obj-tmp\ETHPIC32ExtPhySMSC8700.o
 .reginfo       0x00000000       0x18 obj-tmp\ETHPIC32ExtPhySMSC8720.o
 .pdr           0x00000000        0x0 obj-tmp\ETHPIC32ExtPhySMSC8720.o
 .reginfo       0x00000000       0x18 obj-tmp\ETHPIC32IntMac.o
 .pdr           0x00000000        0x0 obj-tmp\ETHPIC32IntMac.o
 .reginfo       0x00000000       0x18 obj-tmp\FileSystem.o
 .pdr           0x00000000        0x0 obj-tmp\FileSystem.o
 .reginfo       0x00000000       0x18 obj-tmp\FTP.o
 .pdr           0x00000000        0x0 obj-tmp\FTP.o
 .reginfo       0x00000000       0x18 obj-tmp\Hashes.o
 .pdr           0x00000000        0x0 obj-tmp\Hashes.o
 .reginfo       0x00000000       0x18 obj-tmp\Helpers.o
 .pdr           0x00000000      0x200 obj-tmp\Helpers.o
 .reginfo       0x00000000       0x18 obj-tmp\HTTP2.o
 .pdr           0x00000000      0x1e0 obj-tmp\HTTP2.o
 .reginfo       0x00000000       0x18 obj-tmp\ICMP.o
 .pdr           0x00000000       0x20 obj-tmp\ICMP.o
 .reginfo       0x00000000       0x18 obj-tmp\IP.o
 .pdr           0x00000000       0x80 obj-tmp\IP.o
 .reginfo       0x00000000       0x18 obj-tmp\LCDBlocking.o
 .pdr           0x00000000        0x0 obj-tmp\LCDBlocking.o
 .reginfo       0x00000000       0x18 obj-tmp\MPFS2.o
 .pdr           0x00000000      0x280 obj-tmp\MPFS2.o
 .reginfo       0x00000000       0x18 obj-tmp\NBNS.o
 .pdr           0x00000000       0x60 obj-tmp\NBNS.o
 .reginfo       0x00000000       0x18 obj-tmp\Random.o
 .pdr           0x00000000        0x0 obj-tmp\Random.o
 .reginfo       0x00000000       0x18 obj-tmp\Reboot.o
 .pdr           0x00000000       0x20 obj-tmp\Reboot.o
 .reginfo       0x00000000       0x18 obj-tmp\RSA.o
 .pdr           0x00000000        0x0 obj-tmp\RSA.o
 .reginfo       0x00000000       0x18 obj-tmp\SMTP.o
 .pdr           0x00000000        0x0 obj-tmp\SMTP.o
 .reginfo       0x00000000       0x18 obj-tmp\SNMP.o
 .pdr           0x00000000        0x0 obj-tmp\SNMP.o
 .reginfo       0x00000000       0x18 obj-tmp\SNMPv3.o
 .pdr           0x00000000        0x0 obj-tmp\SNMPv3.o
 .reginfo       0x00000000       0x18 obj-tmp\SNMPv3USM.o
 .pdr           0x00000000        0x0 obj-tmp\SNMPv3USM.o
 .reginfo       0x00000000       0x18 obj-tmp\SNTP.o
 .pdr           0x00000000        0x0 obj-tmp\SNTP.o
 .reginfo       0x00000000       0x18 obj-tmp\SPIEEPROM.o
 .pdr           0x00000000        0x0 obj-tmp\SPIEEPROM.o
 .reginfo       0x00000000       0x18 obj-tmp\SPIFlash.o
 .pdr           0x00000000      0x100 obj-tmp\SPIFlash.o
 .reginfo       0x00000000       0x18 obj-tmp\SPIRAM.o
 .pdr           0x00000000        0x0 obj-tmp\SPIRAM.o
 .reginfo       0x00000000       0x18 obj-tmp\SSL.o
 .pdr           0x00000000        0x0 obj-tmp\SSL.o
 .reginfo       0x00000000       0x18 obj-tmp\StackTsk.o
 .pdr           0x00000000       0x80 obj-tmp\StackTsk.o
 .reginfo       0x00000000       0x18 obj-tmp\TCP.o
 .pdr           0x00000000      0x420 obj-tmp\TCP.o
 .reginfo       0x00000000       0x18 obj-tmp\TCPPerformanceTest.o
 .pdr           0x00000000        0x0 obj-tmp\TCPPerformanceTest.o
 .reginfo       0x00000000       0x18 obj-tmp\Telnet.o
 .pdr           0x00000000        0x0 obj-tmp\Telnet.o
 .reginfo       0x00000000       0x18 obj-tmp\TFTPc.o
 .pdr           0x00000000        0x0 obj-tmp\TFTPc.o
 .reginfo       0x00000000       0x18 obj-tmp\Tick.o
 .pdr           0x00000000      0x100 obj-tmp\Tick.o
 .reginfo       0x00000000       0x18 obj-tmp\UART.o
 .pdr           0x00000000       0x20 obj-tmp\UART.o
 .reginfo       0x00000000       0x18 obj-tmp\UART2TCPBridge.o
 .pdr           0x00000000        0x0 obj-tmp\UART2TCPBridge.o
 .reginfo       0x00000000       0x18 obj-tmp\UDP.o
 .pdr           0x00000000      0x240 obj-tmp\UDP.o
 .reginfo       0x00000000       0x18 obj-tmp\UDPPerformanceTest.o
 .pdr           0x00000000        0x0 obj-tmp\UDPPerformanceTest.o
 .reginfo       0x00000000       0x18 obj-tmp\ZeroconfHelper.o
 .pdr           0x00000000       0x20 obj-tmp\ZeroconfHelper.o
 .reginfo       0x00000000       0x18 obj-tmp\ZeroconfLinkLocal.o
 .pdr           0x00000000       0xe0 obj-tmp\ZeroconfLinkLocal.o
 .reginfo       0x00000000       0x18 obj-tmp\ZeroconfMulticastDNS.o
 .pdr           0x00000000      0x340 obj-tmp\ZeroconfMulticastDNS.o
 .reginfo       0x00000000       0x18 obj-tmp\WF_Eint.o
 .pdr           0x00000000       0xe0 obj-tmp\WF_Eint.o
 .reginfo       0x00000000       0x18 obj-tmp\WF_pbkdf2.o
 .pdr           0x00000000      0x180 obj-tmp\WF_pbkdf2.o
 .reginfo       0x00000000       0x18 obj-tmp\WFConnectionAlgorithm.o
 .pdr           0x00000000      0x500 obj-tmp\WFConnectionAlgorithm.o
 .reginfo       0x00000000       0x18 obj-tmp\WFConnectionManager.o
 .pdr           0x00000000      0x120 obj-tmp\WFConnectionManager.o
 .reginfo       0x00000000       0x18 obj-tmp\WFConnectionProfile.o
 .pdr           0x00000000      0x320 obj-tmp\WFConnectionProfile.o
 .reginfo       0x00000000       0x18 obj-tmp\WFConsole.o
 .pdr           0x00000000        0x0 obj-tmp\WFConsole.o
 .reginfo       0x00000000       0x18 obj-tmp\WFConsoleIfconfig.o
 .pdr           0x00000000        0x0 obj-tmp\WFConsoleIfconfig.o
 .reginfo       0x00000000       0x18 obj-tmp\WFConsoleIwconfig.o
 .pdr           0x00000000        0x0 obj-tmp\WFConsoleIwconfig.o
 .reginfo       0x00000000       0x18 obj-tmp\WFConsoleIwpriv.o
 .pdr           0x00000000        0x0 obj-tmp\WFConsoleIwpriv.o
 .reginfo       0x00000000       0x18 obj-tmp\WFConsoleMsgHandler.o
 .pdr           0x00000000       0x20 obj-tmp\WFConsoleMsgHandler.o
 .reginfo       0x00000000       0x18 obj-tmp\WFConsoleMsgs.o
 .pdr           0x00000000       0x40 obj-tmp\WFConsoleMsgs.o
 .reginfo       0x00000000       0x18 obj-tmp\WFDataTxRx.o
 .pdr           0x00000000        0x0 obj-tmp\WFDataTxRx.o
 .reginfo       0x00000000       0x18 obj-tmp\WFDebugStrings.o
 .pdr           0x00000000      0x180 obj-tmp\WFDebugStrings.o
 .reginfo       0x00000000       0x18 obj-tmp\WFEasyConfig.o
 .pdr           0x00000000      0x100 obj-tmp\WFEasyConfig.o
 .reginfo       0x00000000       0x18 obj-tmp\WFEventHandler.o
 .pdr           0x00000000       0x60 obj-tmp\WFEventHandler.o
 .reginfo       0x00000000       0x18 obj-tmp\WFInit.o
 .pdr           0x00000000       0x40 obj-tmp\WFInit.o
 .reginfo       0x00000000       0x18 obj-tmp\WFPowerSave.o
 .pdr           0x00000000      0x1e0 obj-tmp\WFPowerSave.o
 .reginfo       0x00000000       0x18 obj-tmp\WFScan.o
 .pdr           0x00000000       0x60 obj-tmp\WFScan.o
 .reginfo       0x00000000       0x18 obj-tmp\WFTxPower.o
 .pdr           0x00000000       0x60 obj-tmp\WFTxPower.o
 .reginfo       0x00000000       0x18 obj-tmp\WF_Spi.o
 .pdr           0x00000000       0xa0 obj-tmp\WF_Spi.o
 .reginfo       0x00000000       0x18 obj-tmp\WFDriverCom_24G.o
 .pdr           0x00000000      0x2e0 obj-tmp\WFDriverCom_24G.o
 .reginfo       0x00000000       0x18 obj-tmp\WFDriverRaw_24G.o
 .pdr           0x00000000      0x2a0 obj-tmp\WFDriverRaw_24G.o
 .reginfo       0x00000000       0x18 obj-tmp\WFMac_24G.o
 .pdr           0x00000000      0x3e0 obj-tmp\WFMac_24G.o
 .reginfo       0x00000000       0x18 obj-tmp\WFMgmtMsg_24G.o
 .pdr           0x00000000       0xa0 obj-tmp\WFMgmtMsg_24G.o
 .reginfo       0x00000000       0x18 obj-tmp\WFParamMsg_24G.o
 .pdr           0x00000000      0x300 obj-tmp\WFParamMsg_24G.o
 .reginfo       0x00000000       0x18 obj-tmp\DHCP.o
 .pdr           0x00000000      0x160 obj-tmp\DHCP.o
 .reginfo       0x00000000       0x18 obj-tmp\DHCPs.o
 .pdr           0x00000000      0x1c0 obj-tmp\DHCPs.o
 .reginfo       0x00000000       0x18 c:/program files (x86)/microchip/mplabc32/v2.02/bin/../lib/gcc/pic32mx/4.5.1\libgcc.a(_udivdi3.o)
 .pdr           0x00000000       0x20 c:/program files (x86)/microchip/mplabc32/v2.02/bin/../lib/gcc/pic32mx/4.5.1\libgcc.a(_udivdi3.o)
 .reginfo       0x00000000       0x18 c:/program files (x86)/microchip/mplabc32/v2.02/bin/../lib/gcc/pic32mx/4.5.1\libgcc.a(_umoddi3.o)
 .pdr           0x00000000       0x20 c:/program files (x86)/microchip/mplabc32/v2.02/bin/../lib/gcc/pic32mx/4.5.1\libgcc.a(_umoddi3.o)
 .reginfo       0x00000000       0x18 c:/program files (x86)/microchip/mplabc32/v2.02/bin/../lib/gcc/pic32mx/4.5.1/../../../../pic32mx/lib\libc.a(memcmp.o)
 .pdr           0x00000000       0x20 c:/program files (x86)/microchip/mplabc32/v2.02/bin/../lib/gcc/pic32mx/4.5.1/../../../../pic32mx/lib\libc.a(memcmp.o)
 .reginfo       0x00000000       0x18 c:/program files (x86)/microchip/mplabc32/v2.02/bin/../lib/gcc/pic32mx/4.5.1/../../../../pic32mx/lib\libc.a(memcpy.o)
 .pdr           0x00000000       0x20 c:/program files (x86)/microchip/mplabc32/v2.02/bin/../lib/gcc/pic32mx/4.5.1/../../../../pic32mx/lib\libc.a(memcpy.o)
 .reginfo       0x00000000       0x18 c:/program files (x86)/microchip/mplabc32/v2.02/bin/../lib/gcc/pic32mx/4.5.1/../../../../pic32mx/lib\libc.a(memset.o)
 .pdr           0x00000000       0x20 c:/program files (x86)/microchip/mplabc32/v2.02/bin/../lib/gcc/pic32mx/4.5.1/../../../../pic32mx/lib\libc.a(memset.o)
 .reginfo       0x00000000       0x18 c:/program files (x86)/microchip/mplabc32/v2.02/bin/../lib/gcc/pic32mx/4.5.1/../../../../pic32mx/lib\libc.a(strcmp.o)
 .pdr           0x00000000       0x20 c:/program files (x86)/microchip/mplabc32/v2.02/bin/../lib/gcc/pic32mx/4.5.1/../../../../pic32mx/lib\libc.a(strcmp.o)
 .reginfo       0x00000000       0x18 c:/program files (x86)/microchip/mplabc32/v2.02/bin/../lib/gcc/pic32mx/4.5.1/../../../../pic32mx/lib\libc.a(strcpy.o)
 .pdr           0x00000000       0x20 c:/program files (x86)/microchip/mplabc32/v2.02/bin/../lib/gcc/pic32mx/4.5.1/../../../../pic32mx/lib\libc.a(strcpy.o)
 .reginfo       0x00000000       0x18 c:/program files (x86)/microchip/mplabc32/v2.02/bin/../lib/gcc/pic32mx/4.5.1/../../../../pic32mx/lib\libc.a(strlen.o)
 .pdr           0x00000000       0x20 c:/program files (x86)/microchip/mplabc32/v2.02/bin/../lib/gcc/pic32mx/4.5.1/../../../../pic32mx/lib\libc.a(strlen.o)
 .reginfo       0x00000000       0x18 c:/program files (x86)/microchip/mplabc32/v2.02/bin/../lib/gcc/pic32mx/4.5.1/../../../../pic32mx/lib\libc.a(general-exception.o)
 .pdr           0x00000000       0x20 c:/program files (x86)/microchip/mplabc32/v2.02/bin/../lib/gcc/pic32mx/4.5.1/../../../../pic32mx/lib\libc.a(general-exception.o)
 .reginfo       0x00000000       0x18 c:/program files (x86)/microchip/mplabc32/v2.02/bin/../lib/gcc/pic32mx/4.5.1/../../../../pic32mx/lib\libc.a(atol.o)
 .pdr           0x00000000       0x20 c:/program files (x86)/microchip/mplabc32/v2.02/bin/../lib/gcc/pic32mx/4.5.1/../../../../pic32mx/lib\libc.a(atol.o)
 .reginfo       0x00000000       0x18 c:/program files (x86)/microchip/mplabc32/v2.02/bin/../lib/gcc/pic32mx/4.5.1/../../../../pic32mx/lib\libc.a(ctype.o)
 .pdr           0x00000000        0x0 c:/program files (x86)/microchip/mplabc32/v2.02/bin/../lib/gcc/pic32mx/4.5.1/../../../../pic32mx/lib\libc.a(ctype.o)
 .reginfo       0x00000000       0x18 c:/program files (x86)/microchip/mplabc32/v2.02/bin/../lib/gcc/pic32mx/4.5.1/../../../../pic32mx/lib\libc.a(puts.o)
 .pdr           0x00000000       0x40 c:/program files (x86)/microchip/mplabc32/v2.02/bin/../lib/gcc/pic32mx/4.5.1/../../../../pic32mx/lib\libc.a(puts.o)
 .reginfo       0x00000000       0x18 c:/program files (x86)/microchip/mplabc32/v2.02/bin/../lib/gcc/pic32mx/4.5.1/../../../../pic32mx/lib\libc.a(strncpy.o)
 .pdr           0x00000000       0x20 c:/program files (x86)/microchip/mplabc32/v2.02/bin/../lib/gcc/pic32mx/4.5.1/../../../../pic32mx/lib\libc.a(strncpy.o)
 .reginfo       0x00000000       0x18 c:/program files (x86)/microchip/mplabc32/v2.02/bin/../lib/gcc/pic32mx/4.5.1/../../../../pic32mx/lib\libc.a(printf_cdnopsuxX.eo)
 .pdr           0x00000000       0x20 c:/program files (x86)/microchip/mplabc32/v2.02/bin/../lib/gcc/pic32mx/4.5.1/../../../../pic32mx/lib\libc.a(printf_cdnopsuxX.eo)
 .reginfo       0x00000000       0x18 c:/program files (x86)/microchip/mplabc32/v2.02/bin/../lib/gcc/pic32mx/4.5.1/../../../../pic32mx/lib\libc.a(sprintf_cdnopsuxX.eo)
 .pdr           0x00000000       0x20 c:/program files (x86)/microchip/mplabc32/v2.02/bin/../lib/gcc/pic32mx/4.5.1/../../../../pic32mx/lib\libc.a(sprintf_cdnopsuxX.eo)
 .reginfo       0x00000000       0x18 c:/program files (x86)/microchip/mplabc32/v2.02/bin/../lib/gcc/pic32mx/4.5.1/../../../../pic32mx/lib\libc.a(default-bootstrap-exception-handler.o)
 .pdr           0x00000000       0x20 c:/program files (x86)/microchip/mplabc32/v2.02/bin/../lib/gcc/pic32mx/4.5.1/../../../../pic32mx/lib\libc.a(default-bootstrap-exception-handler.o)
 .reginfo       0x00000000       0x18 c:/program files (x86)/microchip/mplabc32/v2.02/bin/../lib/gcc/pic32mx/4.5.1/../../../../pic32mx/lib\libc.a(default-on-reset.o)
 .pdr           0x00000000       0x20 c:/program files (x86)/microchip/mplabc32/v2.02/bin/../lib/gcc/pic32mx/4.5.1/../../../../pic32mx/lib\libc.a(default-on-reset.o)
 .reginfo       0x00000000       0x18 c:/program files (x86)/microchip/mplabc32/v2.02/bin/../lib/gcc/pic32mx/4.5.1/../../../../pic32mx/lib\libc.a(default-on-bootstrap.o)
 .pdr           0x00000000       0x20 c:/program files (x86)/microchip/mplabc32/v2.02/bin/../lib/gcc/pic32mx/4.5.1/../../../../pic32mx/lib\libc.a(default-on-bootstrap.o)
 .reginfo       0x00000000       0x18 c:/program files (x86)/microchip/mplabc32/v2.02/bin/../lib/gcc/pic32mx/4.5.1/../../../../pic32mx/lib\libc.a(default-nmi-handler.o)
 .pdr           0x00000000       0x20 c:/program files (x86)/microchip/mplabc32/v2.02/bin/../lib/gcc/pic32mx/4.5.1/../../../../pic32mx/lib\libc.a(default-nmi-handler.o)
 .reginfo       0x00000000       0x18 c:/program files (x86)/microchip/mplabc32/v2.02/bin/../lib/gcc/pic32mx/4.5.1/../../../../pic32mx/lib\libc.a(_iob.o)
 .pdr           0x00000000        0x0 c:/program files (x86)/microchip/mplabc32/v2.02/bin/../lib/gcc/pic32mx/4.5.1/../../../../pic32mx/lib\libc.a(_iob.o)
 .reginfo       0x00000000       0x18 c:/program files (x86)/microchip/mplabc32/v2.02/bin/../lib/gcc/pic32mx/4.5.1/../../../../pic32mx/lib\libc.a(_fputc_simple.o)
 .pdr           0x00000000       0x20 c:/program files (x86)/microchip/mplabc32/v2.02/bin/../lib/gcc/pic32mx/4.5.1/../../../../pic32mx/lib\libc.a(_fputc_simple.o)
 .reginfo       0x00000000       0x18 c:/program files (x86)/microchip/mplabc32/v2.02/bin/../lib/gcc/pic32mx/4.5.1/../../../../pic32mx/lib\libc.a(doprnt_cdnopsuxX.eo)
 .pdr           0x00000000       0x20 c:/program files (x86)/microchip/mplabc32/v2.02/bin/../lib/gcc/pic32mx/4.5.1/../../../../pic32mx/lib\libc.a(doprnt_cdnopsuxX.eo)
 .reginfo       0x00000000       0x18 c:/program files (x86)/microchip/mplabc32/v2.02/bin/../lib/gcc/pic32mx/4.5.1/../../../../pic32mx/lib\libc.a(write.o)
 .pdr           0x00000000       0x20 c:/program files (x86)/microchip/mplabc32/v2.02/bin/../lib/gcc/pic32mx/4.5.1/../../../../pic32mx/lib\libc.a(write.o)
 .reginfo       0x00000000       0x18 c:/program files (x86)/microchip/mplabc32/v2.02/bin/../lib/gcc/pic32mx/4.5.1/../../../../pic32mx/lib\libc.a(_flsbuf_simple.o)
 .pdr           0x00000000       0x20 c:/program files (x86)/microchip/mplabc32/v2.02/bin/../lib/gcc/pic32mx/4.5.1/../../../../pic32mx/lib\libc.a(_flsbuf_simple.o)
 .reginfo       0x00000000       0x18 c:/program files (x86)/microchip/mplabc32/v2.02/bin/../lib/gcc/pic32mx/4.5.1/../../../../pic32mx/lib\libc.a(_mon_putc.o)
 .pdr           0x00000000       0x20 c:/program files (x86)/microchip/mplabc32/v2.02/bin/../lib/gcc/pic32mx/4.5.1/../../../../pic32mx/lib\libc.a(_mon_putc.o)
 .reginfo       0x00000000       0x18 c:/program files (x86)/microchip/mplabc32/v2.02/bin/../lib/gcc/pic32mx/4.5.1/../../../../pic32mx/lib\libc.a(c32_uart.o)
 .pdr           0x00000000        0x0 c:/program files (x86)/microchip/mplabc32/v2.02/bin/../lib/gcc/pic32mx/4.5.1/../../../../pic32mx/lib\libc.a(c32_uart.o)
 .reginfo       0x00000000       0x18 c:/program files (x86)/microchip/mplabc32/v2.02/bin/../lib/gcc/pic32mx/4.5.1/../../../../pic32mx/lib\libmchp_peripheral_32MX575F256L.a(soft_reset_lib.o)
 .pdr           0x00000000       0x20 c:/program files (x86)/microchip/mplabc32/v2.02/bin/../lib/gcc/pic32mx/4.5.1/../../../../pic32mx/lib\libmchp_peripheral_32MX575F256L.a(soft_reset_lib.o)
 .reginfo       0x00000000       0x18 c:/program files (x86)/microchip/mplabc32/v2.02/bin/../lib/gcc/pic32mx/4.5.1/../../../../pic32mx/lib\libmchp_peripheral_32MX575F256L.a(pcache.o)
 .pdr           0x00000000       0x40 c:/program files (x86)/microchip/mplabc32/v2.02/bin/../lib/gcc/pic32mx/4.5.1/../../../../pic32mx/lib\libmchp_peripheral_32MX575F256L.a(pcache.o)
 .reginfo       0x00000000       0x18 c:/program files (x86)/microchip/mplabc32/v2.02/bin/../lib/gcc/pic32mx/4.5.1/../../../../pic32mx/lib\libmchp_peripheral_32MX575F256L.a(int_disable_interrupts_lib.o)
 .pdr           0x00000000       0x20 c:/program files (x86)/microchip/mplabc32/v2.02/bin/../lib/gcc/pic32mx/4.5.1/../../../../pic32mx/lib\libmchp_peripheral_32MX575F256L.a(int_disable_interrupts_lib.o)
 .reginfo       0x00000000       0x18 c:/program files (x86)/microchip/mplabc32/v2.02/bin/../lib/gcc/pic32mx/4.5.1/../../../../pic32mx/lib\libmchp_peripheral_32MX575F256L.a(int_restore_interrupts_lib.o)
 .pdr           0x00000000       0x20 c:/program files (x86)/microchip/mplabc32/v2.02/bin/../lib/gcc/pic32mx/4.5.1/../../../../pic32mx/lib\libmchp_peripheral_32MX575F256L.a(int_restore_interrupts_lib.o)
 .reginfo       0x00000000       0x18 c:/program files (x86)/microchip/mplabc32/v2.02/bin/../lib/gcc/pic32mx/4.5.1/../../../../pic32mx/lib\libmchp_peripheral_32MX575F256L.a(int_enable_mv_int_lib.o)
 .pdr           0x00000000       0x20 c:/program files (x86)/microchip/mplabc32/v2.02/bin/../lib/gcc/pic32mx/4.5.1/../../../../pic32mx/lib\libmchp_peripheral_32MX575F256L.a(int_enable_mv_int_lib.o)
 .reginfo       0x00000000       0x18 c:/program files (x86)/microchip/mplabc32/v2.02/bin/../lib/gcc/pic32mx/4.5.1/../../../../pic32mx/lib\libmchp_peripheral_32MX575F256L.a(uart_lib.o)
 .pdr           0x00000000      0x100 c:/program files (x86)/microchip/mplabc32/v2.02/bin/../lib/gcc/pic32mx/4.5.1/../../../../pic32mx/lib\libmchp_peripheral_32MX575F256L.a(uart_lib.o)
 .reginfo       0x00000000       0x18 c:/program files (x86)/microchip/mplabc32/v2.02/bin/../lib/gcc/pic32mx/4.5.1/../../../../pic32mx/lib\libmchp_peripheral_32MX575F256L.a(puts_uartx_lib_legacy.o)
 .pdr           0x00000000       0x40 c:/program files (x86)/microchip/mplabc32/v2.02/bin/../lib/gcc/pic32mx/4.5.1/../../../../pic32mx/lib\libmchp_peripheral_32MX575F256L.a(puts_uartx_lib_legacy.o)
 .reginfo       0x00000000       0x18 c:/program files (x86)/microchip/mplabc32/v2.02/bin/../lib/gcc/pic32mx/4.5.1/../../../../pic32mx/lib\libmchp_peripheral_32MX575F256L.a(int_enable_interrupts_lib.o)
 .pdr           0x00000000       0x20 c:/program files (x86)/microchip/mplabc32/v2.02/bin/../lib/gcc/pic32mx/4.5.1/../../../../pic32mx/lib\libmchp_peripheral_32MX575F256L.a(int_enable_interrupts_lib.o)
 .reginfo       0x00000000       0x18 c:/program files (x86)/microchip/mplabc32/v2.02/bin/../lib/gcc/pic32mx/4.5.1/../../../../pic32mx/lib/./proc/32MX575F256L\processor.o
 .pdr           0x00000000        0x0 c:/program files (x86)/microchip/mplabc32/v2.02/bin/../lib/gcc/pic32mx/4.5.1/../../../../pic32mx/lib/./proc/32MX575F256L\processor.o

Memory Configuration

Name             Origin             Length             Attributes
kseg0_program_mem 0x9d000000         0x00040000         xr
kseg0_boot_mem   0x9fc00490         0x00000970
exception_mem    0x9fc01000         0x00001000
kseg1_boot_mem   0xbfc00000         0x00000490
debug_exec_mem   0xbfc02000         0x00000ff0
config3          0xbfc02ff0         0x00000004
config2          0xbfc02ff4         0x00000004
config1          0xbfc02ff8         0x00000004
config0          0xbfc02ffc         0x00000004
kseg1_data_mem   0xa0000000         0x00010000         w !x
sfrs             0xbf800000         0x00100000
configsfrs       0xbfc02ff0         0x00000010
*default*        0x00000000         0xffffffff

Linker script and memory map

LOAD c:/program files (x86)/microchip/mplabc32/v2.02/bin/../lib/gcc/pic32mx/4.5.1/../../../../pic32mx/lib/crt0.o
LOAD obj-tmp\Main.o
LOAD obj-tmp\CustomHTTPApp.o
LOAD obj-tmp\WF_Config.o
LOAD obj-tmp\WifiGDemoMPFSImg.o
LOAD obj-tmp\Announce.o
LOAD obj-tmp\ARCFOUR.o
LOAD obj-tmp\ARP.o
LOAD obj-tmp\AutoIP.o
LOAD obj-tmp\BerkeleyAPI.o
LOAD obj-tmp\BigInt.o
LOAD obj-tmp\BigInt_helper_PIC32.o
LOAD obj-tmp\Delay.o
LOAD obj-tmp\DNS.o
LOAD obj-tmp\DNSs.o
LOAD obj-tmp\DynDNS.o
LOAD obj-tmp\ENC28J60.o
LOAD obj-tmp\ENCX24J600.o
LOAD obj-tmp\eth_pic32_ext_phy_rtl8201FL.o
LOAD obj-tmp\ETH97J60.o
LOAD obj-tmp\ETHPIC32ExtPhy.o
LOAD obj-tmp\ETHPIC32ExtPhyDP83640.o
LOAD obj-tmp\ETHPIC32ExtPhyDP83848.o
LOAD obj-tmp\ETHPIC32ExtPhySMSC8700.o
LOAD obj-tmp\ETHPIC32ExtPhySMSC8720.o
LOAD obj-tmp\ETHPIC32IntMac.o
LOAD obj-tmp\FileSystem.o
LOAD obj-tmp\FTP.o
LOAD obj-tmp\Hashes.o
LOAD obj-tmp\Helpers.o
LOAD obj-tmp\HTTP2.o
LOAD obj-tmp\ICMP.o
LOAD obj-tmp\IP.o
LOAD obj-tmp\LCDBlocking.o
LOAD obj-tmp\MPFS2.o
LOAD obj-tmp\NBNS.o
LOAD obj-tmp\Random.o
LOAD obj-tmp\Reboot.o
LOAD obj-tmp\RSA.o
LOAD obj-tmp\SMTP.o
LOAD obj-tmp\SNMP.o
LOAD obj-tmp\SNMPv3.o
LOAD obj-tmp\SNMPv3USM.o
LOAD obj-tmp\SNTP.o
LOAD obj-tmp\SPIEEPROM.o
LOAD obj-tmp\SPIFlash.o
LOAD obj-tmp\SPIRAM.o
LOAD obj-tmp\SSL.o
LOAD obj-tmp\StackTsk.o
LOAD obj-tmp\TCP.o
LOAD obj-tmp\TCPPerformanceTest.o
LOAD obj-tmp\Telnet.o
LOAD obj-tmp\TFTPc.o
LOAD obj-tmp\Tick.o
LOAD obj-tmp\UART.o
LOAD obj-tmp\UART2TCPBridge.o
LOAD obj-tmp\UDP.o
LOAD obj-tmp\UDPPerformanceTest.o
LOAD obj-tmp\ZeroconfHelper.o
LOAD obj-tmp\ZeroconfLinkLocal.o
LOAD obj-tmp\ZeroconfMulticastDNS.o
LOAD obj-tmp\WF_Eint.o
LOAD obj-tmp\WF_pbkdf2.o
LOAD obj-tmp\WFConnectionAlgorithm.o
LOAD obj-tmp\WFConnectionManager.o
LOAD obj-tmp\WFConnectionProfile.o
LOAD obj-tmp\WFConsole.o
LOAD obj-tmp\WFConsoleIfconfig.o
LOAD obj-tmp\WFConsoleIwconfig.o
LOAD obj-tmp\WFConsoleIwpriv.o
LOAD obj-tmp\WFConsoleMsgHandler.o
LOAD obj-tmp\WFConsoleMsgs.o
LOAD obj-tmp\WFDataTxRx.o
LOAD obj-tmp\WFDebugStrings.o
LOAD obj-tmp\WFEasyConfig.o
LOAD obj-tmp\WFEventHandler.o
LOAD obj-tmp\WFInit.o
LOAD obj-tmp\WFPowerSave.o
LOAD obj-tmp\WFScan.o
LOAD obj-tmp\WFTxPower.o
LOAD obj-tmp\WF_Spi.o
LOAD obj-tmp\WFDriverCom_24G.o
LOAD obj-tmp\WFDriverRaw_24G.o
LOAD obj-tmp\WFMac_24G.o
LOAD obj-tmp\WFMgmtMsg_24G.o
LOAD obj-tmp\WFParamMsg_24G.o
LOAD obj-tmp\DHCP.o
LOAD obj-tmp\DHCPs.o
                0x00000001                __MPLAB_BUILD = 0x1
LOAD c:/program files (x86)/microchip/mplabc32/v2.02/bin/../lib/gcc/pic32mx/4.5.1\libgcc.a
START GROUP
LOAD c:/program files (x86)/microchip/mplabc32/v2.02/bin/../lib/gcc/pic32mx/4.5.1/../../../../pic32mx/lib\libdebug.a
LOAD c:/program files (x86)/microchip/mplabc32/v2.02/bin/../lib/gcc/pic32mx/4.5.1/../../../../pic32mx/lib\libc.a
LOAD c:/program files (x86)/microchip/mplabc32/v2.02/bin/../lib/gcc/pic32mx/4.5.1/../../../../pic32mx/lib\libm.a
LOAD c:/program files (x86)/microchip/mplabc32/v2.02/bin/../lib/gcc/pic32mx/4.5.1/../../../../pic32mx/lib\libe.a
LOAD c:/program files (x86)/microchip/mplabc32/v2.02/bin/../lib/gcc/pic32mx/4.5.1/../../../../pic32mx/lib\libdsp.a
LOAD c:/program files (x86)/microchip/mplabc32/v2.02/bin/../lib/gcc/pic32mx/4.5.1/../../../../pic32mx/lib\libmchp_peripheral.a
LOAD c:/program files (x86)/microchip/mplabc32/v2.02/bin/../lib/gcc/pic32mx/4.5.1/../../../../pic32mx/lib\libmchp_peripheral_32MX575F256L.a
END GROUP
LOAD c:/program files (x86)/microchip/mplabc32/v2.02/bin/../lib/gcc/pic32mx/4.5.1\libgcc.a
                0x00000400                PROVIDE (_min_stack_size, 0x400)
                0x00000000                PROVIDE (_min_heap_size, 0x0)
LOAD c:/program files (x86)/microchip/mplabc32/v2.02/bin/../lib/gcc/pic32mx/4.5.1/../../../../pic32mx/lib/./proc/32MX575F256L\processor.o
                0x00000001                PROVIDE (_vector_spacing, 0x1)
                0x9fc01000                _ebase_address = 0x9fc01000
                0xbfc00000                _RESET_ADDR = 0xbfc00000
                0xbfc00380                _BEV_EXCPT_ADDR = 0xbfc00380
                0xbfc00480                _DBG_EXCPT_ADDR = 0xbfc00480
                0xbfc02000                _DBG_CODE_ADDR = 0xbfc02000
                0x00000ff0                _DBG_CODE_SIZE = 0xff0
                0x9fc01180                _GEN_EXCPT_ADDR = (_ebase_address + 0x180)

.config_BFC02FF0
 *(.config_BFC02FF0)

.config_BFC02FF4
                0xbfc02ff4        0x4
 *(.config_BFC02FF4)
 .config_BFC02FF4
                0xbfc02ff4        0x4 obj-tmp\Main.o

.config_BFC02FF8
                0xbfc02ff8        0x4
 *(.config_BFC02FF8)
 .config_BFC02FF8
                0xbfc02ff8        0x4 obj-tmp\Main.o

.config_BFC02FFC
                0xbfc02ffc        0x4
 *(.config_BFC02FFC)
 .config_BFC02FFC
                0xbfc02ffc        0x4 obj-tmp\Main.o
                0xbfc02000                PROVIDE (_DBG_CODE_ADDR, 0xbfc02000)
                0x00000ff0                PROVIDE (_DBG_CODE_SIZE, 0xff0)

.reset          0xbfc00000      0x1f4
 *(.reset)
 .reset         0xbfc00000       0x10 c:/program files (x86)/microchip/mplabc32/v2.02/bin/../lib/gcc/pic32mx/4.5.1/../../../../pic32mx/lib/crt0.o
                0xbfc00000                _reset
 *(.reset.startup)
 .reset.startup
                0xbfc00010      0x1e4 c:/program files (x86)/microchip/mplabc32/v2.02/bin/../lib/gcc/pic32mx/4.5.1/../../../../pic32mx/lib/crt0.o

.bev_excpt      0xbfc00380       0x10
 *(.bev_handler)
 .bev_handler   0xbfc00380       0x10 c:/program files (x86)/microchip/mplabc32/v2.02/bin/../lib/gcc/pic32mx/4.5.1/../../../../pic32mx/lib/crt0.o

.dbg_excpt      0xbfc00480        0x0
                0xbfc00480                . = (. + DEFINED (_DEBUGGER)?0x8:0x0)

.dbg_code       0xbfc02000        0x0
                0xbfc02000                . = (. + DEFINED (_DEBUGGER)?_DBG_CODE_SIZE:0x0)

.app_excpt      0x9fc01180       0x10
 *(.gen_handler)
 .gen_handler   0x9fc01180       0x10 c:/program files (x86)/microchip/mplabc32/v2.02/bin/../lib/gcc/pic32mx/4.5.1/../../../../pic32mx/lib/crt0.o

.vector_0       0x9fc01200        0x0
 *(.vector_0)
                0x00000001                ASSERT (((_vector_spacing == 0x0) || (SIZEOF (.vector_0) <= (_vector_spacing << 0x5))), function at exception vector 0 too large)

.vector_1       0x9fc01220        0x0
 *(.vector_1)
                0x00000001                ASSERT (((_vector_spacing == 0x0) || (SIZEOF (.vector_1) <= (_vector_spacing << 0x5))), function at exception vector 1 too large)

.vector_2       0x9fc01240        0x0
 *(.vector_2)
                0x00000001                ASSERT (((_vector_spacing == 0x0) || (SIZEOF (.vector_2) <= (_vector_spacing << 0x5))), function at exception vector 2 too large)

.vector_3       0x9fc01260        0x0
 *(.vector_3)
                0x00000001                ASSERT (((_vector_spacing == 0x0) || (SIZEOF (.vector_3) <= (_vector_spacing << 0x5))), function at exception vector 3 too large)

.vector_4       0x9fc01280        0x8
 *(.vector_4)
 .vector_4      0x9fc01280        0x8 obj-tmp\Tick.o
                0x00000001                ASSERT (((_vector_spacing == 0x0) || (SIZEOF (.vector_4) <= (_vector_spacing << 0x5))), function at exception vector 4 too large)

.vector_5       0x9fc012a0        0x0
 *(.vector_5)
                0x00000001                ASSERT (((_vector_spacing == 0x0) || (SIZEOF (.vector_5) <= (_vector_spacing << 0x5))), function at exception vector 5 too large)

.vector_6       0x9fc012c0        0x0
 *(.vector_6)
                0x00000001                ASSERT (((_vector_spacing == 0x0) || (SIZEOF (.vector_6) <= (_vector_spacing << 0x5))), function at exception vector 6 too large)

.vector_7       0x9fc012e0        0x0
 *(.vector_7)
                0x00000001                ASSERT (((_vector_spacing == 0x0) || (SIZEOF (.vector_7) <= (_vector_spacing << 0x5))), function at exception vector 7 too large)

.vector_8       0x9fc01300        0x0
 *(.vector_8)
                0x00000001                ASSERT (((_vector_spacing == 0x0) || (SIZEOF (.vector_8) <= (_vector_spacing << 0x5))), function at exception vector 8 too large)

.vector_9       0x9fc01320        0x0
 *(.vector_9)
                0x00000001                ASSERT (((_vector_spacing == 0x0) || (SIZEOF (.vector_9) <= (_vector_spacing << 0x5))), function at exception vector 9 too large)

.vector_10      0x9fc01340        0x0
 *(.vector_10)
                0x00000001                ASSERT (((_vector_spacing == 0x0) || (SIZEOF (.vector_10) <= (_vector_spacing << 0x5))), function at exception vector 10 too large)

.vector_11      0x9fc01360        0x0
 *(.vector_11)
                0x00000001                ASSERT (((_vector_spacing == 0x0) || (SIZEOF (.vector_11) <= (_vector_spacing << 0x5))), function at exception vector 11 too large)

.vector_12      0x9fc01380        0x0
 *(.vector_12)
                0x00000001                ASSERT (((_vector_spacing == 0x0) || (SIZEOF (.vector_12) <= (_vector_spacing << 0x5))), function at exception vector 12 too large)

.vector_13      0x9fc013a0        0x0
 *(.vector_13)
                0x00000001                ASSERT (((_vector_spacing == 0x0) || (SIZEOF (.vector_13) <= (_vector_spacing << 0x5))), function at exception vector 13 too large)

.vector_14      0x9fc013c0        0x0
 *(.vector_14)
                0x00000001                ASSERT (((_vector_spacing == 0x0) || (SIZEOF (.vector_14) <= (_vector_spacing << 0x5))), function at exception vector 14 too large)

.vector_15      0x9fc013e0        0x8
 *(.vector_15)
 .vector_15     0x9fc013e0        0x8 obj-tmp\WF_Eint.o
                0x00000001                ASSERT (((_vector_spacing == 0x0) || (SIZEOF (.vector_15) <= (_vector_spacing << 0x5))), function at exception vector 15 too large)

.vector_16      0x9fc01400        0x0
 *(.vector_16)
                0x00000001                ASSERT (((_vector_spacing == 0x0) || (SIZEOF (.vector_16) <= (_vector_spacing << 0x5))), function at exception vector 16 too large)

.vector_17      0x9fc01420        0x0
 *(.vector_17)
                0x00000001                ASSERT (((_vector_spacing == 0x0) || (SIZEOF (.vector_17) <= (_vector_spacing << 0x5))), function at exception vector 17 too large)

.vector_18      0x9fc01440        0x0
 *(.vector_18)
                0x00000001                ASSERT (((_vector_spacing == 0x0) || (SIZEOF (.vector_18) <= (_vector_spacing << 0x5))), function at exception vector 18 too large)

.vector_19      0x9fc01460        0x0
 *(.vector_19)
                0x00000001                ASSERT (((_vector_spacing == 0x0) || (SIZEOF (.vector_19) <= (_vector_spacing << 0x5))), function at exception vector 19 too large)

.vector_20      0x9fc01480        0x0
 *(.vector_20)
                0x00000001                ASSERT (((_vector_spacing == 0x0) || (SIZEOF (.vector_20) <= (_vector_spacing << 0x5))), function at exception vector 20 too large)

.vector_21      0x9fc014a0        0x0
 *(.vector_21)
                0x00000001                ASSERT (((_vector_spacing == 0x0) || (SIZEOF (.vector_21) <= (_vector_spacing << 0x5))), function at exception vector 21 too large)

.vector_22      0x9fc014c0        0x0
 *(.vector_22)
                0x00000001                ASSERT (((_vector_spacing == 0x0) || (SIZEOF (.vector_22) <= (_vector_spacing << 0x5))), function at exception vector 22 too large)

.vector_23      0x9fc014e0        0x0
 *(.vector_23)
                0x00000001                ASSERT (((_vector_spacing == 0x0) || (SIZEOF (.vector_23) <= (_vector_spacing << 0x5))), function at exception vector 23 too large)

.vector_24      0x9fc01500        0x0
 *(.vector_24)
                0x00000001                ASSERT (((_vector_spacing == 0x0) || (SIZEOF (.vector_24) <= (_vector_spacing << 0x5))), function at exception vector 24 too large)

.vector_25      0x9fc01520        0x0
 *(.vector_25)
                0x00000001                ASSERT (((_vector_spacing == 0x0) || (SIZEOF (.vector_25) <= (_vector_spacing << 0x5))), function at exception vector 25 too large)

.vector_26      0x9fc01540        0x0
 *(.vector_26)
                0x00000001                ASSERT (((_vector_spacing == 0x0) || (SIZEOF (.vector_26) <= (_vector_spacing << 0x5))), function at exception vector 26 too large)

.vector_27      0x9fc01560        0x0
 *(.vector_27)
                0x00000001                ASSERT (((_vector_spacing == 0x0) || (SIZEOF (.vector_27) <= (_vector_spacing << 0x5))), function at exception vector 27 too large)

.vector_28      0x9fc01580        0x0
 *(.vector_28)
                0x00000001                ASSERT (((_vector_spacing == 0x0) || (SIZEOF (.vector_28) <= (_vector_spacing << 0x5))), function at exception vector 28 too large)

.vector_29      0x9fc015a0        0x0
 *(.vector_29)
                0x00000001                ASSERT (((_vector_spacing == 0x0) || (SIZEOF (.vector_29) <= (_vector_spacing << 0x5))), function at exception vector 29 too large)

.vector_30      0x9fc015c0        0x0
 *(.vector_30)
                0x00000001                ASSERT (((_vector_spacing == 0x0) || (SIZEOF (.vector_30) <= (_vector_spacing << 0x5))), function at exception vector 30 too large)

.vector_31      0x9fc015e0        0x0
 *(.vector_31)
                0x00000001                ASSERT (((_vector_spacing == 0x0) || (SIZEOF (.vector_31) <= (_vector_spacing << 0x5))), function at exception vector 31 too large)

.vector_32      0x9fc01600        0x0
 *(.vector_32)
                0x00000001                ASSERT (((_vector_spacing == 0x0) || (SIZEOF (.vector_32) <= (_vector_spacing << 0x5))), function at exception vector 32 too large)

.vector_33      0x9fc01620        0x0
 *(.vector_33)
                0x00000001                ASSERT (((_vector_spacing == 0x0) || (SIZEOF (.vector_33) <= (_vector_spacing << 0x5))), function at exception vector 33 too large)

.vector_34      0x9fc01640        0x0
 *(.vector_34)
                0x00000001                ASSERT (((_vector_spacing == 0x0) || (SIZEOF (.vector_34) <= (_vector_spacing << 0x5))), function at exception vector 34 too large)

.vector_35      0x9fc01660        0x0
 *(.vector_35)
                0x00000001                ASSERT (((_vector_spacing == 0x0) || (SIZEOF (.vector_35) <= (_vector_spacing << 0x5))), function at exception vector 35 too large)

.vector_36      0x9fc01680        0x0
 *(.vector_36)
                0x00000001                ASSERT (((_vector_spacing == 0x0) || (SIZEOF (.vector_36) <= (_vector_spacing << 0x5))), function at exception vector 36 too large)

.vector_37      0x9fc016a0        0x0
 *(.vector_37)
                0x00000001                ASSERT (((_vector_spacing == 0x0) || (SIZEOF (.vector_37) <= (_vector_spacing << 0x5))), function at exception vector 37 too large)

.vector_38      0x9fc016c0        0x0
 *(.vector_38)
                0x00000001                ASSERT (((_vector_spacing == 0x0) || (SIZEOF (.vector_38) <= (_vector_spacing << 0x5))), function at exception vector 38 too large)

.vector_39      0x9fc016e0        0x0
 *(.vector_39)
                0x00000001                ASSERT (((_vector_spacing == 0x0) || (SIZEOF (.vector_39) <= (_vector_spacing << 0x5))), function at exception vector 39 too large)

.vector_40      0x9fc01700        0x0
 *(.vector_40)
                0x00000001                ASSERT (((_vector_spacing == 0x0) || (SIZEOF (.vector_40) <= (_vector_spacing << 0x5))), function at exception vector 40 too large)

.vector_41      0x9fc01720        0x0
 *(.vector_41)
                0x00000001                ASSERT (((_vector_spacing == 0x0) || (SIZEOF (.vector_41) <= (_vector_spacing << 0x5))), function at exception vector 41 too large)

.vector_42      0x9fc01740        0x0
 *(.vector_42)
                0x00000001                ASSERT (((_vector_spacing == 0x0) || (SIZEOF (.vector_42) <= (_vector_spacing << 0x5))), function at exception vector 42 too large)

.vector_43      0x9fc01760        0x0
 *(.vector_43)
                0x00000001                ASSERT (((_vector_spacing == 0x0) || (SIZEOF (.vector_43) <= (_vector_spacing << 0x5))), function at exception vector 43 too large)

.vector_44      0x9fc01780        0x0
 *(.vector_44)
                0x00000001                ASSERT (((_vector_spacing == 0x0) || (SIZEOF (.vector_44) <= (_vector_spacing << 0x5))), function at exception vector 44 too large)

.vector_45      0x9fc017a0        0x0
 *(.vector_45)
                0x00000001                ASSERT (((_vector_spacing == 0x0) || (SIZEOF (.vector_45) <= (_vector_spacing << 0x5))), function at exception vector 45 too large)

.vector_46      0x9fc017c0        0x0
 *(.vector_46)
                0x00000001                ASSERT (((_vector_spacing == 0x0) || (SIZEOF (.vector_46) <= (_vector_spacing << 0x5))), function at exception vector 46 too large)

.vector_47      0x9fc017e0        0x0
 *(.vector_47)
                0x00000001                ASSERT (((_vector_spacing == 0x0) || (SIZEOF (.vector_47) <= (_vector_spacing << 0x5))), function at exception vector 47 too large)

.vector_48      0x9fc01800        0x0
 *(.vector_48)
                0x00000001                ASSERT (((_vector_spacing == 0x0) || (SIZEOF (.vector_48) <= (_vector_spacing << 0x5))), function at exception vector 48 too large)

.vector_49      0x9fc01820        0x0
 *(.vector_49)
                0x00000001                ASSERT (((_vector_spacing == 0x0) || (SIZEOF (.vector_49) <= (_vector_spacing << 0x5))), function at exception vector 49 too large)

.vector_50      0x9fc01840        0x0
 *(.vector_50)
                0x00000001                ASSERT (((_vector_spacing == 0x0) || (SIZEOF (.vector_50) <= (_vector_spacing << 0x5))), function at exception vector 50 too large)

.vector_51      0x9fc01860        0x0
 *(.vector_51)
                0x00000001                ASSERT (((_vector_spacing == 0x0) || (SIZEOF (.vector_51) <= (_vector_spacing << 0x5))), function at exception vector 51 too large)

.vector_52      0x9fc01880        0x0
 *(.vector_52)
                0x00000001                ASSERT (((_vector_spacing == 0x0) || (SIZEOF (.vector_52) <= (_vector_spacing << 0x5))), function at exception vector 52 too large)

.vector_53      0x9fc018a0        0x0
 *(.vector_53)
                0x00000001                ASSERT (((_vector_spacing == 0x0) || (SIZEOF (.vector_53) <= (_vector_spacing << 0x5))), function at exception vector 53 too large)

.vector_54      0x9fc018c0        0x0
 *(.vector_54)
                0x00000001                ASSERT (((_vector_spacing == 0x0) || (SIZEOF (.vector_54) <= (_vector_spacing << 0x5))), function at exception vector 54 too large)

.vector_55      0x9fc018e0        0x0
 *(.vector_55)
                0x00000001                ASSERT (((_vector_spacing == 0x0) || (SIZEOF (.vector_55) <= (_vector_spacing << 0x5))), function at exception vector 55 too large)

.vector_56      0x9fc01900        0x0
 *(.vector_56)
                0x00000001                ASSERT (((_vector_spacing == 0x0) || (SIZEOF (.vector_56) <= (_vector_spacing << 0x5))), function at exception vector 56 too large)

.vector_57      0x9fc01920        0x0
 *(.vector_57)
                0x00000001                ASSERT (((_vector_spacing == 0x0) || (SIZEOF (.vector_57) <= (_vector_spacing << 0x5))), function at exception vector 57 too large)

.vector_58      0x9fc01940        0x0
 *(.vector_58)
                0x00000001                ASSERT (((_vector_spacing == 0x0) || (SIZEOF (.vector_58) <= (_vector_spacing << 0x5))), function at exception vector 58 too large)

.vector_59      0x9fc01960        0x0
 *(.vector_59)
                0x00000001                ASSERT (((_vector_spacing == 0x0) || (SIZEOF (.vector_59) <= (_vector_spacing << 0x5))), function at exception vector 59 too large)

.vector_60      0x9fc01980        0x0
 *(.vector_60)
                0x00000001                ASSERT (((_vector_spacing == 0x0) || (SIZEOF (.vector_60) <= (_vector_spacing << 0x5))), function at exception vector 60 too large)

.vector_61      0x9fc019a0        0x0
 *(.vector_61)
                0x00000001                ASSERT (((_vector_spacing == 0x0) || (SIZEOF (.vector_61) <= (_vector_spacing << 0x5))), function at exception vector 61 too large)

.vector_62      0x9fc019c0        0x0
 *(.vector_62)
                0x00000001                ASSERT (((_vector_spacing == 0x0) || (SIZEOF (.vector_62) <= (_vector_spacing << 0x5))), function at exception vector 62 too large)

.vector_63      0x9fc019e0        0x0
 *(.vector_63)
                0x00000001                ASSERT (((_vector_spacing == 0x0) || (SIZEOF (.vector_63) <= (_vector_spacing << 0x5))), function at exception vector 63 too large)

.startup
 *(.startup)

.text
 *(.stub .gnu.linkonce.t.*)
 *(.text.*personality*)
 *(.mips16.fn.*)
 *(.mips16.call.*)
 *(.gnu.warning)

.rodata         0x9d000000        0x0
 *(.rodata.* .gnu.linkonce.r.*)
 *(.rodata1)
                0x9d000000                . = ALIGN (0x4)

.sdata2         0x9fc00490        0x0
 *(.sdata2 .sdata2.* .gnu.linkonce.s2.*)
                0x9fc00490                . = ALIGN (0x4)

.sbss2          0x9fc00490        0x0
 *(.sbss2 .sbss2.* .gnu.linkonce.sb2.*)
                0x9fc00490                . = ALIGN (0x4)

.eh_frame_hdr
 *(.eh_frame_hdr)

.eh_frame
 *(.eh_frame)

.dbg_data       0xa0000000        0x0
                0xa0000000                . = (. + DEFINED (_DEBUGGER)?0x200:0x0)

.persist        0xa0000000        0x0
                0xa0000000                _persist_begin = .
 *(.persist .persist.*)
                0xa0000000                . = ALIGN (0x4)
                0xa0000000                _persist_end = .

.eh_frame       0xa0000000       0x3c
 *(.eh_frame)
 .eh_frame      0xa0000000       0x28 c:/program files (x86)/microchip/mplabc32/v2.02/bin/../lib/gcc/pic32mx/4.5.1\libgcc.a(_udivdi3.o)
 .eh_frame      0xa0000028       0x14 c:/program files (x86)/microchip/mplabc32/v2.02/bin/../lib/gcc/pic32mx/4.5.1\libgcc.a(_umoddi3.o)
                                 0x28 (size before relaxing)
                0xa000003c                . = .
                0xa0008030                _gp = (ALIGN (0x10) + 0x7ff0)

.got
 *(.got.plt)
 *(.got)

.sdata          0xa000003c       0x48
                0xa000003c                _sdata_begin = .
 *(.sdata .sdata.* .gnu.linkonce.s.*)
 .sdata         0xa000003c        0x1 obj-tmp\Main.o
                0xa000003c                g_prescan_waiting
 *fill*         0xa000003d        0x3 00
 .sdata         0xa0000040        0x4 obj-tmp\CustomHTTPApp.o
 .sdata         0xa0000044        0x8 obj-tmp\DNS.o
 .sdata         0xa000004c        0x1 obj-tmp\DNSs.o
 *fill*         0xa000004d        0x3 00
 .sdata         0xa0000050        0x4 obj-tmp\Helpers.o
 .sdata         0xa0000054        0x1 obj-tmp\Reboot.o
 .sdata         0xa0000055        0x2 obj-tmp\TCP.o
 .sdata         0xa0000057        0x2 obj-tmp\UDP.o
 .sdata         0xa0000059        0x1 obj-tmp\ZeroconfHelper.o
                0xa0000059                zeroconf_dbg_level
 *fill*         0xa000005a        0x2 00
 .sdata         0xa000005c        0x8 obj-tmp\ZeroconfLinkLocal.o
 .sdata         0xa0000064        0x8 obj-tmp\ZeroconfMulticastDNS.o
                0xa0000064                CONST_STR_local
                0xa0000068                mDNS_socket
 .sdata         0xa000006c        0x1 obj-tmp\WFConnectionAlgorithm.o
 .sdata         0xa000006d        0x1 obj-tmp\WFPowerSave.o
 *fill*         0xa000006e        0x2 00
 .sdata         0xa0000070        0xc obj-tmp\DHCPs.o
                0xa0000074                bDHCPServerEnabled
 .sdata         0xa000007c        0x4 c:/program files (x86)/microchip/mplabc32/v2.02/bin/../lib/gcc/pic32mx/4.5.1/../../../../pic32mx/lib\libc.a(_iob.o)
                0xa000007c                _Files
 .sdata         0xa0000080        0x4 c:/program files (x86)/microchip/mplabc32/v2.02/bin/../lib/gcc/pic32mx/4.5.1/../../../../pic32mx/lib\libc.a(c32_uart.o)
                0xa0000080                __C32_UART
                0xa0000084                _sdata_end = .

.lit8
 *(.lit8)

.lit4
 *(.lit4)
                0xa0000084                . = ALIGN (0x4)
                0xa0000084                _data_end = .
                0xa0000084                _bss_begin = .

.sbss           0xa0000084      0x156
                0xa0000084                _sbss_begin = .
 *(.dynsbss)
 *(.sbss .sbss.* .gnu.linkonce.sb.*)
 .sbss          0xa0000084       0x10 obj-tmp\Main.o
                0xa0000086                g_scan_done
 .sbss          0xa0000094        0xc obj-tmp\CustomHTTPApp.o
 .sbss          0xa00000a0        0x8 obj-tmp\Announce.o
 .sbss          0xa00000a8        0x4 obj-tmp\ARP.o
 .sbss          0xa00000ac       0x14 obj-tmp\DNS.o
 .sbss          0xa00000c0        0x1 obj-tmp\DNSs.o
 *fill*         0xa00000c1        0x1 00
 .sbss          0xa00000c2        0x4 obj-tmp\IP.o
 *fill*         0xa00000c6        0x2 00
 .sbss          0xa00000c8        0x8 obj-tmp\MPFS2.o
 .sbss          0xa00000d0        0x8 obj-tmp\NBNS.o
 .sbss          0xa00000d8        0x8 obj-tmp\SPIFlash.o
 .sbss          0xa00000e0       0x10 obj-tmp\StackTsk.o
                0xa00000e4                g_DhcpRenew
                0xa00000e8                g_DhcpRetryTimer
 *fill*         0xa00000f0        0x0 00
 .sbss          0xa00000f0       0x10 obj-tmp\Tick.o
 .sbss          0xa0000100        0x8 obj-tmp\UDP.o
 .sbss          0xa0000108       0x30 obj-tmp\ZeroconfLinkLocal.o
                0xa0000108                zcll_state
                0xa000010c                zcll_dhcp_substate
 .sbss          0xa0000138        0x8 obj-tmp\ZeroconfMulticastDNS.o
                0xa0000138                mDNS_responder_state
 .sbss          0xa0000140        0x4 obj-tmp\WFConnectionManager.o
 .sbss          0xa0000144        0xc obj-tmp\WFPowerSave.o
 .sbss          0xa0000150        0x1 obj-tmp\WF_Spi.o
 *fill*         0xa0000151        0x3 00
 .sbss          0xa0000154       0x28 obj-tmp\WFDriverCom_24G.o
                0xa000016c                g_DhcpSuccessful
                0xa0000170                g_WiFiConnectionChanged
                0xa0000174                g_WiFiConnection
                0xa0000178                g_dhcpInProgress
 .sbss          0xa000017c        0x8 obj-tmp\WFDriverRaw_24G.o
                0xa000017c                g_HostRAWDataPacketReceived
                0xa0000180                g_RawIndexPastEnd
 .sbss          0xa0000184       0x14 obj-tmp\WFMac_24G.o
 .sbss          0xa0000198        0xc obj-tmp\WFMgmtMsg_24G.o
                0xa000019c                g_WaitingForMgmtResponse
 .sbss          0xa00001a4        0x4 obj-tmp\DHCP.o
                0xa00001a4                DHCPClientInitializedOnce
 .sbss          0xa00001a8        0xc obj-tmp\DHCPs.o
 .sbss          0xa00001b4        0x1 c:/program files (x86)/microchip/mplabc32/v2.02/bin/../lib/gcc/pic32mx/4.5.1/../../../../pic32mx/lib\libc.a(_iob.o)
                0xa00001b4                _outdone
 *(.scommon)
 .scommon       0xa00001b5        0x1 obj-tmp\HTTP2.o
                0xa00001b5                curHTTPID
 .scommon       0xa00001b6        0x6 obj-tmp\UDP.o
                0xa00001b6                UDPTxCount
                0xa00001b8                activeUDPSocket
                0xa00001ba                UDPRxCount
 .scommon       0xa00001bc        0x6 obj-tmp\WFEasyConfig.o
                0xa00001bc                g_ScanCtx
 *fill*         0xa00001c2        0x2 00
 .scommon       0xa00001c4        0x4 obj-tmp\WFPowerSave.o
                0xa00001c4                g_rxDtim
 .scommon       0xa00001c8        0x8 obj-tmp\WFDriverCom_24G.o
                0xa00001c8                RawMoveState
 .scommon       0xa00001d0        0x2 obj-tmp\WFDriverRaw_24G.o
                0xa00001d0                RawWindowState
 *fill*         0xa00001d2        0x2 00
 .scommon       0xa00001d4        0x6 obj-tmp\WFMac_24G.o
                0xa00001d4                g_rxBufferLength
                0xa00001d8                WF_hibernate
                0xa00001da                _sbss_end = .

.bss            0xa00001dc      0xe84
 *(.dynbss)
 *(COMMON)
 COMMON         0xa00001dc       0x9a obj-tmp\Main.o
                0xa00001dc                AppConfig
 *fill*         0xa0000276        0x2 00
 COMMON         0xa0000278       0x9c obj-tmp\HTTP2.o
                0xa0000278                curHTTP
                0xa0000304                httpStubs
 COMMON         0xa0000314        0xa obj-tmp\StackTsk.o
                0xa0000314                remoteNode
 *fill*         0xa000031e        0x2 00
 COMMON         0xa0000320       0xe0 obj-tmp\UDP.o
                0xa0000320                UDPSocketInfo
 COMMON         0xa0000400      0xbe8 obj-tmp\WFEasyConfig.o
                0xa0000400                g_easyConfigCtx
                0xa0000494                preScanResult
 COMMON         0xa0000fe8       0x78 obj-tmp\DHCPs.o
                0xa0000fe8                DhcpIpPool
                0xa0001060                . = ALIGN (0x4)
                0xa0001060                . = ALIGN (0x4)
                0xa0001060                _end = .
                0xa0001060                _bss_end = .
                0x00010000                _bmxdudba_address = 0x10000
                0x00010000                _bmxdupba_address = 0x10000

/DISCARD/
 *(.pdr)
 *(.reginfo)
 *(.rel.dyn)
 *(.note.GNU-stack)
 *(.note.GNU-stack)
 *(.gnu_debuglink)
 *(.gnu.lto_*)
 *(.discard)

.stab
 *(.stab)

.stabstr
 *(.stabstr)

.stab.excl
 *(.stab.excl)

.stab.exclstr
 *(.stab.exclstr)

.stab.index
 *(.stab.index)

.stab.indexstr
 *(.stab.indexstr)

.comment        0x00000000      0x299
 *(.comment)
 .comment       0x00000000       0x51 obj-tmp\Main.o
                                 0x52 (size before relaxing)
 .comment       0x00000000       0x52 obj-tmp\CustomHTTPApp.o
 .comment       0x00000000       0x52 obj-tmp\WF_Config.o
 .comment       0x00000000       0x52 obj-tmp\WifiGDemoMPFSImg.o
 .comment       0x00000000       0x52 obj-tmp\Announce.o
 .comment       0x00000000       0x52 obj-tmp\ARCFOUR.o
 .comment       0x00000000       0x52 obj-tmp\ARP.o
 .comment       0x00000000       0x52 obj-tmp\AutoIP.o
 .comment       0x00000000       0x52 obj-tmp\BerkeleyAPI.o
 .comment       0x00000000       0x52 obj-tmp\BigInt.o
 .comment       0x00000000       0x52 obj-tmp\Delay.o
 .comment       0x00000000       0x52 obj-tmp\DNS.o
 .comment       0x00000000       0x52 obj-tmp\DNSs.o
 .comment       0x00000000       0x52 obj-tmp\DynDNS.o
 .comment       0x00000000       0x52 obj-tmp\ENC28J60.o
 .comment       0x00000000       0x52 obj-tmp\ENCX24J600.o
 .comment       0x00000000       0x52 obj-tmp\eth_pic32_ext_phy_rtl8201FL.o
 .comment       0x00000000       0x52 obj-tmp\ETH97J60.o
 .comment       0x00000000       0x52 obj-tmp\ETHPIC32ExtPhy.o
 .comment       0x00000000       0x52 obj-tmp\ETHPIC32ExtPhyDP83640.o
 .comment       0x00000000       0x52 obj-tmp\ETHPIC32ExtPhyDP83848.o
 .comment       0x00000000       0x52 obj-tmp\ETHPIC32ExtPhySMSC8700.o
 .comment       0x00000000       0x52 obj-tmp\ETHPIC32ExtPhySMSC8720.o
 .comment       0x00000000       0x52 obj-tmp\ETHPIC32IntMac.o
 .comment       0x00000000       0x52 obj-tmp\FileSystem.o
 .comment       0x00000000       0x52 obj-tmp\FTP.o
 .comment       0x00000000       0x52 obj-tmp\Hashes.o
 .comment       0x00000000       0x52 obj-tmp\Helpers.o
 .comment       0x00000000       0x52 obj-tmp\HTTP2.o
 .comment       0x00000000       0x52 obj-tmp\ICMP.o
 .comment       0x00000000       0x52 obj-tmp\IP.o
 .comment       0x00000000       0x52 obj-tmp\LCDBlocking.o
 .comment       0x00000000       0x52 obj-tmp\MPFS2.o
 .comment       0x00000000       0x52 obj-tmp\NBNS.o
 .comment       0x00000000       0x52 obj-tmp\Random.o
 .comment       0x00000000       0x52 obj-tmp\Reboot.o
 .comment       0x00000000       0x52 obj-tmp\RSA.o
 .comment       0x00000000       0x52 obj-tmp\SMTP.o
 .comment       0x00000000       0x52 obj-tmp\SNMP.o
 .comment       0x00000000       0x52 obj-tmp\SNMPv3.o
 .comment       0x00000000       0x52 obj-tmp\SNMPv3USM.o
 .comment       0x00000000       0x52 obj-tmp\SNTP.o
 .comment       0x00000000       0x52 obj-tmp\SPIEEPROM.o
 .comment       0x00000000       0x52 obj-tmp\SPIFlash.o
 .comment       0x00000000       0x52 obj-tmp\SPIRAM.o
 .comment       0x00000000       0x52 obj-tmp\SSL.o
 .comment       0x00000000       0x52 obj-tmp\StackTsk.o
 .comment       0x00000000       0x52 obj-tmp\TCP.o
 .comment       0x00000000       0x52 obj-tmp\TCPPerformanceTest.o
 .comment       0x00000000       0x52 obj-tmp\Telnet.o
 .comment       0x00000000       0x52 obj-tmp\TFTPc.o
 .comment       0x00000000       0x52 obj-tmp\Tick.o
 .comment       0x00000000       0x52 obj-tmp\UART.o
 .comment       0x00000000       0x52 obj-tmp\UART2TCPBridge.o
 .comment       0x00000000       0x52 obj-tmp\UDP.o
 .comment       0x00000000       0x52 obj-tmp\UDPPerformanceTest.o
 .comment       0x00000000       0x52 obj-tmp\ZeroconfHelper.o
 .comment       0x00000000       0x52 obj-tmp\ZeroconfLinkLocal.o
 .comment       0x00000000       0x52 obj-tmp\ZeroconfMulticastDNS.o
 .comment       0x00000000       0x52 obj-tmp\WF_Eint.o
 .comment       0x00000000       0x52 obj-tmp\WF_pbkdf2.o
 .comment       0x00000000       0x52 obj-tmp\WFConnectionAlgorithm.o
 .comment       0x00000000       0x52 obj-tmp\WFConnectionManager.o
 .comment       0x00000000       0x52 obj-tmp\WFConnectionProfile.o
 .comment       0x00000000       0x52 obj-tmp\WFConsole.o
 .comment       0x00000000       0x52 obj-tmp\WFConsoleIfconfig.o
 .comment       0x00000000       0x52 obj-tmp\WFConsoleIwconfig.o
 .comment       0x00000000       0x52 obj-tmp\WFConsoleIwpriv.o
 .comment       0x00000000       0x52 obj-tmp\WFConsoleMsgHandler.o
 .comment       0x00000000       0x52 obj-tmp\WFConsoleMsgs.o
 .comment       0x00000000       0x52 obj-tmp\WFDataTxRx.o
 .comment       0x00000000       0x52 obj-tmp\WFDebugStrings.o
 .comment       0x00000000       0x52 obj-tmp\WFEasyConfig.o
 .comment       0x00000000       0x52 obj-tmp\WFEventHandler.o
 .comment       0x00000000       0x52 obj-tmp\WFInit.o
 .comment       0x00000000       0x52 obj-tmp\WFPowerSave.o
 .comment       0x00000000       0x52 obj-tmp\WFScan.o
 .comment       0x00000000       0x52 obj-tmp\WFTxPower.o
 .comment       0x00000000       0x52 obj-tmp\WF_Spi.o
 .comment       0x00000000       0x52 obj-tmp\WFDriverCom_24G.o
 .comment       0x00000000       0x52 obj-tmp\WFDriverRaw_24G.o
 .comment       0x00000000       0x52 obj-tmp\WFMac_24G.o
 .comment       0x00000000       0x52 obj-tmp\WFMgmtMsg_24G.o
 .comment       0x00000000       0x52 obj-tmp\WFParamMsg_24G.o
 .comment       0x00000000       0x52 obj-tmp\DHCP.o
 .comment       0x00000000       0x52 obj-tmp\DHCPs.o
 .comment       0x00000000       0x52 c:/program files (x86)/microchip/mplabc32/v2.02/bin/../lib/gcc/pic32mx/4.5.1\libgcc.a(_udivdi3.o)
 .comment       0x00000000       0x52 c:/program files (x86)/microchip/mplabc32/v2.02/bin/../lib/gcc/pic32mx/4.5.1\libgcc.a(_umoddi3.o)
 .comment       0x00000051       0x55 c:/program files (x86)/microchip/mplabc32/v2.02/bin/../lib/gcc/pic32mx/4.5.1/../../../../pic32mx/lib\libc.a(memcmp.o)
                                 0x56 (size before relaxing)
 .comment       0x000000a6       0x55 c:/program files (x86)/microchip/mplabc32/v2.02/bin/../lib/gcc/pic32mx/4.5.1/../../../../pic32mx/lib\libc.a(memset.o)
                                 0x56 (size before relaxing)
 .comment       0x000000fb       0x55 c:/program files (x86)/microchip/mplabc32/v2.02/bin/../lib/gcc/pic32mx/4.5.1/../../../../pic32mx/lib\libc.a(strcmp.o)
                                 0x56 (size before relaxing)
 .comment       0x00000150       0x55 c:/program files (x86)/microchip/mplabc32/v2.02/bin/../lib/gcc/pic32mx/4.5.1/../../../../pic32mx/lib\libc.a(strcpy.o)
                                 0x56 (size before relaxing)
 .comment       0x000001a5       0x55 c:/program files (x86)/microchip/mplabc32/v2.02/bin/../lib/gcc/pic32mx/4.5.1/../../../../pic32mx/lib\libc.a(strlen.o)
                                 0x56 (size before relaxing)
 .comment       0x00000000       0x52 c:/program files (x86)/microchip/mplabc32/v2.02/bin/../lib/gcc/pic32mx/4.5.1/../../../../pic32mx/lib\libc.a(atol.o)
 .comment       0x000001fa       0x4e c:/program files (x86)/microchip/mplabc32/v2.02/bin/../lib/gcc/pic32mx/4.5.1/../../../../pic32mx/lib\libc.a(ctype.o)
                                 0xa0 (size before relaxing)
 .comment       0x00000000       0x52 c:/program files (x86)/microchip/mplabc32/v2.02/bin/../lib/gcc/pic32mx/4.5.1/../../../../pic32mx/lib\libc.a(puts.o)
 .comment       0x00000000       0x52 c:/program files (x86)/microchip/mplabc32/v2.02/bin/../lib/gcc/pic32mx/4.5.1/../../../../pic32mx/lib\libc.a(strncpy.o)
 .comment       0x00000000       0x52 c:/program files (x86)/microchip/mplabc32/v2.02/bin/../lib/gcc/pic32mx/4.5.1/../../../../pic32mx/lib\libc.a(printf_cdnopsuxX.eo)
 .comment       0x00000000       0x52 c:/program files (x86)/microchip/mplabc32/v2.02/bin/../lib/gcc/pic32mx/4.5.1/../../../../pic32mx/lib\libc.a(sprintf_cdnopsuxX.eo)
 .comment       0x00000000       0x52 c:/program files (x86)/microchip/mplabc32/v2.02/bin/../lib/gcc/pic32mx/4.5.1/../../../../pic32mx/lib\libc.a(default-bootstrap-exception-handler.o)
 .comment       0x00000000       0x52 c:/program files (x86)/microchip/mplabc32/v2.02/bin/../lib/gcc/pic32mx/4.5.1/../../../../pic32mx/lib\libc.a(default-on-reset.o)
 .comment       0x00000000       0x52 c:/program files (x86)/microchip/mplabc32/v2.02/bin/../lib/gcc/pic32mx/4.5.1/../../../../pic32mx/lib\libc.a(default-on-bootstrap.o)
 .comment       0x00000000       0x52 c:/program files (x86)/microchip/mplabc32/v2.02/bin/../lib/gcc/pic32mx/4.5.1/../../../../pic32mx/lib\libc.a(_iob.o)
 .comment       0x00000000       0x52 c:/program files (x86)/microchip/mplabc32/v2.02/bin/../lib/gcc/pic32mx/4.5.1/../../../../pic32mx/lib\libc.a(_fputc_simple.o)
 .comment       0x00000000       0x52 c:/program files (x86)/microchip/mplabc32/v2.02/bin/../lib/gcc/pic32mx/4.5.1/../../../../pic32mx/lib\libc.a(doprnt_cdnopsuxX.eo)
 .comment       0x00000000       0x52 c:/program files (x86)/microchip/mplabc32/v2.02/bin/../lib/gcc/pic32mx/4.5.1/../../../../pic32mx/lib\libc.a(write.o)
 .comment       0x00000000       0x52 c:/program files (x86)/microchip/mplabc32/v2.02/bin/../lib/gcc/pic32mx/4.5.1/../../../../pic32mx/lib\libc.a(_flsbuf_simple.o)
 .comment       0x00000000       0x52 c:/program files (x86)/microchip/mplabc32/v2.02/bin/../lib/gcc/pic32mx/4.5.1/../../../../pic32mx/lib\libc.a(_mon_putc.o)
 .comment       0x00000000       0x52 c:/program files (x86)/microchip/mplabc32/v2.02/bin/../lib/gcc/pic32mx/4.5.1/../../../../pic32mx/lib\libc.a(c32_uart.o)
 .comment       0x00000248       0x51 c:/program files (x86)/microchip/mplabc32/v2.02/bin/../lib/gcc/pic32mx/4.5.1/../../../../pic32mx/lib\libmchp_peripheral_32MX575F256L.a(soft_reset_lib.o)
                                 0x52 (size before relaxing)
 .comment       0x00000000       0x52 c:/program files (x86)/microchip/mplabc32/v2.02/bin/../lib/gcc/pic32mx/4.5.1/../../../../pic32mx/lib\libmchp_peripheral_32MX575F256L.a(pcache.o)
 .comment       0x00000000       0x52 c:/program files (x86)/microchip/mplabc32/v2.02/bin/../lib/gcc/pic32mx/4.5.1/../../../../pic32mx/lib\libmchp_peripheral_32MX575F256L.a(int_disable_interrupts_lib.o)
 .comment       0x00000000       0x52 c:/program files (x86)/microchip/mplabc32/v2.02/bin/../lib/gcc/pic32mx/4.5.1/../../../../pic32mx/lib\libmchp_peripheral_32MX575F256L.a(int_restore_interrupts_lib.o)
 .comment       0x00000000       0x52 c:/program files (x86)/microchip/mplabc32/v2.02/bin/../lib/gcc/pic32mx/4.5.1/../../../../pic32mx/lib\libmchp_peripheral_32MX575F256L.a(int_enable_mv_int_lib.o)
 .comment       0x00000000       0x52 c:/program files (x86)/microchip/mplabc32/v2.02/bin/../lib/gcc/pic32mx/4.5.1/../../../../pic32mx/lib\libmchp_peripheral_32MX575F256L.a(uart_lib.o)
 .comment       0x00000000       0x52 c:/program files (x86)/microchip/mplabc32/v2.02/bin/../lib/gcc/pic32mx/4.5.1/../../../../pic32mx/lib\libmchp_peripheral_32MX575F256L.a(puts_uartx_lib_legacy.o)
 .comment       0x00000000       0x52 c:/program files (x86)/microchip/mplabc32/v2.02/bin/../lib/gcc/pic32mx/4.5.1/../../../../pic32mx/lib\libmchp_peripheral_32MX575F256L.a(int_enable_interrupts_lib.o)

.debug
 *(.debug)

.line
 *(.line)

.debug_srcinfo
 *(.debug_srcinfo)

.debug_sfnames
 *(.debug_sfnames)

.debug_aranges  0x00000000      0x8f0
 *(.debug_aranges)
 .debug_aranges
                0x00000000       0x20 obj-tmp\Main.o
 .debug_aranges
                0x00000020       0x20 obj-tmp\CustomHTTPApp.o
 .debug_aranges
                0x00000040       0x20 obj-tmp\WF_Config.o
 .debug_aranges
                0x00000060       0x20 obj-tmp\Announce.o
 .debug_aranges
                0x00000080       0x20 obj-tmp\ARP.o
 .debug_aranges
                0x000000a0       0x20 obj-tmp\Delay.o
 .debug_aranges
                0x000000c0       0x20 obj-tmp\DNS.o
 .debug_aranges
                0x000000e0       0x20 obj-tmp\DNSs.o
 .debug_aranges
                0x00000100       0x20 obj-tmp\Helpers.o
 .debug_aranges
                0x00000120       0x20 obj-tmp\HTTP2.o
 .debug_aranges
                0x00000140       0x20 obj-tmp\ICMP.o
 .debug_aranges
                0x00000160       0x20 obj-tmp\IP.o
 .debug_aranges
                0x00000180       0x20 obj-tmp\MPFS2.o
 .debug_aranges
                0x000001a0       0x20 obj-tmp\NBNS.o
 .debug_aranges
                0x000001c0       0x20 obj-tmp\Reboot.o
 .debug_aranges
                0x000001e0       0x20 obj-tmp\SPIFlash.o
 .debug_aranges
                0x00000200       0x20 obj-tmp\StackTsk.o
 .debug_aranges
                0x00000220       0x20 obj-tmp\TCP.o
 .debug_aranges
                0x00000240       0x20 obj-tmp\Tick.o
 .debug_aranges
                0x00000260       0x20 obj-tmp\UART.o
 .debug_aranges
                0x00000280       0x20 obj-tmp\UDP.o
 .debug_aranges
                0x000002a0       0x20 obj-tmp\ZeroconfHelper.o
 .debug_aranges
                0x000002c0       0x20 obj-tmp\ZeroconfLinkLocal.o
 .debug_aranges
                0x000002e0       0x20 obj-tmp\ZeroconfMulticastDNS.o
 .debug_aranges
                0x00000300       0x20 obj-tmp\WF_Eint.o
 .debug_aranges
                0x00000320       0x20 obj-tmp\WF_pbkdf2.o
 .debug_aranges
                0x00000340       0x20 obj-tmp\WFConnectionAlgorithm.o
 .debug_aranges
                0x00000360       0x20 obj-tmp\WFConnectionManager.o
 .debug_aranges
                0x00000380       0x20 obj-tmp\WFConnectionProfile.o
 .debug_aranges
                0x000003a0       0x20 obj-tmp\WFConsoleMsgHandler.o
 .debug_aranges
                0x000003c0       0x20 obj-tmp\WFConsoleMsgs.o
 .debug_aranges
                0x000003e0       0x20 obj-tmp\WFDebugStrings.o
 .debug_aranges
                0x00000400       0x20 obj-tmp\WFEasyConfig.o
 .debug_aranges
                0x00000420       0x20 obj-tmp\WFEventHandler.o
 .debug_aranges
                0x00000440       0x20 obj-tmp\WFInit.o
 .debug_aranges
                0x00000460       0x20 obj-tmp\WFPowerSave.o
 .debug_aranges
                0x00000480       0x20 obj-tmp\WFScan.o
 .debug_aranges
                0x000004a0       0x20 obj-tmp\WFTxPower.o
 .debug_aranges
                0x000004c0       0x20 obj-tmp\WF_Spi.o
 .debug_aranges
                0x000004e0       0x20 obj-tmp\WFDriverCom_24G.o
 .debug_aranges
                0x00000500       0x20 obj-tmp\WFDriverRaw_24G.o
 .debug_aranges
                0x00000520       0x20 obj-tmp\WFMac_24G.o
 .debug_aranges
                0x00000540       0x20 obj-tmp\WFMgmtMsg_24G.o
 .debug_aranges
                0x00000560       0x20 obj-tmp\WFParamMsg_24G.o
 .debug_aranges
                0x00000580       0x20 obj-tmp\DHCP.o
 .debug_aranges
                0x000005a0       0x20 obj-tmp\DHCPs.o
 .debug_aranges
                0x000005c0       0x20 c:/program files (x86)/microchip/mplabc32/v2.02/bin/../lib/gcc/pic32mx/4.5.1\libgcc.a(_udivdi3.o)
 .debug_aranges
                0x000005e0       0x20 c:/program files (x86)/microchip/mplabc32/v2.02/bin/../lib/gcc/pic32mx/4.5.1\libgcc.a(_umoddi3.o)
 .debug_aranges
                0x00000600       0x20 c:/program files (x86)/microchip/mplabc32/v2.02/bin/../lib/gcc/pic32mx/4.5.1/../../../../pic32mx/lib\libc.a(atol.o)
 .debug_aranges
                0x00000620       0x28 c:/program files (x86)/microchip/mplabc32/v2.02/bin/../lib/gcc/pic32mx/4.5.1/../../../../pic32mx/lib\libc.a(puts.o)
 .debug_aranges
                0x00000648       0x20 c:/program files (x86)/microchip/mplabc32/v2.02/bin/../lib/gcc/pic32mx/4.5.1/../../../../pic32mx/lib\libc.a(strncpy.o)
 .debug_aranges
                0x00000668       0x20 c:/program files (x86)/microchip/mplabc32/v2.02/bin/../lib/gcc/pic32mx/4.5.1/../../../../pic32mx/lib\libc.a(printf_cdnopsuxX.eo)
 .debug_aranges
                0x00000688       0x20 c:/program files (x86)/microchip/mplabc32/v2.02/bin/../lib/gcc/pic32mx/4.5.1/../../../../pic32mx/lib\libc.a(sprintf_cdnopsuxX.eo)
 .debug_aranges
                0x000006a8       0x20 c:/program files (x86)/microchip/mplabc32/v2.02/bin/../lib/gcc/pic32mx/4.5.1/../../../../pic32mx/lib\libc.a(default-bootstrap-exception-handler.o)
 .debug_aranges
                0x000006c8       0x20 c:/program files (x86)/microchip/mplabc32/v2.02/bin/../lib/gcc/pic32mx/4.5.1/../../../../pic32mx/lib\libc.a(default-on-reset.o)
 .debug_aranges
                0x000006e8       0x20 c:/program files (x86)/microchip/mplabc32/v2.02/bin/../lib/gcc/pic32mx/4.5.1/../../../../pic32mx/lib\libc.a(default-on-bootstrap.o)
 .debug_aranges
                0x00000708       0x20 c:/program files (x86)/microchip/mplabc32/v2.02/bin/../lib/gcc/pic32mx/4.5.1/../../../../pic32mx/lib\libc.a(_fputc_simple.o)
 .debug_aranges
                0x00000728       0x20 c:/program files (x86)/microchip/mplabc32/v2.02/bin/../lib/gcc/pic32mx/4.5.1/../../../../pic32mx/lib\libc.a(doprnt_cdnopsuxX.eo)
 .debug_aranges
                0x00000748       0x20 c:/program files (x86)/microchip/mplabc32/v2.02/bin/../lib/gcc/pic32mx/4.5.1/../../../../pic32mx/lib\libc.a(write.o)
 .debug_aranges
                0x00000768       0x20 c:/program files (x86)/microchip/mplabc32/v2.02/bin/../lib/gcc/pic32mx/4.5.1/../../../../pic32mx/lib\libc.a(_flsbuf_simple.o)
 .debug_aranges
                0x00000788       0x20 c:/program files (x86)/microchip/mplabc32/v2.02/bin/../lib/gcc/pic32mx/4.5.1/../../../../pic32mx/lib\libc.a(_mon_putc.o)
 .debug_aranges
                0x000007a8       0x20 c:/program files (x86)/microchip/mplabc32/v2.02/bin/../lib/gcc/pic32mx/4.5.1/../../../../pic32mx/lib\libmchp_peripheral_32MX575F256L.a(soft_reset_lib.o)
 .debug_aranges
                0x000007c8       0x28 c:/program files (x86)/microchip/mplabc32/v2.02/bin/../lib/gcc/pic32mx/4.5.1/../../../../pic32mx/lib\libmchp_peripheral_32MX575F256L.a(pcache.o)
 .debug_aranges
                0x000007f0       0x20 c:/program files (x86)/microchip/mplabc32/v2.02/bin/../lib/gcc/pic32mx/4.5.1/../../../../pic32mx/lib\libmchp_peripheral_32MX575F256L.a(int_disable_interrupts_lib.o)
 .debug_aranges
                0x00000810       0x20 c:/program files (x86)/microchip/mplabc32/v2.02/bin/../lib/gcc/pic32mx/4.5.1/../../../../pic32mx/lib\libmchp_peripheral_32MX575F256L.a(int_restore_interrupts_lib.o)
 .debug_aranges
                0x00000830       0x20 c:/program files (x86)/microchip/mplabc32/v2.02/bin/../lib/gcc/pic32mx/4.5.1/../../../../pic32mx/lib\libmchp_peripheral_32MX575F256L.a(int_enable_mv_int_lib.o)
 .debug_aranges
                0x00000850       0x58 c:/program files (x86)/microchip/mplabc32/v2.02/bin/../lib/gcc/pic32mx/4.5.1/../../../../pic32mx/lib\libmchp_peripheral_32MX575F256L.a(uart_lib.o)
 .debug_aranges
                0x000008a8       0x28 c:/program files (x86)/microchip/mplabc32/v2.02/bin/../lib/gcc/pic32mx/4.5.1/../../../../pic32mx/lib\libmchp_peripheral_32MX575F256L.a(puts_uartx_lib_legacy.o)
 .debug_aranges
                0x000008d0       0x20 c:/program files (x86)/microchip/mplabc32/v2.02/bin/../lib/gcc/pic32mx/4.5.1/../../../../pic32mx/lib\libmchp_peripheral_32MX575F256L.a(int_enable_interrupts_lib.o)

.debug_pubnames
                0x00000000     0x2b53
 *(.debug_pubnames)
 .debug_pubnames
                0x00000000       0xba obj-tmp\Main.o
 .debug_pubnames
                0x000000ba      0x1f4 obj-tmp\CustomHTTPApp.o
 .debug_pubnames
                0x000002ae       0x35 obj-tmp\WF_Config.o
 .debug_pubnames
                0x000002e3       0x21 obj-tmp\WifiGDemoMPFSImg.o
 .debug_pubnames
                0x00000304       0x33 obj-tmp\Announce.o
 .debug_pubnames
                0x00000337       0xb7 obj-tmp\ARP.o
 .debug_pubnames
                0x000003ee       0x2c obj-tmp\Delay.o
 .debug_pubnames
                0x0000041a       0x55 obj-tmp\DNS.o
 .debug_pubnames
                0x0000046f       0x24 obj-tmp\DNSs.o
 .debug_pubnames
                0x00000493      0x10a obj-tmp\Helpers.o
 .debug_pubnames
                0x0000059d       0xcf obj-tmp\HTTP2.o
 .debug_pubnames
                0x0000066c       0x22 obj-tmp\ICMP.o
 .debug_pubnames
                0x0000068e       0x44 obj-tmp\IP.o
 .debug_pubnames
                0x000006d2      0x140 obj-tmp\MPFS2.o
 .debug_pubnames
                0x00000812       0x1f obj-tmp\NBNS.o
 .debug_pubnames
                0x00000831       0x21 obj-tmp\Reboot.o
 .debug_pubnames
                0x00000852       0x91 obj-tmp\SPIFlash.o
 .debug_pubnames
                0x000008e3       0x86 obj-tmp\StackTsk.o
 .debug_pubnames
                0x00000969      0x1ba obj-tmp\TCP.o
 .debug_pubnames
                0x00000b23       0x7e obj-tmp\Tick.o
 .debug_pubnames
                0x00000ba1       0x25 obj-tmp\UART.o
 .debug_pubnames
                0x00000bc6      0x155 obj-tmp\UDP.o
 .debug_pubnames
                0x00000d1b       0x3b obj-tmp\ZeroconfHelper.o
 .debug_pubnames
                0x00000d56       0xc6 obj-tmp\ZeroconfLinkLocal.o
 .debug_pubnames
                0x00000e1c      0x159 obj-tmp\ZeroconfMulticastDNS.o
 .debug_pubnames
                0x00000f75       0x83 obj-tmp\WF_Eint.o
 .debug_pubnames
                0x00000ff8       0x84 obj-tmp\WF_pbkdf2.o
 .debug_pubnames
                0x0000107c      0x3d9 obj-tmp\WFConnectionAlgorithm.o
 .debug_pubnames
                0x00001455       0xd6 obj-tmp\WFConnectionManager.o
 .debug_pubnames
                0x0000152b      0x204 obj-tmp\WFConnectionProfile.o
 .debug_pubnames
                0x0000172f       0x2f obj-tmp\WFConsoleMsgHandler.o
 .debug_pubnames
                0x0000175e      0x155 obj-tmp\WFConsoleMsgs.o
 .debug_pubnames
                0x000018b3      0x147 obj-tmp\WFDebugStrings.o
 .debug_pubnames
                0x000019fa       0xd3 obj-tmp\WFEasyConfig.o
 .debug_pubnames
                0x00001acd       0x2f obj-tmp\WFEventHandler.o
 .debug_pubnames
                0x00001afc       0x1e obj-tmp\WFInit.o
 .debug_pubnames
                0x00001b1a      0x153 obj-tmp\WFPowerSave.o
 .debug_pubnames
                0x00001c6d       0x33 obj-tmp\WFScan.o
 .debug_pubnames
                0x00001ca0       0x58 obj-tmp\WFTxPower.o
 .debug_pubnames
                0x00001cf8       0x66 obj-tmp\WF_Spi.o
 .debug_pubnames
                0x00001d5e      0x1ab obj-tmp\WFDriverCom_24G.o
 .debug_pubnames
                0x00001f09      0x1ef obj-tmp\WFDriverRaw_24G.o
 .debug_pubnames
                0x000020f8      0x22c obj-tmp\WFMac_24G.o
 .debug_pubnames
                0x00002324       0xb0 obj-tmp\WFMgmtMsg_24G.o
 .debug_pubnames
                0x000023d4      0x245 obj-tmp\WFParamMsg_24G.o
 .debug_pubnames
                0x00002619       0xcc obj-tmp\DHCP.o
 .debug_pubnames
                0x000026e5       0x78 obj-tmp\DHCPs.o
 .debug_pubnames
                0x0000275d       0x20 c:/program files (x86)/microchip/mplabc32/v2.02/bin/../lib/gcc/pic32mx/4.5.1\libgcc.a(_udivdi3.o)
 .debug_pubnames
                0x0000277d       0x20 c:/program files (x86)/microchip/mplabc32/v2.02/bin/../lib/gcc/pic32mx/4.5.1\libgcc.a(_umoddi3.o)
 .debug_pubnames
                0x0000279d       0x1b c:/program files (x86)/microchip/mplabc32/v2.02/bin/../lib/gcc/pic32mx/4.5.1/../../../../pic32mx/lib\libc.a(atol.o)
 .debug_pubnames
                0x000027b8       0x25 c:/program files (x86)/microchip/mplabc32/v2.02/bin/../lib/gcc/pic32mx/4.5.1/../../../../pic32mx/lib\libc.a(puts.o)
 .debug_pubnames
                0x000027dd       0x1e c:/program files (x86)/microchip/mplabc32/v2.02/bin/../lib/gcc/pic32mx/4.5.1/../../../../pic32mx/lib\libc.a(strncpy.o)
 .debug_pubnames
                0x000027fb       0x28 c:/program files (x86)/microchip/mplabc32/v2.02/bin/../lib/gcc/pic32mx/4.5.1/../../../../pic32mx/lib\libc.a(printf_cdnopsuxX.eo)
 .debug_pubnames
                0x00002823       0x29 c:/program files (x86)/microchip/mplabc32/v2.02/bin/../lib/gcc/pic32mx/4.5.1/../../../../pic32mx/lib\libc.a(sprintf_cdnopsuxX.eo)
 .debug_pubnames
                0x0000284c       0x33 c:/program files (x86)/microchip/mplabc32/v2.02/bin/../lib/gcc/pic32mx/4.5.1/../../../../pic32mx/lib\libc.a(default-bootstrap-exception-handler.o)
 .debug_pubnames
                0x0000287f       0x20 c:/program files (x86)/microchip/mplabc32/v2.02/bin/../lib/gcc/pic32mx/4.5.1/../../../../pic32mx/lib\libc.a(default-on-reset.o)
 .debug_pubnames
                0x0000289f       0x24 c:/program files (x86)/microchip/mplabc32/v2.02/bin/../lib/gcc/pic32mx/4.5.1/../../../../pic32mx/lib\libc.a(default-on-bootstrap.o)
 .debug_pubnames
                0x000028c3       0x1c c:/program files (x86)/microchip/mplabc32/v2.02/bin/../lib/gcc/pic32mx/4.5.1/../../../../pic32mx/lib\libc.a(_fputc_simple.o)
 .debug_pubnames
                0x000028df       0x2a c:/program files (x86)/microchip/mplabc32/v2.02/bin/../lib/gcc/pic32mx/4.5.1/../../../../pic32mx/lib\libc.a(doprnt_cdnopsuxX.eo)
 .debug_pubnames
                0x00002909       0x1c c:/program files (x86)/microchip/mplabc32/v2.02/bin/../lib/gcc/pic32mx/4.5.1/../../../../pic32mx/lib\libc.a(write.o)
 .debug_pubnames
                0x00002925       0x1e c:/program files (x86)/microchip/mplabc32/v2.02/bin/../lib/gcc/pic32mx/4.5.1/../../../../pic32mx/lib\libc.a(_flsbuf_simple.o)
 .debug_pubnames
                0x00002943       0x20 c:/program files (x86)/microchip/mplabc32/v2.02/bin/../lib/gcc/pic32mx/4.5.1/../../../../pic32mx/lib\libc.a(_mon_putc.o)
 .debug_pubnames
                0x00002963       0x20 c:/program files (x86)/microchip/mplabc32/v2.02/bin/../lib/gcc/pic32mx/4.5.1/../../../../pic32mx/lib\libmchp_peripheral_32MX575F256L.a(soft_reset_lib.o)
 .debug_pubnames
                0x00002983       0x3b c:/program files (x86)/microchip/mplabc32/v2.02/bin/../lib/gcc/pic32mx/4.5.1/../../../../pic32mx/lib\libmchp_peripheral_32MX575F256L.a(pcache.o)
 .debug_pubnames
                0x000029be       0x2b c:/program files (x86)/microchip/mplabc32/v2.02/bin/../lib/gcc/pic32mx/4.5.1/../../../../pic32mx/lib\libmchp_peripheral_32MX575F256L.a(int_disable_interrupts_lib.o)
 .debug_pubnames
                0x000029e9       0x2b c:/program files (x86)/microchip/mplabc32/v2.02/bin/../lib/gcc/pic32mx/4.5.1/../../../../pic32mx/lib\libmchp_peripheral_32MX575F256L.a(int_restore_interrupts_lib.o)
 .debug_pubnames
                0x00002a14       0x36 c:/program files (x86)/microchip/mplabc32/v2.02/bin/../lib/gcc/pic32mx/4.5.1/../../../../pic32mx/lib\libmchp_peripheral_32MX575F256L.a(int_enable_mv_int_lib.o)
 .debug_pubnames
                0x00002a4a       0xb1 c:/program files (x86)/microchip/mplabc32/v2.02/bin/../lib/gcc/pic32mx/4.5.1/../../../../pic32mx/lib\libmchp_peripheral_32MX575F256L.a(uart_lib.o)
 .debug_pubnames
                0x00002afb       0x2e c:/program files (x86)/microchip/mplabc32/v2.02/bin/../lib/gcc/pic32mx/4.5.1/../../../../pic32mx/lib\libmchp_peripheral_32MX575F256L.a(puts_uartx_lib_legacy.o)
 .debug_pubnames
                0x00002b29       0x2a c:/program files (x86)/microchip/mplabc32/v2.02/bin/../lib/gcc/pic32mx/4.5.1/../../../../pic32mx/lib\libmchp_peripheral_32MX575F256L.a(int_enable_interrupts_lib.o)

.debug_info     0x00000000    0x7ac9a
 *(.debug_info .gnu.linkonce.wi.*)
 .debug_info    0x00000000     0x312f obj-tmp\Main.o
 .debug_info    0x0000312f     0x2a12 obj-tmp\CustomHTTPApp.o
 .debug_info    0x00005b41     0x1dde obj-tmp\WF_Config.o
 .debug_info    0x0000791f      0xf42 obj-tmp\WifiGDemoMPFSImg.o
 .debug_info    0x00008861     0x19fc obj-tmp\Announce.o
 .debug_info    0x0000a25d      0xf15 obj-tmp\ARCFOUR.o
 .debug_info    0x0000b172     0x1bb9 obj-tmp\ARP.o
 .debug_info    0x0000cd2b      0xf14 obj-tmp\AutoIP.o
 .debug_info    0x0000dc3f      0xf19 obj-tmp\BerkeleyAPI.o
 .debug_info    0x0000eb58      0xf14 obj-tmp\BigInt.o
 .debug_info    0x0000fa6c      0xfa8 obj-tmp\Delay.o
 .debug_info    0x00010a14     0x1c4e obj-tmp\DNS.o
 .debug_info    0x00012662     0x19ad obj-tmp\DNSs.o
 .debug_info    0x0001400f      0xf14 obj-tmp\DynDNS.o
 .debug_info    0x00014f23      0xf16 obj-tmp\ENC28J60.o
 .debug_info    0x00015e39      0xf18 obj-tmp\ENCX24J600.o
 .debug_info    0x00016d51      0xf29 obj-tmp\eth_pic32_ext_phy_rtl8201FL.o
 .debug_info    0x00017c7a      0xf16 obj-tmp\ETH97J60.o
 .debug_info    0x00018b90      0xf1c obj-tmp\ETHPIC32ExtPhy.o
 .debug_info    0x00019aac      0xf23 obj-tmp\ETHPIC32ExtPhyDP83640.o
 .debug_info    0x0001a9cf      0xf23 obj-tmp\ETHPIC32ExtPhyDP83848.o
 .debug_info    0x0001b8f2      0xf24 obj-tmp\ETHPIC32ExtPhySMSC8700.o
 .debug_info    0x0001c816      0xf24 obj-tmp\ETHPIC32ExtPhySMSC8720.o
 .debug_info    0x0001d73a      0xf1c obj-tmp\ETHPIC32IntMac.o
 .debug_info    0x0001e656      0xf18 obj-tmp\FileSystem.o
 .debug_info    0x0001f56e      0xf11 obj-tmp\FTP.o
 .debug_info    0x0002047f      0xf14 obj-tmp\Hashes.o
 .debug_info    0x00021393     0x222f obj-tmp\Helpers.o
 .debug_info    0x000235c2     0x2023 obj-tmp\HTTP2.o
 .debug_info    0x000255e5     0x1508 obj-tmp\ICMP.o
 .debug_info    0x00026aed     0x1a49 obj-tmp\IP.o
 .debug_info    0x00028536      0xf19 obj-tmp\LCDBlocking.o
 .debug_info    0x0002944f     0x16ca obj-tmp\MPFS2.o
 .debug_info    0x0002ab19     0x1b33 obj-tmp\NBNS.o
 .debug_info    0x0002c64c      0xf14 obj-tmp\Random.o
 .debug_info    0x0002d560     0x18fa obj-tmp\Reboot.o
 .debug_info    0x0002ee5a      0xf11 obj-tmp\RSA.o
 .debug_info    0x0002fd6b      0xf12 obj-tmp\SMTP.o
 .debug_info    0x00030c7d      0xf12 obj-tmp\SNMP.o
 .debug_info    0x00031b8f      0xf14 obj-tmp\SNMPv3.o
 .debug_info    0x00032aa3      0xf17 obj-tmp\SNMPv3USM.o
 .debug_info    0x000339ba      0xf12 obj-tmp\SNTP.o
 .debug_info    0x000348cc      0xf17 obj-tmp\SPIEEPROM.o
 .debug_info    0x000357e3     0x1b9a obj-tmp\SPIFlash.o
 .debug_info    0x0003737d      0xf14 obj-tmp\SPIRAM.o
 .debug_info    0x00038291      0xf11 obj-tmp\SSL.o
 .debug_info    0x000391a2     0x1910 obj-tmp\StackTsk.o
 .debug_info    0x0003aab2     0x3059 obj-tmp\TCP.o
 .debug_info    0x0003db0b      0xf20 obj-tmp\TCPPerformanceTest.o
 .debug_info    0x0003ea2b      0xf14 obj-tmp\Telnet.o
 .debug_info    0x0003f93f      0xf13 obj-tmp\TFTPc.o
 .debug_info    0x00040852     0x1a65 obj-tmp\Tick.o
 .debug_info    0x000422b7     0x11fd obj-tmp\UART.o
 .debug_info    0x000434b4      0xf1c obj-tmp\UART2TCPBridge.o
 .debug_info    0x000443d0     0x205f obj-tmp\UDP.o
 .debug_info    0x0004642f      0xf20 obj-tmp\UDPPerformanceTest.o
 .debug_info    0x0004734f      0xfda obj-tmp\ZeroconfHelper.o
 .debug_info    0x00048329     0x1e40 obj-tmp\ZeroconfLinkLocal.o
 .debug_info    0x0004a169     0x30f6 obj-tmp\ZeroconfMulticastDNS.o
 .debug_info    0x0004d25f     0x1e2f obj-tmp\WF_Eint.o
 .debug_info    0x0004f08e     0x1919 obj-tmp\WF_pbkdf2.o
 .debug_info    0x000509a7     0x24ae obj-tmp\WFConnectionAlgorithm.o
 .debug_info    0x00052e55     0x1a95 obj-tmp\WFConnectionManager.o
 .debug_info    0x000548ea     0x2247 obj-tmp\WFConnectionProfile.o
 .debug_info    0x00056b31      0xf1c obj-tmp\WFConsole.o
 .debug_info    0x00057a4d      0xf24 obj-tmp\WFConsoleIfconfig.o
 .debug_info    0x00058971      0xf24 obj-tmp\WFConsoleIwconfig.o
 .debug_info    0x00059895      0xf22 obj-tmp\WFConsoleIwpriv.o
 .debug_info    0x0005a7b7     0x1050 obj-tmp\WFConsoleMsgHandler.o
 .debug_info    0x0005b807     0x14e4 obj-tmp\WFConsoleMsgs.o
 .debug_info    0x0005cceb      0xf1d obj-tmp\WFDataTxRx.o
 .debug_info    0x0005dc08     0x1d71 obj-tmp\WFDebugStrings.o
 .debug_info    0x0005f979     0x1df6 obj-tmp\WFEasyConfig.o
 .debug_info    0x0006176f     0x14bb obj-tmp\WFEventHandler.o
 .debug_info    0x00062c2a     0x1a4d obj-tmp\WFInit.o
 .debug_info    0x00064677     0x1a2f obj-tmp\WFPowerSave.o
 .debug_info    0x000660a6     0x155e obj-tmp\WFScan.o
 .debug_info    0x00067604     0x16d5 obj-tmp\WFTxPower.o
 .debug_info    0x00068cd9     0x1a8c obj-tmp\WF_Spi.o
 .debug_info    0x0006a765     0x2806 obj-tmp\WFDriverCom_24G.o
 .debug_info    0x0006cf6b     0x1b4b obj-tmp\WFDriverRaw_24G.o
 .debug_info    0x0006eab6     0x253e obj-tmp\WFMac_24G.o
 .debug_info    0x00070ff4     0x1512 obj-tmp\WFMgmtMsg_24G.o
 .debug_info    0x00072506     0x2461 obj-tmp\WFParamMsg_24G.o
 .debug_info    0x00074967     0x1ffc obj-tmp\DHCP.o
 .debug_info    0x00076963     0x2175 obj-tmp\DHCPs.o
 .debug_info    0x00078ad8      0x783 c:/program files (x86)/microchip/mplabc32/v2.02/bin/../lib/gcc/pic32mx/4.5.1\libgcc.a(_udivdi3.o)
 .debug_info    0x0007925b      0x7c0 c:/program files (x86)/microchip/mplabc32/v2.02/bin/../lib/gcc/pic32mx/4.5.1\libgcc.a(_umoddi3.o)
 .debug_info    0x00079a1b       0xcd c:/program files (x86)/microchip/mplabc32/v2.02/bin/../lib/gcc/pic32mx/4.5.1/../../../../pic32mx/lib\libc.a(atol.o)
 .debug_info    0x00079ae8        0x0 c:/program files (x86)/microchip/mplabc32/v2.02/bin/../lib/gcc/pic32mx/4.5.1/../../../../pic32mx/lib\libc.a(ctype.o)
 .debug_info    0x00079ae8       0xe1 c:/program files (x86)/microchip/mplabc32/v2.02/bin/../lib/gcc/pic32mx/4.5.1/../../../../pic32mx/lib\libc.a(puts.o)
 .debug_info    0x00079bc9       0xd3 c:/program files (x86)/microchip/mplabc32/v2.02/bin/../lib/gcc/pic32mx/4.5.1/../../../../pic32mx/lib\libc.a(strncpy.o)
 .debug_info    0x00079c9c       0xe3 c:/program files (x86)/microchip/mplabc32/v2.02/bin/../lib/gcc/pic32mx/4.5.1/../../../../pic32mx/lib\libc.a(printf_cdnopsuxX.eo)
 .debug_info    0x00079d7f       0xe5 c:/program files (x86)/microchip/mplabc32/v2.02/bin/../lib/gcc/pic32mx/4.5.1/../../../../pic32mx/lib\libc.a(sprintf_cdnopsuxX.eo)
 .debug_info    0x00079e64      0x106 c:/program files (x86)/microchip/mplabc32/v2.02/bin/../lib/gcc/pic32mx/4.5.1/../../../../pic32mx/lib\libc.a(default-bootstrap-exception-handler.o)
 .debug_info    0x00079f6a       0xe0 c:/program files (x86)/microchip/mplabc32/v2.02/bin/../lib/gcc/pic32mx/4.5.1/../../../../pic32mx/lib\libc.a(default-on-reset.o)
 .debug_info    0x0007a04a       0xe8 c:/program files (x86)/microchip/mplabc32/v2.02/bin/../lib/gcc/pic32mx/4.5.1/../../../../pic32mx/lib\libc.a(default-on-bootstrap.o)
 .debug_info    0x0007a132        0x0 c:/program files (x86)/microchip/mplabc32/v2.02/bin/../lib/gcc/pic32mx/4.5.1/../../../../pic32mx/lib\libc.a(_iob.o)
 .debug_info    0x0007a132       0xd6 c:/program files (x86)/microchip/mplabc32/v2.02/bin/../lib/gcc/pic32mx/4.5.1/../../../../pic32mx/lib\libc.a(_fputc_simple.o)
 .debug_info    0x0007a208       0xe6 c:/program files (x86)/microchip/mplabc32/v2.02/bin/../lib/gcc/pic32mx/4.5.1/../../../../pic32mx/lib\libc.a(doprnt_cdnopsuxX.eo)
 .debug_info    0x0007a2ee       0xd1 c:/program files (x86)/microchip/mplabc32/v2.02/bin/../lib/gcc/pic32mx/4.5.1/../../../../pic32mx/lib\libc.a(write.o)
 .debug_info    0x0007a3bf       0xd9 c:/program files (x86)/microchip/mplabc32/v2.02/bin/../lib/gcc/pic32mx/4.5.1/../../../../pic32mx/lib\libc.a(_flsbuf_simple.o)
 .debug_info    0x0007a498       0xd9 c:/program files (x86)/microchip/mplabc32/v2.02/bin/../lib/gcc/pic32mx/4.5.1/../../../../pic32mx/lib\libc.a(_mon_putc.o)
 .debug_info    0x0007a571        0x0 c:/program files (x86)/microchip/mplabc32/v2.02/bin/../lib/gcc/pic32mx/4.5.1/../../../../pic32mx/lib\libc.a(c32_uart.o)
 .debug_info    0x0007a571       0xc7 c:/program files (x86)/microchip/mplabc32/v2.02/bin/../lib/gcc/pic32mx/4.5.1/../../../../pic32mx/lib\libmchp_peripheral_32MX575F256L.a(soft_reset_lib.o)
 .debug_info    0x0007a638       0xd4 c:/program files (x86)/microchip/mplabc32/v2.02/bin/../lib/gcc/pic32mx/4.5.1/../../../../pic32mx/lib\libmchp_peripheral_32MX575F256L.a(pcache.o)
 .debug_info    0x0007a70c       0xcb c:/program files (x86)/microchip/mplabc32/v2.02/bin/../lib/gcc/pic32mx/4.5.1/../../../../pic32mx/lib\libmchp_peripheral_32MX575F256L.a(int_disable_interrupts_lib.o)
 .debug_info    0x0007a7d7       0xcb c:/program files (x86)/microchip/mplabc32/v2.02/bin/../lib/gcc/pic32mx/4.5.1/../../../../pic32mx/lib\libmchp_peripheral_32MX575F256L.a(int_restore_interrupts_lib.o)
 .debug_info    0x0007a8a2       0xd1 c:/program files (x86)/microchip/mplabc32/v2.02/bin/../lib/gcc/pic32mx/4.5.1/../../../../pic32mx/lib\libmchp_peripheral_32MX575F256L.a(int_enable_mv_int_lib.o)
 .debug_info    0x0007a973      0x18a c:/program files (x86)/microchip/mplabc32/v2.02/bin/../lib/gcc/pic32mx/4.5.1/../../../../pic32mx/lib\libmchp_peripheral_32MX575F256L.a(uart_lib.o)
 .debug_info    0x0007aafd       0xd4 c:/program files (x86)/microchip/mplabc32/v2.02/bin/../lib/gcc/pic32mx/4.5.1/../../../../pic32mx/lib\libmchp_peripheral_32MX575F256L.a(puts_uartx_lib_legacy.o)
 .debug_info    0x0007abd1       0xc9 c:/program files (x86)/microchip/mplabc32/v2.02/bin/../lib/gcc/pic32mx/4.5.1/../../../../pic32mx/lib\libmchp_peripheral_32MX575F256L.a(int_enable_interrupts_lib.o)

.debug_abbrev   0x00000000     0xaa95
 *(.debug_abbrev)
 .debug_abbrev  0x00000000      0x3c6 obj-tmp\Main.o
 .debug_abbrev  0x000003c6      0x2d8 obj-tmp\CustomHTTPApp.o
 .debug_abbrev  0x0000069e      0x240 obj-tmp\WF_Config.o
 .debug_abbrev  0x000008de      0x180 obj-tmp\WifiGDemoMPFSImg.o
 .debug_abbrev  0x00000a5e      0x1ff obj-tmp\Announce.o
 .debug_abbrev  0x00000c5d      0x166 obj-tmp\ARCFOUR.o
 .debug_abbrev  0x00000dc3      0x2d3 obj-tmp\ARP.o
 .debug_abbrev  0x00001096      0x166 obj-tmp\AutoIP.o
 .debug_abbrev  0x000011fc      0x166 obj-tmp\BerkeleyAPI.o
 .debug_abbrev  0x00001362      0x166 obj-tmp\BigInt.o
 .debug_abbrev  0x000014c8      0x19b obj-tmp\Delay.o
 .debug_abbrev  0x00001663      0x271 obj-tmp\DNS.o
 .debug_abbrev  0x000018d4      0x25d obj-tmp\DNSs.o
 .debug_abbrev  0x00001b31      0x166 obj-tmp\DynDNS.o
 .debug_abbrev  0x00001c97      0x166 obj-tmp\ENC28J60.o
 .debug_abbrev  0x00001dfd      0x166 obj-tmp\ENCX24J600.o
 .debug_abbrev  0x00001f63      0x166 obj-tmp\eth_pic32_ext_phy_rtl8201FL.o
 .debug_abbrev  0x000020c9      0x166 obj-tmp\ETH97J60.o
 .debug_abbrev  0x0000222f      0x166 obj-tmp\ETHPIC32ExtPhy.o
 .debug_abbrev  0x00002395      0x166 obj-tmp\ETHPIC32ExtPhyDP83640.o
 .debug_abbrev  0x000024fb      0x166 obj-tmp\ETHPIC32ExtPhyDP83848.o
 .debug_abbrev  0x00002661      0x166 obj-tmp\ETHPIC32ExtPhySMSC8700.o
 .debug_abbrev  0x000027c7      0x166 obj-tmp\ETHPIC32ExtPhySMSC8720.o
 .debug_abbrev  0x0000292d      0x166 obj-tmp\ETHPIC32IntMac.o
 .debug_abbrev  0x00002a93      0x166 obj-tmp\FileSystem.o
 .debug_abbrev  0x00002bf9      0x166 obj-tmp\FTP.o
 .debug_abbrev  0x00002d5f      0x166 obj-tmp\Hashes.o
 .debug_abbrev  0x00002ec5      0x24c obj-tmp\Helpers.o
 .debug_abbrev  0x00003111      0x2cc obj-tmp\HTTP2.o
 .debug_abbrev  0x000033dd      0x1c0 obj-tmp\ICMP.o
 .debug_abbrev  0x0000359d      0x242 obj-tmp\IP.o
 .debug_abbrev  0x000037df      0x166 obj-tmp\LCDBlocking.o
 .debug_abbrev  0x00003945      0x28e obj-tmp\MPFS2.o
 .debug_abbrev  0x00003bd3      0x247 obj-tmp\NBNS.o
 .debug_abbrev  0x00003e1a      0x166 obj-tmp\Random.o
 .debug_abbrev  0x00003f80      0x1c0 obj-tmp\Reboot.o
 .debug_abbrev  0x00004140      0x166 obj-tmp\RSA.o
 .debug_abbrev  0x000042a6      0x166 obj-tmp\SMTP.o
 .debug_abbrev  0x0000440c      0x166 obj-tmp\SNMP.o
 .debug_abbrev  0x00004572      0x166 obj-tmp\SNMPv3.o
 .debug_abbrev  0x000046d8      0x166 obj-tmp\SNMPv3USM.o
 .debug_abbrev  0x0000483e      0x166 obj-tmp\SNTP.o
 .debug_abbrev  0x000049a4      0x166 obj-tmp\SPIEEPROM.o
 .debug_abbrev  0x00004b0a      0x246 obj-tmp\SPIFlash.o
 .debug_abbrev  0x00004d50      0x166 obj-tmp\SPIRAM.o
 .debug_abbrev  0x00004eb6      0x166 obj-tmp\SSL.o
 .debug_abbrev  0x0000501c      0x20b obj-tmp\StackTsk.o
 .debug_abbrev  0x00005227      0x2d2 obj-tmp\TCP.o
 .debug_abbrev  0x000054f9      0x166 obj-tmp\TCPPerformanceTest.o
 .debug_abbrev  0x0000565f      0x166 obj-tmp\Telnet.o
 .debug_abbrev  0x000057c5      0x166 obj-tmp\TFTPc.o
 .debug_abbrev  0x0000592b      0x219 obj-tmp\Tick.o
 .debug_abbrev  0x00005b44      0x19d obj-tmp\UART.o
 .debug_abbrev  0x00005ce1      0x166 obj-tmp\UART2TCPBridge.o
 .debug_abbrev  0x00005e47      0x2d9 obj-tmp\UDP.o
 .debug_abbrev  0x00006120      0x166 obj-tmp\UDPPerformanceTest.o
 .debug_abbrev  0x00006286      0x19f obj-tmp\ZeroconfHelper.o
 .debug_abbrev  0x00006425      0x2c2 obj-tmp\ZeroconfLinkLocal.o
 .debug_abbrev  0x000066e7      0x32a obj-tmp\ZeroconfMulticastDNS.o
 .debug_abbrev  0x00006a11      0x1aa obj-tmp\WF_Eint.o
 .debug_abbrev  0x00006bbb      0x269 obj-tmp\WF_pbkdf2.o
 .debug_abbrev  0x00006e24      0x2a6 obj-tmp\WFConnectionAlgorithm.o
 .debug_abbrev  0x000070ca      0x290 obj-tmp\WFConnectionManager.o
 .debug_abbrev  0x0000735a      0x298 obj-tmp\WFConnectionProfile.o
 .debug_abbrev  0x000075f2      0x166 obj-tmp\WFConsole.o
 .debug_abbrev  0x00007758      0x166 obj-tmp\WFConsoleIfconfig.o
 .debug_abbrev  0x000078be      0x166 obj-tmp\WFConsoleIwconfig.o
 .debug_abbrev  0x00007a24      0x166 obj-tmp\WFConsoleIwpriv.o
 .debug_abbrev  0x00007b8a      0x1be obj-tmp\WFConsoleMsgHandler.o
 .debug_abbrev  0x00007d48      0x1ef obj-tmp\WFConsoleMsgs.o
 .debug_abbrev  0x00007f37      0x166 obj-tmp\WFDataTxRx.o
 .debug_abbrev  0x0000809d      0x253 obj-tmp\WFDebugStrings.o
 .debug_abbrev  0x000082f0      0x2a8 obj-tmp\WFEasyConfig.o
 .debug_abbrev  0x00008598      0x22b obj-tmp\WFEventHandler.o
 .debug_abbrev  0x000087c3      0x1f8 obj-tmp\WFInit.o
 .debug_abbrev  0x000089bb      0x27d obj-tmp\WFPowerSave.o
 .debug_abbrev  0x00008c38      0x208 obj-tmp\WFScan.o
 .debug_abbrev  0x00008e40      0x20b obj-tmp\WFTxPower.o
 .debug_abbrev  0x0000904b      0x217 obj-tmp\WF_Spi.o
 .debug_abbrev  0x00009262      0x2fc obj-tmp\WFDriverCom_24G.o
 .debug_abbrev  0x0000955e      0x26c obj-tmp\WFDriverRaw_24G.o
 .debug_abbrev  0x000097ca      0x2c5 obj-tmp\WFMac_24G.o
 .debug_abbrev  0x00009a8f      0x269 obj-tmp\WFMgmtMsg_24G.o
 .debug_abbrev  0x00009cf8      0x274 obj-tmp\WFParamMsg_24G.o
 .debug_abbrev  0x00009f6c      0x2bd obj-tmp\DHCP.o
 .debug_abbrev  0x0000a229      0x29b obj-tmp\DHCPs.o
 .debug_abbrev  0x0000a4c4      0x13d c:/program files (x86)/microchip/mplabc32/v2.02/bin/../lib/gcc/pic32mx/4.5.1\libgcc.a(_udivdi3.o)
 .debug_abbrev  0x0000a601      0x15c c:/program files (x86)/microchip/mplabc32/v2.02/bin/../lib/gcc/pic32mx/4.5.1\libgcc.a(_umoddi3.o)
 .debug_abbrev  0x0000a75d       0x25 c:/program files (x86)/microchip/mplabc32/v2.02/bin/../lib/gcc/pic32mx/4.5.1/../../../../pic32mx/lib\libc.a(atol.o)
 .debug_abbrev  0x0000a782        0x1 c:/program files (x86)/microchip/mplabc32/v2.02/bin/../lib/gcc/pic32mx/4.5.1/../../../../pic32mx/lib\libc.a(ctype.o)
 .debug_abbrev  0x0000a783       0x25 c:/program files (x86)/microchip/mplabc32/v2.02/bin/../lib/gcc/pic32mx/4.5.1/../../../../pic32mx/lib\libc.a(puts.o)
 .debug_abbrev  0x0000a7a8       0x25 c:/program files (x86)/microchip/mplabc32/v2.02/bin/../lib/gcc/pic32mx/4.5.1/../../../../pic32mx/lib\libc.a(strncpy.o)
 .debug_abbrev  0x0000a7cd       0x27 c:/program files (x86)/microchip/mplabc32/v2.02/bin/../lib/gcc/pic32mx/4.5.1/../../../../pic32mx/lib\libc.a(printf_cdnopsuxX.eo)
 .debug_abbrev  0x0000a7f4       0x27 c:/program files (x86)/microchip/mplabc32/v2.02/bin/../lib/gcc/pic32mx/4.5.1/../../../../pic32mx/lib\libc.a(sprintf_cdnopsuxX.eo)
 .debug_abbrev  0x0000a81b       0x25 c:/program files (x86)/microchip/mplabc32/v2.02/bin/../lib/gcc/pic32mx/4.5.1/../../../../pic32mx/lib\libc.a(default-bootstrap-exception-handler.o)
 .debug_abbrev  0x0000a840       0x25 c:/program files (x86)/microchip/mplabc32/v2.02/bin/../lib/gcc/pic32mx/4.5.1/../../../../pic32mx/lib\libc.a(default-on-reset.o)
 .debug_abbrev  0x0000a865       0x25 c:/program files (x86)/microchip/mplabc32/v2.02/bin/../lib/gcc/pic32mx/4.5.1/../../../../pic32mx/lib\libc.a(default-on-bootstrap.o)
 .debug_abbrev  0x0000a88a        0x1 c:/program files (x86)/microchip/mplabc32/v2.02/bin/../lib/gcc/pic32mx/4.5.1/../../../../pic32mx/lib\libc.a(_iob.o)
 .debug_abbrev  0x0000a88b       0x27 c:/program files (x86)/microchip/mplabc32/v2.02/bin/../lib/gcc/pic32mx/4.5.1/../../../../pic32mx/lib\libc.a(_fputc_simple.o)
 .debug_abbrev  0x0000a8b2       0x27 c:/program files (x86)/microchip/mplabc32/v2.02/bin/../lib/gcc/pic32mx/4.5.1/../../../../pic32mx/lib\libc.a(doprnt_cdnopsuxX.eo)
 .debug_abbrev  0x0000a8d9       0x25 c:/program files (x86)/microchip/mplabc32/v2.02/bin/../lib/gcc/pic32mx/4.5.1/../../../../pic32mx/lib\libc.a(write.o)
 .debug_abbrev  0x0000a8fe       0x27 c:/program files (x86)/microchip/mplabc32/v2.02/bin/../lib/gcc/pic32mx/4.5.1/../../../../pic32mx/lib\libc.a(_flsbuf_simple.o)
 .debug_abbrev  0x0000a925       0x25 c:/program files (x86)/microchip/mplabc32/v2.02/bin/../lib/gcc/pic32mx/4.5.1/../../../../pic32mx/lib\libc.a(_mon_putc.o)
 .debug_abbrev  0x0000a94a        0x1 c:/program files (x86)/microchip/mplabc32/v2.02/bin/../lib/gcc/pic32mx/4.5.1/../../../../pic32mx/lib\libc.a(c32_uart.o)
 .debug_abbrev  0x0000a94b       0x34 c:/program files (x86)/microchip/mplabc32/v2.02/bin/../lib/gcc/pic32mx/4.5.1/../../../../pic32mx/lib\libmchp_peripheral_32MX575F256L.a(soft_reset_lib.o)
 .debug_abbrev  0x0000a97f       0x25 c:/program files (x86)/microchip/mplabc32/v2.02/bin/../lib/gcc/pic32mx/4.5.1/../../../../pic32mx/lib\libmchp_peripheral_32MX575F256L.a(pcache.o)
 .debug_abbrev  0x0000a9a4       0x25 c:/program files (x86)/microchip/mplabc32/v2.02/bin/../lib/gcc/pic32mx/4.5.1/../../../../pic32mx/lib\libmchp_peripheral_32MX575F256L.a(int_disable_interrupts_lib.o)
 .debug_abbrev  0x0000a9c9       0x25 c:/program files (x86)/microchip/mplabc32/v2.02/bin/../lib/gcc/pic32mx/4.5.1/../../../../pic32mx/lib\libmchp_peripheral_32MX575F256L.a(int_restore_interrupts_lib.o)
 .debug_abbrev  0x0000a9ee       0x25 c:/program files (x86)/microchip/mplabc32/v2.02/bin/../lib/gcc/pic32mx/4.5.1/../../../../pic32mx/lib\libmchp_peripheral_32MX575F256L.a(int_enable_mv_int_lib.o)
 .debug_abbrev  0x0000aa13       0x38 c:/program files (x86)/microchip/mplabc32/v2.02/bin/../lib/gcc/pic32mx/4.5.1/../../../../pic32mx/lib\libmchp_peripheral_32MX575F256L.a(uart_lib.o)
 .debug_abbrev  0x0000aa4b       0x25 c:/program files (x86)/microchip/mplabc32/v2.02/bin/../lib/gcc/pic32mx/4.5.1/../../../../pic32mx/lib\libmchp_peripheral_32MX575F256L.a(puts_uartx_lib_legacy.o)
 .debug_abbrev  0x0000aa70       0x25 c:/program files (x86)/microchip/mplabc32/v2.02/bin/../lib/gcc/pic32mx/4.5.1/../../../../pic32mx/lib\libmchp_peripheral_32MX575F256L.a(int_enable_interrupts_lib.o)

.debug_line     0x00000000     0xc9ea
 *(.debug_line)
 .debug_line    0x00000000      0x3e4 obj-tmp\Main.o
 .debug_line    0x000003e4      0x4ab obj-tmp\CustomHTTPApp.o
 .debug_line    0x0000088f      0x240 obj-tmp\WF_Config.o
 .debug_line    0x00000acf      0x15c obj-tmp\WifiGDemoMPFSImg.o
 .debug_line    0x00000c2b      0x21e obj-tmp\Announce.o
 .debug_line    0x00000e49      0x146 obj-tmp\ARCFOUR.o
 .debug_line    0x00000f8f      0x2ac obj-tmp\ARP.o
 .debug_line    0x0000123b      0x146 obj-tmp\AutoIP.o
 .debug_line    0x00001381      0x146 obj-tmp\BerkeleyAPI.o
 .debug_line    0x000014c7      0x146 obj-tmp\BigInt.o
 .debug_line    0x0000160d      0x18e obj-tmp\Delay.o
 .debug_line    0x0000179b      0x322 obj-tmp\DNS.o
 .debug_line    0x00001abd      0x24f obj-tmp\DNSs.o
 .debug_line    0x00001d0c      0x146 obj-tmp\DynDNS.o
 .debug_line    0x00001e52      0x146 obj-tmp\ENC28J60.o
 .debug_line    0x00001f98      0x146 obj-tmp\ENCX24J600.o
 .debug_line    0x000020de      0x146 obj-tmp\eth_pic32_ext_phy_rtl8201FL.o
 .debug_line    0x00002224      0x146 obj-tmp\ETH97J60.o
 .debug_line    0x0000236a      0x146 obj-tmp\ETHPIC32ExtPhy.o
 .debug_line    0x000024b0      0x146 obj-tmp\ETHPIC32ExtPhyDP83640.o
 .debug_line    0x000025f6      0x146 obj-tmp\ETHPIC32ExtPhyDP83848.o
 .debug_line    0x0000273c      0x146 obj-tmp\ETHPIC32ExtPhySMSC8700.o
 .debug_line    0x00002882      0x146 obj-tmp\ETHPIC32ExtPhySMSC8720.o
 .debug_line    0x000029c8      0x146 obj-tmp\ETHPIC32IntMac.o
 .debug_line    0x00002b0e      0x146 obj-tmp\FileSystem.o
 .debug_line    0x00002c54      0x146 obj-tmp\FTP.o
 .debug_line    0x00002d9a      0x146 obj-tmp\Hashes.o
 .debug_line    0x00002ee0      0x398 obj-tmp\Helpers.o
 .debug_line    0x00003278      0x55a obj-tmp\HTTP2.o
 .debug_line    0x000037d2      0x1c7 obj-tmp\ICMP.o
 .debug_line    0x00003999      0x208 obj-tmp\IP.o
 .debug_line    0x00003ba1      0x146 obj-tmp\LCDBlocking.o
 .debug_line    0x00003ce7      0x375 obj-tmp\MPFS2.o
 .debug_line    0x0000405c      0x251 obj-tmp\NBNS.o
 .debug_line    0x000042ad      0x146 obj-tmp\Random.o
 .debug_line    0x000043f3      0x1d3 obj-tmp\Reboot.o
 .debug_line    0x000045c6      0x146 obj-tmp\RSA.o
 .debug_line    0x0000470c      0x146 obj-tmp\SMTP.o
 .debug_line    0x00004852      0x146 obj-tmp\SNMP.o
 .debug_line    0x00004998      0x146 obj-tmp\SNMPv3.o
 .debug_line    0x00004ade      0x146 obj-tmp\SNMPv3USM.o
 .debug_line    0x00004c24      0x146 obj-tmp\SNTP.o
 .debug_line    0x00004d6a      0x146 obj-tmp\SPIEEPROM.o
 .debug_line    0x00004eb0      0x3a3 obj-tmp\SPIFlash.o
 .debug_line    0x00005253      0x146 obj-tmp\SPIRAM.o
 .debug_line    0x00005399      0x146 obj-tmp\SSL.o
 .debug_line    0x000054df      0x23c obj-tmp\StackTsk.o
 .debug_line    0x0000571b      0xb75 obj-tmp\TCP.o
 .debug_line    0x00006290      0x146 obj-tmp\TCPPerformanceTest.o
 .debug_line    0x000063d6      0x146 obj-tmp\Telnet.o
 .debug_line    0x0000651c      0x146 obj-tmp\TFTPc.o
 .debug_line    0x00006662      0x1d8 obj-tmp\Tick.o
 .debug_line    0x0000683a      0x18c obj-tmp\UART.o
 .debug_line    0x000069c6      0x146 obj-tmp\UART2TCPBridge.o
 .debug_line    0x00006b0c      0x376 obj-tmp\UDP.o
 .debug_line    0x00006e82      0x146 obj-tmp\UDPPerformanceTest.o
 .debug_line    0x00006fc8      0x191 obj-tmp\ZeroconfHelper.o
 .debug_line    0x00007159      0x361 obj-tmp\ZeroconfLinkLocal.o
 .debug_line    0x000074ba      0x7d4 obj-tmp\ZeroconfMulticastDNS.o
 .debug_line    0x00007c8e      0x1b8 obj-tmp\WF_Eint.o
 .debug_line    0x00007e46      0x3a7 obj-tmp\WF_pbkdf2.o
 .debug_line    0x000081ed      0x373 obj-tmp\WFConnectionAlgorithm.o
 .debug_line    0x00008560      0x231 obj-tmp\WFConnectionManager.o
 .debug_line    0x00008791      0x2e4 obj-tmp\WFConnectionProfile.o
 .debug_line    0x00008a75      0x146 obj-tmp\WFConsole.o
 .debug_line    0x00008bbb      0x146 obj-tmp\WFConsoleIfconfig.o
 .debug_line    0x00008d01      0x146 obj-tmp\WFConsoleIwconfig.o
 .debug_line    0x00008e47      0x146 obj-tmp\WFConsoleIwpriv.o
 .debug_line    0x00008f8d      0x1a9 obj-tmp\WFConsoleMsgHandler.o
 .debug_line    0x00009136      0x257 obj-tmp\WFConsoleMsgs.o
 .debug_line    0x0000938d      0x146 obj-tmp\WFDataTxRx.o
 .debug_line    0x000094d3      0x2e3 obj-tmp\WFDebugStrings.o
 .debug_line    0x000097b6      0x2a3 obj-tmp\WFEasyConfig.o
 .debug_line    0x00009a59      0x24c obj-tmp\WFEventHandler.o
 .debug_line    0x00009ca5      0x1d6 obj-tmp\WFInit.o
 .debug_line    0x00009e7b      0x233 obj-tmp\WFPowerSave.o
 .debug_line    0x0000a0ae      0x1e9 obj-tmp\WFScan.o
 .debug_line    0x0000a297      0x1e0 obj-tmp\WFTxPower.o
 .debug_line    0x0000a477      0x1fe obj-tmp\WF_Spi.o
 .debug_line    0x0000a675      0x384 obj-tmp\WFDriverCom_24G.o
 .debug_line    0x0000a9f9      0x334 obj-tmp\WFDriverRaw_24G.o
 .debug_line    0x0000ad2d      0x3fb obj-tmp\WFMac_24G.o
 .debug_line    0x0000b128      0x250 obj-tmp\WFMgmtMsg_24G.o
 .debug_line    0x0000b378      0x2fc obj-tmp\WFParamMsg_24G.o
 .debug_line    0x0000b674      0x41e obj-tmp\DHCP.o
 .debug_line    0x0000ba92      0x400 obj-tmp\DHCPs.o
 .debug_line    0x0000be92      0x112 c:/program files (x86)/microchip/mplabc32/v2.02/bin/../lib/gcc/pic32mx/4.5.1\libgcc.a(_udivdi3.o)
 .debug_line    0x0000bfa4      0x128 c:/program files (x86)/microchip/mplabc32/v2.02/bin/../lib/gcc/pic32mx/4.5.1\libgcc.a(_umoddi3.o)
 .debug_line    0x0000c0cc       0x85 c:/program files (x86)/microchip/mplabc32/v2.02/bin/../lib/gcc/pic32mx/4.5.1/../../../../pic32mx/lib\libc.a(atol.o)
 .debug_line    0x0000c151        0x0 c:/program files (x86)/microchip/mplabc32/v2.02/bin/../lib/gcc/pic32mx/4.5.1/../../../../pic32mx/lib\libc.a(ctype.o)
 .debug_line    0x0000c151       0x85 c:/program files (x86)/microchip/mplabc32/v2.02/bin/../lib/gcc/pic32mx/4.5.1/../../../../pic32mx/lib\libc.a(puts.o)
 .debug_line    0x0000c1d6       0x88 c:/program files (x86)/microchip/mplabc32/v2.02/bin/../lib/gcc/pic32mx/4.5.1/../../../../pic32mx/lib\libc.a(strncpy.o)
 .debug_line    0x0000c25e       0x30 c:/program files (x86)/microchip/mplabc32/v2.02/bin/../lib/gcc/pic32mx/4.5.1/../../../../pic32mx/lib\libc.a(printf_cdnopsuxX.eo)
 .debug_line    0x0000c28e       0x31 c:/program files (x86)/microchip/mplabc32/v2.02/bin/../lib/gcc/pic32mx/4.5.1/../../../../pic32mx/lib\libc.a(sprintf_cdnopsuxX.eo)
 .debug_line    0x0000c2bf       0xa6 c:/program files (x86)/microchip/mplabc32/v2.02/bin/../lib/gcc/pic32mx/4.5.1/../../../../pic32mx/lib\libc.a(default-bootstrap-exception-handler.o)
 .debug_line    0x0000c365       0x93 c:/program files (x86)/microchip/mplabc32/v2.02/bin/../lib/gcc/pic32mx/4.5.1/../../../../pic32mx/lib\libc.a(default-on-reset.o)
 .debug_line    0x0000c3f8       0x97 c:/program files (x86)/microchip/mplabc32/v2.02/bin/../lib/gcc/pic32mx/4.5.1/../../../../pic32mx/lib\libc.a(default-on-bootstrap.o)
 .debug_line    0x0000c48f        0x0 c:/program files (x86)/microchip/mplabc32/v2.02/bin/../lib/gcc/pic32mx/4.5.1/../../../../pic32mx/lib\libc.a(_iob.o)
 .debug_line    0x0000c48f       0x2f c:/program files (x86)/microchip/mplabc32/v2.02/bin/../lib/gcc/pic32mx/4.5.1/../../../../pic32mx/lib\libc.a(_fputc_simple.o)
 .debug_line    0x0000c4be       0x30 c:/program files (x86)/microchip/mplabc32/v2.02/bin/../lib/gcc/pic32mx/4.5.1/../../../../pic32mx/lib\libc.a(doprnt_cdnopsuxX.eo)
 .debug_line    0x0000c4ee       0x88 c:/program files (x86)/microchip/mplabc32/v2.02/bin/../lib/gcc/pic32mx/4.5.1/../../../../pic32mx/lib\libc.a(write.o)
 .debug_line    0x0000c576       0x30 c:/program files (x86)/microchip/mplabc32/v2.02/bin/../lib/gcc/pic32mx/4.5.1/../../../../pic32mx/lib\libc.a(_flsbuf_simple.o)
 .debug_line    0x0000c5a6       0x8c c:/program files (x86)/microchip/mplabc32/v2.02/bin/../lib/gcc/pic32mx/4.5.1/../../../../pic32mx/lib\libc.a(_mon_putc.o)
 .debug_line    0x0000c632        0x0 c:/program files (x86)/microchip/mplabc32/v2.02/bin/../lib/gcc/pic32mx/4.5.1/../../../../pic32mx/lib\libc.a(c32_uart.o)
 .debug_line    0x0000c632       0xbf c:/program files (x86)/microchip/mplabc32/v2.02/bin/../lib/gcc/pic32mx/4.5.1/../../../../pic32mx/lib\libmchp_peripheral_32MX575F256L.a(soft_reset_lib.o)
 .debug_line    0x0000c6f1       0x62 c:/program files (x86)/microchip/mplabc32/v2.02/bin/../lib/gcc/pic32mx/4.5.1/../../../../pic32mx/lib\libmchp_peripheral_32MX575F256L.a(pcache.o)
 .debug_line    0x0000c753       0x73 c:/program files (x86)/microchip/mplabc32/v2.02/bin/../lib/gcc/pic32mx/4.5.1/../../../../pic32mx/lib\libmchp_peripheral_32MX575F256L.a(int_disable_interrupts_lib.o)
 .debug_line    0x0000c7c6       0x73 c:/program files (x86)/microchip/mplabc32/v2.02/bin/../lib/gcc/pic32mx/4.5.1/../../../../pic32mx/lib\libmchp_peripheral_32MX575F256L.a(int_restore_interrupts_lib.o)
 .debug_line    0x0000c839       0x6e c:/program files (x86)/microchip/mplabc32/v2.02/bin/../lib/gcc/pic32mx/4.5.1/../../../../pic32mx/lib\libmchp_peripheral_32MX575F256L.a(int_enable_mv_int_lib.o)
 .debug_line    0x0000c8a7       0x62 c:/program files (x86)/microchip/mplabc32/v2.02/bin/../lib/gcc/pic32mx/4.5.1/../../../../pic32mx/lib\libmchp_peripheral_32MX575F256L.a(uart_lib.o)
 .debug_line    0x0000c909       0x6f c:/program files (x86)/microchip/mplabc32/v2.02/bin/../lib/gcc/pic32mx/4.5.1/../../../../pic32mx/lib\libmchp_peripheral_32MX575F256L.a(puts_uartx_lib_legacy.o)
 .debug_line    0x0000c978       0x72 c:/program files (x86)/microchip/mplabc32/v2.02/bin/../lib/gcc/pic32mx/4.5.1/../../../../pic32mx/lib\libmchp_peripheral_32MX575F256L.a(int_enable_interrupts_lib.o)

.debug_frame    0x00000000     0x3bc4
 *(.debug_frame)
 .debug_frame   0x00000000      0x108 obj-tmp\Main.o
 .debug_frame   0x00000108      0x27c obj-tmp\CustomHTTPApp.o
 .debug_frame   0x00000384       0x48 obj-tmp\WF_Config.o
 .debug_frame   0x000003cc       0x48 obj-tmp\Announce.o
 .debug_frame   0x00000414      0x118 obj-tmp\ARP.o
 .debug_frame   0x0000052c       0x44 obj-tmp\Delay.o
 .debug_frame   0x00000570       0xb4 obj-tmp\DNS.o
 .debug_frame   0x00000624       0x94 obj-tmp\DNSs.o
 .debug_frame   0x000006b8      0x1a0 obj-tmp\Helpers.o
 .debug_frame   0x00000858      0x1b4 obj-tmp\HTTP2.o
 .debug_frame   0x00000a0c       0x2c obj-tmp\ICMP.o
 .debug_frame   0x00000a38       0x80 obj-tmp\IP.o
 .debug_frame   0x00000ab8      0x230 obj-tmp\MPFS2.o
 .debug_frame   0x00000ce8       0x64 obj-tmp\NBNS.o
 .debug_frame   0x00000d4c       0x2c obj-tmp\Reboot.o
 .debug_frame   0x00000d78       0xe0 obj-tmp\SPIFlash.o
 .debug_frame   0x00000e58       0x80 obj-tmp\StackTsk.o
 .debug_frame   0x00000ed8      0x39c obj-tmp\TCP.o
 .debug_frame   0x00001274       0xcc obj-tmp\Tick.o
 .debug_frame   0x00001340       0x28 obj-tmp\UART.o
 .debug_frame   0x00001368      0x200 obj-tmp\UDP.o
 .debug_frame   0x00001568       0x2c obj-tmp\ZeroconfHelper.o
 .debug_frame   0x00001594       0xcc obj-tmp\ZeroconfLinkLocal.o
 .debug_frame   0x00001660      0x2d8 obj-tmp\ZeroconfMulticastDNS.o
 .debug_frame   0x00001938       0xd0 obj-tmp\WF_Eint.o
 .debug_frame   0x00001a08      0x15c obj-tmp\WF_pbkdf2.o
 .debug_frame   0x00001b64      0x468 obj-tmp\WFConnectionAlgorithm.o
 .debug_frame   0x00001fcc      0x104 obj-tmp\WFConnectionManager.o
 .debug_frame   0x000020d0      0x2cc obj-tmp\WFConnectionProfile.o
 .debug_frame   0x0000239c       0x2c obj-tmp\WFConsoleMsgHandler.o
 .debug_frame   0x000023c8       0x44 obj-tmp\WFConsoleMsgs.o
 .debug_frame   0x0000240c      0x15c obj-tmp\WFDebugStrings.o
 .debug_frame   0x00002568       0xe8 obj-tmp\WFEasyConfig.o
 .debug_frame   0x00002650       0x60 obj-tmp\WFEventHandler.o
 .debug_frame   0x000026b0       0x48 obj-tmp\WFInit.o
 .debug_frame   0x000026f8      0x18c obj-tmp\WFPowerSave.o
 .debug_frame   0x00002884       0x64 obj-tmp\WFScan.o
 .debug_frame   0x000028e8       0x64 obj-tmp\WFTxPower.o
 .debug_frame   0x0000294c       0x90 obj-tmp\WF_Spi.o
 .debug_frame   0x000029dc      0x280 obj-tmp\WFDriverCom_24G.o
 .debug_frame   0x00002c5c      0x25c obj-tmp\WFDriverRaw_24G.o
 .debug_frame   0x00002eb8      0x35c obj-tmp\WFMac_24G.o
 .debug_frame   0x00003214       0x94 obj-tmp\WFMgmtMsg_24G.o
 .debug_frame   0x000032a8      0x2b0 obj-tmp\WFParamMsg_24G.o
 .debug_frame   0x00003558      0x13c obj-tmp\DHCP.o
 .debug_frame   0x00003694      0x180 obj-tmp\DHCPs.o
 .debug_frame   0x00003814       0x20 c:/program files (x86)/microchip/mplabc32/v2.02/bin/../lib/gcc/pic32mx/4.5.1/../../../../pic32mx/lib\libc.a(atol.o)
 .debug_frame   0x00003834       0x48 c:/program files (x86)/microchip/mplabc32/v2.02/bin/../lib/gcc/pic32mx/4.5.1/../../../../pic32mx/lib\libc.a(puts.o)
 .debug_frame   0x0000387c       0x20 c:/program files (x86)/microchip/mplabc32/v2.02/bin/../lib/gcc/pic32mx/4.5.1/../../../../pic32mx/lib\libc.a(strncpy.o)
 .debug_frame   0x0000389c       0x28 c:/program files (x86)/microchip/mplabc32/v2.02/bin/../lib/gcc/pic32mx/4.5.1/../../../../pic32mx/lib\libc.a(printf_cdnopsuxX.eo)
 .debug_frame   0x000038c4       0x2c c:/program files (x86)/microchip/mplabc32/v2.02/bin/../lib/gcc/pic32mx/4.5.1/../../../../pic32mx/lib\libc.a(sprintf_cdnopsuxX.eo)
 .debug_frame   0x000038f0       0x20 c:/program files (x86)/microchip/mplabc32/v2.02/bin/../lib/gcc/pic32mx/4.5.1/../../../../pic32mx/lib\libc.a(default-bootstrap-exception-handler.o)
 .debug_frame   0x00003910       0x20 c:/program files (x86)/microchip/mplabc32/v2.02/bin/../lib/gcc/pic32mx/4.5.1/../../../../pic32mx/lib\libc.a(default-on-reset.o)
 .debug_frame   0x00003930       0x20 c:/program files (x86)/microchip/mplabc32/v2.02/bin/../lib/gcc/pic32mx/4.5.1/../../../../pic32mx/lib\libc.a(default-on-bootstrap.o)
 .debug_frame   0x00003950       0x2c c:/program files (x86)/microchip/mplabc32/v2.02/bin/../lib/gcc/pic32mx/4.5.1/../../../../pic32mx/lib\libc.a(_fputc_simple.o)
 .debug_frame   0x0000397c       0x38 c:/program files (x86)/microchip/mplabc32/v2.02/bin/../lib/gcc/pic32mx/4.5.1/../../../../pic32mx/lib\libc.a(doprnt_cdnopsuxX.eo)
 .debug_frame   0x000039b4       0x28 c:/program files (x86)/microchip/mplabc32/v2.02/bin/../lib/gcc/pic32mx/4.5.1/../../../../pic32mx/lib\libc.a(write.o)
 .debug_frame   0x000039dc       0x28 c:/program files (x86)/microchip/mplabc32/v2.02/bin/../lib/gcc/pic32mx/4.5.1/../../../../pic32mx/lib\libc.a(_flsbuf_simple.o)
 .debug_frame   0x00003a04       0x20 c:/program files (x86)/microchip/mplabc32/v2.02/bin/../lib/gcc/pic32mx/4.5.1/../../../../pic32mx/lib\libc.a(_mon_putc.o)
 .debug_frame   0x00003a24       0x28 c:/program files (x86)/microchip/mplabc32/v2.02/bin/../lib/gcc/pic32mx/4.5.1/../../../../pic32mx/lib\libmchp_peripheral_32MX575F256L.a(soft_reset_lib.o)
 .debug_frame   0x00003a4c       0x30 c:/program files (x86)/microchip/mplabc32/v2.02/bin/../lib/gcc/pic32mx/4.5.1/../../../../pic32mx/lib\libmchp_peripheral_32MX575F256L.a(pcache.o)
 .debug_frame   0x00003a7c       0x20 c:/program files (x86)/microchip/mplabc32/v2.02/bin/../lib/gcc/pic32mx/4.5.1/../../../../pic32mx/lib\libmchp_peripheral_32MX575F256L.a(int_disable_interrupts_lib.o)
 .debug_frame   0x00003a9c       0x20 c:/program files (x86)/microchip/mplabc32/v2.02/bin/../lib/gcc/pic32mx/4.5.1/../../../../pic32mx/lib\libmchp_peripheral_32MX575F256L.a(int_restore_interrupts_lib.o)
 .debug_frame   0x00003abc       0x28 c:/program files (x86)/microchip/mplabc32/v2.02/bin/../lib/gcc/pic32mx/4.5.1/../../../../pic32mx/lib\libmchp_peripheral_32MX575F256L.a(int_enable_mv_int_lib.o)
 .debug_frame   0x00003ae4       0x90 c:/program files (x86)/microchip/mplabc32/v2.02/bin/../lib/gcc/pic32mx/4.5.1/../../../../pic32mx/lib\libmchp_peripheral_32MX575F256L.a(uart_lib.o)
 .debug_frame   0x00003b74       0x30 c:/program files (x86)/microchip/mplabc32/v2.02/bin/../lib/gcc/pic32mx/4.5.1/../../../../pic32mx/lib\libmchp_peripheral_32MX575F256L.a(puts_uartx_lib_legacy.o)
 .debug_frame   0x00003ba4       0x20 c:/program files (x86)/microchip/mplabc32/v2.02/bin/../lib/gcc/pic32mx/4.5.1/../../../../pic32mx/lib\libmchp_peripheral_32MX575F256L.a(int_enable_interrupts_lib.o)

.debug_str      0x00000000     0x590d
 *(.debug_str)
 .debug_str     0x00000000      0x1a7 obj-tmp\Main.o
 .debug_str     0x000001a7      0x196 obj-tmp\CustomHTTPApp.o
 .debug_str     0x0000033d      0x108 obj-tmp\WF_Config.o
 .debug_str     0x00000445       0xe2 obj-tmp\WifiGDemoMPFSImg.o
 .debug_str     0x00000527      0x10e obj-tmp\Announce.o
 .debug_str     0x00000635       0xe2 obj-tmp\ARCFOUR.o
 .debug_str     0x00000717       0xfa obj-tmp\ARP.o
 .debug_str     0x00000811       0xe2 obj-tmp\AutoIP.o
 .debug_str     0x000008f3       0xe2 obj-tmp\BerkeleyAPI.o
 .debug_str     0x000009d5       0xe2 obj-tmp\BigInt.o
 .debug_str     0x00000ab7       0xe2 obj-tmp\Delay.o
 .debug_str     0x00000b99       0xec obj-tmp\DNS.o
 .debug_str     0x00000c85       0xec obj-tmp\DNSs.o
 .debug_str     0x00000d71       0xe2 obj-tmp\DynDNS.o
 .debug_str     0x00000e53       0xe2 obj-tmp\ENC28J60.o
 .debug_str     0x00000f35       0xe2 obj-tmp\ENCX24J600.o
 .debug_str     0x00001017       0xe2 obj-tmp\eth_pic32_ext_phy_rtl8201FL.o
 .debug_str     0x000010f9       0xe2 obj-tmp\ETH97J60.o
 .debug_str     0x000011db       0xe2 obj-tmp\ETHPIC32ExtPhy.o
 .debug_str     0x000012bd       0xe2 obj-tmp\ETHPIC32ExtPhyDP83640.o
 .debug_str     0x0000139f       0xe2 obj-tmp\ETHPIC32ExtPhyDP83848.o
 .debug_str     0x00001481       0xe2 obj-tmp\ETHPIC32ExtPhySMSC8700.o
 .debug_str     0x00001563       0xe2 obj-tmp\ETHPIC32ExtPhySMSC8720.o
 .debug_str     0x00001645       0xe2 obj-tmp\ETHPIC32IntMac.o
 .debug_str     0x00001727       0xe2 obj-tmp\FileSystem.o
 .debug_str     0x00001809       0xe2 obj-tmp\FTP.o
 .debug_str     0x000018eb       0xe2 obj-tmp\Hashes.o
 .debug_str     0x000019cd       0xf5 obj-tmp\Helpers.o
 .debug_str     0x00001ac2      0x10e obj-tmp\HTTP2.o
 .debug_str     0x00001bd0       0xe2 obj-tmp\ICMP.o
 .debug_str     0x00001cb2       0xf5 obj-tmp\IP.o
 .debug_str     0x00001da7       0xe2 obj-tmp\LCDBlocking.o
 .debug_str     0x00001e89      0x106 obj-tmp\MPFS2.o
 .debug_str     0x00001f8f      0x105 obj-tmp\NBNS.o
 .debug_str     0x00002094       0xe2 obj-tmp\Random.o
 .debug_str     0x00002176      0x100 obj-tmp\Reboot.o
 .debug_str     0x00002276       0xe2 obj-tmp\RSA.o
 .debug_str     0x00002358       0xe2 obj-tmp\SMTP.o
 .debug_str     0x0000243a       0xe2 obj-tmp\SNMP.o
 .debug_str     0x0000251c       0xe2 obj-tmp\SNMPv3.o
 .debug_str     0x000025fe       0xe2 obj-tmp\SNMPv3USM.o
 .debug_str     0x000026e0       0xe2 obj-tmp\SNTP.o
 .debug_str     0x000027c2       0xe2 obj-tmp\SPIEEPROM.o
 .debug_str     0x000028a4      0x13e obj-tmp\SPIFlash.o
 .debug_str     0x000029e2       0xe2 obj-tmp\SPIRAM.o
 .debug_str     0x00002ac4       0xe2 obj-tmp\SSL.o
 .debug_str     0x00002ba6      0x114 obj-tmp\StackTsk.o
 .debug_str     0x00002cba      0x1ad obj-tmp\TCP.o
 .debug_str     0x00002e67       0xe2 obj-tmp\TCPPerformanceTest.o
 .debug_str     0x00002f49       0xe2 obj-tmp\Telnet.o
 .debug_str     0x0000302b       0xe2 obj-tmp\TFTPc.o
 .debug_str     0x0000310d       0xfe obj-tmp\Tick.o
 .debug_str     0x0000320b       0xec obj-tmp\UART.o
 .debug_str     0x000032f7       0xe2 obj-tmp\UART2TCPBridge.o
 .debug_str     0x000033d9      0x154 obj-tmp\UDP.o
 .debug_str     0x0000352d       0xe2 obj-tmp\UDPPerformanceTest.o
 .debug_str     0x0000360f       0xe2 obj-tmp\ZeroconfHelper.o
 .debug_str     0x000036f1      0x143 obj-tmp\ZeroconfLinkLocal.o
 .debug_str     0x00003834      0x1a6 obj-tmp\ZeroconfMulticastDNS.o
 .debug_str     0x000039da      0x113 obj-tmp\WF_Eint.o
 .debug_str     0x00003aed      0x134 obj-tmp\WF_pbkdf2.o
 .debug_str     0x00003c21      0x1e0 obj-tmp\WFConnectionAlgorithm.o
 .debug_str     0x00003e01       0xf7 obj-tmp\WFConnectionManager.o
 .debug_str     0x00003ef8      0x188 obj-tmp\WFConnectionProfile.o
 .debug_str     0x00004080       0xe2 obj-tmp\WFConsole.o
 .debug_str     0x00004162       0xe2 obj-tmp\WFConsoleIfconfig.o
 .debug_str     0x00004244       0xe2 obj-tmp\WFConsoleIwconfig.o
 .debug_str     0x00004326       0xe2 obj-tmp\WFConsoleIwpriv.o
 .debug_str     0x00004408       0xe2 obj-tmp\WFConsoleMsgHandler.o
 .debug_str     0x000044ea      0x17c obj-tmp\WFConsoleMsgs.o
 .debug_str     0x00004666       0xe2 obj-tmp\WFDataTxRx.o
 .debug_str     0x00004748      0x16b obj-tmp\WFDebugStrings.o
 .debug_str     0x000048b3      0x121 obj-tmp\WFEasyConfig.o
 .debug_str     0x000049d4       0xed obj-tmp\WFEventHandler.o
 .debug_str     0x00004ac1       0xec obj-tmp\WFInit.o
 .debug_str     0x00004bad      0x10a obj-tmp\WFPowerSave.o
 .debug_str     0x00004cb7       0xe2 obj-tmp\WFScan.o
 .debug_str     0x00004d99       0xea obj-tmp\WFTxPower.o
 .debug_str     0x00004e83      0x121 obj-tmp\WF_Spi.o
 .debug_str     0x00004fa4      0x1b5 obj-tmp\WFDriverCom_24G.o
 .debug_str     0x00005159      0x1a1 obj-tmp\WFDriverRaw_24G.o
 .debug_str     0x000052fa      0x169 obj-tmp\WFMac_24G.o
 .debug_str     0x00005463      0x127 obj-tmp\WFMgmtMsg_24G.o
 .debug_str     0x0000558a      0x125 obj-tmp\WFParamMsg_24G.o
 .debug_str     0x000056af      0x12a obj-tmp\DHCP.o
 .debug_str     0x000057d9      0x134 obj-tmp\DHCPs.o
 .debug_str     0x0000590d        0x0 c:/program files (x86)/microchip/mplabc32/v2.02/bin/../lib/gcc/pic32mx/4.5.1\libgcc.a(_udivdi3.o)
 .debug_str     0x0000590d        0x0 c:/program files (x86)/microchip/mplabc32/v2.02/bin/../lib/gcc/pic32mx/4.5.1\libgcc.a(_umoddi3.o)
 .debug_str     0x0000590d        0x0 c:/program files (x86)/microchip/mplabc32/v2.02/bin/../lib/gcc/pic32mx/4.5.1/../../../../pic32mx/lib\libc.a(atol.o)
 .debug_str     0x0000590d        0x0 c:/program files (x86)/microchip/mplabc32/v2.02/bin/../lib/gcc/pic32mx/4.5.1/../../../../pic32mx/lib\libc.a(ctype.o)
 .debug_str     0x0000590d        0x0 c:/program files (x86)/microchip/mplabc32/v2.02/bin/../lib/gcc/pic32mx/4.5.1/../../../../pic32mx/lib\libc.a(puts.o)
 .debug_str     0x0000590d        0x0 c:/program files (x86)/microchip/mplabc32/v2.02/bin/../lib/gcc/pic32mx/4.5.1/../../../../pic32mx/lib\libc.a(strncpy.o)
 .debug_str     0x0000590d        0x0 c:/program files (x86)/microchip/mplabc32/v2.02/bin/../lib/gcc/pic32mx/4.5.1/../../../../pic32mx/lib\libc.a(printf_cdnopsuxX.eo)
 .debug_str     0x0000590d        0x0 c:/program files (x86)/microchip/mplabc32/v2.02/bin/../lib/gcc/pic32mx/4.5.1/../../../../pic32mx/lib\libc.a(sprintf_cdnopsuxX.eo)
 .debug_str     0x0000590d        0x0 c:/program files (x86)/microchip/mplabc32/v2.02/bin/../lib/gcc/pic32mx/4.5.1/../../../../pic32mx/lib\libc.a(default-bootstrap-exception-handler.o)
 .debug_str     0x0000590d        0x0 c:/program files (x86)/microchip/mplabc32/v2.02/bin/../lib/gcc/pic32mx/4.5.1/../../../../pic32mx/lib\libc.a(default-on-reset.o)
 .debug_str     0x0000590d        0x0 c:/program files (x86)/microchip/mplabc32/v2.02/bin/../lib/gcc/pic32mx/4.5.1/../../../../pic32mx/lib\libc.a(default-on-bootstrap.o)
 .debug_str     0x0000590d        0x0 c:/program files (x86)/microchip/mplabc32/v2.02/bin/../lib/gcc/pic32mx/4.5.1/../../../../pic32mx/lib\libc.a(_iob.o)
 .debug_str     0x0000590d        0x0 c:/program files (x86)/microchip/mplabc32/v2.02/bin/../lib/gcc/pic32mx/4.5.1/../../../../pic32mx/lib\libc.a(_fputc_simple.o)
 .debug_str     0x0000590d        0x0 c:/program files (x86)/microchip/mplabc32/v2.02/bin/../lib/gcc/pic32mx/4.5.1/../../../../pic32mx/lib\libc.a(doprnt_cdnopsuxX.eo)
 .debug_str     0x0000590d        0x0 c:/program files (x86)/microchip/mplabc32/v2.02/bin/../lib/gcc/pic32mx/4.5.1/../../../../pic32mx/lib\libc.a(write.o)
 .debug_str     0x0000590d        0x0 c:/program files (x86)/microchip/mplabc32/v2.02/bin/../lib/gcc/pic32mx/4.5.1/../../../../pic32mx/lib\libc.a(_flsbuf_simple.o)
 .debug_str     0x0000590d        0x0 c:/program files (x86)/microchip/mplabc32/v2.02/bin/../lib/gcc/pic32mx/4.5.1/../../../../pic32mx/lib\libc.a(_mon_putc.o)
 .debug_str     0x0000590d        0x0 c:/program files (x86)/microchip/mplabc32/v2.02/bin/../lib/gcc/pic32mx/4.5.1/../../../../pic32mx/lib\libc.a(c32_uart.o)
 .debug_str     0x0000590d        0x0 c:/program files (x86)/microchip/mplabc32/v2.02/bin/../lib/gcc/pic32mx/4.5.1/../../../../pic32mx/lib\libmchp_peripheral_32MX575F256L.a(soft_reset_lib.o)
 .debug_str     0x0000590d        0x0 c:/program files (x86)/microchip/mplabc32/v2.02/bin/../lib/gcc/pic32mx/4.5.1/../../../../pic32mx/lib\libmchp_peripheral_32MX575F256L.a(pcache.o)
 .debug_str     0x0000590d        0x0 c:/program files (x86)/microchip/mplabc32/v2.02/bin/../lib/gcc/pic32mx/4.5.1/../../../../pic32mx/lib\libmchp_peripheral_32MX575F256L.a(int_disable_interrupts_lib.o)
 .debug_str     0x0000590d        0x0 c:/program files (x86)/microchip/mplabc32/v2.02/bin/../lib/gcc/pic32mx/4.5.1/../../../../pic32mx/lib\libmchp_peripheral_32MX575F256L.a(int_restore_interrupts_lib.o)
 .debug_str     0x0000590d        0x0 c:/program files (x86)/microchip/mplabc32/v2.02/bin/../lib/gcc/pic32mx/4.5.1/../../../../pic32mx/lib\libmchp_peripheral_32MX575F256L.a(int_enable_mv_int_lib.o)
 .debug_str     0x0000590d        0x0 c:/program files (x86)/microchip/mplabc32/v2.02/bin/../lib/gcc/pic32mx/4.5.1/../../../../pic32mx/lib\libmchp_peripheral_32MX575F256L.a(uart_lib.o)
 .debug_str     0x0000590d        0x0 c:/program files (x86)/microchip/mplabc32/v2.02/bin/../lib/gcc/pic32mx/4.5.1/../../../../pic32mx/lib\libmchp_peripheral_32MX575F256L.a(puts_uartx_lib_legacy.o)
 .debug_str     0x0000590d        0x0 c:/program files (x86)/microchip/mplabc32/v2.02/bin/../lib/gcc/pic32mx/4.5.1/../../../../pic32mx/lib\libmchp_peripheral_32MX575F256L.a(int_enable_interrupts_lib.o)

.debug_loc      0x00000000     0x1464
 *(.debug_loc)
 .debug_loc     0x00000000      0xa47 c:/program files (x86)/microchip/mplabc32/v2.02/bin/../lib/gcc/pic32mx/4.5.1\libgcc.a(_udivdi3.o)
 .debug_loc     0x00000a47      0xa1d c:/program files (x86)/microchip/mplabc32/v2.02/bin/../lib/gcc/pic32mx/4.5.1\libgcc.a(_umoddi3.o)

.debug_macinfo
 *(.debug_macinfo)

.debug_weaknames
 *(.debug_weaknames)

.debug_funcnames
 *(.debug_funcnames)

.debug_typenames
 *(.debug_typenames)

.debug_varnames
 *(.debug_varnames)

.debug_pubtypes
                0x00000000     0x6050
 *(.debug_pubtypes)
 .debug_pubtypes
                0x00000000      0x268 obj-tmp\Main.o
 .debug_pubtypes
                0x00000268      0x271 obj-tmp\CustomHTTPApp.o
 .debug_pubtypes
                0x000004d9      0x1d2 obj-tmp\WF_Config.o
 .debug_pubtypes
                0x000006ab       0xc6 obj-tmp\WifiGDemoMPFSImg.o
 .debug_pubtypes
                0x00000771      0x170 obj-tmp\Announce.o
 .debug_pubtypes
                0x000008e1       0xbd obj-tmp\ARCFOUR.o
 .debug_pubtypes
                0x0000099e      0x173 obj-tmp\ARP.o
 .debug_pubtypes
                0x00000b11       0xbd obj-tmp\AutoIP.o
 .debug_pubtypes
                0x00000bce       0xbd obj-tmp\BerkeleyAPI.o
 .debug_pubtypes
                0x00000c8b       0xbd obj-tmp\BigInt.o
 .debug_pubtypes
                0x00000d48       0xd0 obj-tmp\Delay.o
 .debug_pubtypes
                0x00000e18      0x183 obj-tmp\DNS.o
 .debug_pubtypes
                0x00000f9b      0x146 obj-tmp\DNSs.o
 .debug_pubtypes
                0x000010e1       0xbd obj-tmp\DynDNS.o
 .debug_pubtypes
                0x0000119e       0xbd obj-tmp\ENC28J60.o
 .debug_pubtypes
                0x0000125b       0xbd obj-tmp\ENCX24J600.o
 .debug_pubtypes
                0x00001318       0xbd obj-tmp\eth_pic32_ext_phy_rtl8201FL.o
 .debug_pubtypes
                0x000013d5       0xbd obj-tmp\ETH97J60.o
 .debug_pubtypes
                0x00001492       0xbd obj-tmp\ETHPIC32ExtPhy.o
 .debug_pubtypes
                0x0000154f       0xbd obj-tmp\ETHPIC32ExtPhyDP83640.o
 .debug_pubtypes
                0x0000160c       0xbd obj-tmp\ETHPIC32ExtPhyDP83848.o
 .debug_pubtypes
                0x000016c9       0xbd obj-tmp\ETHPIC32ExtPhySMSC8700.o
 .debug_pubtypes
                0x00001786       0xbd obj-tmp\ETHPIC32ExtPhySMSC8720.o
 .debug_pubtypes
                0x00001843       0xbd obj-tmp\ETHPIC32IntMac.o
 .debug_pubtypes
                0x00001900       0xbd obj-tmp\FileSystem.o
 .debug_pubtypes
                0x000019bd       0xbd obj-tmp\FTP.o
 .debug_pubtypes
                0x00001a7a       0xbd obj-tmp\Hashes.o
 .debug_pubtypes
                0x00001b37      0x13d obj-tmp\Helpers.o
 .debug_pubtypes
                0x00001c74      0x19a obj-tmp\HTTP2.o
 .debug_pubtypes
                0x00001e0e      0x10f obj-tmp\ICMP.o
 .debug_pubtypes
                0x00001f1d      0x162 obj-tmp\IP.o
 .debug_pubtypes
                0x0000207f       0xbd obj-tmp\LCDBlocking.o
 .debug_pubtypes
                0x0000213c      0x13e obj-tmp\MPFS2.o
 .debug_pubtypes
                0x0000227a      0x191 obj-tmp\NBNS.o
 .debug_pubtypes
                0x0000240b       0xbd obj-tmp\Random.o
 .debug_pubtypes
                0x000024c8      0x152 obj-tmp\Reboot.o
 .debug_pubtypes
                0x0000261a       0xbd obj-tmp\RSA.o
 .debug_pubtypes
                0x000026d7       0xbd obj-tmp\SMTP.o
 .debug_pubtypes
                0x00002794       0xbd obj-tmp\SNMP.o
 .debug_pubtypes
                0x00002851       0xbd obj-tmp\SNMPv3.o
 .debug_pubtypes
                0x0000290e       0xbd obj-tmp\SNMPv3USM.o
 .debug_pubtypes
                0x000029cb       0xbd obj-tmp\SNTP.o
 .debug_pubtypes
                0x00002a88       0xbd obj-tmp\SPIEEPROM.o
 .debug_pubtypes
                0x00002b45      0x138 obj-tmp\SPIFlash.o
 .debug_pubtypes
                0x00002c7d       0xbd obj-tmp\SPIRAM.o
 .debug_pubtypes
                0x00002d3a       0xbd obj-tmp\SSL.o
 .debug_pubtypes
                0x00002df7      0x15d obj-tmp\StackTsk.o
 .debug_pubtypes
                0x00002f54      0x1fa obj-tmp\TCP.o
 .debug_pubtypes
                0x0000314e       0xbd obj-tmp\TCPPerformanceTest.o
 .debug_pubtypes
                0x0000320b       0xbd obj-tmp\Telnet.o
 .debug_pubtypes
                0x000032c8       0xbd obj-tmp\TFTPc.o
 .debug_pubtypes
                0x00003385      0x11a obj-tmp\Tick.o
 .debug_pubtypes
                0x0000349f       0xd8 obj-tmp\UART.o
 .debug_pubtypes
                0x00003577       0xbd obj-tmp\UART2TCPBridge.o
 .debug_pubtypes
                0x00003634      0x1c1 obj-tmp\UDP.o
 .debug_pubtypes
                0x000037f5       0xbd obj-tmp\UDPPerformanceTest.o
 .debug_pubtypes
                0x000038b2       0xd0 obj-tmp\ZeroconfHelper.o
 .debug_pubtypes
                0x00003982      0x211 obj-tmp\ZeroconfLinkLocal.o
 .debug_pubtypes
                0x00003b93      0x369 obj-tmp\ZeroconfMulticastDNS.o
 .debug_pubtypes
                0x00003efc      0x129 obj-tmp\WF_Eint.o
 .debug_pubtypes
                0x00004025      0x113 obj-tmp\WF_pbkdf2.o
 .debug_pubtypes
                0x00004138      0x161 obj-tmp\WFConnectionAlgorithm.o
 .debug_pubtypes
                0x00004299      0x117 obj-tmp\WFConnectionManager.o
 .debug_pubtypes
                0x000043b0      0x170 obj-tmp\WFConnectionProfile.o
 .debug_pubtypes
                0x00004520       0xbd obj-tmp\WFConsole.o
 .debug_pubtypes
                0x000045dd       0xbd obj-tmp\WFConsoleIfconfig.o
 .debug_pubtypes
                0x0000469a       0xbd obj-tmp\WFConsoleIwconfig.o
 .debug_pubtypes
                0x00004757       0xbd obj-tmp\WFConsoleIwpriv.o
 .debug_pubtypes
                0x00004814       0xee obj-tmp\WFConsoleMsgHandler.o
 .debug_pubtypes
                0x00004902      0x113 obj-tmp\WFConsoleMsgs.o
 .debug_pubtypes
                0x00004a15       0xbd obj-tmp\WFDataTxRx.o
 .debug_pubtypes
                0x00004ad2      0x176 obj-tmp\WFDebugStrings.o
 .debug_pubtypes
                0x00004c48      0x1c9 obj-tmp\WFEasyConfig.o
 .debug_pubtypes
                0x00004e11      0x18e obj-tmp\WFEventHandler.o
 .debug_pubtypes
                0x00004f9f      0x158 obj-tmp\WFInit.o
 .debug_pubtypes
                0x000050f7      0x134 obj-tmp\WFPowerSave.o
 .debug_pubtypes
                0x0000522b       0xf7 obj-tmp\WFScan.o
 .debug_pubtypes
                0x00005322       0xda obj-tmp\WFTxPower.o
 .debug_pubtypes
                0x000053fc      0x11e obj-tmp\WF_Spi.o
 .debug_pubtypes
                0x0000551a      0x1b0 obj-tmp\WFDriverCom_24G.o
 .debug_pubtypes
                0x000056ca      0x102 obj-tmp\WFDriverRaw_24G.o
 .debug_pubtypes
                0x000057cc      0x19a obj-tmp\WFMac_24G.o
 .debug_pubtypes
                0x00005966      0x116 obj-tmp\WFMgmtMsg_24G.o
 .debug_pubtypes
                0x00005a7c      0x1a7 obj-tmp\WFParamMsg_24G.o
 .debug_pubtypes
                0x00005c23      0x1ae obj-tmp\DHCP.o
 .debug_pubtypes
                0x00005dd1      0x1cd obj-tmp\DHCPs.o
 .debug_pubtypes
                0x00005f9e       0x59 c:/program files (x86)/microchip/mplabc32/v2.02/bin/../lib/gcc/pic32mx/4.5.1\libgcc.a(_udivdi3.o)
 .debug_pubtypes
                0x00005ff7       0x59 c:/program files (x86)/microchip/mplabc32/v2.02/bin/../lib/gcc/pic32mx/4.5.1\libgcc.a(_umoddi3.o)

.debug_ranges   0x00000000      0x400
 *(.debug_ranges)
 .debug_ranges  0x00000000       0x30 obj-tmp\Main.o
 .debug_ranges  0x00000030       0x30 obj-tmp\CustomHTTPApp.o
 .debug_ranges  0x00000060       0x18 obj-tmp\TCP.o
 .debug_ranges  0x00000078       0x18 obj-tmp\UDP.o
 .debug_ranges  0x00000090       0x18 obj-tmp\DHCPs.o
 .debug_ranges  0x000000a8       0xc0 c:/program files (x86)/microchip/mplabc32/v2.02/bin/../lib/gcc/pic32mx/4.5.1\libgcc.a(_udivdi3.o)
 .debug_ranges  0x00000168       0xf8 c:/program files (x86)/microchip/mplabc32/v2.02/bin/../lib/gcc/pic32mx/4.5.1\libgcc.a(_umoddi3.o)
 .debug_ranges  0x00000260       0x10 c:/program files (x86)/microchip/mplabc32/v2.02/bin/../lib/gcc/pic32mx/4.5.1/../../../../pic32mx/lib\libc.a(atol.o)
 .debug_ranges  0x00000270       0x18 c:/program files (x86)/microchip/mplabc32/v2.02/bin/../lib/gcc/pic32mx/4.5.1/../../../../pic32mx/lib\libc.a(puts.o)
 .debug_ranges  0x00000288       0x10 c:/program files (x86)/microchip/mplabc32/v2.02/bin/../lib/gcc/pic32mx/4.5.1/../../../../pic32mx/lib\libc.a(strncpy.o)
 .debug_ranges  0x00000298       0x10 c:/program files (x86)/microchip/mplabc32/v2.02/bin/../lib/gcc/pic32mx/4.5.1/../../../../pic32mx/lib\libc.a(printf_cdnopsuxX.eo)
 .debug_ranges  0x000002a8       0x10 c:/program files (x86)/microchip/mplabc32/v2.02/bin/../lib/gcc/pic32mx/4.5.1/../../../../pic32mx/lib\libc.a(sprintf_cdnopsuxX.eo)
 .debug_ranges  0x000002b8       0x10 c:/program files (x86)/microchip/mplabc32/v2.02/bin/../lib/gcc/pic32mx/4.5.1/../../../../pic32mx/lib\libc.a(default-bootstrap-exception-handler.o)
 .debug_ranges  0x000002c8       0x10 c:/program files (x86)/microchip/mplabc32/v2.02/bin/../lib/gcc/pic32mx/4.5.1/../../../../pic32mx/lib\libc.a(default-on-reset.o)
 .debug_ranges  0x000002d8       0x10 c:/program files (x86)/microchip/mplabc32/v2.02/bin/../lib/gcc/pic32mx/4.5.1/../../../../pic32mx/lib\libc.a(default-on-bootstrap.o)
 .debug_ranges  0x000002e8       0x10 c:/program files (x86)/microchip/mplabc32/v2.02/bin/../lib/gcc/pic32mx/4.5.1/../../../../pic32mx/lib\libc.a(_fputc_simple.o)
 .debug_ranges  0x000002f8       0x10 c:/program files (x86)/microchip/mplabc32/v2.02/bin/../lib/gcc/pic32mx/4.5.1/../../../../pic32mx/lib\libc.a(doprnt_cdnopsuxX.eo)
 .debug_ranges  0x00000308       0x10 c:/program files (x86)/microchip/mplabc32/v2.02/bin/../lib/gcc/pic32mx/4.5.1/../../../../pic32mx/lib\libc.a(write.o)
 .debug_ranges  0x00000318       0x10 c:/program files (x86)/microchip/mplabc32/v2.02/bin/../lib/gcc/pic32mx/4.5.1/../../../../pic32mx/lib\libc.a(_flsbuf_simple.o)
 .debug_ranges  0x00000328       0x10 c:/program files (x86)/microchip/mplabc32/v2.02/bin/../lib/gcc/pic32mx/4.5.1/../../../../pic32mx/lib\libc.a(_mon_putc.o)
 .debug_ranges  0x00000338       0x10 c:/program files (x86)/microchip/mplabc32/v2.02/bin/../lib/gcc/pic32mx/4.5.1/../../../../pic32mx/lib\libmchp_peripheral_32MX575F256L.a(soft_reset_lib.o)
 .debug_ranges  0x00000348       0x18 c:/program files (x86)/microchip/mplabc32/v2.02/bin/../lib/gcc/pic32mx/4.5.1/../../../../pic32mx/lib\libmchp_peripheral_32MX575F256L.a(pcache.o)
 .debug_ranges  0x00000360       0x10 c:/program files (x86)/microchip/mplabc32/v2.02/bin/../lib/gcc/pic32mx/4.5.1/../../../../pic32mx/lib\libmchp_peripheral_32MX575F256L.a(int_disable_interrupts_lib.o)
 .debug_ranges  0x00000370       0x10 c:/program files (x86)/microchip/mplabc32/v2.02/bin/../lib/gcc/pic32mx/4.5.1/../../../../pic32mx/lib\libmchp_peripheral_32MX575F256L.a(int_restore_interrupts_lib.o)
 .debug_ranges  0x00000380       0x10 c:/program files (x86)/microchip/mplabc32/v2.02/bin/../lib/gcc/pic32mx/4.5.1/../../../../pic32mx/lib\libmchp_peripheral_32MX575F256L.a(int_enable_mv_int_lib.o)
 .debug_ranges  0x00000390       0x48 c:/program files (x86)/microchip/mplabc32/v2.02/bin/../lib/gcc/pic32mx/4.5.1/../../../../pic32mx/lib\libmchp_peripheral_32MX575F256L.a(uart_lib.o)
 .debug_ranges  0x000003d8       0x18 c:/program files (x86)/microchip/mplabc32/v2.02/bin/../lib/gcc/pic32mx/4.5.1/../../../../pic32mx/lib\libmchp_peripheral_32MX575F256L.a(puts_uartx_lib_legacy.o)
 .debug_ranges  0x000003f0       0x10 c:/program files (x86)/microchip/mplabc32/v2.02/bin/../lib/gcc/pic32mx/4.5.1/../../../../pic32mx/lib\libmchp_peripheral_32MX575F256L.a(int_enable_interrupts_lib.o)

.gnu.attributes
                0x00000000       0x10
 *(.gnu.attributes)
 .gnu.attributes
                0x00000000       0x10 obj-tmp\Main.o
 .gnu.attributes
                0x00000010       0x10 obj-tmp\CustomHTTPApp.o
 .gnu.attributes
                0x00000020       0x10 obj-tmp\WF_Config.o
 .gnu.attributes
                0x00000030       0x10 obj-tmp\WifiGDemoMPFSImg.o
 .gnu.attributes
                0x00000040       0x10 obj-tmp\Announce.o
 .gnu.attributes
                0x00000050       0x10 obj-tmp\ARCFOUR.o
 .gnu.attributes
                0x00000060       0x10 obj-tmp\ARP.o
 .gnu.attributes
                0x00000070       0x10 obj-tmp\AutoIP.o
 .gnu.attributes
                0x00000080       0x10 obj-tmp\BerkeleyAPI.o
 .gnu.attributes
                0x00000090       0x10 obj-tmp\BigInt.o
 .gnu.attributes
                0x000000a0       0x10 obj-tmp\Delay.o
 .gnu.attributes
                0x000000b0       0x10 obj-tmp\DNS.o
 .gnu.attributes
                0x000000c0       0x10 obj-tmp\DNSs.o
 .gnu.attributes
                0x000000d0       0x10 obj-tmp\DynDNS.o
 .gnu.attributes
                0x000000e0       0x10 obj-tmp\ENC28J60.o
 .gnu.attributes
                0x000000f0       0x10 obj-tmp\ENCX24J600.o
 .gnu.attributes
                0x00000100       0x10 obj-tmp\eth_pic32_ext_phy_rtl8201FL.o
 .gnu.attributes
                0x00000110       0x10 obj-tmp\ETH97J60.o
 .gnu.attributes
                0x00000120       0x10 obj-tmp\ETHPIC32ExtPhy.o
 .gnu.attributes
                0x00000130       0x10 obj-tmp\ETHPIC32ExtPhyDP83640.o
 .gnu.attributes
                0x00000140       0x10 obj-tmp\ETHPIC32ExtPhyDP83848.o
 .gnu.attributes
                0x00000150       0x10 obj-tmp\ETHPIC32ExtPhySMSC8700.o
 .gnu.attributes
                0x00000160       0x10 obj-tmp\ETHPIC32ExtPhySMSC8720.o
 .gnu.attributes
                0x00000170       0x10 obj-tmp\ETHPIC32IntMac.o
 .gnu.attributes
                0x00000180       0x10 obj-tmp\FileSystem.o
 .gnu.attributes
                0x00000190       0x10 obj-tmp\FTP.o
 .gnu.attributes
                0x000001a0       0x10 obj-tmp\Hashes.o
 .gnu.attributes
                0x000001b0       0x10 obj-tmp\Helpers.o
 .gnu.attributes
                0x000001c0       0x10 obj-tmp\HTTP2.o
 .gnu.attributes
                0x000001d0       0x10 obj-tmp\ICMP.o
 .gnu.attributes
                0x000001e0       0x10 obj-tmp\IP.o
 .gnu.attributes
                0x000001f0       0x10 obj-tmp\LCDBlocking.o
 .gnu.attributes
                0x00000200       0x10 obj-tmp\MPFS2.o
 .gnu.attributes
                0x00000210       0x10 obj-tmp\NBNS.o
 .gnu.attributes
                0x00000220       0x10 obj-tmp\Random.o
 .gnu.attributes
                0x00000230       0x10 obj-tmp\Reboot.o
 .gnu.attributes
                0x00000240       0x10 obj-tmp\RSA.o
 .gnu.attributes
                0x00000250       0x10 obj-tmp\SMTP.o
 .gnu.attributes
                0x00000260       0x10 obj-tmp\SNMP.o
 .gnu.attributes
                0x00000270       0x10 obj-tmp\SNMPv3.o
 .gnu.attributes
                0x00000280       0x10 obj-tmp\SNMPv3USM.o
 .gnu.attributes
                0x00000290       0x10 obj-tmp\SNTP.o
 .gnu.attributes
                0x000002a0       0x10 obj-tmp\SPIEEPROM.o
 .gnu.attributes
                0x000002b0       0x10 obj-tmp\SPIFlash.o
 .gnu.attributes
                0x000002c0       0x10 obj-tmp\SPIRAM.o
 .gnu.attributes
                0x000002d0       0x10 obj-tmp\SSL.o
 .gnu.attributes
                0x000002e0       0x10 obj-tmp\StackTsk.o
 .gnu.attributes
                0x000002f0       0x10 obj-tmp\TCP.o
 .gnu.attributes
                0x00000300       0x10 obj-tmp\TCPPerformanceTest.o
 .gnu.attributes
                0x00000310       0x10 obj-tmp\Telnet.o
 .gnu.attributes
                0x00000320       0x10 obj-tmp\TFTPc.o
 .gnu.attributes
                0x00000330       0x10 obj-tmp\Tick.o
 .gnu.attributes
                0x00000340       0x10 obj-tmp\UART.o
 .gnu.attributes
                0x00000350       0x10 obj-tmp\UART2TCPBridge.o
 .gnu.attributes
                0x00000360       0x10 obj-tmp\UDP.o
 .gnu.attributes
                0x00000370       0x10 obj-tmp\UDPPerformanceTest.o
 .gnu.attributes
                0x00000380       0x10 obj-tmp\ZeroconfHelper.o
 .gnu.attributes
                0x00000390       0x10 obj-tmp\ZeroconfLinkLocal.o
 .gnu.attributes
                0x000003a0       0x10 obj-tmp\ZeroconfMulticastDNS.o
 .gnu.attributes
                0x000003b0       0x10 obj-tmp\WF_Eint.o
 .gnu.attributes
                0x000003c0       0x10 obj-tmp\WF_pbkdf2.o
 .gnu.attributes
                0x000003d0       0x10 obj-tmp\WFConnectionAlgorithm.o
 .gnu.attributes
                0x000003e0       0x10 obj-tmp\WFConnectionManager.o
 .gnu.attributes
                0x000003f0       0x10 obj-tmp\WFConnectionProfile.o
 .gnu.attributes
                0x00000400       0x10 obj-tmp\WFConsole.o
 .gnu.attributes
                0x00000410       0x10 obj-tmp\WFConsoleIfconfig.o
 .gnu.attributes
                0x00000420       0x10 obj-tmp\WFConsoleIwconfig.o
 .gnu.attributes
                0x00000430       0x10 obj-tmp\WFConsoleIwpriv.o
 .gnu.attributes
                0x00000440       0x10 obj-tmp\WFConsoleMsgHandler.o
 .gnu.attributes
                0x00000450       0x10 obj-tmp\WFConsoleMsgs.o
 .gnu.attributes
                0x00000460       0x10 obj-tmp\WFDataTxRx.o
 .gnu.attributes
                0x00000470       0x10 obj-tmp\WFDebugStrings.o
 .gnu.attributes
                0x00000480       0x10 obj-tmp\WFEasyConfig.o
 .gnu.attributes
                0x00000490       0x10 obj-tmp\WFEventHandler.o
 .gnu.attributes
                0x000004a0       0x10 obj-tmp\WFInit.o
 .gnu.attributes
                0x000004b0       0x10 obj-tmp\WFPowerSave.o
 .gnu.attributes
                0x000004c0       0x10 obj-tmp\WFScan.o
 .gnu.attributes
                0x000004d0       0x10 obj-tmp\WFTxPower.o
 .gnu.attributes
                0x000004e0       0x10 obj-tmp\WF_Spi.o
 .gnu.attributes
                0x000004f0       0x10 obj-tmp\WFDriverCom_24G.o
 .gnu.attributes
                0x00000500       0x10 obj-tmp\WFDriverRaw_24G.o
 .gnu.attributes
                0x00000510       0x10 obj-tmp\WFMac_24G.o
 .gnu.attributes
                0x00000520       0x10 obj-tmp\WFMgmtMsg_24G.o
 .gnu.attributes
                0x00000530       0x10 obj-tmp\WFParamMsg_24G.o
 .gnu.attributes
                0x00000540       0x10 obj-tmp\DHCP.o
 .gnu.attributes
                0x00000550       0x10 obj-tmp\DHCPs.o
 .gnu.attributes
                0x00000560       0x10 c:/program files (x86)/microchip/mplabc32/v2.02/bin/../lib/gcc/pic32mx/4.5.1\libgcc.a(_udivdi3.o)
 .gnu.attributes
                0x00000570       0x10 c:/program files (x86)/microchip/mplabc32/v2.02/bin/../lib/gcc/pic32mx/4.5.1\libgcc.a(_umoddi3.o)
 .gnu.attributes
                0x00000580       0x10 c:/program files (x86)/microchip/mplabc32/v2.02/bin/../lib/gcc/pic32mx/4.5.1/../../../../pic32mx/lib\libc.a(atol.o)
 .gnu.attributes
                0x00000590       0x10 c:/program files (x86)/microchip/mplabc32/v2.02/bin/../lib/gcc/pic32mx/4.5.1/../../../../pic32mx/lib\libc.a(ctype.o)
 .gnu.attributes
                0x000005a0       0x10 c:/program files (x86)/microchip/mplabc32/v2.02/bin/../lib/gcc/pic32mx/4.5.1/../../../../pic32mx/lib\libc.a(puts.o)
 .gnu.attributes
                0x000005b0       0x10 c:/program files (x86)/microchip/mplabc32/v2.02/bin/../lib/gcc/pic32mx/4.5.1/../../../../pic32mx/lib\libc.a(strncpy.o)
 .gnu.attributes
                0x000005c0       0x10 c:/program files (x86)/microchip/mplabc32/v2.02/bin/../lib/gcc/pic32mx/4.5.1/../../../../pic32mx/lib\libc.a(printf_cdnopsuxX.eo)
 .gnu.attributes
                0x000005d0       0x10 c:/program files (x86)/microchip/mplabc32/v2.02/bin/../lib/gcc/pic32mx/4.5.1/../../../../pic32mx/lib\libc.a(sprintf_cdnopsuxX.eo)
 .gnu.attributes
                0x000005e0       0x10 c:/program files (x86)/microchip/mplabc32/v2.02/bin/../lib/gcc/pic32mx/4.5.1/../../../../pic32mx/lib\libc.a(default-bootstrap-exception-handler.o)
 .gnu.attributes
                0x000005f0       0x10 c:/program files (x86)/microchip/mplabc32/v2.02/bin/../lib/gcc/pic32mx/4.5.1/../../../../pic32mx/lib\libc.a(default-on-reset.o)
 .gnu.attributes
                0x00000600       0x10 c:/program files (x86)/microchip/mplabc32/v2.02/bin/../lib/gcc/pic32mx/4.5.1/../../../../pic32mx/lib\libc.a(default-on-bootstrap.o)
 .gnu.attributes
                0x00000610       0x10 c:/program files (x86)/microchip/mplabc32/v2.02/bin/../lib/gcc/pic32mx/4.5.1/../../../../pic32mx/lib\libc.a(_iob.o)
 .gnu.attributes
                0x00000620       0x10 c:/program files (x86)/microchip/mplabc32/v2.02/bin/../lib/gcc/pic32mx/4.5.1/../../../../pic32mx/lib\libc.a(_fputc_simple.o)
 .gnu.attributes
                0x00000630       0x10 c:/program files (x86)/microchip/mplabc32/v2.02/bin/../lib/gcc/pic32mx/4.5.1/../../../../pic32mx/lib\libc.a(doprnt_cdnopsuxX.eo)
 .gnu.attributes
                0x00000640       0x10 c:/program files (x86)/microchip/mplabc32/v2.02/bin/../lib/gcc/pic32mx/4.5.1/../../../../pic32mx/lib\libc.a(write.o)
 .gnu.attributes
                0x00000650       0x10 c:/program files (x86)/microchip/mplabc32/v2.02/bin/../lib/gcc/pic32mx/4.5.1/../../../../pic32mx/lib\libc.a(_flsbuf_simple.o)
 .gnu.attributes
                0x00000660       0x10 c:/program files (x86)/microchip/mplabc32/v2.02/bin/../lib/gcc/pic32mx/4.5.1/../../../../pic32mx/lib\libc.a(_mon_putc.o)
 .gnu.attributes
                0x00000670       0x10 c:/program files (x86)/microchip/mplabc32/v2.02/bin/../lib/gcc/pic32mx/4.5.1/../../../../pic32mx/lib\libc.a(c32_uart.o)
 .gnu.attributes
                0x00000680       0x10 c:/program files (x86)/microchip/mplabc32/v2.02/bin/../lib/gcc/pic32mx/4.5.1/../../../../pic32mx/lib\libmchp_peripheral_32MX575F256L.a(soft_reset_lib.o)
 .gnu.attributes
                0x00000690       0x10 c:/program files (x86)/microchip/mplabc32/v2.02/bin/../lib/gcc/pic32mx/4.5.1/../../../../pic32mx/lib\libmchp_peripheral_32MX575F256L.a(pcache.o)
 .gnu.attributes
                0x000006a0       0x10 c:/program files (x86)/microchip/mplabc32/v2.02/bin/../lib/gcc/pic32mx/4.5.1/../../../../pic32mx/lib\libmchp_peripheral_32MX575F256L.a(int_disable_interrupts_lib.o)
 .gnu.attributes
                0x000006b0       0x10 c:/program files (x86)/microchip/mplabc32/v2.02/bin/../lib/gcc/pic32mx/4.5.1/../../../../pic32mx/lib\libmchp_peripheral_32MX575F256L.a(int_restore_interrupts_lib.o)
 .gnu.attributes
                0x000006c0       0x10 c:/program files (x86)/microchip/mplabc32/v2.02/bin/../lib/gcc/pic32mx/4.5.1/../../../../pic32mx/lib\libmchp_peripheral_32MX575F256L.a(int_enable_mv_int_lib.o)
 .gnu.attributes
                0x000006d0       0x10 c:/program files (x86)/microchip/mplabc32/v2.02/bin/../lib/gcc/pic32mx/4.5.1/../../../../pic32mx/lib\libmchp_peripheral_32MX575F256L.a(uart_lib.o)
 .gnu.attributes
                0x000006e0       0x10 c:/program files (x86)/microchip/mplabc32/v2.02/bin/../lib/gcc/pic32mx/4.5.1/../../../../pic32mx/lib\libmchp_peripheral_32MX575F256L.a(puts_uartx_lib_legacy.o)
 .gnu.attributes
                0x000006f0       0x10 c:/program files (x86)/microchip/mplabc32/v2.02/bin/../lib/gcc/pic32mx/4.5.1/../../../../pic32mx/lib\libmchp_peripheral_32MX575F256L.a(int_enable_interrupts_lib.o)
OUTPUT(bin\Aztec.elf elf32-tradlittlemips)
LOAD stack
LOAD data_init

.stack          0xa0001a10      0x400
 .stack         0xa0001a10      0x400 stack

.bss            0xa0001078      0x360
 .bss           0xa0001078      0x360 obj-tmp\ZeroconfMulticastDNS.o

.data           0xa00013d8      0x2d4
 .data          0xa00013d8      0x2d4 obj-tmp\WFDebugStrings.o
                0xa00013d8                connectionFailureStrings
                0xa0001428                connectionLostStrings
                0xa0001440                deauthDisssocReasonCodes
                0xa00014a4                statusCodes
                0xa0001564                wpsState
                0xa00015a0                wpsConfigErr
                0xa000164c                moduleName

.bss            0xa00016ac      0x104
 .bss           0xa00016ac      0x104 obj-tmp\TCP.o

.data           0xa00017b0       0xa0
 .data          0xa00017b0       0xa0 c:/program files (x86)/microchip/mplabc32/v2.02/bin/../lib/gcc/pic32mx/4.5.1/../../../../pic32mx/lib\libc.a(_iob.o)
                0xa00017b0                _iob

.bss            0xa0001850      0x19c
 .bss           0xa0001850       0x78 obj-tmp\MPFS2.o
 .bss           0xa00018c8       0x40 obj-tmp\DNSs.o
 .bss           0xa0001908       0x40 c:/program files (x86)/microchip/mplabc32/v2.02/bin/../lib/gcc/pic32mx/4.5.1/../../../../pic32mx/lib\libc.a(_iob.o)
                0xa0001908                _sibuf
                0xa0001928                _sobuf
 .bss           0xa0001948       0x3c obj-tmp\CustomHTTPApp.o
 .bss           0xa0001984       0x34 obj-tmp\DHCP.o
 .bss           0xa00019b8       0x28 obj-tmp\ARP.o
 .bss           0xa00019e0        0xc obj-tmp\DNS.o

.pbss           0xa00019ec        0x4
 .pbss          0xa00019ec        0x4 obj-tmp\DNS.o

.pbss           0xa00001f2        0x2
 .pbss          0xa00001f2        0x2 obj-tmp\TCP.o

.pbss           0xa00019f0        0x2
 .pbss          0xa00019f0        0x2 obj-tmp\UDP.o

.bss%z1         0x00000000        0x0
 .bss           0x00000000        0x0 c:/program files (x86)/microchip/mplabc32/v2.02/bin/../lib/gcc/pic32mx/4.5.1/../../../../pic32mx/lib/./proc/32MX575F256L\processor.o

.data%z2        0x00000000        0x0
 .data          0x00000000        0x0 c:/program files (x86)/microchip/mplabc32/v2.02/bin/../lib/gcc/pic32mx/4.5.1/../../../../pic32mx/lib/./proc/32MX575F256L\processor.o

.mdebug.abi32%z3
                0x00000000        0x0
 .mdebug.abi32  0x00000000        0x0 c:/program files (x86)/microchip/mplabc32/v2.02/bin/../lib/gcc/pic32mx/4.5.1/../../../../pic32mx/lib\libmchp_peripheral_32MX575F256L.a(int_enable_interrupts_lib.o)

.bss%z4         0x00000000        0x0
 .bss           0x00000000        0x0 c:/program files (x86)/microchip/mplabc32/v2.02/bin/../lib/gcc/pic32mx/4.5.1/../../../../pic32mx/lib\libmchp_peripheral_32MX575F256L.a(int_enable_interrupts_lib.o)

.data%z5        0x00000000        0x0
 .data          0x00000000        0x0 c:/program files (x86)/microchip/mplabc32/v2.02/bin/../lib/gcc/pic32mx/4.5.1/../../../../pic32mx/lib\libmchp_peripheral_32MX575F256L.a(int_enable_interrupts_lib.o)

.mdebug.abi32%z6
                0x00000000        0x0
 .mdebug.abi32  0x00000000        0x0 c:/program files (x86)/microchip/mplabc32/v2.02/bin/../lib/gcc/pic32mx/4.5.1/../../../../pic32mx/lib\libmchp_peripheral_32MX575F256L.a(puts_uartx_lib_legacy.o)

.bss%z7         0x00000000        0x0
 .bss           0x00000000        0x0 c:/program files (x86)/microchip/mplabc32/v2.02/bin/../lib/gcc/pic32mx/4.5.1/../../../../pic32mx/lib\libmchp_peripheral_32MX575F256L.a(puts_uartx_lib_legacy.o)

.data%z8        0x00000000        0x0
 .data          0x00000000        0x0 c:/program files (x86)/microchip/mplabc32/v2.02/bin/../lib/gcc/pic32mx/4.5.1/../../../../pic32mx/lib\libmchp_peripheral_32MX575F256L.a(puts_uartx_lib_legacy.o)

.mdebug.abi32%z9
                0x00000000        0x0
 .mdebug.abi32  0x00000000        0x0 c:/program files (x86)/microchip/mplabc32/v2.02/bin/../lib/gcc/pic32mx/4.5.1/../../../../pic32mx/lib\libmchp_peripheral_32MX575F256L.a(uart_lib.o)

.bss%z10        0x00000000        0x0
 .bss           0x00000000        0x0 c:/program files (x86)/microchip/mplabc32/v2.02/bin/../lib/gcc/pic32mx/4.5.1/../../../../pic32mx/lib\libmchp_peripheral_32MX575F256L.a(uart_lib.o)

.data%z11       0x00000000        0x0
 .data          0x00000000        0x0 c:/program files (x86)/microchip/mplabc32/v2.02/bin/../lib/gcc/pic32mx/4.5.1/../../../../pic32mx/lib\libmchp_peripheral_32MX575F256L.a(uart_lib.o)

.mdebug.abi32%z12
                0x00000000        0x0
 .mdebug.abi32  0x00000000        0x0 c:/program files (x86)/microchip/mplabc32/v2.02/bin/../lib/gcc/pic32mx/4.5.1/../../../../pic32mx/lib\libmchp_peripheral_32MX575F256L.a(int_enable_mv_int_lib.o)

.bss%z13        0x00000000        0x0
 .bss           0x00000000        0x0 c:/program files (x86)/microchip/mplabc32/v2.02/bin/../lib/gcc/pic32mx/4.5.1/../../../../pic32mx/lib\libmchp_peripheral_32MX575F256L.a(int_enable_mv_int_lib.o)

.data%z14       0x00000000        0x0
 .data          0x00000000        0x0 c:/program files (x86)/microchip/mplabc32/v2.02/bin/../lib/gcc/pic32mx/4.5.1/../../../../pic32mx/lib\libmchp_peripheral_32MX575F256L.a(int_enable_mv_int_lib.o)

.mdebug.abi32%z15
                0x00000000        0x0
 .mdebug.abi32  0x00000000        0x0 c:/program files (x86)/microchip/mplabc32/v2.02/bin/../lib/gcc/pic32mx/4.5.1/../../../../pic32mx/lib\libmchp_peripheral_32MX575F256L.a(int_restore_interrupts_lib.o)

.bss%z16        0x00000000        0x0
 .bss           0x00000000        0x0 c:/program files (x86)/microchip/mplabc32/v2.02/bin/../lib/gcc/pic32mx/4.5.1/../../../../pic32mx/lib\libmchp_peripheral_32MX575F256L.a(int_restore_interrupts_lib.o)

.data%z17       0x00000000        0x0
 .data          0x00000000        0x0 c:/program files (x86)/microchip/mplabc32/v2.02/bin/../lib/gcc/pic32mx/4.5.1/../../../../pic32mx/lib\libmchp_peripheral_32MX575F256L.a(int_restore_interrupts_lib.o)

.mdebug.abi32%z18
                0x00000000        0x0
 .mdebug.abi32  0x00000000        0x0 c:/program files (x86)/microchip/mplabc32/v2.02/bin/../lib/gcc/pic32mx/4.5.1/../../../../pic32mx/lib\libmchp_peripheral_32MX575F256L.a(int_disable_interrupts_lib.o)

.bss%z19        0x00000000        0x0
 .bss           0x00000000        0x0 c:/program files (x86)/microchip/mplabc32/v2.02/bin/../lib/gcc/pic32mx/4.5.1/../../../../pic32mx/lib\libmchp_peripheral_32MX575F256L.a(int_disable_interrupts_lib.o)

.data%z20       0x00000000        0x0
 .data          0x00000000        0x0 c:/program files (x86)/microchip/mplabc32/v2.02/bin/../lib/gcc/pic32mx/4.5.1/../../../../pic32mx/lib\libmchp_peripheral_32MX575F256L.a(int_disable_interrupts_lib.o)

.mdebug.abi32%z21
                0x00000000        0x0
 .mdebug.abi32  0x00000000        0x0 c:/program files (x86)/microchip/mplabc32/v2.02/bin/../lib/gcc/pic32mx/4.5.1/../../../../pic32mx/lib\libmchp_peripheral_32MX575F256L.a(pcache.o)

.bss%z22        0x00000000        0x0
 .bss           0x00000000        0x0 c:/program files (x86)/microchip/mplabc32/v2.02/bin/../lib/gcc/pic32mx/4.5.1/../../../../pic32mx/lib\libmchp_peripheral_32MX575F256L.a(pcache.o)

.data%z23       0x00000000        0x0
 .data          0x00000000        0x0 c:/program files (x86)/microchip/mplabc32/v2.02/bin/../lib/gcc/pic32mx/4.5.1/../../../../pic32mx/lib\libmchp_peripheral_32MX575F256L.a(pcache.o)

.mdebug.abi32%z24
                0x00000000        0x0
 .mdebug.abi32  0x00000000        0x0 c:/program files (x86)/microchip/mplabc32/v2.02/bin/../lib/gcc/pic32mx/4.5.1/../../../../pic32mx/lib\libmchp_peripheral_32MX575F256L.a(soft_reset_lib.o)

.bss%z25        0x00000000        0x0
 .bss           0x00000000        0x0 c:/program files (x86)/microchip/mplabc32/v2.02/bin/../lib/gcc/pic32mx/4.5.1/../../../../pic32mx/lib\libmchp_peripheral_32MX575F256L.a(soft_reset_lib.o)

.data%z26       0x00000000        0x0
 .data          0x00000000        0x0 c:/program files (x86)/microchip/mplabc32/v2.02/bin/../lib/gcc/pic32mx/4.5.1/../../../../pic32mx/lib\libmchp_peripheral_32MX575F256L.a(soft_reset_lib.o)

.mdebug.abi32%z27
                0x00000000        0x0
 .mdebug.abi32  0x00000000        0x0 c:/program files (x86)/microchip/mplabc32/v2.02/bin/../lib/gcc/pic32mx/4.5.1/../../../../pic32mx/lib\libc.a(c32_uart.o)

.bss%z28        0x00000000        0x0
 .bss           0x00000000        0x0 c:/program files (x86)/microchip/mplabc32/v2.02/bin/../lib/gcc/pic32mx/4.5.1/../../../../pic32mx/lib\libc.a(c32_uart.o)

.data%z29       0x00000000        0x0
 .data          0x00000000        0x0 c:/program files (x86)/microchip/mplabc32/v2.02/bin/../lib/gcc/pic32mx/4.5.1/../../../../pic32mx/lib\libc.a(c32_uart.o)

.mdebug.abi32%z30
                0x00000000        0x0
 .mdebug.abi32  0x00000000        0x0 c:/program files (x86)/microchip/mplabc32/v2.02/bin/../lib/gcc/pic32mx/4.5.1/../../../../pic32mx/lib\libc.a(_mon_putc.o)

.bss%z31        0x00000000        0x0
 .bss           0x00000000        0x0 c:/program files (x86)/microchip/mplabc32/v2.02/bin/../lib/gcc/pic32mx/4.5.1/../../../../pic32mx/lib\libc.a(_mon_putc.o)

.data%z32       0x00000000        0x0
 .data          0x00000000        0x0 c:/program files (x86)/microchip/mplabc32/v2.02/bin/../lib/gcc/pic32mx/4.5.1/../../../../pic32mx/lib\libc.a(_mon_putc.o)

.mdebug.abi32%z33
                0x00000000        0x0
 .mdebug.abi32  0x00000000        0x0 c:/program files (x86)/microchip/mplabc32/v2.02/bin/../lib/gcc/pic32mx/4.5.1/../../../../pic32mx/lib\libc.a(_flsbuf_simple.o)

.bss%z34        0x00000000        0x0
 .bss           0x00000000        0x0 c:/program files (x86)/microchip/mplabc32/v2.02/bin/../lib/gcc/pic32mx/4.5.1/../../../../pic32mx/lib\libc.a(_flsbuf_simple.o)

.data%z35       0x00000000        0x0
 .data          0x00000000        0x0 c:/program files (x86)/microchip/mplabc32/v2.02/bin/../lib/gcc/pic32mx/4.5.1/../../../../pic32mx/lib\libc.a(_flsbuf_simple.o)

.mdebug.abi32%z36
                0x00000000        0x0
 .mdebug.abi32  0x00000000        0x0 c:/program files (x86)/microchip/mplabc32/v2.02/bin/../lib/gcc/pic32mx/4.5.1/../../../../pic32mx/lib\libc.a(write.o)

.bss%z37        0x00000000        0x0
 .bss           0x00000000        0x0 c:/program files (x86)/microchip/mplabc32/v2.02/bin/../lib/gcc/pic32mx/4.5.1/../../../../pic32mx/lib\libc.a(write.o)

.data%z38       0x00000000        0x0
 .data          0x00000000        0x0 c:/program files (x86)/microchip/mplabc32/v2.02/bin/../lib/gcc/pic32mx/4.5.1/../../../../pic32mx/lib\libc.a(write.o)

.mdebug.abi32%z39
                0x00000000        0x0
 .mdebug.abi32  0x00000000        0x0 c:/program files (x86)/microchip/mplabc32/v2.02/bin/../lib/gcc/pic32mx/4.5.1/../../../../pic32mx/lib\libc.a(doprnt_cdnopsuxX.eo)

.bss%z40        0x00000000        0x0
 .bss           0x00000000        0x0 c:/program files (x86)/microchip/mplabc32/v2.02/bin/../lib/gcc/pic32mx/4.5.1/../../../../pic32mx/lib\libc.a(doprnt_cdnopsuxX.eo)

.data%z41       0x00000000        0x0
 .data          0x00000000        0x0 c:/program files (x86)/microchip/mplabc32/v2.02/bin/../lib/gcc/pic32mx/4.5.1/../../../../pic32mx/lib\libc.a(doprnt_cdnopsuxX.eo)

.mdebug.abi32%z42
                0x00000000        0x0
 .mdebug.abi32  0x00000000        0x0 c:/program files (x86)/microchip/mplabc32/v2.02/bin/../lib/gcc/pic32mx/4.5.1/../../../../pic32mx/lib\libc.a(_fputc_simple.o)

.bss%z43        0x00000000        0x0
 .bss           0x00000000        0x0 c:/program files (x86)/microchip/mplabc32/v2.02/bin/../lib/gcc/pic32mx/4.5.1/../../../../pic32mx/lib\libc.a(_fputc_simple.o)

.data%z44       0x00000000        0x0
 .data          0x00000000        0x0 c:/program files (x86)/microchip/mplabc32/v2.02/bin/../lib/gcc/pic32mx/4.5.1/../../../../pic32mx/lib\libc.a(_fputc_simple.o)

.mdebug.abi32%z45
                0x00000000        0x0
 .mdebug.abi32  0x00000000        0x0 c:/program files (x86)/microchip/mplabc32/v2.02/bin/../lib/gcc/pic32mx/4.5.1/../../../../pic32mx/lib\libc.a(_iob.o)

.bss%z46        0x00000000        0x0
 .bss           0x00000000        0x0 c:/program files (x86)/microchip/mplabc32/v2.02/bin/../lib/gcc/pic32mx/4.5.1/../../../../pic32mx/lib\libc.a(default-nmi-handler.o)

.data%z47       0x00000000        0x0
 .data          0x00000000        0x0 c:/program files (x86)/microchip/mplabc32/v2.02/bin/../lib/gcc/pic32mx/4.5.1/../../../../pic32mx/lib\libc.a(default-nmi-handler.o)

.mdebug.abi32%z48
                0x00000000        0x0
 .mdebug.abi32  0x00000000        0x0 c:/program files (x86)/microchip/mplabc32/v2.02/bin/../lib/gcc/pic32mx/4.5.1/../../../../pic32mx/lib\libc.a(default-on-bootstrap.o)

.bss%z49        0x00000000        0x0
 .bss           0x00000000        0x0 c:/program files (x86)/microchip/mplabc32/v2.02/bin/../lib/gcc/pic32mx/4.5.1/../../../../pic32mx/lib\libc.a(default-on-bootstrap.o)

.data%z50       0x00000000        0x0
 .data          0x00000000        0x0 c:/program files (x86)/microchip/mplabc32/v2.02/bin/../lib/gcc/pic32mx/4.5.1/../../../../pic32mx/lib\libc.a(default-on-bootstrap.o)

.mdebug.abi32%z51
                0x00000000        0x0
 .mdebug.abi32  0x00000000        0x0 c:/program files (x86)/microchip/mplabc32/v2.02/bin/../lib/gcc/pic32mx/4.5.1/../../../../pic32mx/lib\libc.a(default-on-reset.o)

.bss%z52        0x00000000        0x0
 .bss           0x00000000        0x0 c:/program files (x86)/microchip/mplabc32/v2.02/bin/../lib/gcc/pic32mx/4.5.1/../../../../pic32mx/lib\libc.a(default-on-reset.o)

.data%z53       0x00000000        0x0
 .data          0x00000000        0x0 c:/program files (x86)/microchip/mplabc32/v2.02/bin/../lib/gcc/pic32mx/4.5.1/../../../../pic32mx/lib\libc.a(default-on-reset.o)

.mdebug.abi32%z54
                0x00000000        0x0
 .mdebug.abi32  0x00000000        0x0 c:/program files (x86)/microchip/mplabc32/v2.02/bin/../lib/gcc/pic32mx/4.5.1/../../../../pic32mx/lib\libc.a(default-bootstrap-exception-handler.o)

.bss%z55        0x00000000        0x0
 .bss           0x00000000        0x0 c:/program files (x86)/microchip/mplabc32/v2.02/bin/../lib/gcc/pic32mx/4.5.1/../../../../pic32mx/lib\libc.a(default-bootstrap-exception-handler.o)

.data%z56       0x00000000        0x0
 .data          0x00000000        0x0 c:/program files (x86)/microchip/mplabc32/v2.02/bin/../lib/gcc/pic32mx/4.5.1/../../../../pic32mx/lib\libc.a(default-bootstrap-exception-handler.o)

.mdebug.abi32%z57
                0x00000000        0x0
 .mdebug.abi32  0x00000000        0x0 c:/program files (x86)/microchip/mplabc32/v2.02/bin/../lib/gcc/pic32mx/4.5.1/../../../../pic32mx/lib\libc.a(sprintf_cdnopsuxX.eo)

.bss%z58        0x00000000        0x0
 .bss           0x00000000        0x0 c:/program files (x86)/microchip/mplabc32/v2.02/bin/../lib/gcc/pic32mx/4.5.1/../../../../pic32mx/lib\libc.a(sprintf_cdnopsuxX.eo)

.data%z59       0x00000000        0x0
 .data          0x00000000        0x0 c:/program files (x86)/microchip/mplabc32/v2.02/bin/../lib/gcc/pic32mx/4.5.1/../../../../pic32mx/lib\libc.a(sprintf_cdnopsuxX.eo)

.mdebug.abi32%z60
                0x00000000        0x0
 .mdebug.abi32  0x00000000        0x0 c:/program files (x86)/microchip/mplabc32/v2.02/bin/../lib/gcc/pic32mx/4.5.1/../../../../pic32mx/lib\libc.a(printf_cdnopsuxX.eo)

.bss%z61        0x00000000        0x0
 .bss           0x00000000        0x0 c:/program files (x86)/microchip/mplabc32/v2.02/bin/../lib/gcc/pic32mx/4.5.1/../../../../pic32mx/lib\libc.a(printf_cdnopsuxX.eo)

.data%z62       0x00000000        0x0
 .data          0x00000000        0x0 c:/program files (x86)/microchip/mplabc32/v2.02/bin/../lib/gcc/pic32mx/4.5.1/../../../../pic32mx/lib\libc.a(printf_cdnopsuxX.eo)

.mdebug.abi32%z63
                0x00000000        0x0
 .mdebug.abi32  0x00000000        0x0 c:/program files (x86)/microchip/mplabc32/v2.02/bin/../lib/gcc/pic32mx/4.5.1/../../../../pic32mx/lib\libc.a(strncpy.o)

.bss%z64        0x00000000        0x0
 .bss           0x00000000        0x0 c:/program files (x86)/microchip/mplabc32/v2.02/bin/../lib/gcc/pic32mx/4.5.1/../../../../pic32mx/lib\libc.a(strncpy.o)

.data%z65       0x00000000        0x0
 .data          0x00000000        0x0 c:/program files (x86)/microchip/mplabc32/v2.02/bin/../lib/gcc/pic32mx/4.5.1/../../../../pic32mx/lib\libc.a(strncpy.o)

.mdebug.abi32%z66
                0x00000000        0x0
 .mdebug.abi32  0x00000000        0x0 c:/program files (x86)/microchip/mplabc32/v2.02/bin/../lib/gcc/pic32mx/4.5.1/../../../../pic32mx/lib\libc.a(puts.o)

.bss%z67        0x00000000        0x0
 .bss           0x00000000        0x0 c:/program files (x86)/microchip/mplabc32/v2.02/bin/../lib/gcc/pic32mx/4.5.1/../../../../pic32mx/lib\libc.a(puts.o)

.data%z68       0x00000000        0x0
 .data          0x00000000        0x0 c:/program files (x86)/microchip/mplabc32/v2.02/bin/../lib/gcc/pic32mx/4.5.1/../../../../pic32mx/lib\libc.a(puts.o)

.mdebug.abi32%z69
                0x00000000        0x0
 .mdebug.abi32  0x00000000        0x0 c:/program files (x86)/microchip/mplabc32/v2.02/bin/../lib/gcc/pic32mx/4.5.1/../../../../pic32mx/lib\libc.a(ctype.o)

.bss%z70        0x00000000        0x0
 .bss           0x00000000        0x0 c:/program files (x86)/microchip/mplabc32/v2.02/bin/../lib/gcc/pic32mx/4.5.1/../../../../pic32mx/lib\libc.a(ctype.o)

.data%z71       0x00000000        0x0
 .data          0x00000000        0x0 c:/program files (x86)/microchip/mplabc32/v2.02/bin/../lib/gcc/pic32mx/4.5.1/../../../../pic32mx/lib\libc.a(ctype.o)

.mdebug.abi32%z72
                0x00000000        0x0
 .mdebug.abi32  0x00000000        0x0 c:/program files (x86)/microchip/mplabc32/v2.02/bin/../lib/gcc/pic32mx/4.5.1/../../../../pic32mx/lib\libc.a(atol.o)

.bss%z73        0x00000000        0x0
 .bss           0x00000000        0x0 c:/program files (x86)/microchip/mplabc32/v2.02/bin/../lib/gcc/pic32mx/4.5.1/../../../../pic32mx/lib\libc.a(atol.o)

.data%z74       0x00000000        0x0
 .data          0x00000000        0x0 c:/program files (x86)/microchip/mplabc32/v2.02/bin/../lib/gcc/pic32mx/4.5.1/../../../../pic32mx/lib\libc.a(atol.o)

.bss%z75        0x00000000        0x0
 .bss           0x00000000        0x0 c:/program files (x86)/microchip/mplabc32/v2.02/bin/../lib/gcc/pic32mx/4.5.1/../../../../pic32mx/lib\libc.a(general-exception.o)

.data%z76       0x00000000        0x0
 .data          0x00000000        0x0 c:/program files (x86)/microchip/mplabc32/v2.02/bin/../lib/gcc/pic32mx/4.5.1/../../../../pic32mx/lib\libc.a(general-exception.o)

.bss%z77        0x00000000        0x0
 .bss           0x00000000        0x0 c:/program files (x86)/microchip/mplabc32/v2.02/bin/../lib/gcc/pic32mx/4.5.1/../../../../pic32mx/lib\libc.a(strlen.o)

.data%z78       0x00000000        0x0
 .data          0x00000000        0x0 c:/program files (x86)/microchip/mplabc32/v2.02/bin/../lib/gcc/pic32mx/4.5.1/../../../../pic32mx/lib\libc.a(strlen.o)

.bss%z79        0x00000000        0x0
 .bss           0x00000000        0x0 c:/program files (x86)/microchip/mplabc32/v2.02/bin/../lib/gcc/pic32mx/4.5.1/../../../../pic32mx/lib\libc.a(strcpy.o)

.data%z80       0x00000000        0x0
 .data          0x00000000        0x0 c:/program files (x86)/microchip/mplabc32/v2.02/bin/../lib/gcc/pic32mx/4.5.1/../../../../pic32mx/lib\libc.a(strcpy.o)

.bss%z81        0x00000000        0x0
 .bss           0x00000000        0x0 c:/program files (x86)/microchip/mplabc32/v2.02/bin/../lib/gcc/pic32mx/4.5.1/../../../../pic32mx/lib\libc.a(strcmp.o)

.data%z82       0x00000000        0x0
 .data          0x00000000        0x0 c:/program files (x86)/microchip/mplabc32/v2.02/bin/../lib/gcc/pic32mx/4.5.1/../../../../pic32mx/lib\libc.a(strcmp.o)

.bss%z83        0x00000000        0x0
 .bss           0x00000000        0x0 c:/program files (x86)/microchip/mplabc32/v2.02/bin/../lib/gcc/pic32mx/4.5.1/../../../../pic32mx/lib\libc.a(memset.o)

.data%z84       0x00000000        0x0
 .data          0x00000000        0x0 c:/program files (x86)/microchip/mplabc32/v2.02/bin/../lib/gcc/pic32mx/4.5.1/../../../../pic32mx/lib\libc.a(memset.o)

.bss%z85        0x00000000        0x0
 .bss           0x00000000        0x0 c:/program files (x86)/microchip/mplabc32/v2.02/bin/../lib/gcc/pic32mx/4.5.1/../../../../pic32mx/lib\libc.a(memcpy.o)

.data%z86       0x00000000        0x0
 .data          0x00000000        0x0 c:/program files (x86)/microchip/mplabc32/v2.02/bin/../lib/gcc/pic32mx/4.5.1/../../../../pic32mx/lib\libc.a(memcpy.o)

.bss%z87        0x00000000        0x0
 .bss           0x00000000        0x0 c:/program files (x86)/microchip/mplabc32/v2.02/bin/../lib/gcc/pic32mx/4.5.1/../../../../pic32mx/lib\libc.a(memcmp.o)

.data%z88       0x00000000        0x0
 .data          0x00000000        0x0 c:/program files (x86)/microchip/mplabc32/v2.02/bin/../lib/gcc/pic32mx/4.5.1/../../../../pic32mx/lib\libc.a(memcmp.o)

.mdebug.abi32%z89
                0x00000000        0x0
 .mdebug.abi32  0x00000000        0x0 c:/program files (x86)/microchip/mplabc32/v2.02/bin/../lib/gcc/pic32mx/4.5.1\libgcc.a(_umoddi3.o)

.bss%z90        0x00000000        0x0
 .bss           0x00000000        0x0 c:/program files (x86)/microchip/mplabc32/v2.02/bin/../lib/gcc/pic32mx/4.5.1\libgcc.a(_umoddi3.o)

.data%z91       0x00000000        0x0
 .data          0x00000000        0x0 c:/program files (x86)/microchip/mplabc32/v2.02/bin/../lib/gcc/pic32mx/4.5.1\libgcc.a(_umoddi3.o)

.mdebug.abi32%z92
                0x00000000        0x0
 .mdebug.abi32  0x00000000        0x0 c:/program files (x86)/microchip/mplabc32/v2.02/bin/../lib/gcc/pic32mx/4.5.1\libgcc.a(_udivdi3.o)

.bss%z93        0x00000000        0x0
 .bss           0x00000000        0x0 c:/program files (x86)/microchip/mplabc32/v2.02/bin/../lib/gcc/pic32mx/4.5.1\libgcc.a(_udivdi3.o)

.data%z94       0x00000000        0x0
 .data          0x00000000        0x0 c:/program files (x86)/microchip/mplabc32/v2.02/bin/../lib/gcc/pic32mx/4.5.1\libgcc.a(_udivdi3.o)

.mdebug.abi32%z95
                0x00000000        0x0
 .mdebug.abi32  0x00000000        0x0 obj-tmp\DHCPs.o

.bss%z96        0x00000000        0x0
 .bss           0x00000000        0x0 obj-tmp\DHCPs.o

.data%z97       0x00000000        0x0
 .data          0x00000000        0x0 obj-tmp\DHCPs.o

.mdebug.abi32%z98
                0x00000000        0x0
 .mdebug.abi32  0x00000000        0x0 obj-tmp\DHCP.o

.data%z99       0x00000000        0x0
 .data          0x00000000        0x0 obj-tmp\DHCP.o

.mdebug.abi32%z100
                0x00000000        0x0
 .mdebug.abi32  0x00000000        0x0 obj-tmp\WFParamMsg_24G.o

.bss%z101       0x00000000        0x0
 .bss           0x00000000        0x0 obj-tmp\WFParamMsg_24G.o

.data%z102      0x00000000        0x0
 .data          0x00000000        0x0 obj-tmp\WFParamMsg_24G.o

.mdebug.abi32%z103
                0x00000000        0x0
 .mdebug.abi32  0x00000000        0x0 obj-tmp\WFMgmtMsg_24G.o

.bss%z104       0x00000000        0x0
 .bss           0x00000000        0x0 obj-tmp\WFMgmtMsg_24G.o

.data%z105      0x00000000        0x0
 .data          0x00000000        0x0 obj-tmp\WFMgmtMsg_24G.o

.mdebug.abi32%z106
                0x00000000        0x0
 .mdebug.abi32  0x00000000        0x0 obj-tmp\WFMac_24G.o

.bss%z107       0x00000000        0x0
 .bss           0x00000000        0x0 obj-tmp\WFMac_24G.o

.data%z108      0x00000000        0x0
 .data          0x00000000        0x0 obj-tmp\WFMac_24G.o

.mdebug.abi32%z109
                0x00000000        0x0
 .mdebug.abi32  0x00000000        0x0 obj-tmp\WFDriverRaw_24G.o

.bss%z110       0x00000000        0x0
 .bss           0x00000000        0x0 obj-tmp\WFDriverRaw_24G.o

.data%z111      0x00000000        0x0
 .data          0x00000000        0x0 obj-tmp\WFDriverRaw_24G.o

.mdebug.abi32%z112
                0x00000000        0x0
 .mdebug.abi32  0x00000000        0x0 obj-tmp\WFDriverCom_24G.o

.bss%z113       0x00000000        0x0
 .bss           0x00000000        0x0 obj-tmp\WFDriverCom_24G.o

.data%z114      0x00000000        0x0
 .data          0x00000000        0x0 obj-tmp\WFDriverCom_24G.o

.mdebug.abi32%z115
                0x00000000        0x0
 .mdebug.abi32  0x00000000        0x0 obj-tmp\WF_Spi.o

.bss%z116       0x00000000        0x0
 .bss           0x00000000        0x0 obj-tmp\WF_Spi.o

.data%z117      0x00000000        0x0
 .data          0x00000000        0x0 obj-tmp\WF_Spi.o

.mdebug.abi32%z118
                0x00000000        0x0
 .mdebug.abi32  0x00000000        0x0 obj-tmp\WFTxPower.o

.bss%z119       0x00000000        0x0
 .bss           0x00000000        0x0 obj-tmp\WFTxPower.o

.data%z120      0x00000000        0x0
 .data          0x00000000        0x0 obj-tmp\WFTxPower.o

.mdebug.abi32%z121
                0x00000000        0x0
 .mdebug.abi32  0x00000000        0x0 obj-tmp\WFScan.o

.bss%z122       0x00000000        0x0
 .bss           0x00000000        0x0 obj-tmp\WFScan.o

.data%z123      0x00000000        0x0
 .data          0x00000000        0x0 obj-tmp\WFScan.o

.mdebug.abi32%z124
                0x00000000        0x0
 .mdebug.abi32  0x00000000        0x0 obj-tmp\WFPowerSave.o

.bss%z125       0x00000000        0x0
 .bss           0x00000000        0x0 obj-tmp\WFPowerSave.o

.data%z126      0x00000000        0x0
 .data          0x00000000        0x0 obj-tmp\WFPowerSave.o

.mdebug.abi32%z127
                0x00000000        0x0
 .mdebug.abi32  0x00000000        0x0 obj-tmp\WFInit.o

.bss%z128       0x00000000        0x0
 .bss           0x00000000        0x0 obj-tmp\WFInit.o

.data%z129      0x00000000        0x0
 .data          0x00000000        0x0 obj-tmp\WFInit.o

.mdebug.abi32%z130
                0x00000000        0x0
 .mdebug.abi32  0x00000000        0x0 obj-tmp\WFEventHandler.o

.bss%z131       0x00000000        0x0
 .bss           0x00000000        0x0 obj-tmp\WFEventHandler.o

.data%z132      0x00000000        0x0
 .data          0x00000000        0x0 obj-tmp\WFEventHandler.o

.mdebug.abi32%z133
                0x00000000        0x0
 .mdebug.abi32  0x00000000        0x0 obj-tmp\WFEasyConfig.o

.bss%z134       0x00000000        0x0
 .bss           0x00000000        0x0 obj-tmp\WFEasyConfig.o

.data%z135      0x00000000        0x0
 .data          0x00000000        0x0 obj-tmp\WFEasyConfig.o

.mdebug.abi32%z136
                0x00000000        0x0
 .mdebug.abi32  0x00000000        0x0 obj-tmp\WFDebugStrings.o

.bss%z137       0x00000000        0x0
 .bss           0x00000000        0x0 obj-tmp\WFDebugStrings.o

.mdebug.abi32%z138
                0x00000000        0x0
 .mdebug.abi32  0x00000000        0x0 obj-tmp\WFDataTxRx.o

.bss%z139       0x00000000        0x0
 .bss           0x00000000        0x0 obj-tmp\WFDataTxRx.o

.data%z140      0x00000000        0x0
 .data          0x00000000        0x0 obj-tmp\WFDataTxRx.o

.mdebug.abi32%z141
                0x00000000        0x0
 .mdebug.abi32  0x00000000        0x0 obj-tmp\WFConsoleMsgs.o

.bss%z142       0x00000000        0x0
 .bss           0x00000000        0x0 obj-tmp\WFConsoleMsgs.o

.data%z143      0x00000000        0x0
 .data          0x00000000        0x0 obj-tmp\WFConsoleMsgs.o

.mdebug.abi32%z144
                0x00000000        0x0
 .mdebug.abi32  0x00000000        0x0 obj-tmp\WFConsoleMsgHandler.o

.bss%z145       0x00000000        0x0
 .bss           0x00000000        0x0 obj-tmp\WFConsoleMsgHandler.o

.data%z146      0x00000000        0x0
 .data          0x00000000        0x0 obj-tmp\WFConsoleMsgHandler.o

.mdebug.abi32%z147
                0x00000000        0x0
 .mdebug.abi32  0x00000000        0x0 obj-tmp\WFConsoleIwpriv.o

.bss%z148       0x00000000        0x0
 .bss           0x00000000        0x0 obj-tmp\WFConsoleIwpriv.o

.data%z149      0x00000000        0x0
 .data          0x00000000        0x0 obj-tmp\WFConsoleIwpriv.o

.mdebug.abi32%z150
                0x00000000        0x0
 .mdebug.abi32  0x00000000        0x0 obj-tmp\WFConsoleIwconfig.o

.bss%z151       0x00000000        0x0
 .bss           0x00000000        0x0 obj-tmp\WFConsoleIwconfig.o

.data%z152      0x00000000        0x0
 .data          0x00000000        0x0 obj-tmp\WFConsoleIwconfig.o

.mdebug.abi32%z153
                0x00000000        0x0
 .mdebug.abi32  0x00000000        0x0 obj-tmp\WFConsoleIfconfig.o

.bss%z154       0x00000000        0x0
 .bss           0x00000000        0x0 obj-tmp\WFConsoleIfconfig.o

.data%z155      0x00000000        0x0
 .data          0x00000000        0x0 obj-tmp\WFConsoleIfconfig.o

.mdebug.abi32%z156
                0x00000000        0x0
 .mdebug.abi32  0x00000000        0x0 obj-tmp\WFConsole.o

.bss%z157       0x00000000        0x0
 .bss           0x00000000        0x0 obj-tmp\WFConsole.o

.data%z158      0x00000000        0x0
 .data          0x00000000        0x0 obj-tmp\WFConsole.o

.mdebug.abi32%z159
                0x00000000        0x0
 .mdebug.abi32  0x00000000        0x0 obj-tmp\WFConnectionProfile.o

.bss%z160       0x00000000        0x0
 .bss           0x00000000        0x0 obj-tmp\WFConnectionProfile.o

.data%z161      0x00000000        0x0
 .data          0x00000000        0x0 obj-tmp\WFConnectionProfile.o

.mdebug.abi32%z162
                0x00000000        0x0
 .mdebug.abi32  0x00000000        0x0 obj-tmp\WFConnectionManager.o

.bss%z163       0x00000000        0x0
 .bss           0x00000000        0x0 obj-tmp\WFConnectionManager.o

.data%z164      0x00000000        0x0
 .data          0x00000000        0x0 obj-tmp\WFConnectionManager.o

.mdebug.abi32%z165
                0x00000000        0x0
 .mdebug.abi32  0x00000000        0x0 obj-tmp\WFConnectionAlgorithm.o

.bss%z166       0x00000000        0x0
 .bss           0x00000000        0x0 obj-tmp\WFConnectionAlgorithm.o

.data%z167      0x00000000        0x0
 .data          0x00000000        0x0 obj-tmp\WFConnectionAlgorithm.o

.mdebug.abi32%z168
                0x00000000        0x0
 .mdebug.abi32  0x00000000        0x0 obj-tmp\WF_pbkdf2.o

.bss%z169       0x00000000        0x0
 .bss           0x00000000        0x0 obj-tmp\WF_pbkdf2.o

.data%z170      0x00000000        0x0
 .data          0x00000000        0x0 obj-tmp\WF_pbkdf2.o

.mdebug.abi32%z171
                0x00000000        0x0
 .mdebug.abi32  0x00000000        0x0 obj-tmp\WF_Eint.o

.bss%z172       0x00000000        0x0
 .bss           0x00000000        0x0 obj-tmp\WF_Eint.o

.data%z173      0x00000000        0x0
 .data          0x00000000        0x0 obj-tmp\WF_Eint.o

.mdebug.abi32%z174
                0x00000000        0x0
 .mdebug.abi32  0x00000000        0x0 obj-tmp\ZeroconfMulticastDNS.o

.data%z175      0x00000000        0x0
 .data          0x00000000        0x0 obj-tmp\ZeroconfMulticastDNS.o

.mdebug.abi32%z176
                0x00000000        0x0
 .mdebug.abi32  0x00000000        0x0 obj-tmp\ZeroconfLinkLocal.o

.bss%z177       0x00000000        0x0
 .bss           0x00000000        0x0 obj-tmp\ZeroconfLinkLocal.o

.data%z178      0x00000000        0x0
 .data          0x00000000        0x0 obj-tmp\ZeroconfLinkLocal.o

.mdebug.abi32%z179
                0x00000000        0x0
 .mdebug.abi32  0x00000000        0x0 obj-tmp\ZeroconfHelper.o

.bss%z180       0x00000000        0x0
 .bss           0x00000000        0x0 obj-tmp\ZeroconfHelper.o

.data%z181      0x00000000        0x0
 .data          0x00000000        0x0 obj-tmp\ZeroconfHelper.o

.mdebug.abi32%z182
                0x00000000        0x0
 .mdebug.abi32  0x00000000        0x0 obj-tmp\UDPPerformanceTest.o

.bss%z183       0x00000000        0x0
 .bss           0x00000000        0x0 obj-tmp\UDPPerformanceTest.o

.data%z184      0x00000000        0x0
 .data          0x00000000        0x0 obj-tmp\UDPPerformanceTest.o

.mdebug.abi32%z185
                0x00000000        0x0
 .mdebug.abi32  0x00000000        0x0 obj-tmp\UDP.o

.bss%z186       0x00000000        0x0
 .bss           0x00000000        0x0 obj-tmp\UDP.o

.data%z187      0x00000000        0x0
 .data          0x00000000        0x0 obj-tmp\UDP.o

.mdebug.abi32%z188
                0x00000000        0x0
 .mdebug.abi32  0x00000000        0x0 obj-tmp\UART2TCPBridge.o

.bss%z189       0x00000000        0x0
 .bss           0x00000000        0x0 obj-tmp\UART2TCPBridge.o

.data%z190      0x00000000        0x0
 .data          0x00000000        0x0 obj-tmp\UART2TCPBridge.o

.mdebug.abi32%z191
                0x00000000        0x0
 .mdebug.abi32  0x00000000        0x0 obj-tmp\UART.o

.bss%z192       0x00000000        0x0
 .bss           0x00000000        0x0 obj-tmp\UART.o

.data%z193      0x00000000        0x0
 .data          0x00000000        0x0 obj-tmp\UART.o

.mdebug.abi32%z194
                0x00000000        0x0
 .mdebug.abi32  0x00000000        0x0 obj-tmp\Tick.o

.bss%z195       0x00000000        0x0
 .bss           0x00000000        0x0 obj-tmp\Tick.o

.data%z196      0x00000000        0x0
 .data          0x00000000        0x0 obj-tmp\Tick.o

.mdebug.abi32%z197
                0x00000000        0x0
 .mdebug.abi32  0x00000000        0x0 obj-tmp\TFTPc.o

.bss%z198       0x00000000        0x0
 .bss           0x00000000        0x0 obj-tmp\TFTPc.o

.data%z199      0x00000000        0x0
 .data          0x00000000        0x0 obj-tmp\TFTPc.o

.mdebug.abi32%z200
                0x00000000        0x0
 .mdebug.abi32  0x00000000        0x0 obj-tmp\Telnet.o

.bss%z201       0x00000000        0x0
 .bss           0x00000000        0x0 obj-tmp\Telnet.o

.data%z202      0x00000000        0x0
 .data          0x00000000        0x0 obj-tmp\Telnet.o

.mdebug.abi32%z203
                0x00000000        0x0
 .mdebug.abi32  0x00000000        0x0 obj-tmp\TCPPerformanceTest.o

.bss%z204       0x00000000        0x0
 .bss           0x00000000        0x0 obj-tmp\TCPPerformanceTest.o

.data%z205      0x00000000        0x0
 .data          0x00000000        0x0 obj-tmp\TCPPerformanceTest.o

.mdebug.abi32%z206
                0x00000000        0x0
 .mdebug.abi32  0x00000000        0x0 obj-tmp\TCP.o

.data%z207      0x00000000        0x0
 .data          0x00000000        0x0 obj-tmp\TCP.o

.mdebug.abi32%z208
                0x00000000        0x0
 .mdebug.abi32  0x00000000        0x0 obj-tmp\StackTsk.o

.bss%z209       0x00000000        0x0
 .bss           0x00000000        0x0 obj-tmp\StackTsk.o

.data%z210      0x00000000        0x0
 .data          0x00000000        0x0 obj-tmp\StackTsk.o

.mdebug.abi32%z211
                0x00000000        0x0
 .mdebug.abi32  0x00000000        0x0 obj-tmp\SSL.o

.bss%z212       0x00000000        0x0
 .bss           0x00000000        0x0 obj-tmp\SSL.o

.data%z213      0x00000000        0x0
 .data          0x00000000        0x0 obj-tmp\SSL.o

.mdebug.abi32%z214
                0x00000000        0x0
 .mdebug.abi32  0x00000000        0x0 obj-tmp\SPIRAM.o

.bss%z215       0x00000000        0x0
 .bss           0x00000000        0x0 obj-tmp\SPIRAM.o

.data%z216      0x00000000        0x0
 .data          0x00000000        0x0 obj-tmp\SPIRAM.o

.mdebug.abi32%z217
                0x00000000        0x0
 .mdebug.abi32  0x00000000        0x0 obj-tmp\SPIFlash.o

.bss%z218       0x00000000        0x0
 .bss           0x00000000        0x0 obj-tmp\SPIFlash.o

.data%z219      0x00000000        0x0
 .data          0x00000000        0x0 obj-tmp\SPIFlash.o

.mdebug.abi32%z220
                0x00000000        0x0
 .mdebug.abi32  0x00000000        0x0 obj-tmp\SPIEEPROM.o

.bss%z221       0x00000000        0x0
 .bss           0x00000000        0x0 obj-tmp\SPIEEPROM.o

.data%z222      0x00000000        0x0
 .data          0x00000000        0x0 obj-tmp\SPIEEPROM.o

.mdebug.abi32%z223
                0x00000000        0x0
 .mdebug.abi32  0x00000000        0x0 obj-tmp\SNTP.o

.bss%z224       0x00000000        0x0
 .bss           0x00000000        0x0 obj-tmp\SNTP.o

.data%z225      0x00000000        0x0
 .data          0x00000000        0x0 obj-tmp\SNTP.o

.mdebug.abi32%z226
                0x00000000        0x0
 .mdebug.abi32  0x00000000        0x0 obj-tmp\SNMPv3USM.o

.bss%z227       0x00000000        0x0
 .bss           0x00000000        0x0 obj-tmp\SNMPv3USM.o

.data%z228      0x00000000        0x0
 .data          0x00000000        0x0 obj-tmp\SNMPv3USM.o

.mdebug.abi32%z229
                0x00000000        0x0
 .mdebug.abi32  0x00000000        0x0 obj-tmp\SNMPv3.o

.bss%z230       0x00000000        0x0
 .bss           0x00000000        0x0 obj-tmp\SNMPv3.o

.data%z231      0x00000000        0x0
 .data          0x00000000        0x0 obj-tmp\SNMPv3.o

.mdebug.abi32%z232
                0x00000000        0x0
 .mdebug.abi32  0x00000000        0x0 obj-tmp\SNMP.o

.bss%z233       0x00000000        0x0
 .bss           0x00000000        0x0 obj-tmp\SNMP.o

.data%z234      0x00000000        0x0
 .data          0x00000000        0x0 obj-tmp\SNMP.o

.mdebug.abi32%z235
                0x00000000        0x0
 .mdebug.abi32  0x00000000        0x0 obj-tmp\SMTP.o

.bss%z236       0x00000000        0x0
 .bss           0x00000000        0x0 obj-tmp\SMTP.o

.data%z237      0x00000000        0x0
 .data          0x00000000        0x0 obj-tmp\SMTP.o

.mdebug.abi32%z238
                0x00000000        0x0
 .mdebug.abi32  0x00000000        0x0 obj-tmp\RSA.o

.bss%z239       0x00000000        0x0
 .bss           0x00000000        0x0 obj-tmp\RSA.o

.data%z240      0x00000000        0x0
 .data          0x00000000        0x0 obj-tmp\RSA.o

.mdebug.abi32%z241
                0x00000000        0x0
 .mdebug.abi32  0x00000000        0x0 obj-tmp\Reboot.o

.bss%z242       0x00000000        0x0
 .bss           0x00000000        0x0 obj-tmp\Reboot.o

.data%z243      0x00000000        0x0
 .data          0x00000000        0x0 obj-tmp\Reboot.o

.mdebug.abi32%z244
                0x00000000        0x0
 .mdebug.abi32  0x00000000        0x0 obj-tmp\Random.o

.bss%z245       0x00000000        0x0
 .bss           0x00000000        0x0 obj-tmp\Random.o

.data%z246      0x00000000        0x0
 .data          0x00000000        0x0 obj-tmp\Random.o

.mdebug.abi32%z247
                0x00000000        0x0
 .mdebug.abi32  0x00000000        0x0 obj-tmp\NBNS.o

.bss%z248       0x00000000        0x0
 .bss           0x00000000        0x0 obj-tmp\NBNS.o

.data%z249      0x00000000        0x0
 .data          0x00000000        0x0 obj-tmp\NBNS.o

.mdebug.abi32%z250
                0x00000000        0x0
 .mdebug.abi32  0x00000000        0x0 obj-tmp\MPFS2.o

.data%z251      0x00000000        0x0
 .data          0x00000000        0x0 obj-tmp\MPFS2.o

.mdebug.abi32%z252
                0x00000000        0x0
 .mdebug.abi32  0x00000000        0x0 obj-tmp\LCDBlocking.o

.bss%z253       0x00000000        0x0
 .bss           0x00000000        0x0 obj-tmp\LCDBlocking.o

.data%z254      0x00000000        0x0
 .data          0x00000000        0x0 obj-tmp\LCDBlocking.o

.mdebug.abi32%z255
                0x00000000        0x0
 .mdebug.abi32  0x00000000        0x0 obj-tmp\IP.o

.bss%z256       0x00000000        0x0
 .bss           0x00000000        0x0 obj-tmp\IP.o

.data%z257      0x00000000        0x0
 .data          0x00000000        0x0 obj-tmp\IP.o

.mdebug.abi32%z258
                0x00000000        0x0
 .mdebug.abi32  0x00000000        0x0 obj-tmp\ICMP.o

.bss%z259       0x00000000        0x0
 .bss           0x00000000        0x0 obj-tmp\ICMP.o

.data%z260      0x00000000        0x0
 .data          0x00000000        0x0 obj-tmp\ICMP.o

.mdebug.abi32%z261
                0x00000000        0x0
 .mdebug.abi32  0x00000000        0x0 obj-tmp\HTTP2.o

.bss%z262       0x00000000        0x0
 .bss           0x00000000        0x0 obj-tmp\HTTP2.o

.data%z263      0x00000000        0x0
 .data          0x00000000        0x0 obj-tmp\HTTP2.o

.mdebug.abi32%z264
                0x00000000        0x0
 .mdebug.abi32  0x00000000        0x0 obj-tmp\Helpers.o

.bss%z265       0x00000000        0x0
 .bss           0x00000000        0x0 obj-tmp\Helpers.o

.data%z266      0x00000000        0x0
 .data          0x00000000        0x0 obj-tmp\Helpers.o

.mdebug.abi32%z267
                0x00000000        0x0
 .mdebug.abi32  0x00000000        0x0 obj-tmp\Hashes.o

.bss%z268       0x00000000        0x0
 .bss           0x00000000        0x0 obj-tmp\Hashes.o

.data%z269      0x00000000        0x0
 .data          0x00000000        0x0 obj-tmp\Hashes.o

.mdebug.abi32%z270
                0x00000000        0x0
 .mdebug.abi32  0x00000000        0x0 obj-tmp\FTP.o

.bss%z271       0x00000000        0x0
 .bss           0x00000000        0x0 obj-tmp\FTP.o

.data%z272      0x00000000        0x0
 .data          0x00000000        0x0 obj-tmp\FTP.o

.mdebug.abi32%z273
                0x00000000        0x0
 .mdebug.abi32  0x00000000        0x0 obj-tmp\FileSystem.o

.bss%z274       0x00000000        0x0
 .bss           0x00000000        0x0 obj-tmp\FileSystem.o

.data%z275      0x00000000        0x0
 .data          0x00000000        0x0 obj-tmp\FileSystem.o

.mdebug.abi32%z276
                0x00000000        0x0
 .mdebug.abi32  0x00000000        0x0 obj-tmp\ETHPIC32IntMac.o

.bss%z277       0x00000000        0x0
 .bss           0x00000000        0x0 obj-tmp\ETHPIC32IntMac.o

.data%z278      0x00000000        0x0
 .data          0x00000000        0x0 obj-tmp\ETHPIC32IntMac.o

.mdebug.abi32%z279
                0x00000000        0x0
 .mdebug.abi32  0x00000000        0x0 obj-tmp\ETHPIC32ExtPhySMSC8720.o

.bss%z280       0x00000000        0x0
 .bss           0x00000000        0x0 obj-tmp\ETHPIC32ExtPhySMSC8720.o

.data%z281      0x00000000        0x0
 .data          0x00000000        0x0 obj-tmp\ETHPIC32ExtPhySMSC8720.o

.mdebug.abi32%z282
                0x00000000        0x0
 .mdebug.abi32  0x00000000        0x0 obj-tmp\ETHPIC32ExtPhySMSC8700.o

.bss%z283       0x00000000        0x0
 .bss           0x00000000        0x0 obj-tmp\ETHPIC32ExtPhySMSC8700.o

.data%z284      0x00000000        0x0
 .data          0x00000000        0x0 obj-tmp\ETHPIC32ExtPhySMSC8700.o

.mdebug.abi32%z285
                0x00000000        0x0
 .mdebug.abi32  0x00000000        0x0 obj-tmp\ETHPIC32ExtPhyDP83848.o

.bss%z286       0x00000000        0x0
 .bss           0x00000000        0x0 obj-tmp\ETHPIC32ExtPhyDP83848.o

.data%z287      0x00000000        0x0
 .data          0x00000000        0x0 obj-tmp\ETHPIC32ExtPhyDP83848.o

.mdebug.abi32%z288
                0x00000000        0x0
 .mdebug.abi32  0x00000000        0x0 obj-tmp\ETHPIC32ExtPhyDP83640.o

.bss%z289       0x00000000        0x0
 .bss           0x00000000        0x0 obj-tmp\ETHPIC32ExtPhyDP83640.o

.data%z290      0x00000000        0x0
 .data          0x00000000        0x0 obj-tmp\ETHPIC32ExtPhyDP83640.o

.mdebug.abi32%z291
                0x00000000        0x0
 .mdebug.abi32  0x00000000        0x0 obj-tmp\ETHPIC32ExtPhy.o

.bss%z292       0x00000000        0x0
 .bss           0x00000000        0x0 obj-tmp\ETHPIC32ExtPhy.o

.data%z293      0x00000000        0x0
 .data          0x00000000        0x0 obj-tmp\ETHPIC32ExtPhy.o

.mdebug.abi32%z294
                0x00000000        0x0
 .mdebug.abi32  0x00000000        0x0 obj-tmp\ETH97J60.o

.bss%z295       0x00000000        0x0
 .bss           0x00000000        0x0 obj-tmp\ETH97J60.o

.data%z296      0x00000000        0x0
 .data          0x00000000        0x0 obj-tmp\ETH97J60.o

.mdebug.abi32%z297
                0x00000000        0x0
 .mdebug.abi32  0x00000000        0x0 obj-tmp\eth_pic32_ext_phy_rtl8201FL.o

.bss%z298       0x00000000        0x0
 .bss           0x00000000        0x0 obj-tmp\eth_pic32_ext_phy_rtl8201FL.o

.data%z299      0x00000000        0x0
 .data          0x00000000        0x0 obj-tmp\eth_pic32_ext_phy_rtl8201FL.o

.mdebug.abi32%z300
                0x00000000        0x0
 .mdebug.abi32  0x00000000        0x0 obj-tmp\ENCX24J600.o

.bss%z301       0x00000000        0x0
 .bss           0x00000000        0x0 obj-tmp\ENCX24J600.o

.data%z302      0x00000000        0x0
 .data          0x00000000        0x0 obj-tmp\ENCX24J600.o

.mdebug.abi32%z303
                0x00000000        0x0
 .mdebug.abi32  0x00000000        0x0 obj-tmp\ENC28J60.o

.bss%z304       0x00000000        0x0
 .bss           0x00000000        0x0 obj-tmp\ENC28J60.o

.data%z305      0x00000000        0x0
 .data          0x00000000        0x0 obj-tmp\ENC28J60.o

.mdebug.abi32%z306
                0x00000000        0x0
 .mdebug.abi32  0x00000000        0x0 obj-tmp\DynDNS.o

.bss%z307       0x00000000        0x0
 .bss           0x00000000        0x0 obj-tmp\DynDNS.o

.data%z308      0x00000000        0x0
 .data          0x00000000        0x0 obj-tmp\DynDNS.o

.mdebug.abi32%z309
                0x00000000        0x0
 .mdebug.abi32  0x00000000        0x0 obj-tmp\DNSs.o

.data%z310      0x00000000        0x0
 .data          0x00000000        0x0 obj-tmp\DNSs.o

.mdebug.abi32%z311
                0x00000000        0x0
 .mdebug.abi32  0x00000000        0x0 obj-tmp\DNS.o

.data%z312      0x00000000        0x0
 .data          0x00000000        0x0 obj-tmp\DNS.o

.mdebug.abi32%z313
                0x00000000        0x0
 .mdebug.abi32  0x00000000        0x0 obj-tmp\Delay.o

.bss%z314       0x00000000        0x0
 .bss           0x00000000        0x0 obj-tmp\Delay.o

.data%z315      0x00000000        0x0
 .data          0x00000000        0x0 obj-tmp\Delay.o

.bss%z316       0x00000000        0x0
 .bss           0x00000000        0x0 obj-tmp\BigInt_helper_PIC32.o

.data%z317      0x00000000        0x0
 .data          0x00000000        0x0 obj-tmp\BigInt_helper_PIC32.o

.mdebug.abi32%z318
                0x00000000        0x0
 .mdebug.abi32  0x00000000        0x0 obj-tmp\BigInt.o

.bss%z319       0x00000000        0x0
 .bss           0x00000000        0x0 obj-tmp\BigInt.o

.data%z320      0x00000000        0x0
 .data          0x00000000        0x0 obj-tmp\BigInt.o

.mdebug.abi32%z321
                0x00000000        0x0
 .mdebug.abi32  0x00000000        0x0 obj-tmp\BerkeleyAPI.o

.bss%z322       0x00000000        0x0
 .bss           0x00000000        0x0 obj-tmp\BerkeleyAPI.o

.data%z323      0x00000000        0x0
 .data          0x00000000        0x0 obj-tmp\BerkeleyAPI.o

.mdebug.abi32%z324
                0x00000000        0x0
 .mdebug.abi32  0x00000000        0x0 obj-tmp\AutoIP.o

.bss%z325       0x00000000        0x0
 .bss           0x00000000        0x0 obj-tmp\AutoIP.o

.data%z326      0x00000000        0x0
 .data          0x00000000        0x0 obj-tmp\AutoIP.o

.mdebug.abi32%z327
                0x00000000        0x0
 .mdebug.abi32  0x00000000        0x0 obj-tmp\ARP.o

.data%z328      0x00000000        0x0
 .data          0x00000000        0x0 obj-tmp\ARP.o

.mdebug.abi32%z329
                0x00000000        0x0
 .mdebug.abi32  0x00000000        0x0 obj-tmp\ARCFOUR.o

.bss%z330       0x00000000        0x0
 .bss           0x00000000        0x0 obj-tmp\ARCFOUR.o

.data%z331      0x00000000        0x0
 .data          0x00000000        0x0 obj-tmp\ARCFOUR.o

.mdebug.abi32%z332
                0x00000000        0x0
 .mdebug.abi32  0x00000000        0x0 obj-tmp\Announce.o

.bss%z333       0x00000000        0x0
 .bss           0x00000000        0x0 obj-tmp\Announce.o

.data%z334      0x00000000        0x0
 .data          0x00000000        0x0 obj-tmp\Announce.o

.mdebug.abi32%z335
                0x00000000        0x0
 .mdebug.abi32  0x00000000        0x0 obj-tmp\WifiGDemoMPFSImg.o

.bss%z336       0x00000000        0x0
 .bss           0x00000000        0x0 obj-tmp\WifiGDemoMPFSImg.o

.data%z337      0x00000000        0x0
 .data          0x00000000        0x0 obj-tmp\WifiGDemoMPFSImg.o

.mdebug.abi32%z338
                0x00000000        0x0
 .mdebug.abi32  0x00000000        0x0 obj-tmp\WF_Config.o

.bss%z339       0x00000000        0x0
 .bss           0x00000000        0x0 obj-tmp\WF_Config.o

.data%z340      0x00000000        0x0
 .data          0x00000000        0x0 obj-tmp\WF_Config.o

.mdebug.abi32%z341
                0x00000000        0x0
 .mdebug.abi32  0x00000000        0x0 obj-tmp\CustomHTTPApp.o

.data%z342      0x00000000        0x0
 .data          0x00000000        0x0 obj-tmp\CustomHTTPApp.o

.mdebug.abi32%z343
                0x00000000        0x0
 .mdebug.abi32  0x00000000        0x0 obj-tmp\Main.o

.bss%z344       0x00000000        0x0
 .bss           0x00000000        0x0 obj-tmp\Main.o

.data%z345      0x00000000        0x0
 .data          0x00000000        0x0 obj-tmp\Main.o

.bss%z346       0x00000000        0x0
 .bss           0x00000000        0x0 c:/program files (x86)/microchip/mplabc32/v2.02/bin/../lib/gcc/pic32mx/4.5.1/../../../../pic32mx/lib/crt0.o

.data%z347      0x00000000        0x0
 .data          0x00000000        0x0 c:/program files (x86)/microchip/mplabc32/v2.02/bin/../lib/gcc/pic32mx/4.5.1/../../../../pic32mx/lib/crt0.o

.rodata         0x9d000008     0x8728
 .rodata        0x9d000008     0x8728 obj-tmp\WifiGDemoMPFSImg.o
                0x9d000008                MPFS_Start

.text           0x9d008730    0x23738
 .text          0x9d008730     0x8638 obj-tmp\TCP.o
                0x9d00885c                TCPInit
                0x9d008b68                TCPOpen
                0x9d008ff8                TCPWasReset
                0x9d0090ac                TCPIsConnected
                0x9d009120                TCPDisconnect
                0x9d0093d0                TCPClose
                0x9d00945c                TCPGetRemoteInfo
                0x9d0094f4                TCPFlush
                0x9d009594                TCPIsPutReady
                0x9d00978c                TCPPut
                0x9d009b00                TCPPutArray
                0x9d009f88                TCPPutString
                0x9d009ff8                TCPGetTxFIFOFull
                0x9d00a0c8                TCPDiscard
                0x9d00a170                TCPIsGetReady
                0x9d00a310                TCPGet
                0x9d00a5a0                TCPGetArray
                0x9d00a968                TCPGetRxFIFOFree
                0x9d00aa30                TCPPeekArray
                0x9d00acdc                TCPPeek
                0x9d00ad3c                TCPFindArrayEx
                0x9d00b364                TCPFindEx
                0x9d00b3dc                TCPTick
                0x9d00c4cc                TCPProcess
                0x9d01048c                TCPAdjustFIFOSize
 .text          0x9d010d68     0x3c48 obj-tmp\WF_pbkdf2.o
                0x9d010d68                hmac_sha1_vector
                0x9d010ffc                hmac_sha1
                0x9d011060                sha1_prf
                0x9d0111e0                sha1_t_prf
                0x9d01158c                pbkdf2_sha1
                0x9d011688                sha1_vector
                0x9d01174c                sha1_transform
 .text          0x9d0149b0     0x3a88 obj-tmp\ZeroconfMulticastDNS.o
                0x9d015a18                mDNSSDFillResRecords
                0x9d015d4c                mDNSServiceUpdate
                0x9d015e6c                mDNSServiceDeRegister
                0x9d015f94                mDNSServiceRegister
                0x9d016178                mDNSAnnounce
                0x9d01769c                mDNSFillHostRecord
                0x9d017770                mDNSHostRegister
                0x9d017868                mDNSInitialize
                0x9d017934                mDNSProcessInternal
                0x9d0180e8                mDNSProcess
                0x9d01825c                mDNSMulticastFilterRegister
                0x9d0182b4                mDNSDumpInfo
 .text          0x9d018438     0x2d6c obj-tmp\HTTP2.o
                0x9d018438                HTTPPrint
                0x9d018684                HTTPPrint_
                0x9d0186d8                HTTPInit
                0x9d0187fc                HTTPServer
                0x9d01a81c                HTTPURLDecode
                0x9d01a9f8                HTTPGetArg
                0x9d01aac8                HTTPReadPostName
                0x9d01ab44                HTTPReadPostValue
                0x9d01af8c                HTTPIncFile
 .text          0x9d01b1a4     0x27d8 obj-tmp\CustomHTTPApp.o
                0x9d01b1a4                HTTPExecuteGet
                0x9d01b47c                HTTPExecutePost
                0x9d01c164                HTTPPrint_btn
                0x9d01c214                HTTPPrint_led
                0x9d01c30c                HTTPPrint_ipaddr
                0x9d01c3c0                HTTPPrint_scan
                0x9d01c438                HTTPPrint_fwver
                0x9d01c4dc                HTTPPrint_ssid
                0x9d01c548                HTTPPrint_bssCount
                0x9d01c5b8                HTTPPrint_valid
                0x9d01c62c                HTTPPrint_name
                0x9d01c77c                HTTPPrint_privacy
                0x9d01c854                HTTPPrint_curPrivacy
                0x9d01cbd0                HTTPPrint_wlan
                0x9d01cfa8                HTTPPrint_strength
                0x9d01d0e8                HTTPPrint_nextSSID
                0x9d01d140                HTTPPrint_prevSSID
                0x9d01d198                HTTPPrint_prevWLAN
                0x9d01d358                HTTPPrint_nextWLAN
                0x9d01d4c0                HTTPPrint_Demoversion
                0x9d01d520                HTTPPrint_aplist
 .text          0x9d01d97c     0x19b8 obj-tmp\DHCP.o
                0x9d01d97c                DHCPInit
                0x9d01da80                DHCPDisable
                0x9d01daf0                DHCPEnable
                0x9d01db60                DHCPIsEnabled
                0x9d01db98                DHCPIsBound
                0x9d01dbd4                DHCPStateChanged
                0x9d01dc38                DHCPIsServerDetected
                0x9d01dc74                DHCPTempIPAddr
                0x9d01dcb0                DHCPTask
 .text          0x9d01f334     0x199c obj-tmp\DHCPs.o
                0x9d01f334                DHCPServerTask
                0x9d020c48                DHCPServer_Disable
                0x9d020c9c                DHCPServer_Enable
 .text          0x9d020cd0     0x16c8 obj-tmp\MPFS2.o
                0x9d020cd0                MPFSInit
                0x9d020d54                MPFSOpen
                0x9d021070                MPFSOpenID
                0x9d0211e0                MPFSClose
                0x9d021248                MPFSGet
                0x9d02146c                MPFSGetArray
                0x9d0216f8                MPFSGetLong
                0x9d021750                MPFSSeek
                0x9d021c24                MPFSGetTimestamp
                0x9d021ce0                MPFSGetMicrotime
                0x9d021d9c                MPFSGetFlags
                0x9d021e58                MPFSGetSize
                0x9d021f14                MPFSGetBytesRem
                0x9d021fb0                MPFSGetStartAddr
                0x9d02206c                MPFSGetEndAddr
                0x9d022138                MPFSGetFilename
                0x9d022238                MPFSGetPosition
                0x9d0222a4                MPFSGetID
 .text          0x9d022398     0x1530 obj-tmp\WFMac_24G.o
                0x9d022398                GetReadPtrRawWindow
                0x9d0225f0                RetrieveBinaryKey
                0x9d022804                MACProcess
                0x9d022880                WFGetTCBSize
                0x9d0228a4                MACInit
                0x9d0228dc                RawInit
                0x9d022954                MACIsLinked
                0x9d022984                MACIsTxReady
                0x9d0229e0                RawGetMgmtRxBuffer
                0x9d022a24                MACDiscardRx
                0x9d022a64                MACGetFreeRxSize
                0x9d022b8c                MACGetHeader
                0x9d022d40                MACPutHeader
                0x9d022e18                MACPutGeneralHeader
                0x9d022ee8                MACFlush
                0x9d022f4c                MACSetReadPtrInRx
                0x9d022f98                MACSetWritePtr
                0x9d022fe8                MACSetReadPtr
                0x9d023038                MACCalcRxChecksum
                0x9d0230c4                MACMemCopyAsync
                0x9d0235fc                MACIsMemCopyDone
                0x9d023620                MACGet
                0x9d023678                MACGetArray
                0x9d02373c                MACPut
                0x9d0237a0                MACPutArray
                0x9d023808                MACPowerDown
                0x9d023828                MACPowerUp
                0x9d023848                CalcIPBufferChecksum
 .text          0x9d0238c8     0x120c obj-tmp\UDP.o
                0x9d0238c8                UDPInit
                0x9d023938                UDPOpenEx
                0x9d023b8c                UDPTask
                0x9d0240d0                UDPIsOpened
                0x9d024120                UDPClose
                0x9d0241c8                UDPSetTxBuffer
                0x9d024214                UDPSetRxBuffer
                0x9d024264                UDPIsPutReady
                0x9d0242f0                UDPPut
                0x9d02437c                UDPPutArray
                0x9d024424                UDPPutString
                0x9d02447c                UDPFlush
                0x9d024568                UDPIsGetReady
                0x9d0245f8                UDPGet
                0x9d02467c                UDPGetArray
                0x9d02473c                UDPDiscard
                0x9d02479c                UDPProcess
 .text          0x9d024ad4     0x1180 obj-tmp\WFConnectionAlgorithm.o
                0x9d024ad4                WF_CASetElements
                0x9d024d60                WF_CASetElementsN
                0x9d024df8                WF_CAGetElements
                0x9d024f20                WF_CASetScanType
                0x9d024f64                WF_CAGetScanType
                0x9d024fa8                WF_CASetMinChannelTime
                0x9d02501c                WF_CAGetMinChannelTime
                0x9d02509c                WF_CASetMaxChannelTime
                0x9d025110                WF_CAGetMaxChannelTime
                0x9d025190                WF_CASetProbeDelay
                0x9d025204                WF_CAGetProbeDelay
                0x9d025284                WF_CASetScanCount
                0x9d0252c8                WF_CAGetScanCount
                0x9d02530c                WF_CASetRssi
                0x9d025350                WF_CAGetRssi
                0x9d025394                WF_CASetConnectionProfileList
                0x9d0253d0                WF_CAGetConnectionProfileList
                0x9d02540c                WF_CASetListRetryCount
                0x9d025450                WF_CAGetListRetryCount
                0x9d025494                WF_CASetEventNotificationAction
                0x9d0254d4                WF_CAGetEventNotificationAction
                0x9d025514                WF_CASetBeaconTimeoutAction
                0x9d025558                WF_CAGetBeaconTimeoutAction
                0x9d02559c                WF_CASetDeauthAction
                0x9d0255e0                WF_CAGetDeauthAction
                0x9d025624                WF_CASetChannelList
                0x9d025670                WF_CAGetChannelList
                0x9d025708                WF_CASetListenInterval
                0x9d02577c                WF_CASetDtimInterval
                0x9d0257f0                WF_CAGetListenInterval
                0x9d025870                WF_CASetBeaconPeriod
                0x9d0258e4                WF_CAGetBeaconPeriod
                0x9d025964                WF_CAGetDtimInterval
                0x9d0259e4                WF_CASetBeaconTimeout
                0x9d025a28                WF_CAGetBeaconTimeout
                0x9d025a9c                GetEventNotificationMask
                0x9d025c08                WF_DisableModuleConnectionManager
 .text          0x9d025c54     0x1160 obj-tmp\Main.o
                0x9d025c54                _general_exception_handler
                0x9d025c78                main
                0x9d026b5c                UARTTxBuffer
                0x9d026c78                DisplayIPValue
                0x9d026cd8                SaveAppConfig
                0x9d026d60                RestoreWifiConfig
 .text          0x9d026db4     0x10ec obj-tmp\SPIFlash.o
                0x9d026db4                SPIFlashInit
                0x9d0270e4                SPIFlashReadArray
                0x9d027398                SPIFlashBeginWrite
                0x9d0273c4                SPIFlashWrite
                0x9d027654                SPIFlashWriteArray
                0x9d027b18                SPIFlashEraseSector
 .text          0x9d027ea0     0x109c obj-tmp\Helpers.o
                0x9d027ea0                LFSRSeedRand
                0x9d027f24                LFSRRand
                0x9d027f9c                GenerateRandomDWORD
                0x9d0281f8                StringToIPAddress
                0x9d0285a8                uitoa
                0x9d0286d4                hexatob
                0x9d0287c8                btohexa_high
                0x9d02882c                btohexa_low
                0x9d028890                stricmppgm2ram
                0x9d0289fc                swaps
                0x9d028a48                swapl
                0x9d028b30                CalcIPChecksum
                0x9d028c18                strupr
                0x9d028cb4                FormatNetBIOSName
                0x9d028d7c                strnchr
                0x9d028e30                strncpy_m
 .text          0x9d028f3c     0x1094 obj-tmp\WFDriverCom_24G.o
                0x9d028f3c                WiFiTask
                0x9d029094                WFProcess
                0x9d029138                SignalDHCPSuccessful
                0x9d029164                SetDhcpProgressState
                0x9d0291b8                SignalWiFiConnectionChanged
                0x9d029364                Read8BitWFRegister
                0x9d0293d0                Write8BitWFRegister
                0x9d029440                Read16BitWFRegister
                0x9d0294c8                Write16BitWFRegister
                0x9d029550                WriteWFArray
                0x9d0295d8                ReadWFArray
                0x9d029958                WFEintHandler
                0x9d029ab4                ReenablePowerSaveMode
                0x9d029adc                WFHardwareInit
 .text          0x9d029fd0      0xf50 obj-tmp\ZeroconfLinkLocal.o
                0x9d029fd0                zcll_rand
                0x9d02a040                ARPAction
                0x9d02a098                FindARPPktType
                0x9d02a154                ZeroconfARPPktNotify
                0x9d02a318                ZeroconfLLInitialize
                0x9d02a3b8                ZeroconfLLProcess
 .text          0x9d02af20      0xf48 obj-tmp\DNS.o
                0x9d02af20                DNSBeginUsage
                0x9d02af74                DNSEndUsage
                0x9d02afe4                DNSResolve
                0x9d02b078                DNSIsResolved

.rodata         0x9d02be68      0xe8c
 .rodata        0x9d02be68      0xe8c obj-tmp\WFDebugStrings.o

.text           0x9d02ccf4     0x3bac
 .text          0x9d02ccf4      0xd2c obj-tmp\WFDebugStrings.o
                0x9d02ccf4                WF_OutputConnectionContext
                0x9d02ce4c                WF_OutputConnectionDebugMsg
                0x9d02d4c0                WF_OutputConnectionInfo
                0x9d02d860                ValidateConfig
                0x9d02d880                WF_AssertionFailed
                0x9d02d96c                WF_DisplayModuleAssertInfo
 .text          0x9d02da20      0xcb4 obj-tmp\WFDriverRaw_24G.o
                0x9d02da20                RawCalculateChecksum
                0x9d02da84                AllocateMgmtTxBuffer
                0x9d02db24                DeallocateMgmtRxBuffer
                0x9d02db64                AllocateDataTxBuffer
                0x9d02dc34                SendRAWDataFrame
                0x9d02dcac                SendRAWManagementFrame
                0x9d02dcf8                DeallocateDataRxBuffer
                0x9d02dd60                RawMountRxBuffer
                0x9d02dde4                RawToRawCopy
                0x9d02de7c                PushRawWindow
                0x9d02dec8                PopRawWindow
                0x9d02df1c                ScratchMount
                0x9d02df8c                ScratchUnmount
                0x9d02dfd8                RawRead
                0x9d02e04c                RawWrite
                0x9d02e248                RawSetIndex
                0x9d02e39c                RawGetIndex
                0x9d02e3fc                RawGetByte
                0x9d02e4a4                RawSetByte
 .text          0x9d02e6d4      0xb80 obj-tmp\WFConnectionProfile.o
                0x9d02e6d4                WF_CPCreate
                0x9d02e750                WF_CPDelete
                0x9d02e7bc                WF_CPGetIds
                0x9d02e82c                WF_CPSetElements
                0x9d02e8a4                WF_CPGetElements
                0x9d02e900                WF_CPSetSsidType
                0x9d02e958                WF_CPGetSsidType
                0x9d02e9b0                WF_CPSetSsid
                0x9d02ea2c                WF_CPGetSsid
                0x9d02ead4                WF_CPSetBssid
                0x9d02eb24                WF_CPGetBssid
                0x9d02eb7c                WF_CPSetNetworkType
                0x9d02ebd4                WF_CPGetNetworkType
                0x9d02ec2c                WF_CPSetWepKeyType
                0x9d02ec84                WF_CPGetWepKeyType
                0x9d02ecdc                WF_CPGetWPSCredentials
                0x9d02ed38                WF_CPUpdatePMK
                0x9d02ed88                WF_CPSetSecurity
                0x9d02ee90                WF_CPGetSecurity
                0x9d02ef90                WF_CPSetDefaultWepKeyIndex
                0x9d02efe8                WF_CPGetDefaultWepKeyIndex
                0x9d02f040                WF_CPSetAdHocBehavior
                0x9d02f098                WF_CPGetAdHocBehavior
 .text          0x9d02f254      0xb54 obj-tmp\WFParamMsg_24G.o
                0x9d02f254                WFEnableMRF24WB0MMode
                0x9d02f29c                WFEnableDebugPrint
                0x9d02f2e0                WF_SetLinkDownThreshold
                0x9d02f324                WF_SetTxMode
                0x9d02f368                WF_GetTxMode
                0x9d02f3a8                WFEnableBroadcastProbeResponse
                0x9d02f3f0                WF_GetDeviceInfo
                0x9d02f4cc                WF_SetMacAddress
                0x9d02f50c                WF_GetMacAddress
                0x9d02f54c                WF_MulticastSetConfig
                0x9d02f6c8                WF_MulticastGetConfig
                0x9d02f7b4                WF_SetTxDataConfirm
                0x9d02f7f8                WF_GetTxDataConfirm
                0x9d02f838                WF_SetRegionalDomain
                0x9d02f87c                WF_GetRegionalDomain
                0x9d02f8bc                WF_SetRtsThreshold
                0x9d02f950                WF_YieldPassphrase2Host
                0x9d02f998                WF_SetPSK
                0x9d02f9d8                WF_GetRtsThreshold
                0x9d02fa54                WF_SetMultiCastFilter
                0x9d02fb6c                WF_EnableSWMultiCastFilter
                0x9d02fbb4                WF_GetMacStats
                0x9d02fc90                SendSetParamMsg
                0x9d02fd18                SendGetParamMsg
 .text          0x9d02fda8      0xaf8 obj-tmp\ARP.o
                0x9d02fda8                ARPRegisterCallbacks
                0x9d02fe6c                ARPDeRegisterCallbacks
                0x9d02fedc                ARPProcessRxPkt
                0x9d030088                ARPSendPkt
                0x9d0302c0                ARPInit
                0x9d03034c                ARPProcess
                0x9d030580                ARPResolve
                0x9d030734                ARPIsResolved
                0x9d030814                SwapARPPacket

.text._vfprintf_cdnopsuxX
                0x9d0308a0      0xae4
 .text._vfprintf_cdnopsuxX
                0x9d0308a0      0xae4 c:/program files (x86)/microchip/mplabc32/v2.02/bin/../lib/gcc/pic32mx/4.5.1/../../../../pic32mx/lib\libc.a(doprnt_cdnopsuxX.eo)
                0x9d0308a0                _vfprintf_0
                0x9d0308a0                _vfprintf_cdnopuxX
                0x9d0308a0                _vfprintf_cdnopsuxX
                0x9d0308a0                _vfprintf_s

.text           0x9d031384     0x1134
 .text          0x9d031384      0xa10 obj-tmp\WFEasyConfig.o
                0x9d031384                WFEasyConfigInit
                0x9d031414                WFEasyConfigMgr
                0x9d03191c                WFInitScan
                0x9d031948                WFStartScan
                0x9d0319d0                WFRetrieveScanResult
                0x9d031a68                WFScanEventHandler
                0x9d031abc                WFDisplayScanMgr
 .text          0x9d031d94      0x724 obj-tmp\NBNS.o
                0x9d031d94                NBNSTask

.dinit          0x9d0324b8      0x6ec
 .dinit         0x9d0324b8      0x6ec data_init

.text           0x9d032ba4     0x1284
 .text          0x9d032ba4      0x6c0 obj-tmp\WF_Config.o
                0x9d032ba4                WF_Connect
                0x9d032fd0                WF_ProcessEvent
 .text          0x9d033264      0x660 obj-tmp\DNSs.o
                0x9d033264                DNSServerTask
 .text          0x9d0338c4      0x564 obj-tmp\WFEventHandler.o
                0x9d0338c4                WFProcessMgmtIndicateMsg

.rodata         0x9d033e28      0x520
 .rodata        0x9d033e28      0x520 obj-tmp\HTTP2.o

.text           0x9d034348     0x22a4
 .text          0x9d034348      0x4f4 obj-tmp\StackTsk.o
                0x9d034348                StackInit
                0x9d034420                StackTask
                0x9d0347ac                StackApplications
                0x9d034804                RenewDhcp
 .text          0x9d03483c      0x4b0 obj-tmp\WFMgmtMsg_24G.o
                0x9d03483c                SendMgmtMsg
                0x9d03496c                SignalMgmtConfirmReceivedEvent
                0x9d034994                WaitForMgmtResponse
                0x9d034b78                WaitForMgmtResponseAndReadData
                0x9d034c6c                WFSetFuncState
 .text          0x9d034cec      0x490 obj-tmp\WFPowerSave.o
                0x9d034cec                WFConfigureLowPowerMode
                0x9d034d94                WF_PsPollEnable
                0x9d034e58                isSleepNeeded
                0x9d034e7c                ClearSleepNeeded
                0x9d034ea0                SetSleepNeeded
                0x9d034ec8                SetAppPowerSaveMode
                0x9d034ef4                GetAppPowerSaveMode
                0x9d034f18                WF_PsPollDisable
                0x9d034f8c                WF_GetPowerSaveState
                0x9d034fbc                WFisPsPollEnabled
                0x9d03500c                WFIsPsPollActive
                0x9d035030                EnsureWFisAwake
                0x9d03509c                WF_HibernateEnable
                0x9d03514c                SetPowerSaveState
 .text          0x9d03517c      0x46c c:/program files (x86)/microchip/mplabc32/v2.02/bin/../lib/gcc/pic32mx/4.5.1\libgcc.a(_umoddi3.o)
                0x9d03517c                __umoddi3
 .text          0x9d0355e8      0x448 c:/program files (x86)/microchip/mplabc32/v2.02/bin/../lib/gcc/pic32mx/4.5.1\libgcc.a(_udivdi3.o)
                0x9d0355e8                __udivdi3
 .text          0x9d035a30      0x40c obj-tmp\WFConnectionManager.o
                0x9d035a30                WF_CMConnect
                0x9d035b18                WF_CMDisconnect
                0x9d035ba8                WF_CMGetConnectionState
                0x9d035c80                WFisConnected
                0x9d035ca4                SetLogicalConnectionState
                0x9d035cd0                WF_CMCheckConnectionState
                0x9d035d60                WF_CMGetConnectContext
                0x9d035da4                WF_ConvPassphrase2Key
 .text          0x9d035e3c      0x3f0 obj-tmp\IP.o
                0x9d035e3c                IPGetHeader
                0x9d036024                IPPutHeader
                0x9d036150                IPSetRxBuffer
 .text          0x9d03622c      0x3c0 obj-tmp\Announce.o
                0x9d03622c                AnnounceIP
                0x9d0363a8                DiscoveryTask

.rodata         0x9d0365ec      0x3b4
 .rodata        0x9d0365ec      0x3b4 obj-tmp\CustomHTTPApp.o
                0x9d036870                HTML_UP_ARROW
                0x9d036874                HTML_DOWN_ARROW

.text           0x9d0369a0      0xd0c
 .text          0x9d0369a0      0x3ac obj-tmp\Tick.o
                0x9d0369a0                TickInit
                0x9d036ae4                TickGet
                0x9d036b64                TickGetDiv256
                0x9d036be4                TickGetDiv64K
                0x9d036c64                TickConvertToMilliseconds
                0x9d036ccc                _T1Interrupt
 .text          0x9d036d4c      0x2e4 obj-tmp\WF_Eint.o
                0x9d036d4c                WF_EintIsDisabled
                0x9d036d7c                WF_EintIsPending
                0x9d036dd4                _WFInterrupt
                0x9d036f24                WF_EintEnable
                0x9d036f70                WF_EintDisable
                0x9d036f9c                WF_EintInit
 .text          0x9d037030      0x298 obj-tmp\WF_Spi.o
                0x9d037030                WF_SpiInit
                0x9d0370dc                WF_SpiEnableChipSelect
                0x9d03710c                WF_SpiDisableChipSelect
                0x9d03714c                WFSpiTxRx
 .text          0x9d0372c8      0x204 obj-tmp\WFScan.o
                0x9d037338                WF_Scan
                0x9d0373d0                WF_ScanGetResult
 .text          0x9d0374cc      0x1e0 obj-tmp\WFConsoleMsgs.o
                0x9d0374cc                ConvertASCIIHexToBinary
                0x9d037610                HexToBin

.rodata         0x9d0376ac      0x1bc
 .rodata        0x9d0376ac      0x1bc obj-tmp\WFConsoleMsgs.o
                0x9d0376ac                helpCmd
                0x9d0376b4                helpHelp
                0x9d0376c8                getwfverCmd
                0x9d0376d4                getwfverHelp
                0x9d0376f0                resetCmd
                0x9d0376f8                resetHelp
                0x9d037708                clsCmd
                0x9d03770c                clsHelp
                0x9d03771c                wpsPinCmd
                0x9d037724                wpsPinHelp
                0x9d037778                wpsPushButtonCmd
                0x9d037780                wpsPushButtonHelp
                0x9d0377b4                wpsCredCmd
                0x9d0377bc                wpsCredHelp
                0x9d0377d4                seeDocHelp
                0x9d0377e8                pingCmd
                0x9d0377f0                pingHelp
                0x9d037804                g_consoleCmd
                0x9d037864                g_numCmds

.text           0x9d037868      0x8a0
 .text          0x9d037868      0x1a0 c:/program files (x86)/microchip/mplabc32/v2.02/bin/../lib/gcc/pic32mx/4.5.1/../../../../pic32mx/lib\libc.a(strcpy.o)
                0x9d037868                strcpy
 .text          0x9d037a08      0x16c obj-tmp\ICMP.o
                0x9d037a08                ICMPProcess
 .text          0x9d037b74      0x16c obj-tmp\WFTxPower.o
                0x9d037b74                WF_TxPowerSetMax
                0x9d037c18                WF_TxPowerGetMax
                0x9d037c8c                WF_TxPowerGetFactoryMax
 .text          0x9d037ce0      0x168 c:/program files (x86)/microchip/mplabc32/v2.02/bin/../lib/gcc/pic32mx/4.5.1/../../../../pic32mx/lib\libc.a(memcpy.o)
                0x9d037ce0                memcpy
 .text          0x9d037e48      0x168 c:/program files (x86)/microchip/mplabc32/v2.02/bin/../lib/gcc/pic32mx/4.5.1/../../../../pic32mx/lib\libc.a(strlen.o)
                0x9d037e48                strlen
 .text          0x9d037fb0      0x158 obj-tmp\Reboot.o
                0x9d037fb0                RebootTask

.text.fputc     0x9d038108      0x140
 .text.fputc    0x9d038108      0x140 c:/program files (x86)/microchip/mplabc32/v2.02/bin/../lib/gcc/pic32mx/4.5.1/../../../../pic32mx/lib\libc.a(_fputc_simple.o)
                0x9d038108                fputc

.text           0x9d038248      0x258
 .text          0x9d038248      0x12c obj-tmp\WFConsoleMsgHandler.o
                0x9d038248                convertAsciiToHexInPlace
 .text          0x9d038374      0x12c obj-tmp\WFInit.o
                0x9d038374                WF_Init

.text._flsbuf   0x9d0384a0      0x12c
 .text._flsbuf  0x9d0384a0      0x12c c:/program files (x86)/microchip/mplabc32/v2.02/bin/../lib/gcc/pic32mx/4.5.1/../../../../pic32mx/lib\libc.a(_flsbuf_simple.o)
                0x9d0384a0                _flsbuf

.text           0x9d0385cc      0x120
 .text          0x9d0385cc      0x120 c:/program files (x86)/microchip/mplabc32/v2.02/bin/../lib/gcc/pic32mx/4.5.1/../../../../pic32mx/lib\libc.a(strcmp.o)
                0x9d0385cc                strcmp

.rodata         0x9d0386ec      0x328
 .rodata        0x9d0386ec      0x118 obj-tmp\Main.o
 .rodata        0x9d038804      0x10c obj-tmp\WFMgmtMsg_24G.o
 .rodata        0x9d038910      0x104 c:/program files (x86)/microchip/mplabc32/v2.02/bin/../lib/gcc/pic32mx/4.5.1/../../../../pic32mx/lib\libc.a(ctype.o)
                0x9d038910                _ctype

.text           0x9d038a14       0xf0
 .text          0x9d038a14       0xf0 obj-tmp\Delay.o
                0x9d038a14                DelayMs
                0x9d038aa8                Delay10us

.rodata         0x9d038b04       0xe8
 .rodata        0x9d038b04       0xe8 obj-tmp\ZeroconfMulticastDNS.o

.text.general_exception
                0x9d038bec       0xd0
 .text.general_exception
                0x9d038bec       0xd0 c:/program files (x86)/microchip/mplabc32/v2.02/bin/../lib/gcc/pic32mx/4.5.1/../../../../pic32mx/lib\libc.a(general-exception.o)
                0x9d038bec                _general_exception_context

.rodata         0x9d038cc0       0xd0
 .rodata        0x9d038cc0       0xd0 c:/program files (x86)/microchip/mplabc32/v2.02/bin/../lib/gcc/pic32mx/4.5.1/../../../../pic32mx/lib\libc.a(doprnt_cdnopsuxX.eo)

.text           0x9d038d90      0x188
 .text          0x9d038d90       0xcc obj-tmp\UART.o
                0x9d038d90                ReadStringUART
 .text          0x9d038e5c       0xbc obj-tmp\ZeroconfHelper.o
                0x9d038e5c                zgzc_wait_for

.text._mon_putc
                0x9d038f18       0xb4
 .text._mon_putc
                0x9d038f18       0xb4 c:/program files (x86)/microchip/mplabc32/v2.02/bin/../lib/gcc/pic32mx/4.5.1/../../../../pic32mx/lib\libc.a(_mon_putc.o)
                0x9d038f18                _mon_putc

.rodata         0x9d038fcc       0xb0
 .rodata        0x9d038fcc       0xb0 obj-tmp\WF_Config.o

.text           0x9d03907c       0xa8
 .text          0x9d03907c       0xa8 c:/program files (x86)/microchip/mplabc32/v2.02/bin/../lib/gcc/pic32mx/4.5.1/../../../../pic32mx/lib\libc.a(memset.o)
                0x9d03907c                memset

.text.atol      0x9d039124       0xa4
 .text.atol     0x9d039124       0xa4 c:/program files (x86)/microchip/mplabc32/v2.02/bin/../lib/gcc/pic32mx/4.5.1/../../../../pic32mx/lib\libc.a(atol.o)
                0x9d039124                atol

.text           0x9d0391c8       0x98
 .text          0x9d0391c8       0x98 c:/program files (x86)/microchip/mplabc32/v2.02/bin/../lib/gcc/pic32mx/4.5.1/../../../../pic32mx/lib\libc.a(memcmp.o)
                0x9d0391c8                memcmp

.text.write     0x9d039260       0x88
 .text.write    0x9d039260       0x88 c:/program files (x86)/microchip/mplabc32/v2.02/bin/../lib/gcc/pic32mx/4.5.1/../../../../pic32mx/lib\libc.a(write.o)
                0x9d039260                write

.text.UARTEnable
                0x9d0392e8       0x80
 .text.UARTEnable
                0x9d0392e8       0x80 c:/program files (x86)/microchip/mplabc32/v2.02/bin/../lib/gcc/pic32mx/4.5.1/../../../../pic32mx/lib\libmchp_peripheral_32MX575F256L.a(uart_lib.o)
                0x9d0392e8                UARTEnable

.text.fputs     0x9d039368       0x78
 .text.fputs    0x9d039368       0x78 c:/program files (x86)/microchip/mplabc32/v2.02/bin/../lib/gcc/pic32mx/4.5.1/../../../../pic32mx/lib\libc.a(puts.o)
                0x9d039368                fputs

.text.SoftReset
                0x9d0393e0       0x78
 .text.SoftReset
                0x9d0393e0       0x78 c:/program files (x86)/microchip/mplabc32/v2.02/bin/../lib/gcc/pic32mx/4.5.1/../../../../pic32mx/lib\libmchp_peripheral_32MX575F256L.a(soft_reset_lib.o)
                0x9d0393e0                SoftReset

.text._sprintf_cdnopsuxX
                0x9d039458       0x68
 .text._sprintf_cdnopsuxX
                0x9d039458       0x68 c:/program files (x86)/microchip/mplabc32/v2.02/bin/../lib/gcc/pic32mx/4.5.1/../../../../pic32mx/lib\libc.a(sprintf_cdnopsuxX.eo)
                0x9d039458                _sprintf_cdnopsuxX
                0x9d039458                _sprintf_cdnopuxX

.text.strncpy   0x9d0394c0       0x64
 .text.strncpy  0x9d0394c0       0x64 c:/program files (x86)/microchip/mplabc32/v2.02/bin/../lib/gcc/pic32mx/4.5.1/../../../../pic32mx/lib\libc.a(strncpy.o)
                0x9d0394c0                strncpy

.text.UARTSetDataRate
                0x9d039524       0x5c
 .text.UARTSetDataRate
                0x9d039524       0x5c c:/program files (x86)/microchip/mplabc32/v2.02/bin/../lib/gcc/pic32mx/4.5.1/../../../../pic32mx/lib\libmchp_peripheral_32MX575F256L.a(uart_lib.o)
                0x9d039524                UARTSetDataRate

.rodata         0x9d039580       0xa0
 .rodata        0x9d039580       0x54 obj-tmp\WFEasyConfig.o
 .rodata        0x9d0395d4       0x4c obj-tmp\WFDriverRaw_24G.o
                0x9d039614                g_RawAccessOutOfBoundsMask

.text.putsUART1
                0x9d039620       0x4c
 .text.putsUART1
                0x9d039620       0x4c c:/program files (x86)/microchip/mplabc32/v2.02/bin/../lib/gcc/pic32mx/4.5.1/../../../../pic32mx/lib\libmchp_peripheral_32MX575F256L.a(puts_uartx_lib_legacy.o)
                0x9d039620                putsUART1

.text.putsUART2
                0x9d03966c       0x4c
 .text.putsUART2
                0x9d03966c       0x4c c:/program files (x86)/microchip/mplabc32/v2.02/bin/../lib/gcc/pic32mx/4.5.1/../../../../pic32mx/lib\libmchp_peripheral_32MX575F256L.a(puts_uartx_lib_legacy.o)
                0x9d03966c                putsUART2

.text.puts      0x9d0396b8       0x44
 .text.puts     0x9d0396b8       0x44 c:/program files (x86)/microchip/mplabc32/v2.02/bin/../lib/gcc/pic32mx/4.5.1/../../../../pic32mx/lib\libc.a(puts.o)
                0x9d0396b8                puts

.text._printf_cdnopsuxX
                0x9d0396fc       0x40
 .text._printf_cdnopsuxX
                0x9d0396fc       0x40 c:/program files (x86)/microchip/mplabc32/v2.02/bin/../lib/gcc/pic32mx/4.5.1/../../../../pic32mx/lib\libc.a(printf_cdnopsuxX.eo)
                0x9d0396fc                _printf_cdnopuxX
                0x9d0396fc                _printf_s
                0x9d0396fc                _printf_0
                0x9d0396fc                _printf_cdnopsuxX

.text.UARTGetDataRate
                0x9d03973c       0x40
 .text.UARTGetDataRate
                0x9d03973c       0x40 c:/program files (x86)/microchip/mplabc32/v2.02/bin/../lib/gcc/pic32mx/4.5.1/../../../../pic32mx/lib\libmchp_peripheral_32MX575F256L.a(uart_lib.o)
                0x9d03973c                UARTGetDataRate

.rodata         0x9d03977c       0x3c
 .rodata        0x9d03977c       0x3c obj-tmp\WFMac_24G.o

.text.UARTConfigure
                0x9d0397b8       0x3c
 .text.UARTConfigure
                0x9d0397b8       0x3c c:/program files (x86)/microchip/mplabc32/v2.02/bin/../lib/gcc/pic32mx/4.5.1/../../../../pic32mx/lib\libmchp_peripheral_32MX575F256L.a(uart_lib.o)
                0x9d0397b8                UARTConfigure

.text.UARTSetAddress
                0x9d0397f4       0x3c
 .text.UARTSetAddress
                0x9d0397f4       0x3c c:/program files (x86)/microchip/mplabc32/v2.02/bin/../lib/gcc/pic32mx/4.5.1/../../../../pic32mx/lib\libmchp_peripheral_32MX575F256L.a(uart_lib.o)
                0x9d0397f4                UARTSetAddress

.text.UARTWatchForAddress
                0x9d039830       0x38
 .text.UARTWatchForAddress
                0x9d039830       0x38 c:/program files (x86)/microchip/mplabc32/v2.02/bin/../lib/gcc/pic32mx/4.5.1/../../../../pic32mx/lib\libmchp_peripheral_32MX575F256L.a(uart_lib.o)
                0x9d039830                UARTWatchForAddress

.text.INTEnableSystemMultiVectoredInt
                0x9d039868       0x34
 .text.INTEnableSystemMultiVectoredInt
                0x9d039868       0x34 c:/program files (x86)/microchip/mplabc32/v2.02/bin/../lib/gcc/pic32mx/4.5.1/../../../../pic32mx/lib\libmchp_peripheral_32MX575F256L.a(int_enable_mv_int_lib.o)
                0x9d039868                INTEnableSystemMultiVectoredInt

.text.UARTSetFifoMode
                0x9d03989c       0x28
 .text.UARTSetFifoMode
                0x9d03989c       0x28 c:/program files (x86)/microchip/mplabc32/v2.02/bin/../lib/gcc/pic32mx/4.5.1/../../../../pic32mx/lib\libmchp_peripheral_32MX575F256L.a(uart_lib.o)
                0x9d03989c                UARTSetFifoMode

.text.UARTSetLineControl
                0x9d0398c4       0x28
 .text.UARTSetLineControl
                0x9d0398c4       0x28 c:/program files (x86)/microchip/mplabc32/v2.02/bin/../lib/gcc/pic32mx/4.5.1/../../../../pic32mx/lib\libmchp_peripheral_32MX575F256L.a(uart_lib.o)
                0x9d0398c4                UARTSetLineControl

.rodata         0x9d0398ec       0x58
 .rodata        0x9d0398ec       0x20 obj-tmp\ARP.o
 .rodata        0x9d03990c       0x1c obj-tmp\Announce.o
 .rodata        0x9d039928       0x1c obj-tmp\DHCP.o

.text.INTRestoreInterrupts
                0x9d039944       0x1c
 .text.INTRestoreInterrupts
                0x9d039944       0x1c c:/program files (x86)/microchip/mplabc32/v2.02/bin/../lib/gcc/pic32mx/4.5.1/../../../../pic32mx/lib\libmchp_peripheral_32MX575F256L.a(int_restore_interrupts_lib.o)
                0x9d039944                INTRestoreInterrupts

.text           0x9d039960       0x18
 .text          0x9d039960       0x18 c:/program files (x86)/microchip/mplabc32/v2.02/bin/../lib/gcc/pic32mx/4.5.1/../../../../pic32mx/lib\libc.a(default-nmi-handler.o)
                0x9d039960                _nmi_handler

.text.CheKseg0CacheOff
                0x9d039978       0x18
 .text.CheKseg0CacheOff
                0x9d039978       0x18 c:/program files (x86)/microchip/mplabc32/v2.02/bin/../lib/gcc/pic32mx/4.5.1/../../../../pic32mx/lib\libmchp_peripheral_32MX575F256L.a(pcache.o)
                0x9d039978                CheKseg0CacheOff

.text.CheKseg0CacheOn
                0x9d039990       0x18
 .text.CheKseg0CacheOn
                0x9d039990       0x18 c:/program files (x86)/microchip/mplabc32/v2.02/bin/../lib/gcc/pic32mx/4.5.1/../../../../pic32mx/lib\libmchp_peripheral_32MX575F256L.a(pcache.o)
                0x9d039990                CheKseg0CacheOn

.rodata         0x9d0399a8       0x2c
 .rodata        0x9d0399a8       0x18 c:/program files (x86)/microchip/mplabc32/v2.02/bin/../lib/gcc/pic32mx/4.5.1/../../../../pic32mx/lib\libmchp_peripheral_32MX575F256L.a(uart_lib.o)
                0x9d0399a8                uartReg
 .rodata        0x9d0399c0       0x14 obj-tmp\TCP.o
                0x9d0399c0                TCPSocketInitializer

.text           0x9d0399d4       0x10
 .text          0x9d0399d4       0x10 c:/program files (x86)/microchip/mplabc32/v2.02/bin/../lib/gcc/pic32mx/4.5.1/../../../../pic32mx/lib/crt0.o
                0x9d0399dc                __crt0_exit

.text._bootstrap_exception_handler
                0x9d0399e4        0xc
 .text._bootstrap_exception_handler
                0x9d0399e4        0xc c:/program files (x86)/microchip/mplabc32/v2.02/bin/../lib/gcc/pic32mx/4.5.1/../../../../pic32mx/lib\libc.a(default-bootstrap-exception-handler.o)
                0x9d0399e4                _bootstrap_exception_handler

.rodata         0x9d0399f0       0x20
 .rodata        0x9d0399f0        0x8 obj-tmp\DNSs.o
 .rodata        0x9d0399f8        0x8 obj-tmp\MPFS2.o
 .rodata        0x9d039a00        0x8 obj-tmp\WF_pbkdf2.o
 .rodata        0x9d039a08        0x8 obj-tmp\WFInit.o

.text._on_reset
                0x9d039a10        0x8
 .text._on_reset
                0x9d039a10        0x8 c:/program files (x86)/microchip/mplabc32/v2.02/bin/../lib/gcc/pic32mx/4.5.1/../../../../pic32mx/lib\libc.a(default-on-reset.o)
                0x9d039a10                _on_reset

.text._on_bootstrap
                0x9d039a18        0x8
 .text._on_bootstrap
                0x9d039a18        0x8 c:/program files (x86)/microchip/mplabc32/v2.02/bin/../lib/gcc/pic32mx/4.5.1/../../../../pic32mx/lib\libc.a(default-on-bootstrap.o)
                0x9d039a18                _on_bootstrap

.text.INTDisableInterrupts
                0x9d039a20        0x8
 .text.INTDisableInterrupts
                0x9d039a20        0x8 c:/program files (x86)/microchip/mplabc32/v2.02/bin/../lib/gcc/pic32mx/4.5.1/../../../../pic32mx/lib\libmchp_peripheral_32MX575F256L.a(int_disable_interrupts_lib.o)
                0x9d039a20                INTDisableInterrupts

.text.INTEnableInterrupts
                0x9d039a28        0x8
 .text.INTEnableInterrupts
                0x9d039a28        0x8 c:/program files (x86)/microchip/mplabc32/v2.02/bin/../lib/gcc/pic32mx/4.5.1/../../../../pic32mx/lib\libmchp_peripheral_32MX575F256L.a(int_enable_interrupts_lib.o)
                0x9d039a28                INTEnableInterrupts

.rodata         0x9d038cbc        0x4
 .rodata        0x9d038cbc        0x4 obj-tmp\WFConsoleMsgHandler.o

.text%z348      0x00000000        0x0
 .text          0x00000000        0x0 c:/program files (x86)/microchip/mplabc32/v2.02/bin/../lib/gcc/pic32mx/4.5.1/../../../../pic32mx/lib/./proc/32MX575F256L\processor.o

.text%z349      0x00000000        0x0
 .text          0x00000000        0x0 c:/program files (x86)/microchip/mplabc32/v2.02/bin/../lib/gcc/pic32mx/4.5.1/../../../../pic32mx/lib\libmchp_peripheral_32MX575F256L.a(int_enable_interrupts_lib.o)

.text%z350      0x00000000        0x0
 .text          0x00000000        0x0 c:/program files (x86)/microchip/mplabc32/v2.02/bin/../lib/gcc/pic32mx/4.5.1/../../../../pic32mx/lib\libmchp_peripheral_32MX575F256L.a(puts_uartx_lib_legacy.o)

.text%z351      0x00000000        0x0
 .text          0x00000000        0x0 c:/program files (x86)/microchip/mplabc32/v2.02/bin/../lib/gcc/pic32mx/4.5.1/../../../../pic32mx/lib\libmchp_peripheral_32MX575F256L.a(uart_lib.o)

.text%z352      0x00000000        0x0
 .text          0x00000000        0x0 c:/program files (x86)/microchip/mplabc32/v2.02/bin/../lib/gcc/pic32mx/4.5.1/../../../../pic32mx/lib\libmchp_peripheral_32MX575F256L.a(int_enable_mv_int_lib.o)

.text%z353      0x00000000        0x0
 .text          0x00000000        0x0 c:/program files (x86)/microchip/mplabc32/v2.02/bin/../lib/gcc/pic32mx/4.5.1/../../../../pic32mx/lib\libmchp_peripheral_32MX575F256L.a(int_restore_interrupts_lib.o)

.text%z354      0x00000000        0x0
 .text          0x00000000        0x0 c:/program files (x86)/microchip/mplabc32/v2.02/bin/../lib/gcc/pic32mx/4.5.1/../../../../pic32mx/lib\libmchp_peripheral_32MX575F256L.a(int_disable_interrupts_lib.o)

.text%z355      0x00000000        0x0
 .text          0x00000000        0x0 c:/program files (x86)/microchip/mplabc32/v2.02/bin/../lib/gcc/pic32mx/4.5.1/../../../../pic32mx/lib\libmchp_peripheral_32MX575F256L.a(pcache.o)

.text%z356      0x00000000        0x0
 .text          0x00000000        0x0 c:/program files (x86)/microchip/mplabc32/v2.02/bin/../lib/gcc/pic32mx/4.5.1/../../../../pic32mx/lib\libmchp_peripheral_32MX575F256L.a(soft_reset_lib.o)

.text%z357      0x00000000        0x0
 .text          0x00000000        0x0 c:/program files (x86)/microchip/mplabc32/v2.02/bin/../lib/gcc/pic32mx/4.5.1/../../../../pic32mx/lib\libc.a(c32_uart.o)

.text%z358      0x00000000        0x0
 .text          0x00000000        0x0 c:/program files (x86)/microchip/mplabc32/v2.02/bin/../lib/gcc/pic32mx/4.5.1/../../../../pic32mx/lib\libc.a(_mon_putc.o)

.text%z359      0x00000000        0x0
 .text          0x00000000        0x0 c:/program files (x86)/microchip/mplabc32/v2.02/bin/../lib/gcc/pic32mx/4.5.1/../../../../pic32mx/lib\libc.a(_flsbuf_simple.o)

.text%z360      0x00000000        0x0
 .text          0x00000000        0x0 c:/program files (x86)/microchip/mplabc32/v2.02/bin/../lib/gcc/pic32mx/4.5.1/../../../../pic32mx/lib\libc.a(write.o)

.text%z361      0x00000000        0x0
 .text          0x00000000        0x0 c:/program files (x86)/microchip/mplabc32/v2.02/bin/../lib/gcc/pic32mx/4.5.1/../../../../pic32mx/lib\libc.a(doprnt_cdnopsuxX.eo)

.text%z362      0x00000000        0x0
 .text          0x00000000        0x0 c:/program files (x86)/microchip/mplabc32/v2.02/bin/../lib/gcc/pic32mx/4.5.1/../../../../pic32mx/lib\libc.a(_fputc_simple.o)

.text%z363      0x00000000        0x0
 .text          0x00000000        0x0 c:/program files (x86)/microchip/mplabc32/v2.02/bin/../lib/gcc/pic32mx/4.5.1/../../../../pic32mx/lib\libc.a(_iob.o)

.text%z364      0x00000000        0x0
 .text          0x00000000        0x0 c:/program files (x86)/microchip/mplabc32/v2.02/bin/../lib/gcc/pic32mx/4.5.1/../../../../pic32mx/lib\libc.a(default-on-bootstrap.o)

.text%z365      0x00000000        0x0
 .text          0x00000000        0x0 c:/program files (x86)/microchip/mplabc32/v2.02/bin/../lib/gcc/pic32mx/4.5.1/../../../../pic32mx/lib\libc.a(default-on-reset.o)

.text%z366      0x00000000        0x0
 .text          0x00000000        0x0 c:/program files (x86)/microchip/mplabc32/v2.02/bin/../lib/gcc/pic32mx/4.5.1/../../../../pic32mx/lib\libc.a(default-bootstrap-exception-handler.o)

.text%z367      0x00000000        0x0
 .text          0x00000000        0x0 c:/program files (x86)/microchip/mplabc32/v2.02/bin/../lib/gcc/pic32mx/4.5.1/../../../../pic32mx/lib\libc.a(sprintf_cdnopsuxX.eo)

.text%z368      0x00000000        0x0
 .text          0x00000000        0x0 c:/program files (x86)/microchip/mplabc32/v2.02/bin/../lib/gcc/pic32mx/4.5.1/../../../../pic32mx/lib\libc.a(printf_cdnopsuxX.eo)

.text%z369      0x00000000        0x0
 .text          0x00000000        0x0 c:/program files (x86)/microchip/mplabc32/v2.02/bin/../lib/gcc/pic32mx/4.5.1/../../../../pic32mx/lib\libc.a(strncpy.o)

.text%z370      0x00000000        0x0
 .text          0x00000000        0x0 c:/program files (x86)/microchip/mplabc32/v2.02/bin/../lib/gcc/pic32mx/4.5.1/../../../../pic32mx/lib\libc.a(puts.o)

.text%z371      0x00000000        0x0
 .text          0x00000000        0x0 c:/program files (x86)/microchip/mplabc32/v2.02/bin/../lib/gcc/pic32mx/4.5.1/../../../../pic32mx/lib\libc.a(ctype.o)

.text%z372      0x00000000        0x0
 .text          0x00000000        0x0 c:/program files (x86)/microchip/mplabc32/v2.02/bin/../lib/gcc/pic32mx/4.5.1/../../../../pic32mx/lib\libc.a(atol.o)

.text%z373      0x00000000        0x0
 .text          0x00000000        0x0 c:/program files (x86)/microchip/mplabc32/v2.02/bin/../lib/gcc/pic32mx/4.5.1/../../../../pic32mx/lib\libc.a(general-exception.o)

.text%z374      0x00000000        0x0
 .text          0x00000000        0x0 obj-tmp\WFDataTxRx.o

.text%z375      0x00000000        0x0
 .text          0x00000000        0x0 obj-tmp\WFConsoleIwpriv.o

.text%z376      0x00000000        0x0
 .text          0x00000000        0x0 obj-tmp\WFConsoleIwconfig.o

.text%z377      0x00000000        0x0
 .text          0x00000000        0x0 obj-tmp\WFConsoleIfconfig.o

.text%z378      0x00000000        0x0
 .text          0x00000000        0x0 obj-tmp\WFConsole.o

.rodata         0x9d039a30        0x1
 .rodata        0x9d039a30        0x1 obj-tmp\ZeroconfLinkLocal.o
                0x9d039a30                g_zcll_dhcp_client

.text%z379      0x00000000        0x0
 .text          0x00000000        0x0 obj-tmp\UDPPerformanceTest.o

.text%z380      0x00000000        0x0
 .text          0x00000000        0x0 obj-tmp\UART2TCPBridge.o

.text%z381      0x00000000        0x0
 .text          0x00000000        0x0 obj-tmp\TFTPc.o

.text%z382      0x00000000        0x0
 .text          0x00000000        0x0 obj-tmp\Telnet.o

.text%z383      0x00000000        0x0
 .text          0x00000000        0x0 obj-tmp\TCPPerformanceTest.o

.text%z384      0x00000000        0x0
 .text          0x00000000        0x0 obj-tmp\SSL.o

.text%z385      0x00000000        0x0
 .text          0x00000000        0x0 obj-tmp\SPIRAM.o

.text%z386      0x00000000        0x0
 .text          0x00000000        0x0 obj-tmp\SPIEEPROM.o

.text%z387      0x00000000        0x0
 .text          0x00000000        0x0 obj-tmp\SNTP.o

.text%z388      0x00000000        0x0
 .text          0x00000000        0x0 obj-tmp\SNMPv3USM.o

.text%z389      0x00000000        0x0
 .text          0x00000000        0x0 obj-tmp\SNMPv3.o

.text%z390      0x00000000        0x0
 .text          0x00000000        0x0 obj-tmp\SNMP.o

.text%z391      0x00000000        0x0
 .text          0x00000000        0x0 obj-tmp\SMTP.o

.text%z392      0x00000000        0x0
 .text          0x00000000        0x0 obj-tmp\RSA.o

.text%z393      0x00000000        0x0
 .text          0x00000000        0x0 obj-tmp\Random.o

.text%z394      0x00000000        0x0
 .text          0x00000000        0x0 obj-tmp\LCDBlocking.o

.text%z395      0x00000000        0x0
 .text          0x00000000        0x0 obj-tmp\Hashes.o

.text%z396      0x00000000        0x0
 .text          0x00000000        0x0 obj-tmp\FTP.o

.text%z397      0x00000000        0x0
 .text          0x00000000        0x0 obj-tmp\FileSystem.o

.text%z398      0x00000000        0x0
 .text          0x00000000        0x0 obj-tmp\ETHPIC32IntMac.o

.text%z399      0x00000000        0x0
 .text          0x00000000        0x0 obj-tmp\ETHPIC32ExtPhySMSC8720.o

.text%z400      0x00000000        0x0
 .text          0x00000000        0x0 obj-tmp\ETHPIC32ExtPhySMSC8700.o

.text%z401      0x00000000        0x0
 .text          0x00000000        0x0 obj-tmp\ETHPIC32ExtPhyDP83848.o

.text%z402      0x00000000        0x0
 .text          0x00000000        0x0 obj-tmp\ETHPIC32ExtPhyDP83640.o

.text%z403      0x00000000        0x0
 .text          0x00000000        0x0 obj-tmp\ETHPIC32ExtPhy.o

.text%z404      0x00000000        0x0
 .text          0x00000000        0x0 obj-tmp\ETH97J60.o

.text%z405      0x00000000        0x0
 .text          0x00000000        0x0 obj-tmp\eth_pic32_ext_phy_rtl8201FL.o

.text%z406      0x00000000        0x0
 .text          0x00000000        0x0 obj-tmp\ENCX24J600.o

.text%z407      0x00000000        0x0
 .text          0x00000000        0x0 obj-tmp\ENC28J60.o

.text%z408      0x00000000        0x0
 .text          0x00000000        0x0 obj-tmp\DynDNS.o

.text%z409      0x00000000        0x0
 .text          0x00000000        0x0 obj-tmp\BigInt_helper_PIC32.o

.text%z410      0x00000000        0x0
 .text          0x00000000        0x0 obj-tmp\BigInt.o

.text%z411      0x00000000        0x0
 .text          0x00000000        0x0 obj-tmp\BerkeleyAPI.o

.text%z412      0x00000000        0x0
 .text          0x00000000        0x0 obj-tmp\AutoIP.o

.text%z413      0x00000000        0x0
 .text          0x00000000        0x0 obj-tmp\ARCFOUR.o

.text%z414      0x00000000        0x0
 .text          0x00000000        0x0 obj-tmp\WifiGDemoMPFSImg.o
