Archive member included because of file (symbol)

c:/program files (x86)/microchip/mplabc32/v2.02/bin/../lib/gcc/pic32mx/4.5.1\libgcc.a(_udivdi3.o)
                              obj-tmp\Tick.o (__udivdi3)
c:/program files (x86)/microchip/mplabc32/v2.02/bin/../lib/gcc/pic32mx/4.5.1\libgcc.a(_umoddi3.o)
                              obj-tmp\DHCP.o (__umoddi3)
c:/program files (x86)/microchip/mplabc32/v2.02/bin/../lib/gcc/pic32mx/4.5.1\libgcc.a(floatunsisf.o)
                              obj-tmp\OpenADRClient.o (__floatunsisf)
c:/program files (x86)/microchip/mplabc32/v2.02/bin/../lib/gcc/pic32mx/4.5.1/../../../../pic32mx/lib\libc.a(memcmp.o)
                              obj-tmp\CustomHTTPApp.o (memcmp)
c:/program files (x86)/microchip/mplabc32/v2.02/bin/../lib/gcc/pic32mx/4.5.1/../../../../pic32mx/lib\libc.a(memcpy.o)
                              obj-tmp\CustomHTTPApp.o (memcpy)
c:/program files (x86)/microchip/mplabc32/v2.02/bin/../lib/gcc/pic32mx/4.5.1/../../../../pic32mx/lib\libc.a(memset.o)
                              obj-tmp\Main.o (memset)
c:/program files (x86)/microchip/mplabc32/v2.02/bin/../lib/gcc/pic32mx/4.5.1/../../../../pic32mx/lib\libc.a(strcmp.o)
                              obj-tmp\CustomHTTPApp.o (strcmp)
c:/program files (x86)/microchip/mplabc32/v2.02/bin/../lib/gcc/pic32mx/4.5.1/../../../../pic32mx/lib\libc.a(strcpy.o)
                              obj-tmp\CustomHTTPApp.o (strcpy)
c:/program files (x86)/microchip/mplabc32/v2.02/bin/../lib/gcc/pic32mx/4.5.1/../../../../pic32mx/lib\libc.a(strlen.o)
                              obj-tmp\CustomHTTPApp.o (strlen)
c:/program files (x86)/microchip/mplabc32/v2.02/bin/../lib/gcc/pic32mx/4.5.1/../../../../pic32mx/lib\libc.a(general-exception.o)
                              c:/program files (x86)/microchip/mplabc32/v2.02/bin/../lib/gcc/pic32mx/4.5.1/../../../../pic32mx/lib/crt0.o (_general_exception_context)
c:/program files (x86)/microchip/mplabc32/v2.02/bin/../lib/gcc/pic32mx/4.5.1/../../../../pic32mx/lib\libc.a(atoi.o)
                              obj-tmp\OpenADRClient.o (atoi)
c:/program files (x86)/microchip/mplabc32/v2.02/bin/../lib/gcc/pic32mx/4.5.1/../../../../pic32mx/lib\libc.a(atol.o)
                              obj-tmp\HTTP2.o (atol)
c:/program files (x86)/microchip/mplabc32/v2.02/bin/../lib/gcc/pic32mx/4.5.1/../../../../pic32mx/lib\libc.a(ctime.o)
                              obj-tmp\OpenADRClient.o (localtime)
c:/program files (x86)/microchip/mplabc32/v2.02/bin/../lib/gcc/pic32mx/4.5.1/../../../../pic32mx/lib\libc.a(ctype.o)
                              obj-tmp\WFConsoleMsgs.o (_ctype)
c:/program files (x86)/microchip/mplabc32/v2.02/bin/../lib/gcc/pic32mx/4.5.1/../../../../pic32mx/lib\libc.a(mktime.o)
                              obj-tmp\OpenADRClient.o (mktime)
c:/program files (x86)/microchip/mplabc32/v2.02/bin/../lib/gcc/pic32mx/4.5.1/../../../../pic32mx/lib\libc.a(puts.o)
                              obj-tmp\Main.o (puts)
c:/program files (x86)/microchip/mplabc32/v2.02/bin/../lib/gcc/pic32mx/4.5.1/../../../../pic32mx/lib\libc.a(strcat.o)
                              obj-tmp\OpenADRClient.o (strcat)
c:/program files (x86)/microchip/mplabc32/v2.02/bin/../lib/gcc/pic32mx/4.5.1/../../../../pic32mx/lib\libc.a(strchr.o)
                              obj-tmp\OpenADRClient.o (strchr)
c:/program files (x86)/microchip/mplabc32/v2.02/bin/../lib/gcc/pic32mx/4.5.1/../../../../pic32mx/lib\libc.a(strncmp.o)
                              obj-tmp\OpenADRClient.o (strncmp)
c:/program files (x86)/microchip/mplabc32/v2.02/bin/../lib/gcc/pic32mx/4.5.1/../../../../pic32mx/lib\libc.a(strncpy.o)
                              obj-tmp\Helpers.o (strncpy)
c:/program files (x86)/microchip/mplabc32/v2.02/bin/../lib/gcc/pic32mx/4.5.1/../../../../pic32mx/lib\libc.a(strrchr.o)
                              obj-tmp\Assert.o (strrchr)
c:/program files (x86)/microchip/mplabc32/v2.02/bin/../lib/gcc/pic32mx/4.5.1/../../../../pic32mx/lib\libc.a(strstr.o)
                              obj-tmp\OpenADRClient.o (strstr)
c:/program files (x86)/microchip/mplabc32/v2.02/bin/../lib/gcc/pic32mx/4.5.1/../../../../pic32mx/lib\libc.a(strtok.o)
                              obj-tmp\OpenADRClient.o (strtok)
c:/program files (x86)/microchip/mplabc32/v2.02/bin/../lib/gcc/pic32mx/4.5.1/../../../../pic32mx/lib\libc.a(printf_cdnopsuxX.eo)
                              obj-tmp\Assert.o (_printf_cdnopsuxX)
c:/program files (x86)/microchip/mplabc32/v2.02/bin/../lib/gcc/pic32mx/4.5.1/../../../../pic32mx/lib\libc.a(printf_cdnopuxX.eo)
                              obj-tmp\i2c_master.o (_printf_cdnopuxX)
c:/program files (x86)/microchip/mplabc32/v2.02/bin/../lib/gcc/pic32mx/4.5.1/../../../../pic32mx/lib\libc.a(printf_s.eo)
                              obj-tmp\CustomHTTPApp.o (_printf_s)
c:/program files (x86)/microchip/mplabc32/v2.02/bin/../lib/gcc/pic32mx/4.5.1/../../../../pic32mx/lib\libc.a(sprintf_cdnopsuxX.eo)
                              obj-tmp\WF_Config.o (_sprintf_cdnopsuxX)
c:/program files (x86)/microchip/mplabc32/v2.02/bin/../lib/gcc/pic32mx/4.5.1/../../../../pic32mx/lib\libc.a(sprintf_cdnopuxX.eo)
                              obj-tmp\Main.o (_sprintf_cdnopuxX)
c:/program files (x86)/microchip/mplabc32/v2.02/bin/../lib/gcc/pic32mx/4.5.1/../../../../pic32mx/lib\libc.a(sscanf_cdfFnopuxX.eo)
                              obj-tmp\OpenADRClient.o (_sscanf_cdfFnopuxX)
c:/program files (x86)/microchip/mplabc32/v2.02/bin/../lib/gcc/pic32mx/4.5.1/../../../../pic32mx/lib\libc.a(sscanf_cdnopuxX.eo)
                              obj-tmp\OpenADRClient.o (_sscanf_cdnopuxX)
c:/program files (x86)/microchip/mplabc32/v2.02/bin/../lib/gcc/pic32mx/4.5.1/../../../../pic32mx/lib\libc.a(default-bootstrap-exception-handler.o)
                              c:/program files (x86)/microchip/mplabc32/v2.02/bin/../lib/gcc/pic32mx/4.5.1/../../../../pic32mx/lib/crt0.o (_bootstrap_exception_handler)
c:/program files (x86)/microchip/mplabc32/v2.02/bin/../lib/gcc/pic32mx/4.5.1/../../../../pic32mx/lib\libc.a(default-on-reset.o)
                              c:/program files (x86)/microchip/mplabc32/v2.02/bin/../lib/gcc/pic32mx/4.5.1/../../../../pic32mx/lib/crt0.o (_on_reset)
c:/program files (x86)/microchip/mplabc32/v2.02/bin/../lib/gcc/pic32mx/4.5.1/../../../../pic32mx/lib\libc.a(default-on-bootstrap.o)
                              c:/program files (x86)/microchip/mplabc32/v2.02/bin/../lib/gcc/pic32mx/4.5.1/../../../../pic32mx/lib/crt0.o (_on_bootstrap)
c:/program files (x86)/microchip/mplabc32/v2.02/bin/../lib/gcc/pic32mx/4.5.1/../../../../pic32mx/lib\libc.a(default-nmi-handler.o)
                              c:/program files (x86)/microchip/mplabc32/v2.02/bin/../lib/gcc/pic32mx/4.5.1/../../../../pic32mx/lib/crt0.o (_nmi_handler)
c:/program files (x86)/microchip/mplabc32/v2.02/bin/../lib/gcc/pic32mx/4.5.1/../../../../pic32mx/lib\libc.a(_iob.o)
                              c:/program files (x86)/microchip/mplabc32/v2.02/bin/../lib/gcc/pic32mx/4.5.1/../../../../pic32mx/lib\libc.a(puts.o) (_iob)
c:/program files (x86)/microchip/mplabc32/v2.02/bin/../lib/gcc/pic32mx/4.5.1/../../../../pic32mx/lib\libc.a(_fputc_simple.o)
                              c:/program files (x86)/microchip/mplabc32/v2.02/bin/../lib/gcc/pic32mx/4.5.1/../../../../pic32mx/lib\libc.a(puts.o) (fputc)
c:/program files (x86)/microchip/mplabc32/v2.02/bin/../lib/gcc/pic32mx/4.5.1/../../../../pic32mx/lib\libc.a(strcspn.o)
                              c:/program files (x86)/microchip/mplabc32/v2.02/bin/../lib/gcc/pic32mx/4.5.1/../../../../pic32mx/lib\libc.a(strtok.o) (strcspn)
c:/program files (x86)/microchip/mplabc32/v2.02/bin/../lib/gcc/pic32mx/4.5.1/../../../../pic32mx/lib\libc.a(strspn.o)
                              c:/program files (x86)/microchip/mplabc32/v2.02/bin/../lib/gcc/pic32mx/4.5.1/../../../../pic32mx/lib\libc.a(strtok.o) (strspn)
c:/program files (x86)/microchip/mplabc32/v2.02/bin/../lib/gcc/pic32mx/4.5.1/../../../../pic32mx/lib\libc.a(doprnt_cdnopsuxX.eo)
                              c:/program files (x86)/microchip/mplabc32/v2.02/bin/../lib/gcc/pic32mx/4.5.1/../../../../pic32mx/lib\libc.a(printf_cdnopsuxX.eo) (_vfprintf_cdnopsuxX)
c:/program files (x86)/microchip/mplabc32/v2.02/bin/../lib/gcc/pic32mx/4.5.1/../../../../pic32mx/lib\libc.a(doprnt_cdnopuxX.eo)
                              c:/program files (x86)/microchip/mplabc32/v2.02/bin/../lib/gcc/pic32mx/4.5.1/../../../../pic32mx/lib\libc.a(printf_cdnopuxX.eo) (_vfprintf_cdnopuxX)
c:/program files (x86)/microchip/mplabc32/v2.02/bin/../lib/gcc/pic32mx/4.5.1/../../../../pic32mx/lib\libc.a(doprnt_s.eo)
                              c:/program files (x86)/microchip/mplabc32/v2.02/bin/../lib/gcc/pic32mx/4.5.1/../../../../pic32mx/lib\libc.a(printf_s.eo) (_vfprintf_s)
c:/program files (x86)/microchip/mplabc32/v2.02/bin/../lib/gcc/pic32mx/4.5.1/../../../../pic32mx/lib\libc.a(doscan_cdfFnopuxX.eo)
                              c:/program files (x86)/microchip/mplabc32/v2.02/bin/../lib/gcc/pic32mx/4.5.1/../../../../pic32mx/lib\libc.a(sscanf_cdfFnopuxX.eo) (_vfscanf_cdfFnopuxX)
c:/program files (x86)/microchip/mplabc32/v2.02/bin/../lib/gcc/pic32mx/4.5.1/../../../../pic32mx/lib\libc.a(doscan_cdnopuxX.eo)
                              c:/program files (x86)/microchip/mplabc32/v2.02/bin/../lib/gcc/pic32mx/4.5.1/../../../../pic32mx/lib\libc.a(sscanf_cdnopuxX.eo) (_vfscanf_cdnopuxX)
c:/program files (x86)/microchip/mplabc32/v2.02/bin/../lib/gcc/pic32mx/4.5.1/../../../../pic32mx/lib\libc.a(write.o)
                              c:/program files (x86)/microchip/mplabc32/v2.02/bin/../lib/gcc/pic32mx/4.5.1/../../../../pic32mx/lib\libc.a(_fputc_simple.o) (write)
c:/program files (x86)/microchip/mplabc32/v2.02/bin/../lib/gcc/pic32mx/4.5.1/../../../../pic32mx/lib\libc.a(_flsbuf_simple.o)
                              c:/program files (x86)/microchip/mplabc32/v2.02/bin/../lib/gcc/pic32mx/4.5.1/../../../../pic32mx/lib\libc.a(_fputc_simple.o) (_flsbuf)
c:/program files (x86)/microchip/mplabc32/v2.02/bin/../lib/gcc/pic32mx/4.5.1/../../../../pic32mx/lib\libc.a(fgetc.o)
                              c:/program files (x86)/microchip/mplabc32/v2.02/bin/../lib/gcc/pic32mx/4.5.1/../../../../pic32mx/lib\libc.a(doscan_cdfFnopuxX.eo) (fgetc)
c:/program files (x86)/microchip/mplabc32/v2.02/bin/../lib/gcc/pic32mx/4.5.1/../../../../pic32mx/lib\libc.a(ctypef.o)
                              c:/program files (x86)/microchip/mplabc32/v2.02/bin/../lib/gcc/pic32mx/4.5.1/../../../../pic32mx/lib\libc.a(doscan_cdfFnopuxX.eo) (tolower)
c:/program files (x86)/microchip/mplabc32/v2.02/bin/../lib/gcc/pic32mx/4.5.1/../../../../pic32mx/lib\libc.a(strtof.o)
                              c:/program files (x86)/microchip/mplabc32/v2.02/bin/../lib/gcc/pic32mx/4.5.1/../../../../pic32mx/lib\libc.a(doscan_cdfFnopuxX.eo) (strtof)
c:/program files (x86)/microchip/mplabc32/v2.02/bin/../lib/gcc/pic32mx/4.5.1/../../../../pic32mx/lib\libc.a(strtod.o)
                              c:/program files (x86)/microchip/mplabc32/v2.02/bin/../lib/gcc/pic32mx/4.5.1/../../../../pic32mx/lib\libc.a(doscan_cdfFnopuxX.eo) (_dstrtod)
c:/program files (x86)/microchip/mplabc32/v2.02/bin/../lib/gcc/pic32mx/4.5.1/../../../../pic32mx/lib\libc.a(ungetc.o)
                              c:/program files (x86)/microchip/mplabc32/v2.02/bin/../lib/gcc/pic32mx/4.5.1/../../../../pic32mx/lib\libc.a(doscan_cdfFnopuxX.eo) (ungetc)
c:/program files (x86)/microchip/mplabc32/v2.02/bin/../lib/gcc/pic32mx/4.5.1/../../../../pic32mx/lib\libc.a(filbuf.o)
                              c:/program files (x86)/microchip/mplabc32/v2.02/bin/../lib/gcc/pic32mx/4.5.1/../../../../pic32mx/lib\libc.a(fgetc.o) (_filbuf)
c:/program files (x86)/microchip/mplabc32/v2.02/bin/../lib/gcc/pic32mx/4.5.1/../../../../pic32mx/lib\libc.a(fflush.o)
                              c:/program files (x86)/microchip/mplabc32/v2.02/bin/../lib/gcc/pic32mx/4.5.1/../../../../pic32mx/lib\libc.a(filbuf.o) (fflush)
c:/program files (x86)/microchip/mplabc32/v2.02/bin/../lib/gcc/pic32mx/4.5.1/../../../../pic32mx/lib\libc.a(read.o)
                              c:/program files (x86)/microchip/mplabc32/v2.02/bin/../lib/gcc/pic32mx/4.5.1/../../../../pic32mx/lib\libc.a(filbuf.o) (read)
c:/program files (x86)/microchip/mplabc32/v2.02/bin/../lib/gcc/pic32mx/4.5.1/../../../../pic32mx/lib\libc.a(c32_uart.o)
                              c:/program files (x86)/microchip/mplabc32/v2.02/bin/../lib/gcc/pic32mx/4.5.1/../../../../pic32mx/lib\libc.a(read.o) (__C32_UART)
c:/program files (x86)/microchip/mplabc32/v2.02/bin/../lib/gcc/pic32mx/4.5.1/../../../../pic32mx/lib\libm.a(w_sqrtf.o)
                              obj-tmp\OpenADRClient.o (sqrtf)
c:/program files (x86)/microchip/mplabc32/v2.02/bin/../lib/gcc/pic32mx/4.5.1/../../../../pic32mx/lib\libm.a(fp32.o)
                              obj-tmp\OpenADRClient.o (fpsub)
c:/program files (x86)/microchip/mplabc32/v2.02/bin/../lib/gcc/pic32mx/4.5.1/../../../../pic32mx/lib\libm.a(s_lib_ver.o)
                              c:/program files (x86)/microchip/mplabc32/v2.02/bin/../lib/gcc/pic32mx/4.5.1/../../../../pic32mx/lib\libm.a(w_sqrtf.o) (math_errhandling)
c:/program files (x86)/microchip/mplabc32/v2.02/bin/../lib/gcc/pic32mx/4.5.1/../../../../pic32mx/lib\libm.a(fpsqrt32.o)
                              c:/program files (x86)/microchip/mplabc32/v2.02/bin/../lib/gcc/pic32mx/4.5.1/../../../../pic32mx/lib\libm.a(w_sqrtf.o) (__mchp_sqrtf)
c:/program files (x86)/microchip/mplabc32/v2.02/bin/../lib/gcc/pic32mx/4.5.1/../../../../pic32mx/lib\libe.a(_strtod.o)
                              c:/program files (x86)/microchip/mplabc32/v2.02/bin/../lib/gcc/pic32mx/4.5.1/../../../../pic32mx/lib\libc.a(strtod.o) (__strtod)
c:/program files (x86)/microchip/mplabc32/v2.02/bin/../lib/gcc/pic32mx/4.5.1/../../../../pic32mx/lib\libe.a(_strtof.o)
                              c:/program files (x86)/microchip/mplabc32/v2.02/bin/../lib/gcc/pic32mx/4.5.1/../../../../pic32mx/lib\libc.a(strtof.o) (__strtof)
c:/program files (x86)/microchip/mplabc32/v2.02/bin/../lib/gcc/pic32mx/4.5.1/../../../../pic32mx/lib\libe.a(_divdf3.o)
                              c:/program files (x86)/microchip/mplabc32/v2.02/bin/../lib/gcc/pic32mx/4.5.1/../../../../pic32mx/lib\libe.a(_strtod.o) (__divdf3)
c:/program files (x86)/microchip/mplabc32/v2.02/bin/../lib/gcc/pic32mx/4.5.1/../../../../pic32mx/lib\libe.a(_muldf3.o)
                              c:/program files (x86)/microchip/mplabc32/v2.02/bin/../lib/gcc/pic32mx/4.5.1/../../../../pic32mx/lib\libe.a(_strtod.o) (__muldf3)
c:/program files (x86)/microchip/mplabc32/v2.02/bin/../lib/gcc/pic32mx/4.5.1/../../../../pic32mx/lib\libe.a(_negdf2.o)
                              c:/program files (x86)/microchip/mplabc32/v2.02/bin/../lib/gcc/pic32mx/4.5.1/../../../../pic32mx/lib\libe.a(_strtod.o) (__negdf2)
c:/program files (x86)/microchip/mplabc32/v2.02/bin/../lib/gcc/pic32mx/4.5.1/../../../../pic32mx/lib\libe.a(_adddf3.o)
                              c:/program files (x86)/microchip/mplabc32/v2.02/bin/../lib/gcc/pic32mx/4.5.1/../../../../pic32mx/lib\libe.a(_strtod.o) (__adddf3)
c:/program files (x86)/microchip/mplabc32/v2.02/bin/../lib/gcc/pic32mx/4.5.1/../../../../pic32mx/lib\libe.a(_floatsidf.o)
                              c:/program files (x86)/microchip/mplabc32/v2.02/bin/../lib/gcc/pic32mx/4.5.1/../../../../pic32mx/lib\libe.a(_strtod.o) (__floatsidf)
c:/program files (x86)/microchip/mplabc32/v2.02/bin/../lib/gcc/pic32mx/4.5.1/../../../../pic32mx/lib\libe.a(_ldexp.o)
                              c:/program files (x86)/microchip/mplabc32/v2.02/bin/../lib/gcc/pic32mx/4.5.1/../../../../pic32mx/lib\libe.a(_strtod.o) (__ldexp)
c:/program files (x86)/microchip/mplabc32/v2.02/bin/../lib/gcc/pic32mx/4.5.1/../../../../pic32mx/lib\libe.a(_ldexpf.o)
                              c:/program files (x86)/microchip/mplabc32/v2.02/bin/../lib/gcc/pic32mx/4.5.1/../../../../pic32mx/lib\libe.a(_strtof.o) (__ldexpf)
c:/program files (x86)/microchip/mplabc32/v2.02/bin/../lib/gcc/pic32mx/4.5.1/../../../../pic32mx/lib\libmchp_peripheral_32MX575F256L.a(soft_reset_lib.o)
                              obj-tmp\Reboot.o (SoftReset)
c:/program files (x86)/microchip/mplabc32/v2.02/bin/../lib/gcc/pic32mx/4.5.1/../../../../pic32mx/lib\libmchp_peripheral_32MX575F256L.a(pcache.o)
                              obj-tmp\Main.o (CheKseg0CacheOn)
c:/program files (x86)/microchip/mplabc32/v2.02/bin/../lib/gcc/pic32mx/4.5.1/../../../../pic32mx/lib\libmchp_peripheral_32MX575F256L.a(int_disable_interrupts_lib.o)
                              obj-tmp\Main.o (INTDisableInterrupts)
c:/program files (x86)/microchip/mplabc32/v2.02/bin/../lib/gcc/pic32mx/4.5.1/../../../../pic32mx/lib\libmchp_peripheral_32MX575F256L.a(int_restore_interrupts_lib.o)
                              obj-tmp\Main.o (INTRestoreInterrupts)
c:/program files (x86)/microchip/mplabc32/v2.02/bin/../lib/gcc/pic32mx/4.5.1/../../../../pic32mx/lib\libmchp_peripheral_32MX575F256L.a(int_enable_mv_int_lib.o)
                              obj-tmp\Main.o (INTEnableSystemMultiVectoredInt)
c:/program files (x86)/microchip/mplabc32/v2.02/bin/../lib/gcc/pic32mx/4.5.1/../../../../pic32mx/lib\libmchp_peripheral_32MX575F256L.a(int_tbl_lib.o)
                              obj-tmp\INTiMain.o (INTClearFlag)
c:/program files (x86)/microchip/mplabc32/v2.02/bin/../lib/gcc/pic32mx/4.5.1/../../../../pic32mx/lib\libmchp_peripheral_32MX575F256L.a(uart_lib.o)
                              obj-tmp\UARTiMain.o (UARTEnable)
c:/program files (x86)/microchip/mplabc32/v2.02/bin/../lib/gcc/pic32mx/4.5.1/../../../../pic32mx/lib\libmchp_peripheral_32MX575F256L.a(puts_uartx_lib_legacy.o)
                              obj-tmp\Main.o (putsUART1)
c:/program files (x86)/microchip/mplabc32/v2.02/bin/../lib/gcc/pic32mx/4.5.1/../../../../pic32mx/lib\libmchp_peripheral_32MX575F256L.a(idle_i2c2_lib_legacy.o)
                              obj-tmp\i2c_master.o (IdleI2C2)
c:/program files (x86)/microchip/mplabc32/v2.02/bin/../lib/gcc/pic32mx/4.5.1/../../../../pic32mx/lib\libmchp_peripheral_32MX575F256L.a(I2CPrivate.o)
                              obj-tmp\i2c_master.o (i2cBase)
c:/program files (x86)/microchip/mplabc32/v2.02/bin/../lib/gcc/pic32mx/4.5.1/../../../../pic32mx/lib\libmchp_peripheral_32MX575F256L.a(I2CBusIsIdle.o)
                              obj-tmp\i2c_master.o (I2CBusIsIdle)
c:/program files (x86)/microchip/mplabc32/v2.02/bin/../lib/gcc/pic32mx/4.5.1/../../../../pic32mx/lib\libmchp_peripheral_32MX575F256L.a(I2CByteWasAcknowledged.o)
                              obj-tmp\i2c_master.o (I2CByteWasAcknowledged)
c:/program files (x86)/microchip/mplabc32/v2.02/bin/../lib/gcc/pic32mx/4.5.1/../../../../pic32mx/lib\libmchp_peripheral_32MX575F256L.a(I2CEnable.o)
                              obj-tmp\i2c_master.o (I2CEnable)
c:/program files (x86)/microchip/mplabc32/v2.02/bin/../lib/gcc/pic32mx/4.5.1/../../../../pic32mx/lib\libmchp_peripheral_32MX575F256L.a(I2CGetByte.o)
                              obj-tmp\i2c_master.o (I2CGetByte)
c:/program files (x86)/microchip/mplabc32/v2.02/bin/../lib/gcc/pic32mx/4.5.1/../../../../pic32mx/lib\libmchp_peripheral_32MX575F256L.a(I2CGetStatus.o)
                              obj-tmp\i2c_master.o (I2CGetStatus)
c:/program files (x86)/microchip/mplabc32/v2.02/bin/../lib/gcc/pic32mx/4.5.1/../../../../pic32mx/lib\libmchp_peripheral_32MX575F256L.a(I2CReceivedDataIsAvailable.o)
                              obj-tmp\i2c_master.o (I2CReceivedDataIsAvailable)
c:/program files (x86)/microchip/mplabc32/v2.02/bin/../lib/gcc/pic32mx/4.5.1/../../../../pic32mx/lib\libmchp_peripheral_32MX575F256L.a(I2CReceiverEnable.o)
                              obj-tmp\i2c_master.o (I2CReceiverEnable)
c:/program files (x86)/microchip/mplabc32/v2.02/bin/../lib/gcc/pic32mx/4.5.1/../../../../pic32mx/lib\libmchp_peripheral_32MX575F256L.a(I2CRepeatStart.o)
                              obj-tmp\i2c_master.o (I2CRepeatStart)
c:/program files (x86)/microchip/mplabc32/v2.02/bin/../lib/gcc/pic32mx/4.5.1/../../../../pic32mx/lib\libmchp_peripheral_32MX575F256L.a(I2CSetFrequency.o)
                              obj-tmp\i2c_master.o (I2CSetFrequency)
c:/program files (x86)/microchip/mplabc32/v2.02/bin/../lib/gcc/pic32mx/4.5.1/../../../../pic32mx/lib\libmchp_peripheral_32MX575F256L.a(I2CStart.o)
                              obj-tmp\i2c_master.o (I2CStart)
c:/program files (x86)/microchip/mplabc32/v2.02/bin/../lib/gcc/pic32mx/4.5.1/../../../../pic32mx/lib\libmchp_peripheral_32MX575F256L.a(I2CStop.o)
                              obj-tmp\i2c_master.o (I2CStop)
c:/program files (x86)/microchip/mplabc32/v2.02/bin/../lib/gcc/pic32mx/4.5.1/../../../../pic32mx/lib\libmchp_peripheral_32MX575F256L.a(I2CTransmissionHasCompleted.o)
                              obj-tmp\i2c_master.o (I2CTransmissionHasCompleted)
c:/program files (x86)/microchip/mplabc32/v2.02/bin/../lib/gcc/pic32mx/4.5.1/../../../../pic32mx/lib\libmchp_peripheral_32MX575F256L.a(I2CTransmitterIsReady.o)
                              obj-tmp\i2c_master.o (I2CTransmitterIsReady)
c:/program files (x86)/microchip/mplabc32/v2.02/bin/../lib/gcc/pic32mx/4.5.1/../../../../pic32mx/lib\libmchp_peripheral_32MX575F256L.a(int_enable_interrupts_lib.o)
                              c:/program files (x86)/microchip/mplabc32/v2.02/bin/../lib/gcc/pic32mx/4.5.1/../../../../pic32mx/lib\libmchp_peripheral_32MX575F256L.a(int_enable_mv_int_lib.o) (INTEnableInterrupts)
c:/program files (x86)/microchip/mplabc32/v2.02/bin/../lib/gcc/pic32mx/4.5.1/../../../../pic32mx/lib\libc.a(errno.o)
                              c:/program files (x86)/microchip/mplabc32/v2.02/bin/../lib/gcc/pic32mx/4.5.1/../../../../pic32mx/lib\libm.a(w_sqrtf.o) (errno)
c:/program files (x86)/microchip/mplabc32/v2.02/bin/../lib/gcc/pic32mx/4.5.1\libgcc.a(_lshrdi3.o)
                              c:/program files (x86)/microchip/mplabc32/v2.02/bin/../lib/gcc/pic32mx/4.5.1/../../../../pic32mx/lib\libe.a(_divdf3.o) (__lshrdi3)
c:/program files (x86)/microchip/mplabc32/v2.02/bin/../lib/gcc/pic32mx/4.5.1\libgcc.a(_ashldi3.o)
                              c:/program files (x86)/microchip/mplabc32/v2.02/bin/../lib/gcc/pic32mx/4.5.1/../../../../pic32mx/lib\libe.a(_divdf3.o) (__ashldi3)

Allocating common symbols
Common symbol       size              file

CommTimer           0x4               obj-tmp\OpenADRClient.o
IdleNormal          0x4               obj-tmp\EPRI_UARTLayer.o
SourceUnamePw       0x32              obj-tmp\OpenADRClient.o
RawWindowState      0x2               obj-tmp\WFDriverRaw_24G.o
DebugCnt            0x1               obj-tmp\OpenADRClient.o
RsBuf               0x1a              obj-tmp\OpenADRClient.o
DNS_IP_ADDR         0x4               obj-tmp\OpenADRClient.o
activeUDPSocket     0x1               obj-tmp\UDP.o
eventStatus         0x8               obj-tmp\OpenADRClient.o
curHTTP             0x8c              obj-tmp\HTTP2.o
RxBuf               0x12c             obj-tmp\EPRI_UARTLayer.o
eventStateID        0x20              obj-tmp\OpenADRClient.o
lostlink_flag       0x4               obj-tmp\app_UCM.o
preScanResult       0xb54             obj-tmp\WFEasyConfig.o
UDPTxCount          0x2               obj-tmp\UDP.o
tzsec               0x4               obj-tmp\OpenADRClient.o
NullRSBuf           0x1a              obj-tmp\EPRI_UARTLayer.o
GetEventStateTimer  0x4               obj-tmp\OpenADRClient.o
EncodedUNPW         0x4b              obj-tmp\OpenADRClient.o
tempbreakpoint      0x4               obj-tmp\OpenADRClient.o
curHTTPID           0x1               obj-tmp\HTTP2.o
currentTime         0x14              obj-tmp\OpenADRClient.o
GMTstr              0x32              obj-tmp\OpenADRClient.o
tmCallbackFunctionI
                    0x18              obj-tmp\TimeMonitor.o
eventModNumber      0x14              obj-tmp\OpenADRClient.o
notificationTime    0x28              obj-tmp\OpenADRClient.o
g_ScanCtx           0x6               obj-tmp\WFEasyConfig.o
HttpLocation        0x32              obj-tmp\OpenADRClient.o
RawMoveState        0x8               obj-tmp\WFDriverCom_24G.o
curOptouthash       0x4               obj-tmp\app_UCM.o
txmessage           0xa               obj-tmp\EPRI_UARTLayer.o
startTime           0x28              obj-tmp\OpenADRClient.o
WF_hibernate        0x2               obj-tmp\WFMac_24G.o
LengthOfContent     0x4               obj-tmp\OpenADRClient.o
UTCLastServerTime   0x4               obj-tmp\OpenADRClient.o
TCP_blackout        0x4               obj-tmp\OpenADRClient.o
AsyncTxRSBuf        0x1a              obj-tmp\EPRI_UARTLayer.o
tmTickDownTimeI     0x18              obj-tmp\TimeMonitor.o
pbuf                0x78              obj-tmp\OpenADRClient.o
eventStateQ         0x2d0             obj-tmp\OpenADRClient.o
TxMsgState          0x4               obj-tmp\EPRI_UARTLayer.o
SQueryTimer         0x4               obj-tmp\OpenADRClient.o
LastServerTicks     0x4               obj-tmp\OpenADRClient.o
modeTimeSlot        0x14              obj-tmp\OpenADRClient.o
g_rxDtim            0x4               obj-tmp\WFPowerSave.o
HTTPResponse        0x4               obj-tmp\OpenADRClient.o
FoundHTTPHeader     0x4               obj-tmp\OpenADRClient.o
eventIdentifier     0x20              obj-tmp\OpenADRClient.o
Local_Time          0x4               obj-tmp\OpenADRClient.o
endTime             0x28              obj-tmp\OpenADRClient.o
ActiveEventID       0x20              obj-tmp\OpenADRClient.o
UTCServerTime       0x4               obj-tmp\OpenADRClient.o
TCPPutBuffer        0x3e8             obj-tmp\OpenADRClient.o
UDPSocketInfo       0xe0              obj-tmp\UDP.o
payloadptr          0x4               obj-tmp\OpenADRClient.o
TCPpayload_buf      0x189c            obj-tmp\OpenADRClient.o
LoadFactor          0x4               obj-tmp\OpenADRClient.o
FoundHTTPBody       0x4               obj-tmp\OpenADRClient.o
remoteNode          0xa               obj-tmp\StackTsk.o
programName         0x20              obj-tmp\OpenADRClient.o
commGood            0x4               obj-tmp\OpenADRClient.o
RunningNormal       0x4               obj-tmp\EPRI_UARTLayer.o
UDPRxCount          0x2               obj-tmp\UDP.o
timeOffset          0x14              obj-tmp\OpenADRClient.o
g_easyConfigCtx     0x94              obj-tmp\WFEasyConfig.o
UTCTime             0x4               obj-tmp\OpenADRClient.o
commGoodOld         0x4               obj-tmp\OpenADRClient.o
TCP_Message         0x4               obj-tmp\app_UCM.o
RxMsgState          0x4               obj-tmp\EPRI_UARTLayer.o
httpStubs           0x10              obj-tmp\HTTP2.o
sbuf                0x28              obj-tmp\Main.o
operationModeValue  0x8               obj-tmp\OpenADRClient.o
DhcpIpPool          0x78              obj-tmp\DHCPs.o
AppConfig           0x9a              obj-tmp\Main.o
DelayTimer          0x4               obj-tmp\OpenADRClient.o
AsyncRxRSBuf        0x1a              obj-tmp\EPRI_UARTLayer.o
g_rxBufferLength    0x2               obj-tmp\WFMac_24G.o
rxmessage           0x12c             obj-tmp\EPRI_UARTLayer.o

Microchip PIC32 Memory-Usage Report

kseg0 Program-Memory Usage
section                    address  length [bytes]      (dec)  Description
-------                 ----------  -------------------------  -----------
.rodata                 0x9d000000           0x60          96  Read-only const 
.rodata                 0x9d000068         0x7088       28808  Read-only const 
.text                   0x9d0070f0        0x10eb4       69300  App's exec code 
.rodata                 0x9d017fa4          0xef4        3828  Read-only const 
.text                   0x9d018e98         0x3f8c       16268  App's exec code 
.dinit                  0x9d01ce24          0xbe4        3044   
.text._vfprintf_cdnopsu 0x9d01da08          0xae4        2788   
.text                   0x9d01e4ec         0x14c8        5320  App's exec code 
.text._vfscanf_cdfFnopu 0x9d01f9b4          0x9ec        2540   
.text                   0x9d0203a0         0x38c0       14528  App's exec code 
.rodata                 0x9d023c60          0xf9c        3996  Read-only const 
.text._vfscanf_cdnopuxX 0x9d024bfc          0x778        1912   
.text                   0x9d025374         0x2a08       10760  App's exec code 
.rodata                 0x9d027d7c          0x520        1312  Read-only const 
.text                   0x9d02829c          0x954        2388  App's exec code 
.text.__divdf3          0x9d028bf0          0x48c        1164   
.text.__adddf3          0x9d02907c          0x484        1156   
.text                   0x9d029500          0x8b4        2228  App's exec code 
.text.__muldf3          0x9d029db4          0x418        1048   
.text                   0x9d02a1cc          0x3f4        1012  App's exec code 
.text.__strtod          0x9d02a5c0          0x3f0        1008   
.text                   0x9d02a9b0          0x3e0         992  App's exec code 
.rodata                 0x9d02ad90          0x3b8         952  Read-only const 
.text                   0x9d02b148          0x714        1812  App's exec code 
.text.__strtof          0x9d02b85c          0x35c         860   
.text                   0x9d02bbb8          0x95c        2396  App's exec code 
.text.asctime           0x9d02c514          0x2f0         752   
.text                   0x9d02c804          0x584        1412  App's exec code 
.text.gmtime            0x9d02cd88          0x2ac         684   
.text                   0x9d02d034          0xdc0        3520  App's exec code 
.text.__ldexp           0x9d02ddf4          0x1d4         468   
.rodata                 0x9d02dfc8          0x1bc         444  Read-only const 
.text                   0x9d02e184          0x618        1560  App's exec code 
.text._filbuf           0x9d02e79c          0x168         360   
.text.mktime            0x9d02e904          0x150         336   
.text                   0x9d02ea54          0x140         320  App's exec code 
.text.fputc             0x9d02eb94          0x140         320   
.text.read              0x9d02ecd4          0x140         320   
.text._flsbuf           0x9d02ee14          0x12c         300   
.text                   0x9d02ef40          0x230         560  App's exec code 
.rodata                 0x9d02f170          0x10c         268  Read-only const 
.text.fgetc             0x9d02f27c          0x108         264   
.rodata                 0x9d02f384          0x104         260  Read-only const 
.text.__ldexpf          0x9d02f488          0x104         260   
.text                   0x9d02f58c          0x100         256  App's exec code 
.text.strtok            0x9d02f68c           0xf0         240   
.text.ymd_to_scalar     0x9d02f77c           0xec         236   
.text                   0x9d02f868           0xe8         232  App's exec code 
.rodata                 0x9d02f950           0xe8         232  Read-only const 
.text                   0x9d02fa38          0x1a0         416  App's exec code 
.text.general_exception 0x9d02fbd8           0xd0         208   
.rodata                 0x9d02fca8          0x198         408  Read-only const 
.text                   0x9d02fe40           0xb4         180  App's exec code 
.rodata                 0x9d02fef4           0xb0         176  Read-only const 
.text                   0x9d02ffa4           0xa8         168  App's exec code 
.text.atoi              0x9d03004c           0xa4         164   
.text.atol              0x9d0300f0           0xa4         164   
.text.strstr            0x9d030194           0xa4         164   
.text                   0x9d030238          0x1c4         452  App's exec code 
.text.fflush            0x9d0303fc           0x94         148   
.text.__floatsidf       0x9d030490           0x94         148   
.rodata                 0x9d030524           0x90         144  Read-only const 
.text                   0x9d0305b4           0x88         136  App's exec code 
.text.write             0x9d03063c           0x88         136   
.text.range             0x9d0306c4          0x108         264   
.text.UARTEnable        0x9d0307cc           0x80         128   
.text.ungetc            0x9d03084c           0x7c         124   
.text.fputs             0x9d0308c8           0x78         120   
.text.SoftReset         0x9d030940           0x78         120   
.text.IdleI2C2          0x9d0309b8           0x74         116   
.text.strncmp           0x9d030a2c           0x70         112   
.text.strcspn           0x9d030a9c           0x6c         108   
.text.strspn            0x9d030b08           0x6c         108   
.text._sprintf_cdnopsux 0x9d030b74           0x68         104   
.text.strncpy           0x9d030bdc           0x64         100   
.text.wspace            0x9d030c40           0xc0         192   
.text._sscanf_cdfFnopux 0x9d030d00           0x5c          92   
.text.UARTSetDataRate   0x9d030d5c           0x5c          92   
.text.INTEnable         0x9d030db8           0x58          88   
.rodata                 0x9d030e10           0x54          84  Read-only const 
.text.I2CBusIsIdle      0x9d030e64           0x54          84   
.rodata                 0x9d030eb8           0x4c          76  Read-only const 
.text                   0x9d030f04           0x4c          76  App's exec code 
.rodata                 0x9d030f50           0x4c          76  Read-only const 
.text.strrchr           0x9d030f9c           0x4c          76   
.text.sqrtf             0x9d030fe8           0x4c          76   
.text.putsUART1         0x9d031034           0x4c          76   
.text.putsUART2         0x9d031080           0x4c          76   
.text.I2CSetFrequency   0x9d0310cc           0x48          72   
.text.puts              0x9d031114           0x44          68   
.text.I2CGetStatus      0x9d031158           0x44          68   
.text                   0x9d03119c           0x88         136  App's exec code 
.text._printf_cdnopsuxX 0x9d031224           0x40          64   
.text.UARTGetDataRate   0x9d031264           0x40          64   
.rodata                 0x9d0312a4           0x3c          60  Read-only const 
.text.localtime         0x9d0312e0           0x3c          60   
.text.INTSetVectorPrior 0x9d03131c           0x3c          60   
.text.INTSetVectorSubPr 0x9d031358           0x3c          60   
.text.UARTConfigure     0x9d031394           0x3c          60   
.text.UARTSetAddress    0x9d0313d0           0x3c          60   
.text.strcat            0x9d03140c           0x38          56   
.text.UARTWatchForAddre 0x9d031444           0x38          56   
.text.I2CReceiverEnable 0x9d03147c           0x38          56   
.text.INTEnableSystemMu 0x9d0314b4           0x34          52   
.text.I2CStart          0x9d0314e8           0x34          52   
.rodata                 0x9d03151c           0x30          48  Read-only const 
.text.INTGetVectorPrior 0x9d03154c           0x30          48   
.text.INTGetVectorSubPr 0x9d03157c           0x30          48   
.text.I2CRepeatStart    0x9d0315ac           0x30          48   
.text.INTClearFlag      0x9d0315dc           0x2c          44   
.text.INTSetFlag        0x9d031608           0x2c          44   
.text.INTGetFlag        0x9d031634           0x2c          44   
.text.INTGetEnable      0x9d031660           0x2c          44   
.text.strchr            0x9d03168c           0x28          40   
.text.UARTSetFifoMode   0x9d0316b4           0x28          40   
.text.UARTSetLineContro 0x9d0316dc           0x28          40   
.text.I2CEnable         0x9d031704           0x28          40   
.text                   0x9d03172c           0x24          36  App's exec code 
.text.tolower           0x9d031750           0x24          36   
.text.toupper           0x9d031774           0x24          36   
.text.I2CByteWasAcknowl 0x9d031798           0x24          36   
.text.I2CStop           0x9d0317bc           0x24          36   
.text.I2CTransmissionHa 0x9d0317e0           0x24          36   
.text.I2CTransmitterIsR 0x9d031804           0x24          36   
.rodata                 0x9d031828           0x40          64  Read-only const 
.text.ctime             0x9d031868           0x20          32   
.text.I2CGetByte        0x9d031888           0x20          32   
.text.I2CReceivedDataIs 0x9d0318a8           0x20          32   
.rodata                 0x9d0318c8           0x38          56  Read-only const 
.text.strtof            0x9d031900           0x1c          28   
.text.strtodf           0x9d03191c           0x1c          28   
.text.strtod            0x9d031938           0x1c          28   
.text._dstrtod          0x9d031954           0x1c          28   
.text.INTRestoreInterru 0x9d031970           0x1c          28   
.text                   0x9d03198c           0x18          24  App's exec code 
.text.isalnum           0x9d0319a4           0x18          24   
.text.isalpha           0x9d0319bc           0x18          24   
.text.iscntrl           0x9d0319d4           0x18          24   
.text.isdigit           0x9d0319ec           0x18          24   
.text.isgraph           0x9d031a04           0x18          24   
.text.islower           0x9d031a1c           0x18          24   
.text.isprint           0x9d031a34           0x18          24   
.text.ispunct           0x9d031a4c           0x18          24   
.text.isspace           0x9d031a64           0x18          24   
.text.isupper           0x9d031a7c           0x18          24   
.text.isxdigit          0x9d031a94           0x18          24   
.text.CheKseg0CacheOff  0x9d031aac           0x18          24   
.text.CheKseg0CacheOn   0x9d031ac4           0x18          24   
.rodata                 0x9d031adc           0x40          64  Read-only const 
.text                   0x9d031b1c           0x10          16  App's exec code 
.rodata                 0x9d031b2c            0x4           4  Read-only const 
.rodata                 0x9d031b30           0x20          32  Read-only const 
.text.__negdf2          0x9d031b50           0x10          16   
.text._bootstrap_except 0x9d031b60            0xc          12   
.text.__subdf3          0x9d031b6c            0xc          12   
.rodata                 0x9d031b78           0x20          32  Read-only const 
.text._on_reset         0x9d031b98            0x8           8   
.text._on_bootstrap     0x9d031ba0            0x8           8   
.text.isascii           0x9d031ba8            0x8           8   
.text.toascii           0x9d031bb0            0x8           8   
.text._tolower          0x9d031bb8            0x8           8   
.text._toupper          0x9d031bc0            0x8           8   
.rodata                 0x9d031bc8           0x10          16  Read-only const 
.text.INTDisableInterru 0x9d031bd8            0x8           8   
.text.INTEnableInterrup 0x9d031be0            0x8           8   
.rodata                 0x9d031be8            0x1           1  Read-only const 
      Total kseg0_program_mem used  :     0x31be1      203745  77.7% of 0x40000

kseg0 Boot-Memory Usage
section                    address  length [bytes]      (dec)  Description
-------                 ----------  -------------------------  -----------
         Total kseg0_boot_mem used  :           0           0  <1% of 0x970

Exception-Memory Usage 
section                    address  length [bytes]      (dec)  Description
-------                 ----------  -------------------------  -----------
.app_excpt              0x9fc01180           0x10          16  General-Exception 
.vector_4               0x9fc01280            0x8           8  Interrupt Vector 4 
.vector_8               0x9fc01300            0x8           8  Interrupt Vector 8 
.vector_15              0x9fc013e0            0x8           8  Interrupt Vector 15 
.vector_24              0x9fc01500            0x8           8  Interrupt Vector 24 
.vector_32              0x9fc01600            0x8           8  Interrupt Vector 32 
          Total exception_mem used  :        0x38          56  1.4% of 0x1000

kseg1 Boot-Memory Usage
section                    address  length [bytes]      (dec)  Description
-------                 ----------  -------------------------  -----------
.reset                  0xbfc00000          0x1f4         500  Reset handler 
.bev_excpt              0xbfc00380           0x10          16  BEV-Exception 
         Total kseg1_boot_mem used  :       0x204         516  44.2% of 0x490
        --------------------------------------------------------------------------
         Total Program Memory used  :     0x31e1d      204317  75.7% of 0x41e00
        --------------------------------------------------------------------------


kseg1 Data-Memory Usage
section                    address  length [bytes]      (dec)  Description
-------                 ----------  -------------------------  -----------
.eh_frame               0xa0000200           0x3c          60   
.sdata                  0xa000023c          0x124         292  Small init data 
.sbss                   0xa0000360          0x2ac         684  Small uninit data 
.bss                    0xa000060c         0x33ac       13228  Uninitialized data 
.bss                    0xa00039c8          0x360         864  Uninitialized data 
.data                   0xa0003d28          0x5e4        1508  Initialized data 
.bss                    0xa000430c          0x1cc         460  Uninitialized data 
.data                   0xa00044d8           0xa0         160  Initialized data 
.bss                    0xa0004578          0x1dc         476  Uninitialized data 
.pbss                   0xa0004754            0x4           4   
.bss                    0xa0004758            0xc          12  Uninitialized data 
.data.math_errhandling_ 0xa0004764            0x4           4   
.pbss                   0xa0004768            0x4           4   
         Total kseg1_data_mem used  :      0x455c       17756  27.1% of 0x10000
        --------------------------------------------------------------------------
            Total Data Memory used  :      0x455c       17756  27.1% of 0x10000
        --------------------------------------------------------------------------


Dynamic Data-Memory Reservation
section                    address  length [bytes]      (dec)  Description
-------                 ----------  -------------------------  -----------
heap                    0xa0004770              0           0  Reserved for heap 
stack                   0xa0004788         0xb868       47208  Reserved for stack 

        --------------------------------------------------------------------------

Discarded input sections

 .reginfo       0x00000000       0x18 c:/program files (x86)/microchip/mplabc32/v2.02/bin/../lib/gcc/pic32mx/4.5.1/../../../../pic32mx/lib/crt0.o
 .pdr           0x00000000       0xa0 c:/program files (x86)/microchip/mplabc32/v2.02/bin/../lib/gcc/pic32mx/4.5.1/../../../../pic32mx/lib/crt0.o
 .reginfo       0x00000000       0x18 obj-tmp\Main.o
 .pdr           0x00000000       0xc0 obj-tmp\Main.o
 .reginfo       0x00000000       0x18 obj-tmp\CustomHTTPApp.o
 .pdr           0x00000000      0x2a0 obj-tmp\CustomHTTPApp.o
 .reginfo       0x00000000       0x18 obj-tmp\WF_Config.o
 .pdr           0x00000000       0x40 obj-tmp\WF_Config.o
 .reginfo       0x00000000       0x18 obj-tmp\WifiGDemoMPFSImg.o
 .pdr           0x00000000        0x0 obj-tmp\WifiGDemoMPFSImg.o
 .reginfo       0x00000000       0x18 obj-tmp\Announce.o
 .pdr           0x00000000       0x40 obj-tmp\Announce.o
 .reginfo       0x00000000       0x18 obj-tmp\ARCFOUR.o
 .pdr           0x00000000        0x0 obj-tmp\ARCFOUR.o
 .reginfo       0x00000000       0x18 obj-tmp\ARP.o
 .pdr           0x00000000      0x140 obj-tmp\ARP.o
 .reginfo       0x00000000       0x18 obj-tmp\AutoIP.o
 .pdr           0x00000000        0x0 obj-tmp\AutoIP.o
 .reginfo       0x00000000       0x18 obj-tmp\BerkeleyAPI.o
 .pdr           0x00000000        0x0 obj-tmp\BerkeleyAPI.o
 .reginfo       0x00000000       0x18 obj-tmp\BigInt.o
 .pdr           0x00000000        0x0 obj-tmp\BigInt.o
 .reginfo       0x00000000       0x18 obj-tmp\BigInt_helper_PIC32.o
 .pdr           0x00000000        0x0 obj-tmp\BigInt_helper_PIC32.o
 .reginfo       0x00000000       0x18 obj-tmp\Delay.o
 .pdr           0x00000000       0x40 obj-tmp\Delay.o
 .reginfo       0x00000000       0x18 obj-tmp\DNS.o
 .pdr           0x00000000       0xc0 obj-tmp\DNS.o
 .reginfo       0x00000000       0x18 obj-tmp\DNSs.o
 .pdr           0x00000000       0x20 obj-tmp\DNSs.o
 .reginfo       0x00000000       0x18 obj-tmp\DynDNS.o
 .pdr           0x00000000        0x0 obj-tmp\DynDNS.o
 .reginfo       0x00000000       0x18 obj-tmp\FileSystem.o
 .pdr           0x00000000        0x0 obj-tmp\FileSystem.o
 .reginfo       0x00000000       0x18 obj-tmp\FTP.o
 .pdr           0x00000000        0x0 obj-tmp\FTP.o
 .reginfo       0x00000000       0x18 obj-tmp\Hashes.o
 .pdr           0x00000000        0x0 obj-tmp\Hashes.o
 .reginfo       0x00000000       0x18 obj-tmp\Helpers.o
 .pdr           0x00000000      0x200 obj-tmp\Helpers.o
 .reginfo       0x00000000       0x18 obj-tmp\HTTP2.o
 .pdr           0x00000000      0x160 obj-tmp\HTTP2.o
 .reginfo       0x00000000       0x18 obj-tmp\ICMP.o
 .pdr           0x00000000       0x20 obj-tmp\ICMP.o
 .reginfo       0x00000000       0x18 obj-tmp\IP.o
 .pdr           0x00000000       0x80 obj-tmp\IP.o
 .reginfo       0x00000000       0x18 obj-tmp\LCDBlocking.o
 .pdr           0x00000000        0x0 obj-tmp\LCDBlocking.o
 .reginfo       0x00000000       0x18 obj-tmp\MPFS2.o
 .pdr           0x00000000      0x260 obj-tmp\MPFS2.o
 .reginfo       0x00000000       0x18 obj-tmp\NBNS.o
 .pdr           0x00000000       0x20 obj-tmp\NBNS.o
 .reginfo       0x00000000       0x18 obj-tmp\Random.o
 .pdr           0x00000000        0x0 obj-tmp\Random.o
 .reginfo       0x00000000       0x18 obj-tmp\Reboot.o
 .pdr           0x00000000       0x20 obj-tmp\Reboot.o
 .reginfo       0x00000000       0x18 obj-tmp\RSA.o
 .pdr           0x00000000        0x0 obj-tmp\RSA.o
 .reginfo       0x00000000       0x18 obj-tmp\SMTP.o
 .pdr           0x00000000        0x0 obj-tmp\SMTP.o
 .reginfo       0x00000000       0x18 obj-tmp\SNMP.o
 .pdr           0x00000000        0x0 obj-tmp\SNMP.o
 .reginfo       0x00000000       0x18 obj-tmp\SNMPv3.o
 .pdr           0x00000000        0x0 obj-tmp\SNMPv3.o
 .reginfo       0x00000000       0x18 obj-tmp\SNMPv3USM.o
 .pdr           0x00000000        0x0 obj-tmp\SNMPv3USM.o
 .reginfo       0x00000000       0x18 obj-tmp\SNTP.o
 .pdr           0x00000000        0x0 obj-tmp\SNTP.o
 .reginfo       0x00000000       0x18 obj-tmp\SPIEEPROM.o
 .pdr           0x00000000        0x0 obj-tmp\SPIEEPROM.o
 .reginfo       0x00000000       0x18 obj-tmp\SPIFlash.o
 .pdr           0x00000000      0x100 obj-tmp\SPIFlash.o
 .reginfo       0x00000000       0x18 obj-tmp\SPIRAM.o
 .pdr           0x00000000        0x0 obj-tmp\SPIRAM.o
 .reginfo       0x00000000       0x18 obj-tmp\SSL.o
 .pdr           0x00000000        0x0 obj-tmp\SSL.o
 .reginfo       0x00000000       0x18 obj-tmp\StackTsk.o
 .pdr           0x00000000       0x80 obj-tmp\StackTsk.o
 .reginfo       0x00000000       0x18 obj-tmp\TCP.o
 .pdr           0x00000000      0x3e0 obj-tmp\TCP.o
 .reginfo       0x00000000       0x18 obj-tmp\TCPPerformanceTest.o
 .pdr           0x00000000        0x0 obj-tmp\TCPPerformanceTest.o
 .reginfo       0x00000000       0x18 obj-tmp\Telnet.o
 .pdr           0x00000000        0x0 obj-tmp\Telnet.o
 .reginfo       0x00000000       0x18 obj-tmp\TFTPc.o
 .pdr           0x00000000        0x0 obj-tmp\TFTPc.o
 .reginfo       0x00000000       0x18 obj-tmp\Tick.o
 .pdr           0x00000000      0x100 obj-tmp\Tick.o
 .reginfo       0x00000000       0x18 obj-tmp\UART2TCPBridge.o
 .pdr           0x00000000        0x0 obj-tmp\UART2TCPBridge.o
 .reginfo       0x00000000       0x18 obj-tmp\UDP.o
 .pdr           0x00000000      0x220 obj-tmp\UDP.o
 .reginfo       0x00000000       0x18 obj-tmp\UDPPerformanceTest.o
 .pdr           0x00000000        0x0 obj-tmp\UDPPerformanceTest.o
 .reginfo       0x00000000       0x18 obj-tmp\ZeroconfHelper.o
 .pdr           0x00000000       0x20 obj-tmp\ZeroconfHelper.o
 .reginfo       0x00000000       0x18 obj-tmp\ZeroconfLinkLocal.o
 .pdr           0x00000000       0xe0 obj-tmp\ZeroconfLinkLocal.o
 .reginfo       0x00000000       0x18 obj-tmp\ZeroconfMulticastDNS.o
 .pdr           0x00000000      0x280 obj-tmp\ZeroconfMulticastDNS.o
 .reginfo       0x00000000       0x18 obj-tmp\WF_Eint.o
 .pdr           0x00000000       0xe0 obj-tmp\WF_Eint.o
 .reginfo       0x00000000       0x18 obj-tmp\WF_pbkdf2.o
 .pdr           0x00000000      0x120 obj-tmp\WF_pbkdf2.o
 .reginfo       0x00000000       0x18 obj-tmp\WFConnectionAlgorithm.o
 .pdr           0x00000000      0x500 obj-tmp\WFConnectionAlgorithm.o
 .reginfo       0x00000000       0x18 obj-tmp\WFConnectionManager.o
 .pdr           0x00000000      0x100 obj-tmp\WFConnectionManager.o
 .reginfo       0x00000000       0x18 obj-tmp\WFConnectionProfile.o
 .pdr           0x00000000      0x320 obj-tmp\WFConnectionProfile.o
 .reginfo       0x00000000       0x18 obj-tmp\WFConsole.o
 .pdr           0x00000000        0x0 obj-tmp\WFConsole.o
 .reginfo       0x00000000       0x18 obj-tmp\WFConsoleIfconfig.o
 .pdr           0x00000000        0x0 obj-tmp\WFConsoleIfconfig.o
 .reginfo       0x00000000       0x18 obj-tmp\WFConsoleIwconfig.o
 .pdr           0x00000000        0x0 obj-tmp\WFConsoleIwconfig.o
 .reginfo       0x00000000       0x18 obj-tmp\WFConsoleIwpriv.o
 .pdr           0x00000000        0x0 obj-tmp\WFConsoleIwpriv.o
 .reginfo       0x00000000       0x18 obj-tmp\WFConsoleMsgHandler.o
 .pdr           0x00000000       0x20 obj-tmp\WFConsoleMsgHandler.o
 .reginfo       0x00000000       0x18 obj-tmp\WFConsoleMsgs.o
 .pdr           0x00000000       0x40 obj-tmp\WFConsoleMsgs.o
 .reginfo       0x00000000       0x18 obj-tmp\WFDataTxRx.o
 .pdr           0x00000000        0x0 obj-tmp\WFDataTxRx.o
 .reginfo       0x00000000       0x18 obj-tmp\WFDebugStrings.o
 .pdr           0x00000000       0xc0 obj-tmp\WFDebugStrings.o
 .reginfo       0x00000000       0x18 obj-tmp\WFEasyConfig.o
 .pdr           0x00000000       0xe0 obj-tmp\WFEasyConfig.o
 .reginfo       0x00000000       0x18 obj-tmp\WFEventHandler.o
 .pdr           0x00000000       0x40 obj-tmp\WFEventHandler.o
 .reginfo       0x00000000       0x18 obj-tmp\WFInit.o
 .pdr           0x00000000       0x20 obj-tmp\WFInit.o
 .reginfo       0x00000000       0x18 obj-tmp\WFPowerSave.o
 .pdr           0x00000000      0x1e0 obj-tmp\WFPowerSave.o
 .reginfo       0x00000000       0x18 obj-tmp\WFScan.o
 .pdr           0x00000000       0x40 obj-tmp\WFScan.o
 .reginfo       0x00000000       0x18 obj-tmp\WFTxPower.o
 .pdr           0x00000000       0x60 obj-tmp\WFTxPower.o
 .reginfo       0x00000000       0x18 obj-tmp\WF_Spi.o
 .pdr           0x00000000       0x80 obj-tmp\WF_Spi.o
 .reginfo       0x00000000       0x18 obj-tmp\WFDriverCom_24G.o
 .pdr           0x00000000      0x220 obj-tmp\WFDriverCom_24G.o
 .reginfo       0x00000000       0x18 obj-tmp\WFDriverRaw_24G.o
 .pdr           0x00000000      0x280 obj-tmp\WFDriverRaw_24G.o
 .reginfo       0x00000000       0x18 obj-tmp\WFMac_24G.o
 .pdr           0x00000000      0x3a0 obj-tmp\WFMac_24G.o
 .reginfo       0x00000000       0x18 obj-tmp\WFMgmtMsg_24G.o
 .pdr           0x00000000       0xa0 obj-tmp\WFMgmtMsg_24G.o
 .reginfo       0x00000000       0x18 obj-tmp\WFParamMsg_24G.o
 .pdr           0x00000000      0x300 obj-tmp\WFParamMsg_24G.o
 .reginfo       0x00000000       0x18 obj-tmp\DHCP.o
 .pdr           0x00000000      0x160 obj-tmp\DHCP.o
 .reginfo       0x00000000       0x18 obj-tmp\DHCPs.o
 .pdr           0x00000000      0x100 obj-tmp\DHCPs.o
 .reginfo       0x00000000       0x18 obj-tmp\i2c_master.o
 .pdr           0x00000000       0xe0 obj-tmp\i2c_master.o
 .reginfo       0x00000000       0x18 obj-tmp\OpenADRClient.o
 .pdr           0x00000000      0x420 obj-tmp\OpenADRClient.o
 .reginfo       0x00000000       0x18 obj-tmp\INTiMain.o
 .pdr           0x00000000      0x100 obj-tmp\INTiMain.o
 .reginfo       0x00000000       0x18 obj-tmp\UARTiMain.o
 .pdr           0x00000000       0xa0 obj-tmp\UARTiMain.o
 .reginfo       0x00000000       0x18 obj-tmp\TimeMonitor.o
 .pdr           0x00000000      0x100 obj-tmp\TimeMonitor.o
 .reginfo       0x00000000       0x18 obj-tmp\EPRI_UARTLayer.o
 .pdr           0x00000000      0x240 obj-tmp\EPRI_UARTLayer.o
 .reginfo       0x00000000       0x18 obj-tmp\app_UCM.o
 .pdr           0x00000000       0x40 obj-tmp\app_UCM.o
 .reginfo       0x00000000       0x18 obj-tmp\Assert.o
 .pdr           0x00000000       0x40 obj-tmp\Assert.o
 .reginfo       0x00000000       0x18 c:/program files (x86)/microchip/mplabc32/v2.02/bin/../lib/gcc/pic32mx/4.5.1\libgcc.a(_udivdi3.o)
 .pdr           0x00000000       0x20 c:/program files (x86)/microchip/mplabc32/v2.02/bin/../lib/gcc/pic32mx/4.5.1\libgcc.a(_udivdi3.o)
 .reginfo       0x00000000       0x18 c:/program files (x86)/microchip/mplabc32/v2.02/bin/../lib/gcc/pic32mx/4.5.1\libgcc.a(_umoddi3.o)
 .pdr           0x00000000       0x20 c:/program files (x86)/microchip/mplabc32/v2.02/bin/../lib/gcc/pic32mx/4.5.1\libgcc.a(_umoddi3.o)
 .reginfo       0x00000000       0x18 c:/program files (x86)/microchip/mplabc32/v2.02/bin/../lib/gcc/pic32mx/4.5.1\libgcc.a(floatunsisf.o)
 .pdr           0x00000000       0x20 c:/program files (x86)/microchip/mplabc32/v2.02/bin/../lib/gcc/pic32mx/4.5.1\libgcc.a(floatunsisf.o)
 .reginfo       0x00000000       0x18 c:/program files (x86)/microchip/mplabc32/v2.02/bin/../lib/gcc/pic32mx/4.5.1/../../../../pic32mx/lib\libc.a(memcmp.o)
 .pdr           0x00000000       0x20 c:/program files (x86)/microchip/mplabc32/v2.02/bin/../lib/gcc/pic32mx/4.5.1/../../../../pic32mx/lib\libc.a(memcmp.o)
 .reginfo       0x00000000       0x18 c:/program files (x86)/microchip/mplabc32/v2.02/bin/../lib/gcc/pic32mx/4.5.1/../../../../pic32mx/lib\libc.a(memcpy.o)
 .pdr           0x00000000       0x20 c:/program files (x86)/microchip/mplabc32/v2.02/bin/../lib/gcc/pic32mx/4.5.1/../../../../pic32mx/lib\libc.a(memcpy.o)
 .reginfo       0x00000000       0x18 c:/program files (x86)/microchip/mplabc32/v2.02/bin/../lib/gcc/pic32mx/4.5.1/../../../../pic32mx/lib\libc.a(memset.o)
 .pdr           0x00000000       0x20 c:/program files (x86)/microchip/mplabc32/v2.02/bin/../lib/gcc/pic32mx/4.5.1/../../../../pic32mx/lib\libc.a(memset.o)
 .reginfo       0x00000000       0x18 c:/program files (x86)/microchip/mplabc32/v2.02/bin/../lib/gcc/pic32mx/4.5.1/../../../../pic32mx/lib\libc.a(strcmp.o)
 .pdr           0x00000000       0x20 c:/program files (x86)/microchip/mplabc32/v2.02/bin/../lib/gcc/pic32mx/4.5.1/../../../../pic32mx/lib\libc.a(strcmp.o)
 .reginfo       0x00000000       0x18 c:/program files (x86)/microchip/mplabc32/v2.02/bin/../lib/gcc/pic32mx/4.5.1/../../../../pic32mx/lib\libc.a(strcpy.o)
 .pdr           0x00000000       0x20 c:/program files (x86)/microchip/mplabc32/v2.02/bin/../lib/gcc/pic32mx/4.5.1/../../../../pic32mx/lib\libc.a(strcpy.o)
 .reginfo       0x00000000       0x18 c:/program files (x86)/microchip/mplabc32/v2.02/bin/../lib/gcc/pic32mx/4.5.1/../../../../pic32mx/lib\libc.a(strlen.o)
 .pdr           0x00000000       0x20 c:/program files (x86)/microchip/mplabc32/v2.02/bin/../lib/gcc/pic32mx/4.5.1/../../../../pic32mx/lib\libc.a(strlen.o)
 .reginfo       0x00000000       0x18 c:/program files (x86)/microchip/mplabc32/v2.02/bin/../lib/gcc/pic32mx/4.5.1/../../../../pic32mx/lib\libc.a(general-exception.o)
 .pdr           0x00000000       0x20 c:/program files (x86)/microchip/mplabc32/v2.02/bin/../lib/gcc/pic32mx/4.5.1/../../../../pic32mx/lib\libc.a(general-exception.o)
 .reginfo       0x00000000       0x18 c:/program files (x86)/microchip/mplabc32/v2.02/bin/../lib/gcc/pic32mx/4.5.1/../../../../pic32mx/lib\libc.a(atoi.o)
 .pdr           0x00000000       0x20 c:/program files (x86)/microchip/mplabc32/v2.02/bin/../lib/gcc/pic32mx/4.5.1/../../../../pic32mx/lib\libc.a(atoi.o)
 .reginfo       0x00000000       0x18 c:/program files (x86)/microchip/mplabc32/v2.02/bin/../lib/gcc/pic32mx/4.5.1/../../../../pic32mx/lib\libc.a(atol.o)
 .pdr           0x00000000       0x20 c:/program files (x86)/microchip/mplabc32/v2.02/bin/../lib/gcc/pic32mx/4.5.1/../../../../pic32mx/lib\libc.a(atol.o)
 .reginfo       0x00000000       0x18 c:/program files (x86)/microchip/mplabc32/v2.02/bin/../lib/gcc/pic32mx/4.5.1/../../../../pic32mx/lib\libc.a(ctime.o)
 .pdr           0x00000000       0x80 c:/program files (x86)/microchip/mplabc32/v2.02/bin/../lib/gcc/pic32mx/4.5.1/../../../../pic32mx/lib\libc.a(ctime.o)
 .reginfo       0x00000000       0x18 c:/program files (x86)/microchip/mplabc32/v2.02/bin/../lib/gcc/pic32mx/4.5.1/../../../../pic32mx/lib\libc.a(ctype.o)
 .pdr           0x00000000        0x0 c:/program files (x86)/microchip/mplabc32/v2.02/bin/../lib/gcc/pic32mx/4.5.1/../../../../pic32mx/lib\libc.a(ctype.o)
 .reginfo       0x00000000       0x18 c:/program files (x86)/microchip/mplabc32/v2.02/bin/../lib/gcc/pic32mx/4.5.1/../../../../pic32mx/lib\libc.a(mktime.o)
 .pdr           0x00000000       0x40 c:/program files (x86)/microchip/mplabc32/v2.02/bin/../lib/gcc/pic32mx/4.5.1/../../../../pic32mx/lib\libc.a(mktime.o)
 .reginfo       0x00000000       0x18 c:/program files (x86)/microchip/mplabc32/v2.02/bin/../lib/gcc/pic32mx/4.5.1/../../../../pic32mx/lib\libc.a(puts.o)
 .pdr           0x00000000       0x40 c:/program files (x86)/microchip/mplabc32/v2.02/bin/../lib/gcc/pic32mx/4.5.1/../../../../pic32mx/lib\libc.a(puts.o)
 .reginfo       0x00000000       0x18 c:/program files (x86)/microchip/mplabc32/v2.02/bin/../lib/gcc/pic32mx/4.5.1/../../../../pic32mx/lib\libc.a(strcat.o)
 .pdr           0x00000000       0x20 c:/program files (x86)/microchip/mplabc32/v2.02/bin/../lib/gcc/pic32mx/4.5.1/../../../../pic32mx/lib\libc.a(strcat.o)
 .reginfo       0x00000000       0x18 c:/program files (x86)/microchip/mplabc32/v2.02/bin/../lib/gcc/pic32mx/4.5.1/../../../../pic32mx/lib\libc.a(strchr.o)
 .pdr           0x00000000       0x20 c:/program files (x86)/microchip/mplabc32/v2.02/bin/../lib/gcc/pic32mx/4.5.1/../../../../pic32mx/lib\libc.a(strchr.o)
 .reginfo       0x00000000       0x18 c:/program files (x86)/microchip/mplabc32/v2.02/bin/../lib/gcc/pic32mx/4.5.1/../../../../pic32mx/lib\libc.a(strncmp.o)
 .pdr           0x00000000       0x20 c:/program files (x86)/microchip/mplabc32/v2.02/bin/../lib/gcc/pic32mx/4.5.1/../../../../pic32mx/lib\libc.a(strncmp.o)
 .reginfo       0x00000000       0x18 c:/program files (x86)/microchip/mplabc32/v2.02/bin/../lib/gcc/pic32mx/4.5.1/../../../../pic32mx/lib\libc.a(strncpy.o)
 .pdr           0x00000000       0x20 c:/program files (x86)/microchip/mplabc32/v2.02/bin/../lib/gcc/pic32mx/4.5.1/../../../../pic32mx/lib\libc.a(strncpy.o)
 .reginfo       0x00000000       0x18 c:/program files (x86)/microchip/mplabc32/v2.02/bin/../lib/gcc/pic32mx/4.5.1/../../../../pic32mx/lib\libc.a(strrchr.o)
 .pdr           0x00000000       0x20 c:/program files (x86)/microchip/mplabc32/v2.02/bin/../lib/gcc/pic32mx/4.5.1/../../../../pic32mx/lib\libc.a(strrchr.o)
 .reginfo       0x00000000       0x18 c:/program files (x86)/microchip/mplabc32/v2.02/bin/../lib/gcc/pic32mx/4.5.1/../../../../pic32mx/lib\libc.a(strstr.o)
 .pdr           0x00000000       0x20 c:/program files (x86)/microchip/mplabc32/v2.02/bin/../lib/gcc/pic32mx/4.5.1/../../../../pic32mx/lib\libc.a(strstr.o)
 .reginfo       0x00000000       0x18 c:/program files (x86)/microchip/mplabc32/v2.02/bin/../lib/gcc/pic32mx/4.5.1/../../../../pic32mx/lib\libc.a(strtok.o)
 .pdr           0x00000000       0x20 c:/program files (x86)/microchip/mplabc32/v2.02/bin/../lib/gcc/pic32mx/4.5.1/../../../../pic32mx/lib\libc.a(strtok.o)
 .reginfo       0x00000000       0x18 c:/program files (x86)/microchip/mplabc32/v2.02/bin/../lib/gcc/pic32mx/4.5.1/../../../../pic32mx/lib\libc.a(printf_cdnopsuxX.eo)
 .pdr           0x00000000       0x20 c:/program files (x86)/microchip/mplabc32/v2.02/bin/../lib/gcc/pic32mx/4.5.1/../../../../pic32mx/lib\libc.a(printf_cdnopsuxX.eo)
 .reginfo       0x00000000       0x18 c:/program files (x86)/microchip/mplabc32/v2.02/bin/../lib/gcc/pic32mx/4.5.1/../../../../pic32mx/lib\libc.a(sprintf_cdnopsuxX.eo)
 .pdr           0x00000000       0x20 c:/program files (x86)/microchip/mplabc32/v2.02/bin/../lib/gcc/pic32mx/4.5.1/../../../../pic32mx/lib\libc.a(sprintf_cdnopsuxX.eo)
 .reginfo       0x00000000       0x18 c:/program files (x86)/microchip/mplabc32/v2.02/bin/../lib/gcc/pic32mx/4.5.1/../../../../pic32mx/lib\libc.a(sscanf_cdfFnopuxX.eo)
 .pdr           0x00000000       0x20 c:/program files (x86)/microchip/mplabc32/v2.02/bin/../lib/gcc/pic32mx/4.5.1/../../../../pic32mx/lib\libc.a(sscanf_cdfFnopuxX.eo)
 .reginfo       0x00000000       0x18 c:/program files (x86)/microchip/mplabc32/v2.02/bin/../lib/gcc/pic32mx/4.5.1/../../../../pic32mx/lib\libc.a(default-bootstrap-exception-handler.o)
 .pdr           0x00000000       0x20 c:/program files (x86)/microchip/mplabc32/v2.02/bin/../lib/gcc/pic32mx/4.5.1/../../../../pic32mx/lib\libc.a(default-bootstrap-exception-handler.o)
 .reginfo       0x00000000       0x18 c:/program files (x86)/microchip/mplabc32/v2.02/bin/../lib/gcc/pic32mx/4.5.1/../../../../pic32mx/lib\libc.a(default-on-reset.o)
 .pdr           0x00000000       0x20 c:/program files (x86)/microchip/mplabc32/v2.02/bin/../lib/gcc/pic32mx/4.5.1/../../../../pic32mx/lib\libc.a(default-on-reset.o)
 .reginfo       0x00000000       0x18 c:/program files (x86)/microchip/mplabc32/v2.02/bin/../lib/gcc/pic32mx/4.5.1/../../../../pic32mx/lib\libc.a(default-on-bootstrap.o)
 .pdr           0x00000000       0x20 c:/program files (x86)/microchip/mplabc32/v2.02/bin/../lib/gcc/pic32mx/4.5.1/../../../../pic32mx/lib\libc.a(default-on-bootstrap.o)
 .reginfo       0x00000000       0x18 c:/program files (x86)/microchip/mplabc32/v2.02/bin/../lib/gcc/pic32mx/4.5.1/../../../../pic32mx/lib\libc.a(default-nmi-handler.o)
 .pdr           0x00000000       0x20 c:/program files (x86)/microchip/mplabc32/v2.02/bin/../lib/gcc/pic32mx/4.5.1/../../../../pic32mx/lib\libc.a(default-nmi-handler.o)
 .reginfo       0x00000000       0x18 c:/program files (x86)/microchip/mplabc32/v2.02/bin/../lib/gcc/pic32mx/4.5.1/../../../../pic32mx/lib\libc.a(_iob.o)
 .pdr           0x00000000        0x0 c:/program files (x86)/microchip/mplabc32/v2.02/bin/../lib/gcc/pic32mx/4.5.1/../../../../pic32mx/lib\libc.a(_iob.o)
 .reginfo       0x00000000       0x18 c:/program files (x86)/microchip/mplabc32/v2.02/bin/../lib/gcc/pic32mx/4.5.1/../../../../pic32mx/lib\libc.a(_fputc_simple.o)
 .pdr           0x00000000       0x20 c:/program files (x86)/microchip/mplabc32/v2.02/bin/../lib/gcc/pic32mx/4.5.1/../../../../pic32mx/lib\libc.a(_fputc_simple.o)
 .reginfo       0x00000000       0x18 c:/program files (x86)/microchip/mplabc32/v2.02/bin/../lib/gcc/pic32mx/4.5.1/../../../../pic32mx/lib\libc.a(strcspn.o)
 .pdr           0x00000000       0x20 c:/program files (x86)/microchip/mplabc32/v2.02/bin/../lib/gcc/pic32mx/4.5.1/../../../../pic32mx/lib\libc.a(strcspn.o)
 .reginfo       0x00000000       0x18 c:/program files (x86)/microchip/mplabc32/v2.02/bin/../lib/gcc/pic32mx/4.5.1/../../../../pic32mx/lib\libc.a(strspn.o)
 .pdr           0x00000000       0x20 c:/program files (x86)/microchip/mplabc32/v2.02/bin/../lib/gcc/pic32mx/4.5.1/../../../../pic32mx/lib\libc.a(strspn.o)
 .reginfo       0x00000000       0x18 c:/program files (x86)/microchip/mplabc32/v2.02/bin/../lib/gcc/pic32mx/4.5.1/../../../../pic32mx/lib\libc.a(doprnt_cdnopsuxX.eo)
 .pdr           0x00000000       0x20 c:/program files (x86)/microchip/mplabc32/v2.02/bin/../lib/gcc/pic32mx/4.5.1/../../../../pic32mx/lib\libc.a(doprnt_cdnopsuxX.eo)
 .reginfo       0x00000000       0x18 c:/program files (x86)/microchip/mplabc32/v2.02/bin/../lib/gcc/pic32mx/4.5.1/../../../../pic32mx/lib\libc.a(doscan_cdfFnopuxX.eo)
 .pdr           0x00000000       0x60 c:/program files (x86)/microchip/mplabc32/v2.02/bin/../lib/gcc/pic32mx/4.5.1/../../../../pic32mx/lib\libc.a(doscan_cdfFnopuxX.eo)
 .reginfo       0x00000000       0x18 c:/program files (x86)/microchip/mplabc32/v2.02/bin/../lib/gcc/pic32mx/4.5.1/../../../../pic32mx/lib\libc.a(doscan_cdnopuxX.eo)
 .pdr           0x00000000       0x60 c:/program files (x86)/microchip/mplabc32/v2.02/bin/../lib/gcc/pic32mx/4.5.1/../../../../pic32mx/lib\libc.a(doscan_cdnopuxX.eo)
 .reginfo       0x00000000       0x18 c:/program files (x86)/microchip/mplabc32/v2.02/bin/../lib/gcc/pic32mx/4.5.1/../../../../pic32mx/lib\libc.a(write.o)
 .pdr           0x00000000       0x20 c:/program files (x86)/microchip/mplabc32/v2.02/bin/../lib/gcc/pic32mx/4.5.1/../../../../pic32mx/lib\libc.a(write.o)
 .reginfo       0x00000000       0x18 c:/program files (x86)/microchip/mplabc32/v2.02/bin/../lib/gcc/pic32mx/4.5.1/../../../../pic32mx/lib\libc.a(_flsbuf_simple.o)
 .pdr           0x00000000       0x20 c:/program files (x86)/microchip/mplabc32/v2.02/bin/../lib/gcc/pic32mx/4.5.1/../../../../pic32mx/lib\libc.a(_flsbuf_simple.o)
 .reginfo       0x00000000       0x18 c:/program files (x86)/microchip/mplabc32/v2.02/bin/../lib/gcc/pic32mx/4.5.1/../../../../pic32mx/lib\libc.a(fgetc.o)
 .pdr           0x00000000       0x20 c:/program files (x86)/microchip/mplabc32/v2.02/bin/../lib/gcc/pic32mx/4.5.1/../../../../pic32mx/lib\libc.a(fgetc.o)
 .reginfo       0x00000000       0x18 c:/program files (x86)/microchip/mplabc32/v2.02/bin/../lib/gcc/pic32mx/4.5.1/../../../../pic32mx/lib\libc.a(ctypef.o)
 .pdr           0x00000000      0x220 c:/program files (x86)/microchip/mplabc32/v2.02/bin/../lib/gcc/pic32mx/4.5.1/../../../../pic32mx/lib\libc.a(ctypef.o)
 .reginfo       0x00000000       0x18 c:/program files (x86)/microchip/mplabc32/v2.02/bin/../lib/gcc/pic32mx/4.5.1/../../../../pic32mx/lib\libc.a(strtof.o)
 .pdr           0x00000000       0x40 c:/program files (x86)/microchip/mplabc32/v2.02/bin/../lib/gcc/pic32mx/4.5.1/../../../../pic32mx/lib\libc.a(strtof.o)
 .reginfo       0x00000000       0x18 c:/program files (x86)/microchip/mplabc32/v2.02/bin/../lib/gcc/pic32mx/4.5.1/../../../../pic32mx/lib\libc.a(strtod.o)
 .pdr           0x00000000       0x40 c:/program files (x86)/microchip/mplabc32/v2.02/bin/../lib/gcc/pic32mx/4.5.1/../../../../pic32mx/lib\libc.a(strtod.o)
 .reginfo       0x00000000       0x18 c:/program files (x86)/microchip/mplabc32/v2.02/bin/../lib/gcc/pic32mx/4.5.1/../../../../pic32mx/lib\libc.a(ungetc.o)
 .pdr           0x00000000       0x20 c:/program files (x86)/microchip/mplabc32/v2.02/bin/../lib/gcc/pic32mx/4.5.1/../../../../pic32mx/lib\libc.a(ungetc.o)
 .reginfo       0x00000000       0x18 c:/program files (x86)/microchip/mplabc32/v2.02/bin/../lib/gcc/pic32mx/4.5.1/../../../../pic32mx/lib\libc.a(filbuf.o)
 .pdr           0x00000000       0x20 c:/program files (x86)/microchip/mplabc32/v2.02/bin/../lib/gcc/pic32mx/4.5.1/../../../../pic32mx/lib\libc.a(filbuf.o)
 .reginfo       0x00000000       0x18 c:/program files (x86)/microchip/mplabc32/v2.02/bin/../lib/gcc/pic32mx/4.5.1/../../../../pic32mx/lib\libc.a(fflush.o)
 .pdr           0x00000000       0x20 c:/program files (x86)/microchip/mplabc32/v2.02/bin/../lib/gcc/pic32mx/4.5.1/../../../../pic32mx/lib\libc.a(fflush.o)
 .reginfo       0x00000000       0x18 c:/program files (x86)/microchip/mplabc32/v2.02/bin/../lib/gcc/pic32mx/4.5.1/../../../../pic32mx/lib\libc.a(read.o)
 .pdr           0x00000000       0x20 c:/program files (x86)/microchip/mplabc32/v2.02/bin/../lib/gcc/pic32mx/4.5.1/../../../../pic32mx/lib\libc.a(read.o)
 .reginfo       0x00000000       0x18 c:/program files (x86)/microchip/mplabc32/v2.02/bin/../lib/gcc/pic32mx/4.5.1/../../../../pic32mx/lib\libc.a(c32_uart.o)
 .pdr           0x00000000        0x0 c:/program files (x86)/microchip/mplabc32/v2.02/bin/../lib/gcc/pic32mx/4.5.1/../../../../pic32mx/lib\libc.a(c32_uart.o)
 .reginfo       0x00000000       0x18 c:/program files (x86)/microchip/mplabc32/v2.02/bin/../lib/gcc/pic32mx/4.5.1/../../../../pic32mx/lib\libm.a(w_sqrtf.o)
 .pdr           0x00000000       0x20 c:/program files (x86)/microchip/mplabc32/v2.02/bin/../lib/gcc/pic32mx/4.5.1/../../../../pic32mx/lib\libm.a(w_sqrtf.o)
 .reginfo       0x00000000       0x18 c:/program files (x86)/microchip/mplabc32/v2.02/bin/../lib/gcc/pic32mx/4.5.1/../../../../pic32mx/lib\libm.a(fp32.o)
 .pdr           0x00000000        0x0 c:/program files (x86)/microchip/mplabc32/v2.02/bin/../lib/gcc/pic32mx/4.5.1/../../../../pic32mx/lib\libm.a(fp32.o)
 .reginfo       0x00000000       0x18 c:/program files (x86)/microchip/mplabc32/v2.02/bin/../lib/gcc/pic32mx/4.5.1/../../../../pic32mx/lib\libm.a(s_lib_ver.o)
 .pdr           0x00000000        0x0 c:/program files (x86)/microchip/mplabc32/v2.02/bin/../lib/gcc/pic32mx/4.5.1/../../../../pic32mx/lib\libm.a(s_lib_ver.o)
 .reginfo       0x00000000       0x18 c:/program files (x86)/microchip/mplabc32/v2.02/bin/../lib/gcc/pic32mx/4.5.1/../../../../pic32mx/lib\libm.a(fpsqrt32.o)
 .pdr           0x00000000        0x0 c:/program files (x86)/microchip/mplabc32/v2.02/bin/../lib/gcc/pic32mx/4.5.1/../../../../pic32mx/lib\libm.a(fpsqrt32.o)
 .reginfo       0x00000000       0x18 c:/program files (x86)/microchip/mplabc32/v2.02/bin/../lib/gcc/pic32mx/4.5.1/../../../../pic32mx/lib\libe.a(_strtod.o)
 .pdr           0x00000000       0x20 c:/program files (x86)/microchip/mplabc32/v2.02/bin/../lib/gcc/pic32mx/4.5.1/../../../../pic32mx/lib\libe.a(_strtod.o)
 .reginfo       0x00000000       0x18 c:/program files (x86)/microchip/mplabc32/v2.02/bin/../lib/gcc/pic32mx/4.5.1/../../../../pic32mx/lib\libe.a(_strtof.o)
 .pdr           0x00000000       0x20 c:/program files (x86)/microchip/mplabc32/v2.02/bin/../lib/gcc/pic32mx/4.5.1/../../../../pic32mx/lib\libe.a(_strtof.o)
 .reginfo       0x00000000       0x18 c:/program files (x86)/microchip/mplabc32/v2.02/bin/../lib/gcc/pic32mx/4.5.1/../../../../pic32mx/lib\libe.a(_divdf3.o)
 .pdr           0x00000000       0x20 c:/program files (x86)/microchip/mplabc32/v2.02/bin/../lib/gcc/pic32mx/4.5.1/../../../../pic32mx/lib\libe.a(_divdf3.o)
 .reginfo       0x00000000       0x18 c:/program files (x86)/microchip/mplabc32/v2.02/bin/../lib/gcc/pic32mx/4.5.1/../../../../pic32mx/lib\libe.a(_muldf3.o)
 .pdr           0x00000000       0x20 c:/program files (x86)/microchip/mplabc32/v2.02/bin/../lib/gcc/pic32mx/4.5.1/../../../../pic32mx/lib\libe.a(_muldf3.o)
 .reginfo       0x00000000       0x18 c:/program files (x86)/microchip/mplabc32/v2.02/bin/../lib/gcc/pic32mx/4.5.1/../../../../pic32mx/lib\libe.a(_negdf2.o)
 .pdr           0x00000000       0x20 c:/program files (x86)/microchip/mplabc32/v2.02/bin/../lib/gcc/pic32mx/4.5.1/../../../../pic32mx/lib\libe.a(_negdf2.o)
 .reginfo       0x00000000       0x18 c:/program files (x86)/microchip/mplabc32/v2.02/bin/../lib/gcc/pic32mx/4.5.1/../../../../pic32mx/lib\libe.a(_adddf3.o)
 .pdr           0x00000000       0x40 c:/program files (x86)/microchip/mplabc32/v2.02/bin/../lib/gcc/pic32mx/4.5.1/../../../../pic32mx/lib\libe.a(_adddf3.o)
 .reginfo       0x00000000       0x18 c:/program files (x86)/microchip/mplabc32/v2.02/bin/../lib/gcc/pic32mx/4.5.1/../../../../pic32mx/lib\libe.a(_floatsidf.o)
 .pdr           0x00000000       0x20 c:/program files (x86)/microchip/mplabc32/v2.02/bin/../lib/gcc/pic32mx/4.5.1/../../../../pic32mx/lib\libe.a(_floatsidf.o)
 .reginfo       0x00000000       0x18 c:/program files (x86)/microchip/mplabc32/v2.02/bin/../lib/gcc/pic32mx/4.5.1/../../../../pic32mx/lib\libe.a(_ldexp.o)
 .pdr           0x00000000       0x20 c:/program files (x86)/microchip/mplabc32/v2.02/bin/../lib/gcc/pic32mx/4.5.1/../../../../pic32mx/lib\libe.a(_ldexp.o)
 .reginfo       0x00000000       0x18 c:/program files (x86)/microchip/mplabc32/v2.02/bin/../lib/gcc/pic32mx/4.5.1/../../../../pic32mx/lib\libe.a(_ldexpf.o)
 .pdr           0x00000000       0x20 c:/program files (x86)/microchip/mplabc32/v2.02/bin/../lib/gcc/pic32mx/4.5.1/../../../../pic32mx/lib\libe.a(_ldexpf.o)
 .reginfo       0x00000000       0x18 c:/program files (x86)/microchip/mplabc32/v2.02/bin/../lib/gcc/pic32mx/4.5.1/../../../../pic32mx/lib\libmchp_peripheral_32MX575F256L.a(soft_reset_lib.o)
 .pdr           0x00000000       0x20 c:/program files (x86)/microchip/mplabc32/v2.02/bin/../lib/gcc/pic32mx/4.5.1/../../../../pic32mx/lib\libmchp_peripheral_32MX575F256L.a(soft_reset_lib.o)
 .reginfo       0x00000000       0x18 c:/program files (x86)/microchip/mplabc32/v2.02/bin/../lib/gcc/pic32mx/4.5.1/../../../../pic32mx/lib\libmchp_peripheral_32MX575F256L.a(pcache.o)
 .pdr           0x00000000       0x40 c:/program files (x86)/microchip/mplabc32/v2.02/bin/../lib/gcc/pic32mx/4.5.1/../../../../pic32mx/lib\libmchp_peripheral_32MX575F256L.a(pcache.o)
 .reginfo       0x00000000       0x18 c:/program files (x86)/microchip/mplabc32/v2.02/bin/../lib/gcc/pic32mx/4.5.1/../../../../pic32mx/lib\libmchp_peripheral_32MX575F256L.a(int_disable_interrupts_lib.o)
 .pdr           0x00000000       0x20 c:/program files (x86)/microchip/mplabc32/v2.02/bin/../lib/gcc/pic32mx/4.5.1/../../../../pic32mx/lib\libmchp_peripheral_32MX575F256L.a(int_disable_interrupts_lib.o)
 .reginfo       0x00000000       0x18 c:/program files (x86)/microchip/mplabc32/v2.02/bin/../lib/gcc/pic32mx/4.5.1/../../../../pic32mx/lib\libmchp_peripheral_32MX575F256L.a(int_restore_interrupts_lib.o)
 .pdr           0x00000000       0x20 c:/program files (x86)/microchip/mplabc32/v2.02/bin/../lib/gcc/pic32mx/4.5.1/../../../../pic32mx/lib\libmchp_peripheral_32MX575F256L.a(int_restore_interrupts_lib.o)
 .reginfo       0x00000000       0x18 c:/program files (x86)/microchip/mplabc32/v2.02/bin/../lib/gcc/pic32mx/4.5.1/../../../../pic32mx/lib\libmchp_peripheral_32MX575F256L.a(int_enable_mv_int_lib.o)
 .pdr           0x00000000       0x20 c:/program files (x86)/microchip/mplabc32/v2.02/bin/../lib/gcc/pic32mx/4.5.1/../../../../pic32mx/lib\libmchp_peripheral_32MX575F256L.a(int_enable_mv_int_lib.o)
 .reginfo       0x00000000       0x18 c:/program files (x86)/microchip/mplabc32/v2.02/bin/../lib/gcc/pic32mx/4.5.1/../../../../pic32mx/lib\libmchp_peripheral_32MX575F256L.a(int_tbl_lib.o)
 .pdr           0x00000000      0x120 c:/program files (x86)/microchip/mplabc32/v2.02/bin/../lib/gcc/pic32mx/4.5.1/../../../../pic32mx/lib\libmchp_peripheral_32MX575F256L.a(int_tbl_lib.o)
 .reginfo       0x00000000       0x18 c:/program files (x86)/microchip/mplabc32/v2.02/bin/../lib/gcc/pic32mx/4.5.1/../../../../pic32mx/lib\libmchp_peripheral_32MX575F256L.a(uart_lib.o)
 .pdr           0x00000000      0x100 c:/program files (x86)/microchip/mplabc32/v2.02/bin/../lib/gcc/pic32mx/4.5.1/../../../../pic32mx/lib\libmchp_peripheral_32MX575F256L.a(uart_lib.o)
 .reginfo       0x00000000       0x18 c:/program files (x86)/microchip/mplabc32/v2.02/bin/../lib/gcc/pic32mx/4.5.1/../../../../pic32mx/lib\libmchp_peripheral_32MX575F256L.a(puts_uartx_lib_legacy.o)
 .pdr           0x00000000       0x40 c:/program files (x86)/microchip/mplabc32/v2.02/bin/../lib/gcc/pic32mx/4.5.1/../../../../pic32mx/lib\libmchp_peripheral_32MX575F256L.a(puts_uartx_lib_legacy.o)
 .reginfo       0x00000000       0x18 c:/program files (x86)/microchip/mplabc32/v2.02/bin/../lib/gcc/pic32mx/4.5.1/../../../../pic32mx/lib\libmchp_peripheral_32MX575F256L.a(idle_i2c2_lib_legacy.o)
 .pdr           0x00000000       0x20 c:/program files (x86)/microchip/mplabc32/v2.02/bin/../lib/gcc/pic32mx/4.5.1/../../../../pic32mx/lib\libmchp_peripheral_32MX575F256L.a(idle_i2c2_lib_legacy.o)
 .reginfo       0x00000000       0x18 c:/program files (x86)/microchip/mplabc32/v2.02/bin/../lib/gcc/pic32mx/4.5.1/../../../../pic32mx/lib\libmchp_peripheral_32MX575F256L.a(I2CPrivate.o)
 .pdr           0x00000000        0x0 c:/program files (x86)/microchip/mplabc32/v2.02/bin/../lib/gcc/pic32mx/4.5.1/../../../../pic32mx/lib\libmchp_peripheral_32MX575F256L.a(I2CPrivate.o)
 .reginfo       0x00000000       0x18 c:/program files (x86)/microchip/mplabc32/v2.02/bin/../lib/gcc/pic32mx/4.5.1/../../../../pic32mx/lib\libmchp_peripheral_32MX575F256L.a(I2CBusIsIdle.o)
 .pdr           0x00000000       0x20 c:/program files (x86)/microchip/mplabc32/v2.02/bin/../lib/gcc/pic32mx/4.5.1/../../../../pic32mx/lib\libmchp_peripheral_32MX575F256L.a(I2CBusIsIdle.o)
 .reginfo       0x00000000       0x18 c:/program files (x86)/microchip/mplabc32/v2.02/bin/../lib/gcc/pic32mx/4.5.1/../../../../pic32mx/lib\libmchp_peripheral_32MX575F256L.a(I2CByteWasAcknowledged.o)
 .pdr           0x00000000       0x20 c:/program files (x86)/microchip/mplabc32/v2.02/bin/../lib/gcc/pic32mx/4.5.1/../../../../pic32mx/lib\libmchp_peripheral_32MX575F256L.a(I2CByteWasAcknowledged.o)
 .reginfo       0x00000000       0x18 c:/program files (x86)/microchip/mplabc32/v2.02/bin/../lib/gcc/pic32mx/4.5.1/../../../../pic32mx/lib\libmchp_peripheral_32MX575F256L.a(I2CEnable.o)
 .pdr           0x00000000       0x20 c:/program files (x86)/microchip/mplabc32/v2.02/bin/../lib/gcc/pic32mx/4.5.1/../../../../pic32mx/lib\libmchp_peripheral_32MX575F256L.a(I2CEnable.o)
 .reginfo       0x00000000       0x18 c:/program files (x86)/microchip/mplabc32/v2.02/bin/../lib/gcc/pic32mx/4.5.1/../../../../pic32mx/lib\libmchp_peripheral_32MX575F256L.a(I2CGetByte.o)
 .pdr           0x00000000       0x20 c:/program files (x86)/microchip/mplabc32/v2.02/bin/../lib/gcc/pic32mx/4.5.1/../../../../pic32mx/lib\libmchp_peripheral_32MX575F256L.a(I2CGetByte.o)
 .reginfo       0x00000000       0x18 c:/program files (x86)/microchip/mplabc32/v2.02/bin/../lib/gcc/pic32mx/4.5.1/../../../../pic32mx/lib\libmchp_peripheral_32MX575F256L.a(I2CGetStatus.o)
 .pdr           0x00000000       0x20 c:/program files (x86)/microchip/mplabc32/v2.02/bin/../lib/gcc/pic32mx/4.5.1/../../../../pic32mx/lib\libmchp_peripheral_32MX575F256L.a(I2CGetStatus.o)
 .reginfo       0x00000000       0x18 c:/program files (x86)/microchip/mplabc32/v2.02/bin/../lib/gcc/pic32mx/4.5.1/../../../../pic32mx/lib\libmchp_peripheral_32MX575F256L.a(I2CReceivedDataIsAvailable.o)
 .pdr           0x00000000       0x20 c:/program files (x86)/microchip/mplabc32/v2.02/bin/../lib/gcc/pic32mx/4.5.1/../../../../pic32mx/lib\libmchp_peripheral_32MX575F256L.a(I2CReceivedDataIsAvailable.o)
 .reginfo       0x00000000       0x18 c:/program files (x86)/microchip/mplabc32/v2.02/bin/../lib/gcc/pic32mx/4.5.1/../../../../pic32mx/lib\libmchp_peripheral_32MX575F256L.a(I2CReceiverEnable.o)
 .pdr           0x00000000       0x20 c:/program files (x86)/microchip/mplabc32/v2.02/bin/../lib/gcc/pic32mx/4.5.1/../../../../pic32mx/lib\libmchp_peripheral_32MX575F256L.a(I2CReceiverEnable.o)
 .reginfo       0x00000000       0x18 c:/program files (x86)/microchip/mplabc32/v2.02/bin/../lib/gcc/pic32mx/4.5.1/../../../../pic32mx/lib\libmchp_peripheral_32MX575F256L.a(I2CRepeatStart.o)
 .pdr           0x00000000       0x20 c:/program files (x86)/microchip/mplabc32/v2.02/bin/../lib/gcc/pic32mx/4.5.1/../../../../pic32mx/lib\libmchp_peripheral_32MX575F256L.a(I2CRepeatStart.o)
 .reginfo       0x00000000       0x18 c:/program files (x86)/microchip/mplabc32/v2.02/bin/../lib/gcc/pic32mx/4.5.1/../../../../pic32mx/lib\libmchp_peripheral_32MX575F256L.a(I2CSetFrequency.o)
 .pdr           0x00000000       0x20 c:/program files (x86)/microchip/mplabc32/v2.02/bin/../lib/gcc/pic32mx/4.5.1/../../../../pic32mx/lib\libmchp_peripheral_32MX575F256L.a(I2CSetFrequency.o)
 .reginfo       0x00000000       0x18 c:/program files (x86)/microchip/mplabc32/v2.02/bin/../lib/gcc/pic32mx/4.5.1/../../../../pic32mx/lib\libmchp_peripheral_32MX575F256L.a(I2CStart.o)
 .pdr           0x00000000       0x20 c:/program files (x86)/microchip/mplabc32/v2.02/bin/../lib/gcc/pic32mx/4.5.1/../../../../pic32mx/lib\libmchp_peripheral_32MX575F256L.a(I2CStart.o)
 .reginfo       0x00000000       0x18 c:/program files (x86)/microchip/mplabc32/v2.02/bin/../lib/gcc/pic32mx/4.5.1/../../../../pic32mx/lib\libmchp_peripheral_32MX575F256L.a(I2CStop.o)
 .pdr           0x00000000       0x20 c:/program files (x86)/microchip/mplabc32/v2.02/bin/../lib/gcc/pic32mx/4.5.1/../../../../pic32mx/lib\libmchp_peripheral_32MX575F256L.a(I2CStop.o)
 .reginfo       0x00000000       0x18 c:/program files (x86)/microchip/mplabc32/v2.02/bin/../lib/gcc/pic32mx/4.5.1/../../../../pic32mx/lib\libmchp_peripheral_32MX575F256L.a(I2CTransmissionHasCompleted.o)
 .pdr           0x00000000       0x20 c:/program files (x86)/microchip/mplabc32/v2.02/bin/../lib/gcc/pic32mx/4.5.1/../../../../pic32mx/lib\libmchp_peripheral_32MX575F256L.a(I2CTransmissionHasCompleted.o)
 .reginfo       0x00000000       0x18 c:/program files (x86)/microchip/mplabc32/v2.02/bin/../lib/gcc/pic32mx/4.5.1/../../../../pic32mx/lib\libmchp_peripheral_32MX575F256L.a(I2CTransmitterIsReady.o)
 .pdr           0x00000000       0x20 c:/program files (x86)/microchip/mplabc32/v2.02/bin/../lib/gcc/pic32mx/4.5.1/../../../../pic32mx/lib\libmchp_peripheral_32MX575F256L.a(I2CTransmitterIsReady.o)
 .reginfo       0x00000000       0x18 c:/program files (x86)/microchip/mplabc32/v2.02/bin/../lib/gcc/pic32mx/4.5.1/../../../../pic32mx/lib\libmchp_peripheral_32MX575F256L.a(int_enable_interrupts_lib.o)
 .pdr           0x00000000       0x20 c:/program files (x86)/microchip/mplabc32/v2.02/bin/../lib/gcc/pic32mx/4.5.1/../../../../pic32mx/lib\libmchp_peripheral_32MX575F256L.a(int_enable_interrupts_lib.o)
 .reginfo       0x00000000       0x18 c:/program files (x86)/microchip/mplabc32/v2.02/bin/../lib/gcc/pic32mx/4.5.1/../../../../pic32mx/lib\libc.a(errno.o)
 .pdr           0x00000000        0x0 c:/program files (x86)/microchip/mplabc32/v2.02/bin/../lib/gcc/pic32mx/4.5.1/../../../../pic32mx/lib\libc.a(errno.o)
 .reginfo       0x00000000       0x18 c:/program files (x86)/microchip/mplabc32/v2.02/bin/../lib/gcc/pic32mx/4.5.1\libgcc.a(_lshrdi3.o)
 .pdr           0x00000000       0x20 c:/program files (x86)/microchip/mplabc32/v2.02/bin/../lib/gcc/pic32mx/4.5.1\libgcc.a(_lshrdi3.o)
 .reginfo       0x00000000       0x18 c:/program files (x86)/microchip/mplabc32/v2.02/bin/../lib/gcc/pic32mx/4.5.1\libgcc.a(_ashldi3.o)
 .pdr           0x00000000       0x20 c:/program files (x86)/microchip/mplabc32/v2.02/bin/../lib/gcc/pic32mx/4.5.1\libgcc.a(_ashldi3.o)
 .reginfo       0x00000000       0x18 c:/program files (x86)/microchip/mplabc32/v2.02/bin/../lib/gcc/pic32mx/4.5.1/../../../../pic32mx/lib/./proc/32MX575F256L\processor.o
 .pdr           0x00000000        0x0 c:/program files (x86)/microchip/mplabc32/v2.02/bin/../lib/gcc/pic32mx/4.5.1/../../../../pic32mx/lib/./proc/32MX575F256L\processor.o

Memory Configuration

Name             Origin             Length             Attributes
kseg0_program_mem 0x9d000000         0x00040000         xr
kseg0_boot_mem   0x9fc00490         0x00000970
exception_mem    0x9fc01000         0x00001000
kseg1_boot_mem   0xbfc00000         0x00000490
debug_exec_mem   0xbfc02000         0x00000ff0
config3          0xbfc02ff0         0x00000004
config2          0xbfc02ff4         0x00000004
config1          0xbfc02ff8         0x00000004
config0          0xbfc02ffc         0x00000004
kseg1_data_mem   0xa0000000         0x00010000         w !x
sfrs             0xbf800000         0x00100000
configsfrs       0xbfc02ff0         0x00000010
*default*        0x00000000         0xffffffff

Linker script and memory map

LOAD c:/program files (x86)/microchip/mplabc32/v2.02/bin/../lib/gcc/pic32mx/4.5.1/../../../../pic32mx/lib/crt0.o
                0x00000001                _DEBUGGER = 0x1
LOAD obj-tmp\Main.o
LOAD obj-tmp\CustomHTTPApp.o
LOAD obj-tmp\WF_Config.o
LOAD obj-tmp\WifiGDemoMPFSImg.o
LOAD obj-tmp\Announce.o
LOAD obj-tmp\ARCFOUR.o
LOAD obj-tmp\ARP.o
LOAD obj-tmp\AutoIP.o
LOAD obj-tmp\BerkeleyAPI.o
LOAD obj-tmp\BigInt.o
LOAD obj-tmp\BigInt_helper_PIC32.o
LOAD obj-tmp\Delay.o
LOAD obj-tmp\DNS.o
LOAD obj-tmp\DNSs.o
LOAD obj-tmp\DynDNS.o
LOAD obj-tmp\FileSystem.o
LOAD obj-tmp\FTP.o
LOAD obj-tmp\Hashes.o
LOAD obj-tmp\Helpers.o
LOAD obj-tmp\HTTP2.o
LOAD obj-tmp\ICMP.o
LOAD obj-tmp\IP.o
LOAD obj-tmp\LCDBlocking.o
LOAD obj-tmp\MPFS2.o
LOAD obj-tmp\NBNS.o
LOAD obj-tmp\Random.o
LOAD obj-tmp\Reboot.o
LOAD obj-tmp\RSA.o
LOAD obj-tmp\SMTP.o
LOAD obj-tmp\SNMP.o
LOAD obj-tmp\SNMPv3.o
LOAD obj-tmp\SNMPv3USM.o
LOAD obj-tmp\SNTP.o
LOAD obj-tmp\SPIEEPROM.o
LOAD obj-tmp\SPIFlash.o
LOAD obj-tmp\SPIRAM.o
LOAD obj-tmp\SSL.o
LOAD obj-tmp\StackTsk.o
LOAD obj-tmp\TCP.o
LOAD obj-tmp\TCPPerformanceTest.o
LOAD obj-tmp\Telnet.o
LOAD obj-tmp\TFTPc.o
LOAD obj-tmp\Tick.o
LOAD obj-tmp\UART2TCPBridge.o
LOAD obj-tmp\UDP.o
LOAD obj-tmp\UDPPerformanceTest.o
LOAD obj-tmp\ZeroconfHelper.o
LOAD obj-tmp\ZeroconfLinkLocal.o
LOAD obj-tmp\ZeroconfMulticastDNS.o
LOAD obj-tmp\WF_Eint.o
LOAD obj-tmp\WF_pbkdf2.o
LOAD obj-tmp\WFConnectionAlgorithm.o
LOAD obj-tmp\WFConnectionManager.o
LOAD obj-tmp\WFConnectionProfile.o
LOAD obj-tmp\WFConsole.o
LOAD obj-tmp\WFConsoleIfconfig.o
LOAD obj-tmp\WFConsoleIwconfig.o
LOAD obj-tmp\WFConsoleIwpriv.o
LOAD obj-tmp\WFConsoleMsgHandler.o
LOAD obj-tmp\WFConsoleMsgs.o
LOAD obj-tmp\WFDataTxRx.o
LOAD obj-tmp\WFDebugStrings.o
LOAD obj-tmp\WFEasyConfig.o
LOAD obj-tmp\WFEventHandler.o
LOAD obj-tmp\WFInit.o
LOAD obj-tmp\WFPowerSave.o
LOAD obj-tmp\WFScan.o
LOAD obj-tmp\WFTxPower.o
LOAD obj-tmp\WF_Spi.o
LOAD obj-tmp\WFDriverCom_24G.o
LOAD obj-tmp\WFDriverRaw_24G.o
LOAD obj-tmp\WFMac_24G.o
LOAD obj-tmp\WFMgmtMsg_24G.o
LOAD obj-tmp\WFParamMsg_24G.o
LOAD obj-tmp\DHCP.o
LOAD obj-tmp\DHCPs.o
LOAD obj-tmp\i2c_master.o
LOAD obj-tmp\OpenADRClient.o
LOAD obj-tmp\INTiMain.o
LOAD obj-tmp\UARTiMain.o
LOAD obj-tmp\TimeMonitor.o
LOAD obj-tmp\EPRI_UARTLayer.o
LOAD obj-tmp\app_UCM.o
LOAD obj-tmp\Assert.o
                0x00000001                __MPLAB_BUILD = 0x1
                0x00000001                __MPLAB_DEBUG = 0x1
                0x00000001                __MPLAB_DEBUGGER_ICD3 = 0x1
                0x00000001                __ICD2RAM = 0x1
LOAD c:/program files (x86)/microchip/mplabc32/v2.02/bin/../lib/gcc/pic32mx/4.5.1\libgcc.a
START GROUP
LOAD c:/program files (x86)/microchip/mplabc32/v2.02/bin/../lib/gcc/pic32mx/4.5.1/../../../../pic32mx/lib\libdebug.a
LOAD c:/program files (x86)/microchip/mplabc32/v2.02/bin/../lib/gcc/pic32mx/4.5.1/../../../../pic32mx/lib\libc.a
LOAD c:/program files (x86)/microchip/mplabc32/v2.02/bin/../lib/gcc/pic32mx/4.5.1/../../../../pic32mx/lib\libm.a
LOAD c:/program files (x86)/microchip/mplabc32/v2.02/bin/../lib/gcc/pic32mx/4.5.1/../../../../pic32mx/lib\libe.a
LOAD c:/program files (x86)/microchip/mplabc32/v2.02/bin/../lib/gcc/pic32mx/4.5.1/../../../../pic32mx/lib\libdsp.a
LOAD c:/program files (x86)/microchip/mplabc32/v2.02/bin/../lib/gcc/pic32mx/4.5.1/../../../../pic32mx/lib\libmchp_peripheral.a
LOAD c:/program files (x86)/microchip/mplabc32/v2.02/bin/../lib/gcc/pic32mx/4.5.1/../../../../pic32mx/lib\libmchp_peripheral_32MX575F256L.a
END GROUP
LOAD c:/program files (x86)/microchip/mplabc32/v2.02/bin/../lib/gcc/pic32mx/4.5.1\libgcc.a
                0x00000400                PROVIDE (_min_stack_size, 0x400)
                0x00000000                PROVIDE (_min_heap_size, 0x0)
LOAD c:/program files (x86)/microchip/mplabc32/v2.02/bin/../lib/gcc/pic32mx/4.5.1/../../../../pic32mx/lib/./proc/32MX575F256L\processor.o
                0x00000001                PROVIDE (_vector_spacing, 0x1)
                0x9fc01000                _ebase_address = 0x9fc01000
                0xbfc00000                _RESET_ADDR = 0xbfc00000
                0xbfc00380                _BEV_EXCPT_ADDR = 0xbfc00380
                0xbfc00480                _DBG_EXCPT_ADDR = 0xbfc00480
                0xbfc02000                _DBG_CODE_ADDR = 0xbfc02000
                0x00000ff0                _DBG_CODE_SIZE = 0xff0
                0x9fc01180                _GEN_EXCPT_ADDR = (_ebase_address + 0x180)

.config_BFC02FF0
 *(.config_BFC02FF0)

.config_BFC02FF4
                0xbfc02ff4        0x4
 *(.config_BFC02FF4)
 .config_BFC02FF4
                0xbfc02ff4        0x4 obj-tmp\Main.o

.config_BFC02FF8
                0xbfc02ff8        0x4
 *(.config_BFC02FF8)
 .config_BFC02FF8
                0xbfc02ff8        0x4 obj-tmp\Main.o

.config_BFC02FFC
                0xbfc02ffc        0x4
 *(.config_BFC02FFC)
 .config_BFC02FFC
                0xbfc02ffc        0x4 obj-tmp\Main.o
                0xbfc02000                PROVIDE (_DBG_CODE_ADDR, 0xbfc02000)
                0x00000ff0                PROVIDE (_DBG_CODE_SIZE, 0xff0)

.reset          0xbfc00000      0x1f4
 *(.reset)
 .reset         0xbfc00000       0x10 c:/program files (x86)/microchip/mplabc32/v2.02/bin/../lib/gcc/pic32mx/4.5.1/../../../../pic32mx/lib/crt0.o
                0xbfc00000                _reset
 *(.reset.startup)
 .reset.startup
                0xbfc00010      0x1e4 c:/program files (x86)/microchip/mplabc32/v2.02/bin/../lib/gcc/pic32mx/4.5.1/../../../../pic32mx/lib/crt0.o

.bev_excpt      0xbfc00380       0x10
 *(.bev_handler)
 .bev_handler   0xbfc00380       0x10 c:/program files (x86)/microchip/mplabc32/v2.02/bin/../lib/gcc/pic32mx/4.5.1/../../../../pic32mx/lib/crt0.o

.dbg_excpt      0xbfc00480        0x8
                0xbfc00480                . = (. + DEFINED (_DEBUGGER)?0x8:0x0)
 *fill*         0xbfc00480        0x8 00

.dbg_code       0xbfc02000      0xff0
                0xbfc02000                . = (. + DEFINED (_DEBUGGER)?_DBG_CODE_SIZE:0x0)
 *fill*         0xbfc02000      0xff0 00

.app_excpt      0x9fc01180       0x10
 *(.gen_handler)
 .gen_handler   0x9fc01180       0x10 c:/program files (x86)/microchip/mplabc32/v2.02/bin/../lib/gcc/pic32mx/4.5.1/../../../../pic32mx/lib/crt0.o

.vector_0       0x9fc01200        0x0
 *(.vector_0)
                0x00000001                ASSERT (((_vector_spacing == 0x0) || (SIZEOF (.vector_0) <= (_vector_spacing << 0x5))), function at exception vector 0 too large)

.vector_1       0x9fc01220        0x0
 *(.vector_1)
                0x00000001                ASSERT (((_vector_spacing == 0x0) || (SIZEOF (.vector_1) <= (_vector_spacing << 0x5))), function at exception vector 1 too large)

.vector_2       0x9fc01240        0x0
 *(.vector_2)
                0x00000001                ASSERT (((_vector_spacing == 0x0) || (SIZEOF (.vector_2) <= (_vector_spacing << 0x5))), function at exception vector 2 too large)

.vector_3       0x9fc01260        0x0
 *(.vector_3)
                0x00000001                ASSERT (((_vector_spacing == 0x0) || (SIZEOF (.vector_3) <= (_vector_spacing << 0x5))), function at exception vector 3 too large)

.vector_4       0x9fc01280        0x8
 *(.vector_4)
 .vector_4      0x9fc01280        0x8 obj-tmp\Tick.o
                0x00000001                ASSERT (((_vector_spacing == 0x0) || (SIZEOF (.vector_4) <= (_vector_spacing << 0x5))), function at exception vector 4 too large)

.vector_5       0x9fc012a0        0x0
 *(.vector_5)
                0x00000001                ASSERT (((_vector_spacing == 0x0) || (SIZEOF (.vector_5) <= (_vector_spacing << 0x5))), function at exception vector 5 too large)

.vector_6       0x9fc012c0        0x0
 *(.vector_6)
                0x00000001                ASSERT (((_vector_spacing == 0x0) || (SIZEOF (.vector_6) <= (_vector_spacing << 0x5))), function at exception vector 6 too large)

.vector_7       0x9fc012e0        0x0
 *(.vector_7)
                0x00000001                ASSERT (((_vector_spacing == 0x0) || (SIZEOF (.vector_7) <= (_vector_spacing << 0x5))), function at exception vector 7 too large)

.vector_8       0x9fc01300        0x8
 *(.vector_8)
 .vector_8      0x9fc01300        0x8 obj-tmp\TimeMonitor.o
                0x00000001                ASSERT (((_vector_spacing == 0x0) || (SIZEOF (.vector_8) <= (_vector_spacing << 0x5))), function at exception vector 8 too large)

.vector_9       0x9fc01320        0x0
 *(.vector_9)
                0x00000001                ASSERT (((_vector_spacing == 0x0) || (SIZEOF (.vector_9) <= (_vector_spacing << 0x5))), function at exception vector 9 too large)

.vector_10      0x9fc01340        0x0
 *(.vector_10)
                0x00000001                ASSERT (((_vector_spacing == 0x0) || (SIZEOF (.vector_10) <= (_vector_spacing << 0x5))), function at exception vector 10 too large)

.vector_11      0x9fc01360        0x0
 *(.vector_11)
                0x00000001                ASSERT (((_vector_spacing == 0x0) || (SIZEOF (.vector_11) <= (_vector_spacing << 0x5))), function at exception vector 11 too large)

.vector_12      0x9fc01380        0x0
 *(.vector_12)
                0x00000001                ASSERT (((_vector_spacing == 0x0) || (SIZEOF (.vector_12) <= (_vector_spacing << 0x5))), function at exception vector 12 too large)

.vector_13      0x9fc013a0        0x0
 *(.vector_13)
                0x00000001                ASSERT (((_vector_spacing == 0x0) || (SIZEOF (.vector_13) <= (_vector_spacing << 0x5))), function at exception vector 13 too large)

.vector_14      0x9fc013c0        0x0
 *(.vector_14)
                0x00000001                ASSERT (((_vector_spacing == 0x0) || (SIZEOF (.vector_14) <= (_vector_spacing << 0x5))), function at exception vector 14 too large)

.vector_15      0x9fc013e0        0x8
 *(.vector_15)
 .vector_15     0x9fc013e0        0x8 obj-tmp\WF_Eint.o
                0x00000001                ASSERT (((_vector_spacing == 0x0) || (SIZEOF (.vector_15) <= (_vector_spacing << 0x5))), function at exception vector 15 too large)

.vector_16      0x9fc01400        0x0
 *(.vector_16)
                0x00000001                ASSERT (((_vector_spacing == 0x0) || (SIZEOF (.vector_16) <= (_vector_spacing << 0x5))), function at exception vector 16 too large)

.vector_17      0x9fc01420        0x0
 *(.vector_17)
                0x00000001                ASSERT (((_vector_spacing == 0x0) || (SIZEOF (.vector_17) <= (_vector_spacing << 0x5))), function at exception vector 17 too large)

.vector_18      0x9fc01440        0x0
 *(.vector_18)
                0x00000001                ASSERT (((_vector_spacing == 0x0) || (SIZEOF (.vector_18) <= (_vector_spacing << 0x5))), function at exception vector 18 too large)

.vector_19      0x9fc01460        0x0
 *(.vector_19)
                0x00000001                ASSERT (((_vector_spacing == 0x0) || (SIZEOF (.vector_19) <= (_vector_spacing << 0x5))), function at exception vector 19 too large)

.vector_20      0x9fc01480        0x0
 *(.vector_20)
                0x00000001                ASSERT (((_vector_spacing == 0x0) || (SIZEOF (.vector_20) <= (_vector_spacing << 0x5))), function at exception vector 20 too large)

.vector_21      0x9fc014a0        0x0
 *(.vector_21)
                0x00000001                ASSERT (((_vector_spacing == 0x0) || (SIZEOF (.vector_21) <= (_vector_spacing << 0x5))), function at exception vector 21 too large)

.vector_22      0x9fc014c0        0x0
 *(.vector_22)
                0x00000001                ASSERT (((_vector_spacing == 0x0) || (SIZEOF (.vector_22) <= (_vector_spacing << 0x5))), function at exception vector 22 too large)

.vector_23      0x9fc014e0        0x0
 *(.vector_23)
                0x00000001                ASSERT (((_vector_spacing == 0x0) || (SIZEOF (.vector_23) <= (_vector_spacing << 0x5))), function at exception vector 23 too large)

.vector_24      0x9fc01500        0x8
 *(.vector_24)
 .vector_24     0x9fc01500        0x8 obj-tmp\INTiMain.o
                0x00000001                ASSERT (((_vector_spacing == 0x0) || (SIZEOF (.vector_24) <= (_vector_spacing << 0x5))), function at exception vector 24 too large)

.vector_25      0x9fc01520        0x0
 *(.vector_25)
                0x00000001                ASSERT (((_vector_spacing == 0x0) || (SIZEOF (.vector_25) <= (_vector_spacing << 0x5))), function at exception vector 25 too large)

.vector_26      0x9fc01540        0x0
 *(.vector_26)
                0x00000001                ASSERT (((_vector_spacing == 0x0) || (SIZEOF (.vector_26) <= (_vector_spacing << 0x5))), function at exception vector 26 too large)

.vector_27      0x9fc01560        0x0
 *(.vector_27)
                0x00000001                ASSERT (((_vector_spacing == 0x0) || (SIZEOF (.vector_27) <= (_vector_spacing << 0x5))), function at exception vector 27 too large)

.vector_28      0x9fc01580        0x0
 *(.vector_28)
                0x00000001                ASSERT (((_vector_spacing == 0x0) || (SIZEOF (.vector_28) <= (_vector_spacing << 0x5))), function at exception vector 28 too large)

.vector_29      0x9fc015a0        0x0
 *(.vector_29)
                0x00000001                ASSERT (((_vector_spacing == 0x0) || (SIZEOF (.vector_29) <= (_vector_spacing << 0x5))), function at exception vector 29 too large)

.vector_30      0x9fc015c0        0x0
 *(.vector_30)
                0x00000001                ASSERT (((_vector_spacing == 0x0) || (SIZEOF (.vector_30) <= (_vector_spacing << 0x5))), function at exception vector 30 too large)

.vector_31      0x9fc015e0        0x0
 *(.vector_31)
                0x00000001                ASSERT (((_vector_spacing == 0x0) || (SIZEOF (.vector_31) <= (_vector_spacing << 0x5))), function at exception vector 31 too large)

.vector_32      0x9fc01600        0x8
 *(.vector_32)
 .vector_32     0x9fc01600        0x8 obj-tmp\INTiMain.o
                0x00000001                ASSERT (((_vector_spacing == 0x0) || (SIZEOF (.vector_32) <= (_vector_spacing << 0x5))), function at exception vector 32 too large)

.vector_33      0x9fc01620        0x0
 *(.vector_33)
                0x00000001                ASSERT (((_vector_spacing == 0x0) || (SIZEOF (.vector_33) <= (_vector_spacing << 0x5))), function at exception vector 33 too large)

.vector_34      0x9fc01640        0x0
 *(.vector_34)
                0x00000001                ASSERT (((_vector_spacing == 0x0) || (SIZEOF (.vector_34) <= (_vector_spacing << 0x5))), function at exception vector 34 too large)

.vector_35      0x9fc01660        0x0
 *(.vector_35)
                0x00000001                ASSERT (((_vector_spacing == 0x0) || (SIZEOF (.vector_35) <= (_vector_spacing << 0x5))), function at exception vector 35 too large)

.vector_36      0x9fc01680        0x0
 *(.vector_36)
                0x00000001                ASSERT (((_vector_spacing == 0x0) || (SIZEOF (.vector_36) <= (_vector_spacing << 0x5))), function at exception vector 36 too large)

.vector_37      0x9fc016a0        0x0
 *(.vector_37)
                0x00000001                ASSERT (((_vector_spacing == 0x0) || (SIZEOF (.vector_37) <= (_vector_spacing << 0x5))), function at exception vector 37 too large)

.vector_38      0x9fc016c0        0x0
 *(.vector_38)
                0x00000001                ASSERT (((_vector_spacing == 0x0) || (SIZEOF (.vector_38) <= (_vector_spacing << 0x5))), function at exception vector 38 too large)

.vector_39      0x9fc016e0        0x0
 *(.vector_39)
                0x00000001                ASSERT (((_vector_spacing == 0x0) || (SIZEOF (.vector_39) <= (_vector_spacing << 0x5))), function at exception vector 39 too large)

.vector_40      0x9fc01700        0x0
 *(.vector_40)
                0x00000001                ASSERT (((_vector_spacing == 0x0) || (SIZEOF (.vector_40) <= (_vector_spacing << 0x5))), function at exception vector 40 too large)

.vector_41      0x9fc01720        0x0
 *(.vector_41)
                0x00000001                ASSERT (((_vector_spacing == 0x0) || (SIZEOF (.vector_41) <= (_vector_spacing << 0x5))), function at exception vector 41 too large)

.vector_42      0x9fc01740        0x0
 *(.vector_42)
                0x00000001                ASSERT (((_vector_spacing == 0x0) || (SIZEOF (.vector_42) <= (_vector_spacing << 0x5))), function at exception vector 42 too large)

.vector_43      0x9fc01760        0x0
 *(.vector_43)
                0x00000001                ASSERT (((_vector_spacing == 0x0) || (SIZEOF (.vector_43) <= (_vector_spacing << 0x5))), function at exception vector 43 too large)

.vector_44      0x9fc01780        0x0
 *(.vector_44)
                0x00000001                ASSERT (((_vector_spacing == 0x0) || (SIZEOF (.vector_44) <= (_vector_spacing << 0x5))), function at exception vector 44 too large)

.vector_45      0x9fc017a0        0x0
 *(.vector_45)
                0x00000001                ASSERT (((_vector_spacing == 0x0) || (SIZEOF (.vector_45) <= (_vector_spacing << 0x5))), function at exception vector 45 too large)

.vector_46      0x9fc017c0        0x0
 *(.vector_46)
                0x00000001                ASSERT (((_vector_spacing == 0x0) || (SIZEOF (.vector_46) <= (_vector_spacing << 0x5))), function at exception vector 46 too large)

.vector_47      0x9fc017e0        0x0
 *(.vector_47)
                0x00000001                ASSERT (((_vector_spacing == 0x0) || (SIZEOF (.vector_47) <= (_vector_spacing << 0x5))), function at exception vector 47 too large)

.vector_48      0x9fc01800        0x0
 *(.vector_48)
                0x00000001                ASSERT (((_vector_spacing == 0x0) || (SIZEOF (.vector_48) <= (_vector_spacing << 0x5))), function at exception vector 48 too large)

.vector_49      0x9fc01820        0x0
 *(.vector_49)
                0x00000001                ASSERT (((_vector_spacing == 0x0) || (SIZEOF (.vector_49) <= (_vector_spacing << 0x5))), function at exception vector 49 too large)

.vector_50      0x9fc01840        0x0
 *(.vector_50)
                0x00000001                ASSERT (((_vector_spacing == 0x0) || (SIZEOF (.vector_50) <= (_vector_spacing << 0x5))), function at exception vector 50 too large)

.vector_51      0x9fc01860        0x0
 *(.vector_51)
                0x00000001                ASSERT (((_vector_spacing == 0x0) || (SIZEOF (.vector_51) <= (_vector_spacing << 0x5))), function at exception vector 51 too large)

.vector_52      0x9fc01880        0x0
 *(.vector_52)
                0x00000001                ASSERT (((_vector_spacing == 0x0) || (SIZEOF (.vector_52) <= (_vector_spacing << 0x5))), function at exception vector 52 too large)

.vector_53      0x9fc018a0        0x0
 *(.vector_53)
                0x00000001                ASSERT (((_vector_spacing == 0x0) || (SIZEOF (.vector_53) <= (_vector_spacing << 0x5))), function at exception vector 53 too large)

.vector_54      0x9fc018c0        0x0
 *(.vector_54)
                0x00000001                ASSERT (((_vector_spacing == 0x0) || (SIZEOF (.vector_54) <= (_vector_spacing << 0x5))), function at exception vector 54 too large)

.vector_55      0x9fc018e0        0x0
 *(.vector_55)
                0x00000001                ASSERT (((_vector_spacing == 0x0) || (SIZEOF (.vector_55) <= (_vector_spacing << 0x5))), function at exception vector 55 too large)

.vector_56      0x9fc01900        0x0
 *(.vector_56)
                0x00000001                ASSERT (((_vector_spacing == 0x0) || (SIZEOF (.vector_56) <= (_vector_spacing << 0x5))), function at exception vector 56 too large)

.vector_57      0x9fc01920        0x0
 *(.vector_57)
                0x00000001                ASSERT (((_vector_spacing == 0x0) || (SIZEOF (.vector_57) <= (_vector_spacing << 0x5))), function at exception vector 57 too large)

.vector_58      0x9fc01940        0x0
 *(.vector_58)
                0x00000001                ASSERT (((_vector_spacing == 0x0) || (SIZEOF (.vector_58) <= (_vector_spacing << 0x5))), function at exception vector 58 too large)

.vector_59      0x9fc01960        0x0
 *(.vector_59)
                0x00000001                ASSERT (((_vector_spacing == 0x0) || (SIZEOF (.vector_59) <= (_vector_spacing << 0x5))), function at exception vector 59 too large)

.vector_60      0x9fc01980        0x0
 *(.vector_60)
                0x00000001                ASSERT (((_vector_spacing == 0x0) || (SIZEOF (.vector_60) <= (_vector_spacing << 0x5))), function at exception vector 60 too large)

.vector_61      0x9fc019a0        0x0
 *(.vector_61)
                0x00000001                ASSERT (((_vector_spacing == 0x0) || (SIZEOF (.vector_61) <= (_vector_spacing << 0x5))), function at exception vector 61 too large)

.vector_62      0x9fc019c0        0x0
 *(.vector_62)
                0x00000001                ASSERT (((_vector_spacing == 0x0) || (SIZEOF (.vector_62) <= (_vector_spacing << 0x5))), function at exception vector 62 too large)

.vector_63      0x9fc019e0        0x0
 *(.vector_63)
                0x00000001                ASSERT (((_vector_spacing == 0x0) || (SIZEOF (.vector_63) <= (_vector_spacing << 0x5))), function at exception vector 63 too large)

.startup
 *(.startup)

.text
 *(.stub .gnu.linkonce.t.*)
 *(.text.*personality*)
 *(.mips16.fn.*)
 *(.mips16.call.*)
 *(.gnu.warning)

.rodata         0x9d000000       0x60
 *(.rodata.* .gnu.linkonce.r.*)
 .rodata.f5pow  0x9d000000       0x48 c:/program files (x86)/microchip/mplabc32/v2.02/bin/../lib/gcc/pic32mx/4.5.1/../../../../pic32mx/lib\libe.a(_strtod.o)
 .rodata.f5pow  0x9d000048       0x18 c:/program files (x86)/microchip/mplabc32/v2.02/bin/../lib/gcc/pic32mx/4.5.1/../../../../pic32mx/lib\libe.a(_strtof.o)
 *(.rodata1)
                0x9d000060                . = ALIGN (0x4)

.sdata2         0x9d000060        0x0
 *(.sdata2 .sdata2.* .gnu.linkonce.s2.*)
                0x9d000060                . = ALIGN (0x4)

.sbss2          0x9d000060        0x0
 *(.sbss2 .sbss2.* .gnu.linkonce.sb2.*)
                0x9d000060                . = ALIGN (0x4)

.eh_frame_hdr
 *(.eh_frame_hdr)

.eh_frame
 *(.eh_frame)

.dbg_data       0xa0000000      0x200
                0xa0000000                . = (. + DEFINED (_DEBUGGER)?0x200:0x0)
 *fill*         0xa0000000      0x200 00

.persist        0xa0000200        0x0
                0xa0000200                _persist_begin = .
 *(.persist .persist.*)
                0xa0000200                . = ALIGN (0x4)
                0xa0000200                _persist_end = .

.eh_frame       0xa0000200       0x3c
 *(.eh_frame)
 .eh_frame      0xa0000200       0x28 c:/program files (x86)/microchip/mplabc32/v2.02/bin/../lib/gcc/pic32mx/4.5.1\libgcc.a(_udivdi3.o)
 .eh_frame      0xa0000228       0x14 c:/program files (x86)/microchip/mplabc32/v2.02/bin/../lib/gcc/pic32mx/4.5.1\libgcc.a(_umoddi3.o)
                                 0x28 (size before relaxing)
                0xa000023c                . = .
                0xa0008230                _gp = (ALIGN (0x10) + 0x7ff0)

.got
 *(.got.plt)
 *(.got)

.sdata          0xa000023c      0x124
                0xa000023c                _sdata_begin = .
 *(.sdata .sdata.* .gnu.linkonce.s.*)
 .sdata         0xa000023c        0x1 obj-tmp\Main.o
                0xa000023c                g_prescan_waiting
 *fill*         0xa000023d        0x3 00
 .sdata         0xa0000240        0x4 obj-tmp\CustomHTTPApp.o
 .sdata         0xa0000244        0x8 obj-tmp\DNS.o
 .sdata         0xa000024c        0x1 obj-tmp\DNSs.o
 *fill*         0xa000024d        0x3 00
 .sdata         0xa0000250        0x4 obj-tmp\Helpers.o
 .sdata         0xa0000254        0x1 obj-tmp\Reboot.o
 .sdata         0xa0000255        0x2 obj-tmp\TCP.o
 .sdata         0xa0000257        0x2 obj-tmp\UDP.o
 .sdata         0xa0000259        0x1 obj-tmp\ZeroconfHelper.o
                0xa0000259                zeroconf_dbg_level
 *fill*         0xa000025a        0x2 00
 .sdata         0xa000025c        0x8 obj-tmp\ZeroconfLinkLocal.o
 .sdata         0xa0000264        0x8 obj-tmp\ZeroconfMulticastDNS.o
                0xa0000264                CONST_STR_local
                0xa0000268                mDNS_socket
 .sdata         0xa000026c        0x1 obj-tmp\WFConnectionAlgorithm.o
 .sdata         0xa000026d        0x1 obj-tmp\WFPowerSave.o
 *fill*         0xa000026e        0x2 00
 .sdata         0xa0000270        0xc obj-tmp\DHCPs.o
                0xa0000270                bDHCPServerEnabled
 .sdata         0xa000027c       0xbc obj-tmp\OpenADRClient.o
                0xa000027c                strAvailabilityStatus
                0xa0000284                ServerPort
                0xa0000288                AvgPrice
                0xa000028c                LowPrice
                0xa0000290                HighPrice
                0xa0000294                SpecialPrice
                0xa0000298                SmartClient
                0xa000029c                PollRate
                0xa00002a0                EndShedCommand
                0xa00002a8                ShedCommand
                0xa00002b0                CPPCommand
                0xa00002b8                PresentRelPrice
                0xa00002c0                OutsideCommGood
                0xa00002c8                OutsideCommLost
                0xa00002d0                operationModeScheduleText
                0xa00002d4                eventStatusText
                0xa00002d8                operationModeValueText
                0xa00002dc                eventStateIDText
                0xa00002e0                eventIdentifierText
                0xa00002e4                eventModNumberText
                0xa00002e8                programNameText
                0xa00002ec                currentTimeText
                0xa00002f0                drEventDataText
                0xa00002f4                noteTimeText
                0xa00002f8                startTimeText
                0xa00002fc                endTimeText
                0xa0000300                PriceAbsoluteText
                0xa0000304                LoadAmountText
                0xa0000308                PriceMultipleText
                0xa000030c                eventIIText
                0xa0000310                valueText
                0xa0000314                timeOffsetText
                0xa0000318                modeTimeSlotText
                0xa000031c                hrefText
 .sdata         0xa0000338       0x18 obj-tmp\EPRI_UARTLayer.o
                0xa0000338                TimeSyncMsg
                0xa0000340                QueryOpState
                0xa0000348                dl_ack
                0xa000034c                dl_nak
 .sdata         0xa0000350        0x8 obj-tmp\app_UCM.o
                0xa0000350                active_flag
                0xa0000354                spi_timeout
 .sdata         0xa0000358        0x4 c:/program files (x86)/microchip/mplabc32/v2.02/bin/../lib/gcc/pic32mx/4.5.1/../../../../pic32mx/lib\libc.a(_iob.o)
                0xa0000358                _Files
 .sdata         0xa000035c        0x4 c:/program files (x86)/microchip/mplabc32/v2.02/bin/../lib/gcc/pic32mx/4.5.1/../../../../pic32mx/lib\libc.a(c32_uart.o)
                0xa000035c                __C32_UART
                0xa0000360                _sdata_end = .

.lit8
 *(.lit8)

.lit4
 *(.lit4)
                0xa0000360                . = ALIGN (0x4)
                0xa0000360                _data_end = .
                0xa0000360                _bss_begin = .

.sbss           0xa0000360      0x2ac
                0xa0000360                _sbss_begin = .
 *(.dynsbss)
 *(.sbss .sbss.* .gnu.linkonce.sb.*)
 .sbss          0xa0000360       0x10 obj-tmp\Main.o
                0xa0000360                g_scan_done
 .sbss          0xa0000370        0xc obj-tmp\CustomHTTPApp.o
 .sbss          0xa000037c        0x8 obj-tmp\Announce.o
 .sbss          0xa0000384        0x4 obj-tmp\ARP.o
 .sbss          0xa0000388       0x14 obj-tmp\DNS.o
 .sbss          0xa000039c        0x1 obj-tmp\DNSs.o
 *fill*         0xa000039d        0x1 00
 .sbss          0xa000039e        0x4 obj-tmp\IP.o
 *fill*         0xa00003a2        0x2 00
 .sbss          0xa00003a4        0x8 obj-tmp\MPFS2.o
 .sbss          0xa00003ac        0x8 obj-tmp\NBNS.o
 .sbss          0xa00003b4        0x8 obj-tmp\SPIFlash.o
 .sbss          0xa00003bc       0x10 obj-tmp\StackTsk.o
                0xa00003bc                g_DhcpRenew
                0xa00003c0                g_DhcpRetryTimer
 *fill*         0xa00003cc        0x4 00
 .sbss          0xa00003d0       0x10 obj-tmp\Tick.o
 .sbss          0xa00003e0        0x8 obj-tmp\UDP.o
 .sbss          0xa00003e8       0x34 obj-tmp\ZeroconfLinkLocal.o
                0xa00003e8                zcll_state
                0xa00003ec                zcll_dhcp_substate
 .sbss          0xa000041c        0x8 obj-tmp\ZeroconfMulticastDNS.o
                0xa000041c                mDNS_responder_state
 .sbss          0xa0000424        0x4 obj-tmp\WFConnectionManager.o
 .sbss          0xa0000428        0xc obj-tmp\WFPowerSave.o
 .sbss          0xa0000434        0x1 obj-tmp\WF_Spi.o
 *fill*         0xa0000435        0x3 00
 .sbss          0xa0000438       0x28 obj-tmp\WFDriverCom_24G.o
                0xa0000438                g_DhcpSuccessful
                0xa000043c                g_WiFiConnectionChanged
                0xa0000440                g_WiFiConnection
                0xa0000444                g_dhcpInProgress
 .sbss          0xa0000460        0x8 obj-tmp\WFDriverRaw_24G.o
                0xa0000460                g_HostRAWDataPacketReceived
                0xa0000464                g_RawIndexPastEnd
 .sbss          0xa0000468       0x14 obj-tmp\WFMac_24G.o
 .sbss          0xa000047c        0xc obj-tmp\WFMgmtMsg_24G.o
                0xa000047c                g_WaitingForMgmtResponse
 .sbss          0xa0000488        0x4 obj-tmp\DHCP.o
                0xa0000488                DHCPClientInitializedOnce
 .sbss          0xa000048c        0xc obj-tmp\DHCPs.o
 .sbss          0xa0000498       0x48 obj-tmp\OpenADRClient.o
                0xa0000498                OpMode
                0xa000049c                InvalidSocketReboot
                0xa00004a0                DNSTimer
                0xa00004a4                ClientTypeKnown
                0xa00004a8                RequestedClientType
                0xa00004ac                RequestedPriceAbs
                0xa00004b0                SupportsPriceAbs
                0xa00004b4                PriceAbsSupportKnown
                0xa00004b8                RequestedPriceRel
                0xa00004bc                SupportsPriceRel
                0xa00004c0                PriceRelSupportKnown
                0xa00004c4                ResetSGD
                0xa00004c8                CommandType
                0xa00004cc                SmartQuery
                0xa00004d0                OpenADR_TCPState
                0xa00004d4                OpenADR_MsgState
 .sbss          0xa00004e0        0x8 obj-tmp\INTiMain.o
                0xa00004e0                UART2RxCallbackFunction
                0xa00004e4                SPI3RxCallbackFunction
 .sbss          0xa00004e8        0x8 obj-tmp\UARTiMain.o
 .sbss          0xa00004f0        0x8 obj-tmp\TimeMonitor.o
                0xa00004f0                tmTimeMonitorClock
                0xa00004f4                tmTickDownTimeIndex0
 .sbss          0xa00004f8       0x1c obj-tmp\EPRI_UARTLayer.o
                0xa00004f8                OK_TO_READ_232
                0xa00004fc                position_counter
                0xa0000500                numBytes
                0xa0000504                RxBytesReceived
                0xa0000508                OverRide
                0xa000050c                OptOutEvent
                0xa0000510                OptInEvent
 .sbss          0xa0000514       0x44 obj-tmp\app_UCM.o
                0xa0000514                SendToServerTimeout
                0xa0000518                MainSysTickTimer
                0xa000051c                MainSystemUNIXTime
                0xa0000520                WriteBackTimer
                0xa0000524                SendToServer
                0xa0000528                SendOptOut
                0xa000052c                HANMsg_Rdy2Process
                0xa0000530                SendLocalHB
                0xa0000531                eventInProgress
                0xa0000534                SendCancelCommand
                0xa0000538                cancelCommandCtr
                0xa000053c                cancelCommand
                0xa000053d                TryGetNextEvent
                0xa0000540                MainResetTimer
                0xa0000544                gRespRec
                0xa0000548                ZG_Con_Timer
                0xa000054c                SPI_Watch_Timer
                0xa0000550                Scheduling
                0xa0000554                TCPCommState
 .sbss          0xa0000558        0x4 c:/program files (x86)/microchip/mplabc32/v2.02/bin/../lib/gcc/pic32mx/4.5.1/../../../../pic32mx/lib\libc.a(ctime.o)
                0xa0000558                time_zone
 .sbss          0xa000055c        0x1 c:/program files (x86)/microchip/mplabc32/v2.02/bin/../lib/gcc/pic32mx/4.5.1/../../../../pic32mx/lib\libc.a(_iob.o)
                0xa000055c                _outdone
 *fill*         0xa000055d        0x3 00
 .sbss          0xa0000560        0x4 c:/program files (x86)/microchip/mplabc32/v2.02/bin/../lib/gcc/pic32mx/4.5.1/../../../../pic32mx/lib\libc.a(errno.o)
                0xa0000560                errno
 *(.scommon)
 .scommon       0xa0000564        0x1 obj-tmp\HTTP2.o
                0xa0000564                curHTTPID
 *fill*         0xa0000565        0x1 00
 .scommon       0xa0000566        0x6 obj-tmp\UDP.o
                0xa0000566                activeUDPSocket
                0xa0000568                UDPTxCount
                0xa000056a                UDPRxCount
 .scommon       0xa000056c        0x6 obj-tmp\WFEasyConfig.o
                0xa000056c                g_ScanCtx
 *fill*         0xa0000572        0x2 00
 .scommon       0xa0000574        0x4 obj-tmp\WFPowerSave.o
                0xa0000574                g_rxDtim
 .scommon       0xa0000578        0x8 obj-tmp\WFDriverCom_24G.o
                0xa0000578                RawMoveState
 .scommon       0xa0000580        0x2 obj-tmp\WFDriverRaw_24G.o
                0xa0000580                RawWindowState
 *fill*         0xa0000582        0x2 00
 .scommon       0xa0000584        0x4 obj-tmp\WFMac_24G.o
                0xa0000584                WF_hibernate
                0xa0000586                g_rxBufferLength
 .scommon       0xa0000588       0x68 obj-tmp\OpenADRClient.o
                0xa0000588                CommTimer
                0xa000058c                DebugCnt
                0xa0000590                DNS_IP_ADDR
                0xa0000594                eventStatus
                0xa000059c                tzsec
                0xa00005a0                GetEventStateTimer
                0xa00005a4                tempbreakpoint
                0xa00005a8                LengthOfContent
                0xa00005ac                UTCLastServerTime
                0xa00005b0                TCP_blackout
                0xa00005b4                SQueryTimer
                0xa00005b8                LastServerTicks
                0xa00005bc                HTTPResponse
                0xa00005c0                FoundHTTPHeader
                0xa00005c4                Local_Time
                0xa00005c8                UTCServerTime
                0xa00005cc                payloadptr
                0xa00005d0                LoadFactor
                0xa00005d4                FoundHTTPBody
                0xa00005d8                commGood
                0xa00005dc                UTCTime
                0xa00005e0                commGoodOld
                0xa00005e4                operationModeValue
                0xa00005ec                DelayTimer
 .scommon       0xa00005f0       0x10 obj-tmp\EPRI_UARTLayer.o
                0xa00005f0                IdleNormal
                0xa00005f4                TxMsgState
                0xa00005f8                RunningNormal
                0xa00005fc                RxMsgState
 .scommon       0xa0000600        0xc obj-tmp\app_UCM.o
                0xa0000600                lostlink_flag
                0xa0000604                curOptouthash
                0xa0000608                TCP_Message
                0xa000060c                _sbss_end = .

.bss            0xa000060c     0x33ac
 *(.dynbss)
 *(COMMON)
 COMMON         0xa000060c       0xc2 obj-tmp\Main.o
                0xa000060c                sbuf
                0xa0000634                AppConfig
 *fill*         0xa00006ce        0x2 00
 COMMON         0xa00006d0       0x9c obj-tmp\HTTP2.o
                0xa00006d0                curHTTP
                0xa000075c                httpStubs
 COMMON         0xa000076c        0xa obj-tmp\StackTsk.o
                0xa000076c                remoteNode
 *fill*         0xa0000776        0x2 00
 COMMON         0xa0000778       0xe0 obj-tmp\UDP.o
                0xa0000778                UDPSocketInfo
 COMMON         0xa0000858      0xbe8 obj-tmp\WFEasyConfig.o
                0xa0000858                preScanResult
                0xa00013ac                g_easyConfigCtx
 COMMON         0xa0001440       0x78 obj-tmp\DHCPs.o
                0xa0001440                DhcpIpPool
 COMMON         0xa00014b8     0x2218 obj-tmp\OpenADRClient.o
                0xa00014b8                SourceUnamePw
                0xa00014ec                RsBuf
                0xa0001508                eventStateID
                0xa0001528                EncodedUNPW
                0xa0001574                currentTime
                0xa0001588                GMTstr
                0xa00015bc                eventModNumber
                0xa00015d0                notificationTime
                0xa00015f8                HttpLocation
                0xa000162c                startTime
                0xa0001654                pbuf
                0xa00016cc                eventStateQ
                0xa000199c                modeTimeSlot
                0xa00019b0                eventIdentifier
                0xa00019d0                endTime
                0xa00019f8                ActiveEventID
                0xa0001a18                TCPPutBuffer
                0xa0001e00                TCPpayload_buf
                0xa000369c                programName
                0xa00036bc                timeOffset
 COMMON         0xa00036d0       0x30 obj-tmp\TimeMonitor.o
                0xa00036d0                tmCallbackFunctionI
                0xa00036e8                tmTickDownTimeI
 COMMON         0xa0003700      0x2b8 obj-tmp\EPRI_UARTLayer.o
                0xa0003700                RxBuf
                0xa000382c                NullRSBuf
                0xa0003848                txmessage
                0xa0003854                AsyncTxRSBuf
                0xa0003870                AsyncRxRSBuf
                0xa000388c                rxmessage
                0xa00039b8                . = ALIGN (0x4)
                0xa00039b8                . = ALIGN (0x4)
                0xa00039b8                _end = .
                0xa00039b8                _bss_end = .
                0x00010000                _bmxdudba_address = 0x10000
                0x00010000                _bmxdupba_address = 0x10000

/DISCARD/
 *(.pdr)
 *(.reginfo)
 *(.rel.dyn)
 *(.note.GNU-stack)
 *(.note.GNU-stack)
 *(.gnu_debuglink)
 *(.gnu.lto_*)
 *(.discard)

.stab
 *(.stab)

.stabstr
 *(.stabstr)

.stab.excl
 *(.stab.excl)

.stab.exclstr
 *(.stab.exclstr)

.stab.index
 *(.stab.index)

.stab.indexstr
 *(.stab.indexstr)

.comment        0x00000000      0x5fb
 *(.comment)
 .comment       0x00000000       0x51 obj-tmp\Main.o
                                 0x52 (size before relaxing)
 .comment       0x00000000       0x52 obj-tmp\CustomHTTPApp.o
 .comment       0x00000000       0x52 obj-tmp\WF_Config.o
 .comment       0x00000000       0x52 obj-tmp\WifiGDemoMPFSImg.o
 .comment       0x00000000       0x52 obj-tmp\Announce.o
 .comment       0x00000000       0x52 obj-tmp\ARCFOUR.o
 .comment       0x00000000       0x52 obj-tmp\ARP.o
 .comment       0x00000000       0x52 obj-tmp\AutoIP.o
 .comment       0x00000000       0x52 obj-tmp\BerkeleyAPI.o
 .comment       0x00000000       0x52 obj-tmp\BigInt.o
 .comment       0x00000000       0x52 obj-tmp\Delay.o
 .comment       0x00000000       0x52 obj-tmp\DNS.o
 .comment       0x00000000       0x52 obj-tmp\DNSs.o
 .comment       0x00000000       0x52 obj-tmp\DynDNS.o
 .comment       0x00000000       0x52 obj-tmp\FileSystem.o
 .comment       0x00000000       0x52 obj-tmp\FTP.o
 .comment       0x00000000       0x52 obj-tmp\Hashes.o
 .comment       0x00000000       0x52 obj-tmp\Helpers.o
 .comment       0x00000000       0x52 obj-tmp\HTTP2.o
 .comment       0x00000000       0x52 obj-tmp\ICMP.o
 .comment       0x00000000       0x52 obj-tmp\IP.o
 .comment       0x00000000       0x52 obj-tmp\LCDBlocking.o
 .comment       0x00000000       0x52 obj-tmp\MPFS2.o
 .comment       0x00000000       0x52 obj-tmp\NBNS.o
 .comment       0x00000000       0x52 obj-tmp\Random.o
 .comment       0x00000000       0x52 obj-tmp\Reboot.o
 .comment       0x00000000       0x52 obj-tmp\RSA.o
 .comment       0x00000000       0x52 obj-tmp\SMTP.o
 .comment       0x00000000       0x52 obj-tmp\SNMP.o
 .comment       0x00000000       0x52 obj-tmp\SNMPv3.o
 .comment       0x00000000       0x52 obj-tmp\SNMPv3USM.o
 .comment       0x00000000       0x52 obj-tmp\SNTP.o
 .comment       0x00000000       0x52 obj-tmp\SPIEEPROM.o
 .comment       0x00000000       0x52 obj-tmp\SPIFlash.o
 .comment       0x00000000       0x52 obj-tmp\SPIRAM.o
 .comment       0x00000000       0x52 obj-tmp\SSL.o
 .comment       0x00000000       0x52 obj-tmp\StackTsk.o
 .comment       0x00000000       0x52 obj-tmp\TCP.o
 .comment       0x00000000       0x52 obj-tmp\TCPPerformanceTest.o
 .comment       0x00000000       0x52 obj-tmp\Telnet.o
 .comment       0x00000000       0x52 obj-tmp\TFTPc.o
 .comment       0x00000000       0x52 obj-tmp\Tick.o
 .comment       0x00000000       0x52 obj-tmp\UART2TCPBridge.o
 .comment       0x00000000       0x52 obj-tmp\UDP.o
 .comment       0x00000000       0x52 obj-tmp\UDPPerformanceTest.o
 .comment       0x00000000       0x52 obj-tmp\ZeroconfHelper.o
 .comment       0x00000000       0x52 obj-tmp\ZeroconfLinkLocal.o
 .comment       0x00000000       0x52 obj-tmp\ZeroconfMulticastDNS.o
 .comment       0x00000000       0x52 obj-tmp\WF_Eint.o
 .comment       0x00000000       0x52 obj-tmp\WF_pbkdf2.o
 .comment       0x00000000       0x52 obj-tmp\WFConnectionAlgorithm.o
 .comment       0x00000000       0x52 obj-tmp\WFConnectionManager.o
 .comment       0x00000000       0x52 obj-tmp\WFConnectionProfile.o
 .comment       0x00000000       0x52 obj-tmp\WFConsole.o
 .comment       0x00000000       0x52 obj-tmp\WFConsoleIfconfig.o
 .comment       0x00000000       0x52 obj-tmp\WFConsoleIwconfig.o
 .comment       0x00000000       0x52 obj-tmp\WFConsoleIwpriv.o
 .comment       0x00000000       0x52 obj-tmp\WFConsoleMsgHandler.o
 .comment       0x00000000       0x52 obj-tmp\WFConsoleMsgs.o
 .comment       0x00000000       0x52 obj-tmp\WFDataTxRx.o
 .comment       0x00000000       0x52 obj-tmp\WFDebugStrings.o
 .comment       0x00000000       0x52 obj-tmp\WFEasyConfig.o
 .comment       0x00000000       0x52 obj-tmp\WFEventHandler.o
 .comment       0x00000000       0x52 obj-tmp\WFInit.o
 .comment       0x00000000       0x52 obj-tmp\WFPowerSave.o
 .comment       0x00000000       0x52 obj-tmp\WFScan.o
 .comment       0x00000000       0x52 obj-tmp\WFTxPower.o
 .comment       0x00000000       0x52 obj-tmp\WF_Spi.o
 .comment       0x00000000       0x52 obj-tmp\WFDriverCom_24G.o
 .comment       0x00000000       0x52 obj-tmp\WFDriverRaw_24G.o
 .comment       0x00000000       0x52 obj-tmp\WFMac_24G.o
 .comment       0x00000000       0x52 obj-tmp\WFMgmtMsg_24G.o
 .comment       0x00000000       0x52 obj-tmp\WFParamMsg_24G.o
 .comment       0x00000000       0x52 obj-tmp\DHCP.o
 .comment       0x00000000       0x52 obj-tmp\DHCPs.o
 .comment       0x00000000       0x52 obj-tmp\i2c_master.o
 .comment       0x00000000       0x52 obj-tmp\OpenADRClient.o
 .comment       0x00000000       0x52 obj-tmp\INTiMain.o
 .comment       0x00000000       0x52 obj-tmp\UARTiMain.o
 .comment       0x00000000       0x52 obj-tmp\TimeMonitor.o
 .comment       0x00000000       0x52 obj-tmp\EPRI_UARTLayer.o
 .comment       0x00000000       0x52 obj-tmp\app_UCM.o
 .comment       0x00000000       0x52 obj-tmp\Assert.o
 .comment       0x00000000       0x52 c:/program files (x86)/microchip/mplabc32/v2.02/bin/../lib/gcc/pic32mx/4.5.1\libgcc.a(_udivdi3.o)
 .comment       0x00000000       0x52 c:/program files (x86)/microchip/mplabc32/v2.02/bin/../lib/gcc/pic32mx/4.5.1\libgcc.a(_umoddi3.o)
 .comment       0x00000000       0x52 c:/program files (x86)/microchip/mplabc32/v2.02/bin/../lib/gcc/pic32mx/4.5.1\libgcc.a(floatunsisf.o)
 .comment       0x00000051       0x55 c:/program files (x86)/microchip/mplabc32/v2.02/bin/../lib/gcc/pic32mx/4.5.1/../../../../pic32mx/lib\libc.a(memcmp.o)
                                 0x56 (size before relaxing)
 .comment       0x000000a6       0x55 c:/program files (x86)/microchip/mplabc32/v2.02/bin/../lib/gcc/pic32mx/4.5.1/../../../../pic32mx/lib\libc.a(memset.o)
                                 0x56 (size before relaxing)
 .comment       0x000000fb       0x55 c:/program files (x86)/microchip/mplabc32/v2.02/bin/../lib/gcc/pic32mx/4.5.1/../../../../pic32mx/lib\libc.a(strcmp.o)
                                 0x56 (size before relaxing)
 .comment       0x00000150       0x55 c:/program files (x86)/microchip/mplabc32/v2.02/bin/../lib/gcc/pic32mx/4.5.1/../../../../pic32mx/lib\libc.a(strcpy.o)
                                 0x56 (size before relaxing)
 .comment       0x000001a5       0x55 c:/program files (x86)/microchip/mplabc32/v2.02/bin/../lib/gcc/pic32mx/4.5.1/../../../../pic32mx/lib\libc.a(strlen.o)
                                 0x56 (size before relaxing)
 .comment       0x00000000       0x52 c:/program files (x86)/microchip/mplabc32/v2.02/bin/../lib/gcc/pic32mx/4.5.1/../../../../pic32mx/lib\libc.a(atoi.o)
 .comment       0x00000000       0x52 c:/program files (x86)/microchip/mplabc32/v2.02/bin/../lib/gcc/pic32mx/4.5.1/../../../../pic32mx/lib\libc.a(atol.o)
 .comment       0x00000000       0x52 c:/program files (x86)/microchip/mplabc32/v2.02/bin/../lib/gcc/pic32mx/4.5.1/../../../../pic32mx/lib\libc.a(ctime.o)
 .comment       0x000001fa       0x4e c:/program files (x86)/microchip/mplabc32/v2.02/bin/../lib/gcc/pic32mx/4.5.1/../../../../pic32mx/lib\libc.a(ctype.o)
                                 0xa0 (size before relaxing)
 .comment       0x00000000       0x52 c:/program files (x86)/microchip/mplabc32/v2.02/bin/../lib/gcc/pic32mx/4.5.1/../../../../pic32mx/lib\libc.a(mktime.o)
 .comment       0x00000000       0x52 c:/program files (x86)/microchip/mplabc32/v2.02/bin/../lib/gcc/pic32mx/4.5.1/../../../../pic32mx/lib\libc.a(puts.o)
 .comment       0x00000000       0x52 c:/program files (x86)/microchip/mplabc32/v2.02/bin/../lib/gcc/pic32mx/4.5.1/../../../../pic32mx/lib\libc.a(strcat.o)
 .comment       0x00000000       0x52 c:/program files (x86)/microchip/mplabc32/v2.02/bin/../lib/gcc/pic32mx/4.5.1/../../../../pic32mx/lib\libc.a(strchr.o)
 .comment       0x00000000       0x52 c:/program files (x86)/microchip/mplabc32/v2.02/bin/../lib/gcc/pic32mx/4.5.1/../../../../pic32mx/lib\libc.a(strncmp.o)
 .comment       0x00000000       0x52 c:/program files (x86)/microchip/mplabc32/v2.02/bin/../lib/gcc/pic32mx/4.5.1/../../../../pic32mx/lib\libc.a(strncpy.o)
 .comment       0x00000000       0x52 c:/program files (x86)/microchip/mplabc32/v2.02/bin/../lib/gcc/pic32mx/4.5.1/../../../../pic32mx/lib\libc.a(strrchr.o)
 .comment       0x00000000       0x52 c:/program files (x86)/microchip/mplabc32/v2.02/bin/../lib/gcc/pic32mx/4.5.1/../../../../pic32mx/lib\libc.a(strstr.o)
 .comment       0x00000000       0x52 c:/program files (x86)/microchip/mplabc32/v2.02/bin/../lib/gcc/pic32mx/4.5.1/../../../../pic32mx/lib\libc.a(strtok.o)
 .comment       0x00000000       0x52 c:/program files (x86)/microchip/mplabc32/v2.02/bin/../lib/gcc/pic32mx/4.5.1/../../../../pic32mx/lib\libc.a(printf_cdnopsuxX.eo)
 .comment       0x00000000       0x52 c:/program files (x86)/microchip/mplabc32/v2.02/bin/../lib/gcc/pic32mx/4.5.1/../../../../pic32mx/lib\libc.a(sprintf_cdnopsuxX.eo)
 .comment       0x00000000       0x52 c:/program files (x86)/microchip/mplabc32/v2.02/bin/../lib/gcc/pic32mx/4.5.1/../../../../pic32mx/lib\libc.a(sscanf_cdfFnopuxX.eo)
 .comment       0x00000000       0x52 c:/program files (x86)/microchip/mplabc32/v2.02/bin/../lib/gcc/pic32mx/4.5.1/../../../../pic32mx/lib\libc.a(default-bootstrap-exception-handler.o)
 .comment       0x00000000       0x52 c:/program files (x86)/microchip/mplabc32/v2.02/bin/../lib/gcc/pic32mx/4.5.1/../../../../pic32mx/lib\libc.a(default-on-reset.o)
 .comment       0x00000000       0x52 c:/program files (x86)/microchip/mplabc32/v2.02/bin/../lib/gcc/pic32mx/4.5.1/../../../../pic32mx/lib\libc.a(default-on-bootstrap.o)
 .comment       0x00000000       0x52 c:/program files (x86)/microchip/mplabc32/v2.02/bin/../lib/gcc/pic32mx/4.5.1/../../../../pic32mx/lib\libc.a(_iob.o)
 .comment       0x00000000       0x52 c:/program files (x86)/microchip/mplabc32/v2.02/bin/../lib/gcc/pic32mx/4.5.1/../../../../pic32mx/lib\libc.a(_fputc_simple.o)
 .comment       0x00000000       0x52 c:/program files (x86)/microchip/mplabc32/v2.02/bin/../lib/gcc/pic32mx/4.5.1/../../../../pic32mx/lib\libc.a(strcspn.o)
 .comment       0x00000000       0x52 c:/program files (x86)/microchip/mplabc32/v2.02/bin/../lib/gcc/pic32mx/4.5.1/../../../../pic32mx/lib\libc.a(strspn.o)
 .comment       0x00000000       0x52 c:/program files (x86)/microchip/mplabc32/v2.02/bin/../lib/gcc/pic32mx/4.5.1/../../../../pic32mx/lib\libc.a(doprnt_cdnopsuxX.eo)
 .comment       0x00000000       0x52 c:/program files (x86)/microchip/mplabc32/v2.02/bin/../lib/gcc/pic32mx/4.5.1/../../../../pic32mx/lib\libc.a(doscan_cdfFnopuxX.eo)
 .comment       0x00000000       0x52 c:/program files (x86)/microchip/mplabc32/v2.02/bin/../lib/gcc/pic32mx/4.5.1/../../../../pic32mx/lib\libc.a(doscan_cdnopuxX.eo)
 .comment       0x00000000       0x52 c:/program files (x86)/microchip/mplabc32/v2.02/bin/../lib/gcc/pic32mx/4.5.1/../../../../pic32mx/lib\libc.a(write.o)
 .comment       0x00000000       0x52 c:/program files (x86)/microchip/mplabc32/v2.02/bin/../lib/gcc/pic32mx/4.5.1/../../../../pic32mx/lib\libc.a(_flsbuf_simple.o)
 .comment       0x00000000       0x52 c:/program files (x86)/microchip/mplabc32/v2.02/bin/../lib/gcc/pic32mx/4.5.1/../../../../pic32mx/lib\libc.a(fgetc.o)
 .comment       0x00000248       0x4f c:/program files (x86)/microchip/mplabc32/v2.02/bin/../lib/gcc/pic32mx/4.5.1/../../../../pic32mx/lib\libc.a(ctypef.o)
                                 0xa1 (size before relaxing)
 .comment       0x00000000       0x52 c:/program files (x86)/microchip/mplabc32/v2.02/bin/../lib/gcc/pic32mx/4.5.1/../../../../pic32mx/lib\libc.a(strtof.o)
 .comment       0x00000000       0x52 c:/program files (x86)/microchip/mplabc32/v2.02/bin/../lib/gcc/pic32mx/4.5.1/../../../../pic32mx/lib\libc.a(strtod.o)
 .comment       0x00000000       0x52 c:/program files (x86)/microchip/mplabc32/v2.02/bin/../lib/gcc/pic32mx/4.5.1/../../../../pic32mx/lib\libc.a(ungetc.o)
 .comment       0x00000000       0x52 c:/program files (x86)/microchip/mplabc32/v2.02/bin/../lib/gcc/pic32mx/4.5.1/../../../../pic32mx/lib\libc.a(filbuf.o)
 .comment       0x00000000       0x52 c:/program files (x86)/microchip/mplabc32/v2.02/bin/../lib/gcc/pic32mx/4.5.1/../../../../pic32mx/lib\libc.a(fflush.o)
 .comment       0x00000000       0x52 c:/program files (x86)/microchip/mplabc32/v2.02/bin/../lib/gcc/pic32mx/4.5.1/../../../../pic32mx/lib\libc.a(read.o)
 .comment       0x00000000       0x52 c:/program files (x86)/microchip/mplabc32/v2.02/bin/../lib/gcc/pic32mx/4.5.1/../../../../pic32mx/lib\libc.a(c32_uart.o)
 .comment       0x00000000       0x52 c:/program files (x86)/microchip/mplabc32/v2.02/bin/../lib/gcc/pic32mx/4.5.1/../../../../pic32mx/lib\libm.a(w_sqrtf.o)
 .comment       0x00000000       0x52 c:/program files (x86)/microchip/mplabc32/v2.02/bin/../lib/gcc/pic32mx/4.5.1/../../../../pic32mx/lib\libm.a(s_lib_ver.o)
 .comment       0x00000297       0x9d c:/program files (x86)/microchip/mplabc32/v2.02/bin/../lib/gcc/pic32mx/4.5.1/../../../../pic32mx/lib\libe.a(_strtod.o)
                                 0xef (size before relaxing)
 .comment       0x00000334       0x4f c:/program files (x86)/microchip/mplabc32/v2.02/bin/../lib/gcc/pic32mx/4.5.1/../../../../pic32mx/lib\libe.a(_strtof.o)
                                 0xef (size before relaxing)
 .comment       0x00000383       0x4e c:/program files (x86)/microchip/mplabc32/v2.02/bin/../lib/gcc/pic32mx/4.5.1/../../../../pic32mx/lib\libe.a(_divdf3.o)
                                 0xee (size before relaxing)
 .comment       0x000003d1       0x4e c:/program files (x86)/microchip/mplabc32/v2.02/bin/../lib/gcc/pic32mx/4.5.1/../../../../pic32mx/lib\libe.a(_muldf3.o)
                                 0xee (size before relaxing)
 .comment       0x0000041f       0x4e c:/program files (x86)/microchip/mplabc32/v2.02/bin/../lib/gcc/pic32mx/4.5.1/../../../../pic32mx/lib\libe.a(_negdf2.o)
                                 0xee (size before relaxing)
 .comment       0x0000046d       0x4e c:/program files (x86)/microchip/mplabc32/v2.02/bin/../lib/gcc/pic32mx/4.5.1/../../../../pic32mx/lib\libe.a(_adddf3.o)
                                 0xee (size before relaxing)
 .comment       0x000004bb       0x4f c:/program files (x86)/microchip/mplabc32/v2.02/bin/../lib/gcc/pic32mx/4.5.1/../../../../pic32mx/lib\libe.a(_floatsidf.o)
                                 0xef (size before relaxing)
 .comment       0x0000050a       0x50 c:/program files (x86)/microchip/mplabc32/v2.02/bin/../lib/gcc/pic32mx/4.5.1/../../../../pic32mx/lib\libe.a(_ldexp.o)
                                 0xf0 (size before relaxing)
 .comment       0x0000055a       0x50 c:/program files (x86)/microchip/mplabc32/v2.02/bin/../lib/gcc/pic32mx/4.5.1/../../../../pic32mx/lib\libe.a(_ldexpf.o)
                                 0xf0 (size before relaxing)
 .comment       0x000005aa       0x51 c:/program files (x86)/microchip/mplabc32/v2.02/bin/../lib/gcc/pic32mx/4.5.1/../../../../pic32mx/lib\libmchp_peripheral_32MX575F256L.a(soft_reset_lib.o)
                                 0x52 (size before relaxing)
 .comment       0x00000000       0x52 c:/program files (x86)/microchip/mplabc32/v2.02/bin/../lib/gcc/pic32mx/4.5.1/../../../../pic32mx/lib\libmchp_peripheral_32MX575F256L.a(pcache.o)
 .comment       0x00000000       0x52 c:/program files (x86)/microchip/mplabc32/v2.02/bin/../lib/gcc/pic32mx/4.5.1/../../../../pic32mx/lib\libmchp_peripheral_32MX575F256L.a(int_disable_interrupts_lib.o)
 .comment       0x00000000       0x52 c:/program files (x86)/microchip/mplabc32/v2.02/bin/../lib/gcc/pic32mx/4.5.1/../../../../pic32mx/lib\libmchp_peripheral_32MX575F256L.a(int_restore_interrupts_lib.o)
 .comment       0x00000000       0x52 c:/program files (x86)/microchip/mplabc32/v2.02/bin/../lib/gcc/pic32mx/4.5.1/../../../../pic32mx/lib\libmchp_peripheral_32MX575F256L.a(int_enable_mv_int_lib.o)
 .comment       0x00000000       0x52 c:/program files (x86)/microchip/mplabc32/v2.02/bin/../lib/gcc/pic32mx/4.5.1/../../../../pic32mx/lib\libmchp_peripheral_32MX575F256L.a(int_tbl_lib.o)
 .comment       0x00000000       0x52 c:/program files (x86)/microchip/mplabc32/v2.02/bin/../lib/gcc/pic32mx/4.5.1/../../../../pic32mx/lib\libmchp_peripheral_32MX575F256L.a(uart_lib.o)
 .comment       0x00000000       0x52 c:/program files (x86)/microchip/mplabc32/v2.02/bin/../lib/gcc/pic32mx/4.5.1/../../../../pic32mx/lib\libmchp_peripheral_32MX575F256L.a(puts_uartx_lib_legacy.o)
 .comment       0x00000000       0x52 c:/program files (x86)/microchip/mplabc32/v2.02/bin/../lib/gcc/pic32mx/4.5.1/../../../../pic32mx/lib\libmchp_peripheral_32MX575F256L.a(idle_i2c2_lib_legacy.o)
 .comment       0x00000000       0x52 c:/program files (x86)/microchip/mplabc32/v2.02/bin/../lib/gcc/pic32mx/4.5.1/../../../../pic32mx/lib\libmchp_peripheral_32MX575F256L.a(I2CPrivate.o)
 .comment       0x00000000       0x52 c:/program files (x86)/microchip/mplabc32/v2.02/bin/../lib/gcc/pic32mx/4.5.1/../../../../pic32mx/lib\libmchp_peripheral_32MX575F256L.a(I2CBusIsIdle.o)
 .comment       0x00000000       0x52 c:/program files (x86)/microchip/mplabc32/v2.02/bin/../lib/gcc/pic32mx/4.5.1/../../../../pic32mx/lib\libmchp_peripheral_32MX575F256L.a(I2CByteWasAcknowledged.o)
 .comment       0x00000000       0x52 c:/program files (x86)/microchip/mplabc32/v2.02/bin/../lib/gcc/pic32mx/4.5.1/../../../../pic32mx/lib\libmchp_peripheral_32MX575F256L.a(I2CEnable.o)
 .comment       0x00000000       0x52 c:/program files (x86)/microchip/mplabc32/v2.02/bin/../lib/gcc/pic32mx/4.5.1/../../../../pic32mx/lib\libmchp_peripheral_32MX575F256L.a(I2CGetByte.o)
 .comment       0x00000000       0x52 c:/program files (x86)/microchip/mplabc32/v2.02/bin/../lib/gcc/pic32mx/4.5.1/../../../../pic32mx/lib\libmchp_peripheral_32MX575F256L.a(I2CGetStatus.o)
 .comment       0x00000000       0x52 c:/program files (x86)/microchip/mplabc32/v2.02/bin/../lib/gcc/pic32mx/4.5.1/../../../../pic32mx/lib\libmchp_peripheral_32MX575F256L.a(I2CReceivedDataIsAvailable.o)
 .comment       0x00000000       0x52 c:/program files (x86)/microchip/mplabc32/v2.02/bin/../lib/gcc/pic32mx/4.5.1/../../../../pic32mx/lib\libmchp_peripheral_32MX575F256L.a(I2CReceiverEnable.o)
 .comment       0x00000000       0x52 c:/program files (x86)/microchip/mplabc32/v2.02/bin/../lib/gcc/pic32mx/4.5.1/../../../../pic32mx/lib\libmchp_peripheral_32MX575F256L.a(I2CRepeatStart.o)
 .comment       0x00000000       0x52 c:/program files (x86)/microchip/mplabc32/v2.02/bin/../lib/gcc/pic32mx/4.5.1/../../../../pic32mx/lib\libmchp_peripheral_32MX575F256L.a(I2CSetFrequency.o)
 .comment       0x00000000       0x52 c:/program files (x86)/microchip/mplabc32/v2.02/bin/../lib/gcc/pic32mx/4.5.1/../../../../pic32mx/lib\libmchp_peripheral_32MX575F256L.a(I2CStart.o)
 .comment       0x00000000       0x52 c:/program files (x86)/microchip/mplabc32/v2.02/bin/../lib/gcc/pic32mx/4.5.1/../../../../pic32mx/lib\libmchp_peripheral_32MX575F256L.a(I2CStop.o)
 .comment       0x00000000       0x52 c:/program files (x86)/microchip/mplabc32/v2.02/bin/../lib/gcc/pic32mx/4.5.1/../../../../pic32mx/lib\libmchp_peripheral_32MX575F256L.a(I2CTransmissionHasCompleted.o)
 .comment       0x00000000       0x52 c:/program files (x86)/microchip/mplabc32/v2.02/bin/../lib/gcc/pic32mx/4.5.1/../../../../pic32mx/lib\libmchp_peripheral_32MX575F256L.a(I2CTransmitterIsReady.o)
 .comment       0x00000000       0x52 c:/program files (x86)/microchip/mplabc32/v2.02/bin/../lib/gcc/pic32mx/4.5.1/../../../../pic32mx/lib\libmchp_peripheral_32MX575F256L.a(int_enable_interrupts_lib.o)
 .comment       0x00000000       0x52 c:/program files (x86)/microchip/mplabc32/v2.02/bin/../lib/gcc/pic32mx/4.5.1/../../../../pic32mx/lib\libc.a(errno.o)
 .comment       0x00000000       0x52 c:/program files (x86)/microchip/mplabc32/v2.02/bin/../lib/gcc/pic32mx/4.5.1\libgcc.a(_lshrdi3.o)
 .comment       0x00000000       0x52 c:/program files (x86)/microchip/mplabc32/v2.02/bin/../lib/gcc/pic32mx/4.5.1\libgcc.a(_ashldi3.o)

.debug
 *(.debug)

.line
 *(.line)

.debug_srcinfo
 *(.debug_srcinfo)

.debug_sfnames
 *(.debug_sfnames)

.debug_aranges  0x00000000     0x1108
 *(.debug_aranges)
 .debug_aranges
                0x00000000       0x20 obj-tmp\Main.o
 .debug_aranges
                0x00000020       0x20 obj-tmp\CustomHTTPApp.o
 .debug_aranges
                0x00000040       0x20 obj-tmp\WF_Config.o
 .debug_aranges
                0x00000060       0x20 obj-tmp\Announce.o
 .debug_aranges
                0x00000080       0x20 obj-tmp\ARP.o
 .debug_aranges
                0x000000a0       0x20 obj-tmp\Delay.o
 .debug_aranges
                0x000000c0       0x20 obj-tmp\DNS.o
 .debug_aranges
                0x000000e0       0x20 obj-tmp\DNSs.o
 .debug_aranges
                0x00000100       0x20 obj-tmp\Helpers.o
 .debug_aranges
                0x00000120       0x20 obj-tmp\HTTP2.o
 .debug_aranges
                0x00000140       0x20 obj-tmp\ICMP.o
 .debug_aranges
                0x00000160       0x20 obj-tmp\IP.o
 .debug_aranges
                0x00000180       0x20 obj-tmp\MPFS2.o
 .debug_aranges
                0x000001a0       0x20 obj-tmp\NBNS.o
 .debug_aranges
                0x000001c0       0x20 obj-tmp\Reboot.o
 .debug_aranges
                0x000001e0       0x20 obj-tmp\SPIFlash.o
 .debug_aranges
                0x00000200       0x20 obj-tmp\StackTsk.o
 .debug_aranges
                0x00000220       0x20 obj-tmp\TCP.o
 .debug_aranges
                0x00000240       0x20 obj-tmp\Tick.o
 .debug_aranges
                0x00000260       0x20 obj-tmp\UDP.o
 .debug_aranges
                0x00000280       0x20 obj-tmp\ZeroconfHelper.o
 .debug_aranges
                0x000002a0       0x20 obj-tmp\ZeroconfLinkLocal.o
 .debug_aranges
                0x000002c0       0x20 obj-tmp\ZeroconfMulticastDNS.o
 .debug_aranges
                0x000002e0       0x20 obj-tmp\WF_Eint.o
 .debug_aranges
                0x00000300       0x20 obj-tmp\WF_pbkdf2.o
 .debug_aranges
                0x00000320       0x20 obj-tmp\WFConnectionAlgorithm.o
 .debug_aranges
                0x00000340       0x20 obj-tmp\WFConnectionManager.o
 .debug_aranges
                0x00000360       0x20 obj-tmp\WFConnectionProfile.o
 .debug_aranges
                0x00000380       0x20 obj-tmp\WFConsoleMsgHandler.o
 .debug_aranges
                0x000003a0       0x20 obj-tmp\WFConsoleMsgs.o
 .debug_aranges
                0x000003c0       0x20 obj-tmp\WFDebugStrings.o
 .debug_aranges
                0x000003e0       0x20 obj-tmp\WFEasyConfig.o
 .debug_aranges
                0x00000400       0x20 obj-tmp\WFEventHandler.o
 .debug_aranges
                0x00000420       0x20 obj-tmp\WFInit.o
 .debug_aranges
                0x00000440       0x20 obj-tmp\WFPowerSave.o
 .debug_aranges
                0x00000460       0x20 obj-tmp\WFScan.o
 .debug_aranges
                0x00000480       0x20 obj-tmp\WFTxPower.o
 .debug_aranges
                0x000004a0       0x20 obj-tmp\WF_Spi.o
 .debug_aranges
                0x000004c0       0x20 obj-tmp\WFDriverCom_24G.o
 .debug_aranges
                0x000004e0       0x20 obj-tmp\WFDriverRaw_24G.o
 .debug_aranges
                0x00000500       0x20 obj-tmp\WFMac_24G.o
 .debug_aranges
                0x00000520       0x20 obj-tmp\WFMgmtMsg_24G.o
 .debug_aranges
                0x00000540       0x20 obj-tmp\WFParamMsg_24G.o
 .debug_aranges
                0x00000560       0x20 obj-tmp\DHCP.o
 .debug_aranges
                0x00000580       0x20 obj-tmp\DHCPs.o
 .debug_aranges
                0x000005a0       0x20 obj-tmp\i2c_master.o
 .debug_aranges
                0x000005c0       0x20 obj-tmp\OpenADRClient.o
 .debug_aranges
                0x000005e0       0x20 obj-tmp\INTiMain.o
 .debug_aranges
                0x00000600       0x20 obj-tmp\UARTiMain.o
 .debug_aranges
                0x00000620       0x20 obj-tmp\TimeMonitor.o
 .debug_aranges
                0x00000640       0x20 obj-tmp\EPRI_UARTLayer.o
 .debug_aranges
                0x00000660       0x20 obj-tmp\app_UCM.o
 .debug_aranges
                0x00000680       0x20 obj-tmp\Assert.o
 .debug_aranges
                0x000006a0       0x20 c:/program files (x86)/microchip/mplabc32/v2.02/bin/../lib/gcc/pic32mx/4.5.1\libgcc.a(_udivdi3.o)
 .debug_aranges
                0x000006c0       0x20 c:/program files (x86)/microchip/mplabc32/v2.02/bin/../lib/gcc/pic32mx/4.5.1\libgcc.a(_umoddi3.o)
 .debug_aranges
                0x000006e0       0x20 c:/program files (x86)/microchip/mplabc32/v2.02/bin/../lib/gcc/pic32mx/4.5.1\libgcc.a(floatunsisf.o)
 .debug_aranges
                0x00000700       0x20 c:/program files (x86)/microchip/mplabc32/v2.02/bin/../lib/gcc/pic32mx/4.5.1/../../../../pic32mx/lib\libc.a(atoi.o)
 .debug_aranges
                0x00000720       0x20 c:/program files (x86)/microchip/mplabc32/v2.02/bin/../lib/gcc/pic32mx/4.5.1/../../../../pic32mx/lib\libc.a(atol.o)
 .debug_aranges
                0x00000740       0x38 c:/program files (x86)/microchip/mplabc32/v2.02/bin/../lib/gcc/pic32mx/4.5.1/../../../../pic32mx/lib\libc.a(ctime.o)
 .debug_aranges
                0x00000778       0x28 c:/program files (x86)/microchip/mplabc32/v2.02/bin/../lib/gcc/pic32mx/4.5.1/../../../../pic32mx/lib\libc.a(mktime.o)
 .debug_aranges
                0x000007a0       0x28 c:/program files (x86)/microchip/mplabc32/v2.02/bin/../lib/gcc/pic32mx/4.5.1/../../../../pic32mx/lib\libc.a(puts.o)
 .debug_aranges
                0x000007c8       0x20 c:/program files (x86)/microchip/mplabc32/v2.02/bin/../lib/gcc/pic32mx/4.5.1/../../../../pic32mx/lib\libc.a(strcat.o)
 .debug_aranges
                0x000007e8       0x20 c:/program files (x86)/microchip/mplabc32/v2.02/bin/../lib/gcc/pic32mx/4.5.1/../../../../pic32mx/lib\libc.a(strchr.o)
 .debug_aranges
                0x00000808       0x20 c:/program files (x86)/microchip/mplabc32/v2.02/bin/../lib/gcc/pic32mx/4.5.1/../../../../pic32mx/lib\libc.a(strncmp.o)
 .debug_aranges
                0x00000828       0x20 c:/program files (x86)/microchip/mplabc32/v2.02/bin/../lib/gcc/pic32mx/4.5.1/../../../../pic32mx/lib\libc.a(strncpy.o)
 .debug_aranges
                0x00000848       0x20 c:/program files (x86)/microchip/mplabc32/v2.02/bin/../lib/gcc/pic32mx/4.5.1/../../../../pic32mx/lib\libc.a(strrchr.o)
 .debug_aranges
                0x00000868       0x20 c:/program files (x86)/microchip/mplabc32/v2.02/bin/../lib/gcc/pic32mx/4.5.1/../../../../pic32mx/lib\libc.a(strstr.o)
 .debug_aranges
                0x00000888       0x20 c:/program files (x86)/microchip/mplabc32/v2.02/bin/../lib/gcc/pic32mx/4.5.1/../../../../pic32mx/lib\libc.a(strtok.o)
 .debug_aranges
                0x000008a8       0x20 c:/program files (x86)/microchip/mplabc32/v2.02/bin/../lib/gcc/pic32mx/4.5.1/../../../../pic32mx/lib\libc.a(printf_cdnopsuxX.eo)
 .debug_aranges
                0x000008c8       0x20 c:/program files (x86)/microchip/mplabc32/v2.02/bin/../lib/gcc/pic32mx/4.5.1/../../../../pic32mx/lib\libc.a(sprintf_cdnopsuxX.eo)
 .debug_aranges
                0x000008e8       0x20 c:/program files (x86)/microchip/mplabc32/v2.02/bin/../lib/gcc/pic32mx/4.5.1/../../../../pic32mx/lib\libc.a(sscanf_cdfFnopuxX.eo)
 .debug_aranges
                0x00000908       0x20 c:/program files (x86)/microchip/mplabc32/v2.02/bin/../lib/gcc/pic32mx/4.5.1/../../../../pic32mx/lib\libc.a(default-bootstrap-exception-handler.o)
 .debug_aranges
                0x00000928       0x20 c:/program files (x86)/microchip/mplabc32/v2.02/bin/../lib/gcc/pic32mx/4.5.1/../../../../pic32mx/lib\libc.a(default-on-reset.o)
 .debug_aranges
                0x00000948       0x20 c:/program files (x86)/microchip/mplabc32/v2.02/bin/../lib/gcc/pic32mx/4.5.1/../../../../pic32mx/lib\libc.a(default-on-bootstrap.o)
 .debug_aranges
                0x00000968       0x20 c:/program files (x86)/microchip/mplabc32/v2.02/bin/../lib/gcc/pic32mx/4.5.1/../../../../pic32mx/lib\libc.a(_fputc_simple.o)
 .debug_aranges
                0x00000988       0x20 c:/program files (x86)/microchip/mplabc32/v2.02/bin/../lib/gcc/pic32mx/4.5.1/../../../../pic32mx/lib\libc.a(strcspn.o)
 .debug_aranges
                0x000009a8       0x20 c:/program files (x86)/microchip/mplabc32/v2.02/bin/../lib/gcc/pic32mx/4.5.1/../../../../pic32mx/lib\libc.a(strspn.o)
 .debug_aranges
                0x000009c8       0x20 c:/program files (x86)/microchip/mplabc32/v2.02/bin/../lib/gcc/pic32mx/4.5.1/../../../../pic32mx/lib\libc.a(doprnt_cdnopsuxX.eo)
 .debug_aranges
                0x000009e8       0x30 c:/program files (x86)/microchip/mplabc32/v2.02/bin/../lib/gcc/pic32mx/4.5.1/../../../../pic32mx/lib\libc.a(doscan_cdfFnopuxX.eo)
 .debug_aranges
                0x00000a18       0x30 c:/program files (x86)/microchip/mplabc32/v2.02/bin/../lib/gcc/pic32mx/4.5.1/../../../../pic32mx/lib\libc.a(doscan_cdnopuxX.eo)
 .debug_aranges
                0x00000a48       0x20 c:/program files (x86)/microchip/mplabc32/v2.02/bin/../lib/gcc/pic32mx/4.5.1/../../../../pic32mx/lib\libc.a(write.o)
 .debug_aranges
                0x00000a68       0x20 c:/program files (x86)/microchip/mplabc32/v2.02/bin/../lib/gcc/pic32mx/4.5.1/../../../../pic32mx/lib\libc.a(_flsbuf_simple.o)
 .debug_aranges
                0x00000a88       0x20 c:/program files (x86)/microchip/mplabc32/v2.02/bin/../lib/gcc/pic32mx/4.5.1/../../../../pic32mx/lib\libc.a(fgetc.o)
 .debug_aranges
                0x00000aa8       0xa0 c:/program files (x86)/microchip/mplabc32/v2.02/bin/../lib/gcc/pic32mx/4.5.1/../../../../pic32mx/lib\libc.a(ctypef.o)
 .debug_aranges
                0x00000b48       0x28 c:/program files (x86)/microchip/mplabc32/v2.02/bin/../lib/gcc/pic32mx/4.5.1/../../../../pic32mx/lib\libc.a(strtof.o)
 .debug_aranges
                0x00000b70       0x28 c:/program files (x86)/microchip/mplabc32/v2.02/bin/../lib/gcc/pic32mx/4.5.1/../../../../pic32mx/lib\libc.a(strtod.o)
 .debug_aranges
                0x00000b98       0x20 c:/program files (x86)/microchip/mplabc32/v2.02/bin/../lib/gcc/pic32mx/4.5.1/../../../../pic32mx/lib\libc.a(ungetc.o)
 .debug_aranges
                0x00000bb8       0x20 c:/program files (x86)/microchip/mplabc32/v2.02/bin/../lib/gcc/pic32mx/4.5.1/../../../../pic32mx/lib\libc.a(filbuf.o)
 .debug_aranges
                0x00000bd8       0x20 c:/program files (x86)/microchip/mplabc32/v2.02/bin/../lib/gcc/pic32mx/4.5.1/../../../../pic32mx/lib\libc.a(fflush.o)
 .debug_aranges
                0x00000bf8       0x20 c:/program files (x86)/microchip/mplabc32/v2.02/bin/../lib/gcc/pic32mx/4.5.1/../../../../pic32mx/lib\libc.a(read.o)
 .debug_aranges
                0x00000c18       0x20 c:/program files (x86)/microchip/mplabc32/v2.02/bin/../lib/gcc/pic32mx/4.5.1/../../../../pic32mx/lib\libm.a(w_sqrtf.o)
 .debug_aranges
                0x00000c38       0x20 c:/program files (x86)/microchip/mplabc32/v2.02/bin/../lib/gcc/pic32mx/4.5.1/../../../../pic32mx/lib\libe.a(_strtod.o)
 .debug_aranges
                0x00000c58       0x20 c:/program files (x86)/microchip/mplabc32/v2.02/bin/../lib/gcc/pic32mx/4.5.1/../../../../pic32mx/lib\libe.a(_strtof.o)
 .debug_aranges
                0x00000c78       0x20 c:/program files (x86)/microchip/mplabc32/v2.02/bin/../lib/gcc/pic32mx/4.5.1/../../../../pic32mx/lib\libe.a(_divdf3.o)
 .debug_aranges
                0x00000c98       0x20 c:/program files (x86)/microchip/mplabc32/v2.02/bin/../lib/gcc/pic32mx/4.5.1/../../../../pic32mx/lib\libe.a(_muldf3.o)
 .debug_aranges
                0x00000cb8       0x20 c:/program files (x86)/microchip/mplabc32/v2.02/bin/../lib/gcc/pic32mx/4.5.1/../../../../pic32mx/lib\libe.a(_negdf2.o)
 .debug_aranges
                0x00000cd8       0x28 c:/program files (x86)/microchip/mplabc32/v2.02/bin/../lib/gcc/pic32mx/4.5.1/../../../../pic32mx/lib\libe.a(_adddf3.o)
 .debug_aranges
                0x00000d00       0x20 c:/program files (x86)/microchip/mplabc32/v2.02/bin/../lib/gcc/pic32mx/4.5.1/../../../../pic32mx/lib\libe.a(_floatsidf.o)
 .debug_aranges
                0x00000d20       0x20 c:/program files (x86)/microchip/mplabc32/v2.02/bin/../lib/gcc/pic32mx/4.5.1/../../../../pic32mx/lib\libe.a(_ldexp.o)
 .debug_aranges
                0x00000d40       0x20 c:/program files (x86)/microchip/mplabc32/v2.02/bin/../lib/gcc/pic32mx/4.5.1/../../../../pic32mx/lib\libe.a(_ldexpf.o)
 .debug_aranges
                0x00000d60       0x20 c:/program files (x86)/microchip/mplabc32/v2.02/bin/../lib/gcc/pic32mx/4.5.1/../../../../pic32mx/lib\libmchp_peripheral_32MX575F256L.a(soft_reset_lib.o)
 .debug_aranges
                0x00000d80       0x28 c:/program files (x86)/microchip/mplabc32/v2.02/bin/../lib/gcc/pic32mx/4.5.1/../../../../pic32mx/lib\libmchp_peripheral_32MX575F256L.a(pcache.o)
 .debug_aranges
                0x00000da8       0x20 c:/program files (x86)/microchip/mplabc32/v2.02/bin/../lib/gcc/pic32mx/4.5.1/../../../../pic32mx/lib\libmchp_peripheral_32MX575F256L.a(int_disable_interrupts_lib.o)
 .debug_aranges
                0x00000dc8       0x20 c:/program files (x86)/microchip/mplabc32/v2.02/bin/../lib/gcc/pic32mx/4.5.1/../../../../pic32mx/lib\libmchp_peripheral_32MX575F256L.a(int_restore_interrupts_lib.o)
 .debug_aranges
                0x00000de8       0x20 c:/program files (x86)/microchip/mplabc32/v2.02/bin/../lib/gcc/pic32mx/4.5.1/../../../../pic32mx/lib\libmchp_peripheral_32MX575F256L.a(int_enable_mv_int_lib.o)
 .debug_aranges
                0x00000e08       0x60 c:/program files (x86)/microchip/mplabc32/v2.02/bin/../lib/gcc/pic32mx/4.5.1/../../../../pic32mx/lib\libmchp_peripheral_32MX575F256L.a(int_tbl_lib.o)
 .debug_aranges
                0x00000e68       0x58 c:/program files (x86)/microchip/mplabc32/v2.02/bin/../lib/gcc/pic32mx/4.5.1/../../../../pic32mx/lib\libmchp_peripheral_32MX575F256L.a(uart_lib.o)
 .debug_aranges
                0x00000ec0       0x28 c:/program files (x86)/microchip/mplabc32/v2.02/bin/../lib/gcc/pic32mx/4.5.1/../../../../pic32mx/lib\libmchp_peripheral_32MX575F256L.a(puts_uartx_lib_legacy.o)
 .debug_aranges
                0x00000ee8       0x20 c:/program files (x86)/microchip/mplabc32/v2.02/bin/../lib/gcc/pic32mx/4.5.1/../../../../pic32mx/lib\libmchp_peripheral_32MX575F256L.a(idle_i2c2_lib_legacy.o)
 .debug_aranges
                0x00000f08       0x20 c:/program files (x86)/microchip/mplabc32/v2.02/bin/../lib/gcc/pic32mx/4.5.1/../../../../pic32mx/lib\libmchp_peripheral_32MX575F256L.a(I2CBusIsIdle.o)
 .debug_aranges
                0x00000f28       0x20 c:/program files (x86)/microchip/mplabc32/v2.02/bin/../lib/gcc/pic32mx/4.5.1/../../../../pic32mx/lib\libmchp_peripheral_32MX575F256L.a(I2CByteWasAcknowledged.o)
 .debug_aranges
                0x00000f48       0x20 c:/program files (x86)/microchip/mplabc32/v2.02/bin/../lib/gcc/pic32mx/4.5.1/../../../../pic32mx/lib\libmchp_peripheral_32MX575F256L.a(I2CEnable.o)
 .debug_aranges
                0x00000f68       0x20 c:/program files (x86)/microchip/mplabc32/v2.02/bin/../lib/gcc/pic32mx/4.5.1/../../../../pic32mx/lib\libmchp_peripheral_32MX575F256L.a(I2CGetByte.o)
 .debug_aranges
                0x00000f88       0x20 c:/program files (x86)/microchip/mplabc32/v2.02/bin/../lib/gcc/pic32mx/4.5.1/../../../../pic32mx/lib\libmchp_peripheral_32MX575F256L.a(I2CGetStatus.o)
 .debug_aranges
                0x00000fa8       0x20 c:/program files (x86)/microchip/mplabc32/v2.02/bin/../lib/gcc/pic32mx/4.5.1/../../../../pic32mx/lib\libmchp_peripheral_32MX575F256L.a(I2CReceivedDataIsAvailable.o)
 .debug_aranges
                0x00000fc8       0x20 c:/program files (x86)/microchip/mplabc32/v2.02/bin/../lib/gcc/pic32mx/4.5.1/../../../../pic32mx/lib\libmchp_peripheral_32MX575F256L.a(I2CReceiverEnable.o)
 .debug_aranges
                0x00000fe8       0x20 c:/program files (x86)/microchip/mplabc32/v2.02/bin/../lib/gcc/pic32mx/4.5.1/../../../../pic32mx/lib\libmchp_peripheral_32MX575F256L.a(I2CRepeatStart.o)
 .debug_aranges
                0x00001008       0x20 c:/program files (x86)/microchip/mplabc32/v2.02/bin/../lib/gcc/pic32mx/4.5.1/../../../../pic32mx/lib\libmchp_peripheral_32MX575F256L.a(I2CSetFrequency.o)
 .debug_aranges
                0x00001028       0x20 c:/program files (x86)/microchip/mplabc32/v2.02/bin/../lib/gcc/pic32mx/4.5.1/../../../../pic32mx/lib\libmchp_peripheral_32MX575F256L.a(I2CStart.o)
 .debug_aranges
                0x00001048       0x20 c:/program files (x86)/microchip/mplabc32/v2.02/bin/../lib/gcc/pic32mx/4.5.1/../../../../pic32mx/lib\libmchp_peripheral_32MX575F256L.a(I2CStop.o)
 .debug_aranges
                0x00001068       0x20 c:/program files (x86)/microchip/mplabc32/v2.02/bin/../lib/gcc/pic32mx/4.5.1/../../../../pic32mx/lib\libmchp_peripheral_32MX575F256L.a(I2CTransmissionHasCompleted.o)
 .debug_aranges
                0x00001088       0x20 c:/program files (x86)/microchip/mplabc32/v2.02/bin/../lib/gcc/pic32mx/4.5.1/../../../../pic32mx/lib\libmchp_peripheral_32MX575F256L.a(I2CTransmitterIsReady.o)
 .debug_aranges
                0x000010a8       0x20 c:/program files (x86)/microchip/mplabc32/v2.02/bin/../lib/gcc/pic32mx/4.5.1/../../../../pic32mx/lib\libmchp_peripheral_32MX575F256L.a(int_enable_interrupts_lib.o)
 .debug_aranges
                0x000010c8       0x20 c:/program files (x86)/microchip/mplabc32/v2.02/bin/../lib/gcc/pic32mx/4.5.1\libgcc.a(_lshrdi3.o)
 .debug_aranges
                0x000010e8       0x20 c:/program files (x86)/microchip/mplabc32/v2.02/bin/../lib/gcc/pic32mx/4.5.1\libgcc.a(_ashldi3.o)

.debug_pubnames
                0x00000000     0x4585
 *(.debug_pubnames)
 .debug_pubnames
                0x00000000       0xc0 obj-tmp\Main.o
 .debug_pubnames
                0x000000c0      0x1f4 obj-tmp\CustomHTTPApp.o
 .debug_pubnames
                0x000002b4       0x35 obj-tmp\WF_Config.o
 .debug_pubnames
                0x000002e9       0x21 obj-tmp\WifiGDemoMPFSImg.o
 .debug_pubnames
                0x0000030a       0x33 obj-tmp\Announce.o
 .debug_pubnames
                0x0000033d       0xb7 obj-tmp\ARP.o
 .debug_pubnames
                0x000003f4       0x2c obj-tmp\Delay.o
 .debug_pubnames
                0x00000420       0x55 obj-tmp\DNS.o
 .debug_pubnames
                0x00000475       0x24 obj-tmp\DNSs.o
 .debug_pubnames
                0x00000499      0x10a obj-tmp\Helpers.o
 .debug_pubnames
                0x000005a3       0xcf obj-tmp\HTTP2.o
 .debug_pubnames
                0x00000672       0x22 obj-tmp\ICMP.o
 .debug_pubnames
                0x00000694       0x44 obj-tmp\IP.o
 .debug_pubnames
                0x000006d8      0x140 obj-tmp\MPFS2.o
 .debug_pubnames
                0x00000818       0x1f obj-tmp\NBNS.o
 .debug_pubnames
                0x00000837       0x21 obj-tmp\Reboot.o
 .debug_pubnames
                0x00000858       0x91 obj-tmp\SPIFlash.o
 .debug_pubnames
                0x000008e9       0x86 obj-tmp\StackTsk.o
 .debug_pubnames
                0x0000096f      0x1ba obj-tmp\TCP.o
 .debug_pubnames
                0x00000b29       0x7e obj-tmp\Tick.o
 .debug_pubnames
                0x00000ba7      0x155 obj-tmp\UDP.o
 .debug_pubnames
                0x00000cfc       0x3b obj-tmp\ZeroconfHelper.o
 .debug_pubnames
                0x00000d37       0xc6 obj-tmp\ZeroconfLinkLocal.o
 .debug_pubnames
                0x00000dfd      0x159 obj-tmp\ZeroconfMulticastDNS.o
 .debug_pubnames
                0x00000f56       0x83 obj-tmp\WF_Eint.o
 .debug_pubnames
                0x00000fd9       0x84 obj-tmp\WF_pbkdf2.o
 .debug_pubnames
                0x0000105d      0x3d9 obj-tmp\WFConnectionAlgorithm.o
 .debug_pubnames
                0x00001436       0xd6 obj-tmp\WFConnectionManager.o
 .debug_pubnames
                0x0000150c      0x204 obj-tmp\WFConnectionProfile.o
 .debug_pubnames
                0x00001710       0x2f obj-tmp\WFConsoleMsgHandler.o
 .debug_pubnames
                0x0000173f      0x155 obj-tmp\WFConsoleMsgs.o
 .debug_pubnames
                0x00001894      0x147 obj-tmp\WFDebugStrings.o
 .debug_pubnames
                0x000019db       0xd3 obj-tmp\WFEasyConfig.o
 .debug_pubnames
                0x00001aae       0x2f obj-tmp\WFEventHandler.o
 .debug_pubnames
                0x00001add       0x1e obj-tmp\WFInit.o
 .debug_pubnames
                0x00001afb      0x153 obj-tmp\WFPowerSave.o
 .debug_pubnames
                0x00001c4e       0x33 obj-tmp\WFScan.o
 .debug_pubnames
                0x00001c81       0x58 obj-tmp\WFTxPower.o
 .debug_pubnames
                0x00001cd9       0x66 obj-tmp\WF_Spi.o
 .debug_pubnames
                0x00001d3f      0x1ab obj-tmp\WFDriverCom_24G.o
 .debug_pubnames
                0x00001eea      0x1ef obj-tmp\WFDriverRaw_24G.o
 .debug_pubnames
                0x000020d9      0x22c obj-tmp\WFMac_24G.o
 .debug_pubnames
                0x00002305       0xb0 obj-tmp\WFMgmtMsg_24G.o
 .debug_pubnames
                0x000023b5      0x245 obj-tmp\WFParamMsg_24G.o
 .debug_pubnames
                0x000025fa       0xcc obj-tmp\DHCP.o
 .debug_pubnames
                0x000026c6       0x78 obj-tmp\DHCPs.o
 .debug_pubnames
                0x0000273e       0x84 obj-tmp\i2c_master.o
 .debug_pubnames
                0x000027c2      0xa63 obj-tmp\OpenADRClient.o
 .debug_pubnames
                0x00003225      0x10a obj-tmp\INTiMain.o
 .debug_pubnames
                0x0000332f       0x72 obj-tmp\UARTiMain.o
 .debug_pubnames
                0x000033a1      0x12a obj-tmp\TimeMonitor.o
 .debug_pubnames
                0x000034cb      0x2a7 obj-tmp\EPRI_UARTLayer.o
 .debug_pubnames
                0x00003772      0x1ee obj-tmp\app_UCM.o
 .debug_pubnames
                0x00003960       0x2b obj-tmp\Assert.o
 .debug_pubnames
                0x0000398b       0x20 c:/program files (x86)/microchip/mplabc32/v2.02/bin/../lib/gcc/pic32mx/4.5.1\libgcc.a(_udivdi3.o)
 .debug_pubnames
                0x000039ab       0x20 c:/program files (x86)/microchip/mplabc32/v2.02/bin/../lib/gcc/pic32mx/4.5.1\libgcc.a(_umoddi3.o)
 .debug_pubnames
                0x000039cb       0x24 c:/program files (x86)/microchip/mplabc32/v2.02/bin/../lib/gcc/pic32mx/4.5.1\libgcc.a(floatunsisf.o)
 .debug_pubnames
                0x000039ef       0x1b c:/program files (x86)/microchip/mplabc32/v2.02/bin/../lib/gcc/pic32mx/4.5.1/../../../../pic32mx/lib\libc.a(atoi.o)
 .debug_pubnames
                0x00003a0a       0x1b c:/program files (x86)/microchip/mplabc32/v2.02/bin/../lib/gcc/pic32mx/4.5.1/../../../../pic32mx/lib\libc.a(atol.o)
 .debug_pubnames
                0x00003a25       0x41 c:/program files (x86)/microchip/mplabc32/v2.02/bin/../lib/gcc/pic32mx/4.5.1/../../../../pic32mx/lib\libc.a(ctime.o)
 .debug_pubnames
                0x00003a66       0x1d c:/program files (x86)/microchip/mplabc32/v2.02/bin/../lib/gcc/pic32mx/4.5.1/../../../../pic32mx/lib\libc.a(mktime.o)
 .debug_pubnames
                0x00003a83       0x25 c:/program files (x86)/microchip/mplabc32/v2.02/bin/../lib/gcc/pic32mx/4.5.1/../../../../pic32mx/lib\libc.a(puts.o)
 .debug_pubnames
                0x00003aa8       0x1d c:/program files (x86)/microchip/mplabc32/v2.02/bin/../lib/gcc/pic32mx/4.5.1/../../../../pic32mx/lib\libc.a(strcat.o)
 .debug_pubnames
                0x00003ac5       0x1d c:/program files (x86)/microchip/mplabc32/v2.02/bin/../lib/gcc/pic32mx/4.5.1/../../../../pic32mx/lib\libc.a(strchr.o)
 .debug_pubnames
                0x00003ae2       0x1e c:/program files (x86)/microchip/mplabc32/v2.02/bin/../lib/gcc/pic32mx/4.5.1/../../../../pic32mx/lib\libc.a(strncmp.o)
 .debug_pubnames
                0x00003b00       0x1e c:/program files (x86)/microchip/mplabc32/v2.02/bin/../lib/gcc/pic32mx/4.5.1/../../../../pic32mx/lib\libc.a(strncpy.o)
 .debug_pubnames
                0x00003b1e       0x1e c:/program files (x86)/microchip/mplabc32/v2.02/bin/../lib/gcc/pic32mx/4.5.1/../../../../pic32mx/lib\libc.a(strrchr.o)
 .debug_pubnames
                0x00003b3c       0x1d c:/program files (x86)/microchip/mplabc32/v2.02/bin/../lib/gcc/pic32mx/4.5.1/../../../../pic32mx/lib\libc.a(strstr.o)
 .debug_pubnames
                0x00003b59       0x1d c:/program files (x86)/microchip/mplabc32/v2.02/bin/../lib/gcc/pic32mx/4.5.1/../../../../pic32mx/lib\libc.a(strtok.o)
 .debug_pubnames
                0x00003b76       0x28 c:/program files (x86)/microchip/mplabc32/v2.02/bin/../lib/gcc/pic32mx/4.5.1/../../../../pic32mx/lib\libc.a(printf_cdnopsuxX.eo)
 .debug_pubnames
                0x00003b9e       0x29 c:/program files (x86)/microchip/mplabc32/v2.02/bin/../lib/gcc/pic32mx/4.5.1/../../../../pic32mx/lib\libc.a(sprintf_cdnopsuxX.eo)
 .debug_pubnames
                0x00003bc7       0x29 c:/program files (x86)/microchip/mplabc32/v2.02/bin/../lib/gcc/pic32mx/4.5.1/../../../../pic32mx/lib\libc.a(sscanf_cdfFnopuxX.eo)
 .debug_pubnames
                0x00003bf0       0x33 c:/program files (x86)/microchip/mplabc32/v2.02/bin/../lib/gcc/pic32mx/4.5.1/../../../../pic32mx/lib\libc.a(default-bootstrap-exception-handler.o)
 .debug_pubnames
                0x00003c23       0x20 c:/program files (x86)/microchip/mplabc32/v2.02/bin/../lib/gcc/pic32mx/4.5.1/../../../../pic32mx/lib\libc.a(default-on-reset.o)
 .debug_pubnames
                0x00003c43       0x24 c:/program files (x86)/microchip/mplabc32/v2.02/bin/../lib/gcc/pic32mx/4.5.1/../../../../pic32mx/lib\libc.a(default-on-bootstrap.o)
 .debug_pubnames
                0x00003c67       0x1c c:/program files (x86)/microchip/mplabc32/v2.02/bin/../lib/gcc/pic32mx/4.5.1/../../../../pic32mx/lib\libc.a(_fputc_simple.o)
 .debug_pubnames
                0x00003c83       0x1e c:/program files (x86)/microchip/mplabc32/v2.02/bin/../lib/gcc/pic32mx/4.5.1/../../../../pic32mx/lib\libc.a(strcspn.o)
 .debug_pubnames
                0x00003ca1       0x1d c:/program files (x86)/microchip/mplabc32/v2.02/bin/../lib/gcc/pic32mx/4.5.1/../../../../pic32mx/lib\libc.a(strspn.o)
 .debug_pubnames
                0x00003cbe       0x2a c:/program files (x86)/microchip/mplabc32/v2.02/bin/../lib/gcc/pic32mx/4.5.1/../../../../pic32mx/lib\libc.a(doprnt_cdnopsuxX.eo)
 .debug_pubnames
                0x00003ce8       0x2a c:/program files (x86)/microchip/mplabc32/v2.02/bin/../lib/gcc/pic32mx/4.5.1/../../../../pic32mx/lib\libc.a(doscan_cdfFnopuxX.eo)
 .debug_pubnames
                0x00003d12       0x28 c:/program files (x86)/microchip/mplabc32/v2.02/bin/../lib/gcc/pic32mx/4.5.1/../../../../pic32mx/lib\libc.a(doscan_cdnopuxX.eo)
 .debug_pubnames
                0x00003d3a       0x1c c:/program files (x86)/microchip/mplabc32/v2.02/bin/../lib/gcc/pic32mx/4.5.1/../../../../pic32mx/lib\libc.a(write.o)
 .debug_pubnames
                0x00003d56       0x1e c:/program files (x86)/microchip/mplabc32/v2.02/bin/../lib/gcc/pic32mx/4.5.1/../../../../pic32mx/lib\libc.a(_flsbuf_simple.o)
 .debug_pubnames
                0x00003d74       0x1c c:/program files (x86)/microchip/mplabc32/v2.02/bin/../lib/gcc/pic32mx/4.5.1/../../../../pic32mx/lib\libc.a(fgetc.o)
 .debug_pubnames
                0x00003d90       0xe1 c:/program files (x86)/microchip/mplabc32/v2.02/bin/../lib/gcc/pic32mx/4.5.1/../../../../pic32mx/lib\libc.a(ctypef.o)
 .debug_pubnames
                0x00003e71       0x29 c:/program files (x86)/microchip/mplabc32/v2.02/bin/../lib/gcc/pic32mx/4.5.1/../../../../pic32mx/lib\libc.a(strtof.o)
 .debug_pubnames
                0x00003e9a       0x2a c:/program files (x86)/microchip/mplabc32/v2.02/bin/../lib/gcc/pic32mx/4.5.1/../../../../pic32mx/lib\libc.a(strtod.o)
 .debug_pubnames
                0x00003ec4       0x1d c:/program files (x86)/microchip/mplabc32/v2.02/bin/../lib/gcc/pic32mx/4.5.1/../../../../pic32mx/lib\libc.a(ungetc.o)
 .debug_pubnames
                0x00003ee1       0x1e c:/program files (x86)/microchip/mplabc32/v2.02/bin/../lib/gcc/pic32mx/4.5.1/../../../../pic32mx/lib\libc.a(filbuf.o)
 .debug_pubnames
                0x00003eff       0x1d c:/program files (x86)/microchip/mplabc32/v2.02/bin/../lib/gcc/pic32mx/4.5.1/../../../../pic32mx/lib\libc.a(fflush.o)
 .debug_pubnames
                0x00003f1c       0x1b c:/program files (x86)/microchip/mplabc32/v2.02/bin/../lib/gcc/pic32mx/4.5.1/../../../../pic32mx/lib\libc.a(read.o)
 .debug_pubnames
                0x00003f37       0x1c c:/program files (x86)/microchip/mplabc32/v2.02/bin/../lib/gcc/pic32mx/4.5.1/../../../../pic32mx/lib\libm.a(w_sqrtf.o)
 .debug_pubnames
                0x00003f53       0x1f c:/program files (x86)/microchip/mplabc32/v2.02/bin/../lib/gcc/pic32mx/4.5.1/../../../../pic32mx/lib\libe.a(_strtod.o)
 .debug_pubnames
                0x00003f72       0x1f c:/program files (x86)/microchip/mplabc32/v2.02/bin/../lib/gcc/pic32mx/4.5.1/../../../../pic32mx/lib\libe.a(_strtof.o)
 .debug_pubnames
                0x00003f91       0x1f c:/program files (x86)/microchip/mplabc32/v2.02/bin/../lib/gcc/pic32mx/4.5.1/../../../../pic32mx/lib\libe.a(_divdf3.o)
 .debug_pubnames
                0x00003fb0       0x1f c:/program files (x86)/microchip/mplabc32/v2.02/bin/../lib/gcc/pic32mx/4.5.1/../../../../pic32mx/lib\libe.a(_muldf3.o)
 .debug_pubnames
                0x00003fcf       0x1f c:/program files (x86)/microchip/mplabc32/v2.02/bin/../lib/gcc/pic32mx/4.5.1/../../../../pic32mx/lib\libe.a(_negdf2.o)
 .debug_pubnames
                0x00003fee       0x2c c:/program files (x86)/microchip/mplabc32/v2.02/bin/../lib/gcc/pic32mx/4.5.1/../../../../pic32mx/lib\libe.a(_adddf3.o)
 .debug_pubnames
                0x0000401a       0x22 c:/program files (x86)/microchip/mplabc32/v2.02/bin/../lib/gcc/pic32mx/4.5.1/../../../../pic32mx/lib\libe.a(_floatsidf.o)
 .debug_pubnames
                0x0000403c       0x1e c:/program files (x86)/microchip/mplabc32/v2.02/bin/../lib/gcc/pic32mx/4.5.1/../../../../pic32mx/lib\libe.a(_ldexp.o)
 .debug_pubnames
                0x0000405a       0x1f c:/program files (x86)/microchip/mplabc32/v2.02/bin/../lib/gcc/pic32mx/4.5.1/../../../../pic32mx/lib\libe.a(_ldexpf.o)
 .debug_pubnames
                0x00004079       0x20 c:/program files (x86)/microchip/mplabc32/v2.02/bin/../lib/gcc/pic32mx/4.5.1/../../../../pic32mx/lib\libmchp_peripheral_32MX575F256L.a(soft_reset_lib.o)
 .debug_pubnames
                0x00004099       0x3b c:/program files (x86)/microchip/mplabc32/v2.02/bin/../lib/gcc/pic32mx/4.5.1/../../../../pic32mx/lib\libmchp_peripheral_32MX575F256L.a(pcache.o)
 .debug_pubnames
                0x000040d4       0x2b c:/program files (x86)/microchip/mplabc32/v2.02/bin/../lib/gcc/pic32mx/4.5.1/../../../../pic32mx/lib\libmchp_peripheral_32MX575F256L.a(int_disable_interrupts_lib.o)
 .debug_pubnames
                0x000040ff       0x2b c:/program files (x86)/microchip/mplabc32/v2.02/bin/../lib/gcc/pic32mx/4.5.1/../../../../pic32mx/lib\libmchp_peripheral_32MX575F256L.a(int_restore_interrupts_lib.o)
 .debug_pubnames
                0x0000412a       0x36 c:/program files (x86)/microchip/mplabc32/v2.02/bin/../lib/gcc/pic32mx/4.5.1/../../../../pic32mx/lib\libmchp_peripheral_32MX575F256L.a(int_enable_mv_int_lib.o)
 .debug_pubnames
                0x00004160       0xca c:/program files (x86)/microchip/mplabc32/v2.02/bin/../lib/gcc/pic32mx/4.5.1/../../../../pic32mx/lib\libmchp_peripheral_32MX575F256L.a(int_tbl_lib.o)
 .debug_pubnames
                0x0000422a       0xb1 c:/program files (x86)/microchip/mplabc32/v2.02/bin/../lib/gcc/pic32mx/4.5.1/../../../../pic32mx/lib\libmchp_peripheral_32MX575F256L.a(uart_lib.o)
 .debug_pubnames
                0x000042db       0x2e c:/program files (x86)/microchip/mplabc32/v2.02/bin/../lib/gcc/pic32mx/4.5.1/../../../../pic32mx/lib\libmchp_peripheral_32MX575F256L.a(puts_uartx_lib_legacy.o)
 .debug_pubnames
                0x00004309       0x1f c:/program files (x86)/microchip/mplabc32/v2.02/bin/../lib/gcc/pic32mx/4.5.1/../../../../pic32mx/lib\libmchp_peripheral_32MX575F256L.a(idle_i2c2_lib_legacy.o)
 .debug_pubnames
                0x00004328       0x23 c:/program files (x86)/microchip/mplabc32/v2.02/bin/../lib/gcc/pic32mx/4.5.1/../../../../pic32mx/lib\libmchp_peripheral_32MX575F256L.a(I2CBusIsIdle.o)
 .debug_pubnames
                0x0000434b       0x2d c:/program files (x86)/microchip/mplabc32/v2.02/bin/../lib/gcc/pic32mx/4.5.1/../../../../pic32mx/lib\libmchp_peripheral_32MX575F256L.a(I2CByteWasAcknowledged.o)
 .debug_pubnames
                0x00004378       0x20 c:/program files (x86)/microchip/mplabc32/v2.02/bin/../lib/gcc/pic32mx/4.5.1/../../../../pic32mx/lib\libmchp_peripheral_32MX575F256L.a(I2CEnable.o)
 .debug_pubnames
                0x00004398       0x21 c:/program files (x86)/microchip/mplabc32/v2.02/bin/../lib/gcc/pic32mx/4.5.1/../../../../pic32mx/lib\libmchp_peripheral_32MX575F256L.a(I2CGetByte.o)
 .debug_pubnames
                0x000043b9       0x23 c:/program files (x86)/microchip/mplabc32/v2.02/bin/../lib/gcc/pic32mx/4.5.1/../../../../pic32mx/lib\libmchp_peripheral_32MX575F256L.a(I2CGetStatus.o)
 .debug_pubnames
                0x000043dc       0x31 c:/program files (x86)/microchip/mplabc32/v2.02/bin/../lib/gcc/pic32mx/4.5.1/../../../../pic32mx/lib\libmchp_peripheral_32MX575F256L.a(I2CReceivedDataIsAvailable.o)
 .debug_pubnames
                0x0000440d       0x28 c:/program files (x86)/microchip/mplabc32/v2.02/bin/../lib/gcc/pic32mx/4.5.1/../../../../pic32mx/lib\libmchp_peripheral_32MX575F256L.a(I2CReceiverEnable.o)
 .debug_pubnames
                0x00004435       0x25 c:/program files (x86)/microchip/mplabc32/v2.02/bin/../lib/gcc/pic32mx/4.5.1/../../../../pic32mx/lib\libmchp_peripheral_32MX575F256L.a(I2CRepeatStart.o)
 .debug_pubnames
                0x0000445a       0x26 c:/program files (x86)/microchip/mplabc32/v2.02/bin/../lib/gcc/pic32mx/4.5.1/../../../../pic32mx/lib\libmchp_peripheral_32MX575F256L.a(I2CSetFrequency.o)
 .debug_pubnames
                0x00004480       0x1f c:/program files (x86)/microchip/mplabc32/v2.02/bin/../lib/gcc/pic32mx/4.5.1/../../../../pic32mx/lib\libmchp_peripheral_32MX575F256L.a(I2CStart.o)
 .debug_pubnames
                0x0000449f       0x1e c:/program files (x86)/microchip/mplabc32/v2.02/bin/../lib/gcc/pic32mx/4.5.1/../../../../pic32mx/lib\libmchp_peripheral_32MX575F256L.a(I2CStop.o)
 .debug_pubnames
                0x000044bd       0x32 c:/program files (x86)/microchip/mplabc32/v2.02/bin/../lib/gcc/pic32mx/4.5.1/../../../../pic32mx/lib\libmchp_peripheral_32MX575F256L.a(I2CTransmissionHasCompleted.o)
 .debug_pubnames
                0x000044ef       0x2c c:/program files (x86)/microchip/mplabc32/v2.02/bin/../lib/gcc/pic32mx/4.5.1/../../../../pic32mx/lib\libmchp_peripheral_32MX575F256L.a(I2CTransmitterIsReady.o)
 .debug_pubnames
                0x0000451b       0x2a c:/program files (x86)/microchip/mplabc32/v2.02/bin/../lib/gcc/pic32mx/4.5.1/../../../../pic32mx/lib\libmchp_peripheral_32MX575F256L.a(int_enable_interrupts_lib.o)
 .debug_pubnames
                0x00004545       0x20 c:/program files (x86)/microchip/mplabc32/v2.02/bin/../lib/gcc/pic32mx/4.5.1\libgcc.a(_lshrdi3.o)
 .debug_pubnames
                0x00004565       0x20 c:/program files (x86)/microchip/mplabc32/v2.02/bin/../lib/gcc/pic32mx/4.5.1\libgcc.a(_ashldi3.o)

.debug_info     0x00000000    0x82b67
 *(.debug_info .gnu.linkonce.wi.*)
 .debug_info    0x00000000     0x397e obj-tmp\Main.o
 .debug_info    0x0000397e     0x2a7b obj-tmp\CustomHTTPApp.o
 .debug_info    0x000063f9     0x1ddf obj-tmp\WF_Config.o
 .debug_info    0x000081d8      0xf42 obj-tmp\WifiGDemoMPFSImg.o
 .debug_info    0x0000911a     0x19fc obj-tmp\Announce.o
 .debug_info    0x0000ab16      0xf12 obj-tmp\ARCFOUR.o
 .debug_info    0x0000ba28     0x1bb7 obj-tmp\ARP.o
 .debug_info    0x0000d5df      0xf11 obj-tmp\AutoIP.o
 .debug_info    0x0000e4f0      0xf16 obj-tmp\BerkeleyAPI.o
 .debug_info    0x0000f406      0xf11 obj-tmp\BigInt.o
 .debug_info    0x00010317      0xfa8 obj-tmp\Delay.o
 .debug_info    0x000112bf     0x1c52 obj-tmp\DNS.o
 .debug_info    0x00012f11     0x1a3f obj-tmp\DNSs.o
 .debug_info    0x00014950      0xf11 obj-tmp\DynDNS.o
 .debug_info    0x00015861      0xf15 obj-tmp\FileSystem.o
 .debug_info    0x00016776      0xf0e obj-tmp\FTP.o
 .debug_info    0x00017684      0xf11 obj-tmp\Hashes.o
 .debug_info    0x00018595     0x2253 obj-tmp\Helpers.o
 .debug_info    0x0001a7e8     0x20c4 obj-tmp\HTTP2.o
 .debug_info    0x0001c8ac     0x1507 obj-tmp\ICMP.o
 .debug_info    0x0001ddb3     0x1a46 obj-tmp\IP.o
 .debug_info    0x0001f7f9      0xf16 obj-tmp\LCDBlocking.o
 .debug_info    0x0002070f     0x16e8 obj-tmp\MPFS2.o
 .debug_info    0x00021df7     0x1b77 obj-tmp\NBNS.o
 .debug_info    0x0002396e      0xf11 obj-tmp\Random.o
 .debug_info    0x0002487f     0x18f7 obj-tmp\Reboot.o
 .debug_info    0x00026176      0xf0e obj-tmp\RSA.o
 .debug_info    0x00027084      0xf0f obj-tmp\SMTP.o
 .debug_info    0x00027f93      0xf0f obj-tmp\SNMP.o
 .debug_info    0x00028ea2      0xf11 obj-tmp\SNMPv3.o
 .debug_info    0x00029db3      0xf14 obj-tmp\SNMPv3USM.o
 .debug_info    0x0002acc7      0xf0f obj-tmp\SNTP.o
 .debug_info    0x0002bbd6      0xf14 obj-tmp\SPIEEPROM.o
 .debug_info    0x0002caea     0x1bb2 obj-tmp\SPIFlash.o
 .debug_info    0x0002e69c      0xf11 obj-tmp\SPIRAM.o
 .debug_info    0x0002f5ad      0xf0e obj-tmp\SSL.o
 .debug_info    0x000304bb     0x190e obj-tmp\StackTsk.o
 .debug_info    0x00031dc9     0x313c obj-tmp\TCP.o
 .debug_info    0x00034f05      0xf1d obj-tmp\TCPPerformanceTest.o
 .debug_info    0x00035e22      0xf11 obj-tmp\Telnet.o
 .debug_info    0x00036d33      0xf10 obj-tmp\TFTPc.o
 .debug_info    0x00037c43     0x1a5d obj-tmp\Tick.o
 .debug_info    0x000396a0      0xf19 obj-tmp\UART2TCPBridge.o
 .debug_info    0x0003a5b9     0x20a1 obj-tmp\UDP.o
 .debug_info    0x0003c65a      0xf1d obj-tmp\UDPPerformanceTest.o
 .debug_info    0x0003d577      0xfda obj-tmp\ZeroconfHelper.o
 .debug_info    0x0003e551     0x1e41 obj-tmp\ZeroconfLinkLocal.o
 .debug_info    0x00040392     0x3257 obj-tmp\ZeroconfMulticastDNS.o
 .debug_info    0x000435e9     0x1e2c obj-tmp\WF_Eint.o
 .debug_info    0x00045415     0x19c1 obj-tmp\WF_pbkdf2.o
 .debug_info    0x00046dd6     0x24d8 obj-tmp\WFConnectionAlgorithm.o
 .debug_info    0x000492ae     0x1ab2 obj-tmp\WFConnectionManager.o
 .debug_info    0x0004ad60     0x2280 obj-tmp\WFConnectionProfile.o
 .debug_info    0x0004cfe0      0xf19 obj-tmp\WFConsole.o
 .debug_info    0x0004def9      0xf21 obj-tmp\WFConsoleIfconfig.o
 .debug_info    0x0004ee1a      0xf21 obj-tmp\WFConsoleIwconfig.o
 .debug_info    0x0004fd3b      0xf1f obj-tmp\WFConsoleIwpriv.o
 .debug_info    0x00050c5a     0x1051 obj-tmp\WFConsoleMsgHandler.o
 .debug_info    0x00051cab     0x14e6 obj-tmp\WFConsoleMsgs.o
 .debug_info    0x00053191      0xf1a obj-tmp\WFDataTxRx.o
 .debug_info    0x000540ab     0x1e17 obj-tmp\WFDebugStrings.o
 .debug_info    0x00055ec2     0x1e38 obj-tmp\WFEasyConfig.o
 .debug_info    0x00057cfa     0x14d9 obj-tmp\WFEventHandler.o
 .debug_info    0x000591d3     0x1a50 obj-tmp\WFInit.o
 .debug_info    0x0005ac23     0x1a2d obj-tmp\WFPowerSave.o
 .debug_info    0x0005c650     0x1579 obj-tmp\WFScan.o
 .debug_info    0x0005dbc9     0x16d4 obj-tmp\WFTxPower.o
 .debug_info    0x0005f29d     0x1a95 obj-tmp\WF_Spi.o
 .debug_info    0x00060d32     0x287d obj-tmp\WFDriverCom_24G.o
 .debug_info    0x000635af     0x1b8c obj-tmp\WFDriverRaw_24G.o
 .debug_info    0x0006513b     0x2591 obj-tmp\WFMac_24G.o
 .debug_info    0x000676cc     0x150a obj-tmp\WFMgmtMsg_24G.o
 .debug_info    0x00068bd6     0x246a obj-tmp\WFParamMsg_24G.o
 .debug_info    0x0006b040     0x1fed obj-tmp\DHCP.o
 .debug_info    0x0006d02d     0x225e obj-tmp\DHCPs.o
 .debug_info    0x0006f28b     0x1b1b obj-tmp\i2c_master.o
 .debug_info    0x00070da6     0x37e3 obj-tmp\OpenADRClient.o
 .debug_info    0x00074589     0x1611 obj-tmp\INTiMain.o
 .debug_info    0x00075b9a     0x18ba obj-tmp\UARTiMain.o
 .debug_info    0x00077454     0x2170 obj-tmp\TimeMonitor.o
 .debug_info    0x000795c4     0x1fcb obj-tmp\EPRI_UARTLayer.o
 .debug_info    0x0007b58f     0x12c2 obj-tmp\app_UCM.o
 .debug_info    0x0007c851      0xfe9 obj-tmp\Assert.o
 .debug_info    0x0007d83a      0x783 c:/program files (x86)/microchip/mplabc32/v2.02/bin/../lib/gcc/pic32mx/4.5.1\libgcc.a(_udivdi3.o)
 .debug_info    0x0007dfbd      0x7c0 c:/program files (x86)/microchip/mplabc32/v2.02/bin/../lib/gcc/pic32mx/4.5.1\libgcc.a(_umoddi3.o)
 .debug_info    0x0007e77d      0x188 c:/program files (x86)/microchip/mplabc32/v2.02/bin/../lib/gcc/pic32mx/4.5.1\libgcc.a(floatunsisf.o)
 .debug_info    0x0007e905       0xcd c:/program files (x86)/microchip/mplabc32/v2.02/bin/../lib/gcc/pic32mx/4.5.1/../../../../pic32mx/lib\libc.a(atoi.o)
 .debug_info    0x0007e9d2       0xcd c:/program files (x86)/microchip/mplabc32/v2.02/bin/../lib/gcc/pic32mx/4.5.1/../../../../pic32mx/lib\libc.a(atol.o)
 .debug_info    0x0007ea9f      0x126 c:/program files (x86)/microchip/mplabc32/v2.02/bin/../lib/gcc/pic32mx/4.5.1/../../../../pic32mx/lib\libc.a(ctime.o)
 .debug_info    0x0007ebc5        0x0 c:/program files (x86)/microchip/mplabc32/v2.02/bin/../lib/gcc/pic32mx/4.5.1/../../../../pic32mx/lib\libc.a(ctype.o)
 .debug_info    0x0007ebc5      0x11c c:/program files (x86)/microchip/mplabc32/v2.02/bin/../lib/gcc/pic32mx/4.5.1/../../../../pic32mx/lib\libc.a(mktime.o)
 .debug_info    0x0007ece1       0xe1 c:/program files (x86)/microchip/mplabc32/v2.02/bin/../lib/gcc/pic32mx/4.5.1/../../../../pic32mx/lib\libc.a(puts.o)
 .debug_info    0x0007edc2       0xd1 c:/program files (x86)/microchip/mplabc32/v2.02/bin/../lib/gcc/pic32mx/4.5.1/../../../../pic32mx/lib\libc.a(strcat.o)
 .debug_info    0x0007ee93       0xd1 c:/program files (x86)/microchip/mplabc32/v2.02/bin/../lib/gcc/pic32mx/4.5.1/../../../../pic32mx/lib\libc.a(strchr.o)
 .debug_info    0x0007ef64       0xd3 c:/program files (x86)/microchip/mplabc32/v2.02/bin/../lib/gcc/pic32mx/4.5.1/../../../../pic32mx/lib\libc.a(strncmp.o)
 .debug_info    0x0007f037       0xd3 c:/program files (x86)/microchip/mplabc32/v2.02/bin/../lib/gcc/pic32mx/4.5.1/../../../../pic32mx/lib\libc.a(strncpy.o)
 .debug_info    0x0007f10a       0xd3 c:/program files (x86)/microchip/mplabc32/v2.02/bin/../lib/gcc/pic32mx/4.5.1/../../../../pic32mx/lib\libc.a(strrchr.o)
 .debug_info    0x0007f1dd       0xd1 c:/program files (x86)/microchip/mplabc32/v2.02/bin/../lib/gcc/pic32mx/4.5.1/../../../../pic32mx/lib\libc.a(strstr.o)
 .debug_info    0x0007f2ae       0xd1 c:/program files (x86)/microchip/mplabc32/v2.02/bin/../lib/gcc/pic32mx/4.5.1/../../../../pic32mx/lib\libc.a(strtok.o)
 .debug_info    0x0007f37f       0xe3 c:/program files (x86)/microchip/mplabc32/v2.02/bin/../lib/gcc/pic32mx/4.5.1/../../../../pic32mx/lib\libc.a(printf_cdnopsuxX.eo)
 .debug_info    0x0007f462       0xe5 c:/program files (x86)/microchip/mplabc32/v2.02/bin/../lib/gcc/pic32mx/4.5.1/../../../../pic32mx/lib\libc.a(sprintf_cdnopsuxX.eo)
 .debug_info    0x0007f547       0xe4 c:/program files (x86)/microchip/mplabc32/v2.02/bin/../lib/gcc/pic32mx/4.5.1/../../../../pic32mx/lib\libc.a(sscanf_cdfFnopuxX.eo)
 .debug_info    0x0007f62b      0x106 c:/program files (x86)/microchip/mplabc32/v2.02/bin/../lib/gcc/pic32mx/4.5.1/../../../../pic32mx/lib\libc.a(default-bootstrap-exception-handler.o)
 .debug_info    0x0007f731       0xe0 c:/program files (x86)/microchip/mplabc32/v2.02/bin/../lib/gcc/pic32mx/4.5.1/../../../../pic32mx/lib\libc.a(default-on-reset.o)
 .debug_info    0x0007f811       0xe8 c:/program files (x86)/microchip/mplabc32/v2.02/bin/../lib/gcc/pic32mx/4.5.1/../../../../pic32mx/lib\libc.a(default-on-bootstrap.o)
 .debug_info    0x0007f8f9        0x0 c:/program files (x86)/microchip/mplabc32/v2.02/bin/../lib/gcc/pic32mx/4.5.1/../../../../pic32mx/lib\libc.a(_iob.o)
 .debug_info    0x0007f8f9       0xd6 c:/program files (x86)/microchip/mplabc32/v2.02/bin/../lib/gcc/pic32mx/4.5.1/../../../../pic32mx/lib\libc.a(_fputc_simple.o)
 .debug_info    0x0007f9cf       0xd3 c:/program files (x86)/microchip/mplabc32/v2.02/bin/../lib/gcc/pic32mx/4.5.1/../../../../pic32mx/lib\libc.a(strcspn.o)
 .debug_info    0x0007faa2       0xd1 c:/program files (x86)/microchip/mplabc32/v2.02/bin/../lib/gcc/pic32mx/4.5.1/../../../../pic32mx/lib\libc.a(strspn.o)
 .debug_info    0x0007fb73       0xe6 c:/program files (x86)/microchip/mplabc32/v2.02/bin/../lib/gcc/pic32mx/4.5.1/../../../../pic32mx/lib\libc.a(doprnt_cdnopsuxX.eo)
 .debug_info    0x0007fc59      0x10c c:/program files (x86)/microchip/mplabc32/v2.02/bin/../lib/gcc/pic32mx/4.5.1/../../../../pic32mx/lib\libc.a(doscan_cdfFnopuxX.eo)
 .debug_info    0x0007fd65      0x10a c:/program files (x86)/microchip/mplabc32/v2.02/bin/../lib/gcc/pic32mx/4.5.1/../../../../pic32mx/lib\libc.a(doscan_cdnopuxX.eo)
 .debug_info    0x0007fe6f       0xd1 c:/program files (x86)/microchip/mplabc32/v2.02/bin/../lib/gcc/pic32mx/4.5.1/../../../../pic32mx/lib\libc.a(write.o)
 .debug_info    0x0007ff40       0xd9 c:/program files (x86)/microchip/mplabc32/v2.02/bin/../lib/gcc/pic32mx/4.5.1/../../../../pic32mx/lib\libc.a(_flsbuf_simple.o)
 .debug_info    0x00080019       0xcf c:/program files (x86)/microchip/mplabc32/v2.02/bin/../lib/gcc/pic32mx/4.5.1/../../../../pic32mx/lib\libc.a(fgetc.o)
 .debug_info    0x000800e8      0x235 c:/program files (x86)/microchip/mplabc32/v2.02/bin/../lib/gcc/pic32mx/4.5.1/../../../../pic32mx/lib\libc.a(ctypef.o)
 .debug_info    0x0008031d       0xff c:/program files (x86)/microchip/mplabc32/v2.02/bin/../lib/gcc/pic32mx/4.5.1/../../../../pic32mx/lib\libc.a(strtof.o)
 .debug_info    0x0008041c      0x100 c:/program files (x86)/microchip/mplabc32/v2.02/bin/../lib/gcc/pic32mx/4.5.1/../../../../pic32mx/lib\libc.a(strtod.o)
 .debug_info    0x0008051c       0xd1 c:/program files (x86)/microchip/mplabc32/v2.02/bin/../lib/gcc/pic32mx/4.5.1/../../../../pic32mx/lib\libc.a(ungetc.o)
 .debug_info    0x000805ed       0xd2 c:/program files (x86)/microchip/mplabc32/v2.02/bin/../lib/gcc/pic32mx/4.5.1/../../../../pic32mx/lib\libc.a(filbuf.o)
 .debug_info    0x000806bf       0xd1 c:/program files (x86)/microchip/mplabc32/v2.02/bin/../lib/gcc/pic32mx/4.5.1/../../../../pic32mx/lib\libc.a(fflush.o)
 .debug_info    0x00080790       0xcf c:/program files (x86)/microchip/mplabc32/v2.02/bin/../lib/gcc/pic32mx/4.5.1/../../../../pic32mx/lib\libc.a(read.o)
 .debug_info    0x0008085f        0x0 c:/program files (x86)/microchip/mplabc32/v2.02/bin/../lib/gcc/pic32mx/4.5.1/../../../../pic32mx/lib\libc.a(c32_uart.o)
 .debug_info    0x0008085f       0xd4 c:/program files (x86)/microchip/mplabc32/v2.02/bin/../lib/gcc/pic32mx/4.5.1/../../../../pic32mx/lib\libm.a(w_sqrtf.o)
 .debug_info    0x00080933        0x0 c:/program files (x86)/microchip/mplabc32/v2.02/bin/../lib/gcc/pic32mx/4.5.1/../../../../pic32mx/lib\libm.a(s_lib_ver.o)
 .debug_info    0x00080933       0xe3 c:/program files (x86)/microchip/mplabc32/v2.02/bin/../lib/gcc/pic32mx/4.5.1/../../../../pic32mx/lib\libe.a(_strtod.o)
 .debug_info    0x00080a16       0xe3 c:/program files (x86)/microchip/mplabc32/v2.02/bin/../lib/gcc/pic32mx/4.5.1/../../../../pic32mx/lib\libe.a(_strtof.o)
 .debug_info    0x00080af9      0x106 c:/program files (x86)/microchip/mplabc32/v2.02/bin/../lib/gcc/pic32mx/4.5.1/../../../../pic32mx/lib\libe.a(_divdf3.o)
 .debug_info    0x00080bff      0x106 c:/program files (x86)/microchip/mplabc32/v2.02/bin/../lib/gcc/pic32mx/4.5.1/../../../../pic32mx/lib\libe.a(_muldf3.o)
 .debug_info    0x00080d05       0xe4 c:/program files (x86)/microchip/mplabc32/v2.02/bin/../lib/gcc/pic32mx/4.5.1/../../../../pic32mx/lib\libe.a(_negdf2.o)
 .debug_info    0x00080de9      0x11d c:/program files (x86)/microchip/mplabc32/v2.02/bin/../lib/gcc/pic32mx/4.5.1/../../../../pic32mx/lib\libe.a(_adddf3.o)
 .debug_info    0x00080f06       0xde c:/program files (x86)/microchip/mplabc32/v2.02/bin/../lib/gcc/pic32mx/4.5.1/../../../../pic32mx/lib\libe.a(_floatsidf.o)
 .debug_info    0x00080fe4       0xef c:/program files (x86)/microchip/mplabc32/v2.02/bin/../lib/gcc/pic32mx/4.5.1/../../../../pic32mx/lib\libe.a(_ldexp.o)
 .debug_info    0x000810d3       0xf0 c:/program files (x86)/microchip/mplabc32/v2.02/bin/../lib/gcc/pic32mx/4.5.1/../../../../pic32mx/lib\libe.a(_ldexpf.o)
 .debug_info    0x000811c3       0xc7 c:/program files (x86)/microchip/mplabc32/v2.02/bin/../lib/gcc/pic32mx/4.5.1/../../../../pic32mx/lib\libmchp_peripheral_32MX575F256L.a(soft_reset_lib.o)
 .debug_info    0x0008128a       0xd4 c:/program files (x86)/microchip/mplabc32/v2.02/bin/../lib/gcc/pic32mx/4.5.1/../../../../pic32mx/lib\libmchp_peripheral_32MX575F256L.a(pcache.o)
 .debug_info    0x0008135e       0xcb c:/program files (x86)/microchip/mplabc32/v2.02/bin/../lib/gcc/pic32mx/4.5.1/../../../../pic32mx/lib\libmchp_peripheral_32MX575F256L.a(int_disable_interrupts_lib.o)
 .debug_info    0x00081429       0xcb c:/program files (x86)/microchip/mplabc32/v2.02/bin/../lib/gcc/pic32mx/4.5.1/../../../../pic32mx/lib\libmchp_peripheral_32MX575F256L.a(int_restore_interrupts_lib.o)
 .debug_info    0x000814f4       0xd1 c:/program files (x86)/microchip/mplabc32/v2.02/bin/../lib/gcc/pic32mx/4.5.1/../../../../pic32mx/lib\libmchp_peripheral_32MX575F256L.a(int_enable_mv_int_lib.o)
 .debug_info    0x000815c5      0x1ab c:/program files (x86)/microchip/mplabc32/v2.02/bin/../lib/gcc/pic32mx/4.5.1/../../../../pic32mx/lib\libmchp_peripheral_32MX575F256L.a(int_tbl_lib.o)
 .debug_info    0x00081770      0x18a c:/program files (x86)/microchip/mplabc32/v2.02/bin/../lib/gcc/pic32mx/4.5.1/../../../../pic32mx/lib\libmchp_peripheral_32MX575F256L.a(uart_lib.o)
 .debug_info    0x000818fa       0xd4 c:/program files (x86)/microchip/mplabc32/v2.02/bin/../lib/gcc/pic32mx/4.5.1/../../../../pic32mx/lib\libmchp_peripheral_32MX575F256L.a(puts_uartx_lib_legacy.o)
 .debug_info    0x000819ce       0xb9 c:/program files (x86)/microchip/mplabc32/v2.02/bin/../lib/gcc/pic32mx/4.5.1/../../../../pic32mx/lib\libmchp_peripheral_32MX575F256L.a(idle_i2c2_lib_legacy.o)
 .debug_info    0x00081a87        0x0 c:/program files (x86)/microchip/mplabc32/v2.02/bin/../lib/gcc/pic32mx/4.5.1/../../../../pic32mx/lib\libmchp_peripheral_32MX575F256L.a(I2CPrivate.o)
 .debug_info    0x00081a87       0xb5 c:/program files (x86)/microchip/mplabc32/v2.02/bin/../lib/gcc/pic32mx/4.5.1/../../../../pic32mx/lib\libmchp_peripheral_32MX575F256L.a(I2CBusIsIdle.o)
 .debug_info    0x00081b3c       0xc9 c:/program files (x86)/microchip/mplabc32/v2.02/bin/../lib/gcc/pic32mx/4.5.1/../../../../pic32mx/lib\libmchp_peripheral_32MX575F256L.a(I2CByteWasAcknowledged.o)
 .debug_info    0x00081c05       0xaf c:/program files (x86)/microchip/mplabc32/v2.02/bin/../lib/gcc/pic32mx/4.5.1/../../../../pic32mx/lib\libmchp_peripheral_32MX575F256L.a(I2CEnable.o)
 .debug_info    0x00081cb4       0xb1 c:/program files (x86)/microchip/mplabc32/v2.02/bin/../lib/gcc/pic32mx/4.5.1/../../../../pic32mx/lib\libmchp_peripheral_32MX575F256L.a(I2CGetByte.o)
 .debug_info    0x00081d65       0xb5 c:/program files (x86)/microchip/mplabc32/v2.02/bin/../lib/gcc/pic32mx/4.5.1/../../../../pic32mx/lib\libmchp_peripheral_32MX575F256L.a(I2CGetStatus.o)
 .debug_info    0x00081e1a       0xd1 c:/program files (x86)/microchip/mplabc32/v2.02/bin/../lib/gcc/pic32mx/4.5.1/../../../../pic32mx/lib\libmchp_peripheral_32MX575F256L.a(I2CReceivedDataIsAvailable.o)
 .debug_info    0x00081eeb       0xbf c:/program files (x86)/microchip/mplabc32/v2.02/bin/../lib/gcc/pic32mx/4.5.1/../../../../pic32mx/lib\libmchp_peripheral_32MX575F256L.a(I2CReceiverEnable.o)
 .debug_info    0x00081faa       0xb9 c:/program files (x86)/microchip/mplabc32/v2.02/bin/../lib/gcc/pic32mx/4.5.1/../../../../pic32mx/lib\libmchp_peripheral_32MX575F256L.a(I2CRepeatStart.o)
 .debug_info    0x00082063       0xbb c:/program files (x86)/microchip/mplabc32/v2.02/bin/../lib/gcc/pic32mx/4.5.1/../../../../pic32mx/lib\libmchp_peripheral_32MX575F256L.a(I2CSetFrequency.o)
 .debug_info    0x0008211e       0xad c:/program files (x86)/microchip/mplabc32/v2.02/bin/../lib/gcc/pic32mx/4.5.1/../../../../pic32mx/lib\libmchp_peripheral_32MX575F256L.a(I2CStart.o)
 .debug_info    0x000821cb       0xab c:/program files (x86)/microchip/mplabc32/v2.02/bin/../lib/gcc/pic32mx/4.5.1/../../../../pic32mx/lib\libmchp_peripheral_32MX575F256L.a(I2CStop.o)
 .debug_info    0x00082276       0xd3 c:/program files (x86)/microchip/mplabc32/v2.02/bin/../lib/gcc/pic32mx/4.5.1/../../../../pic32mx/lib\libmchp_peripheral_32MX575F256L.a(I2CTransmissionHasCompleted.o)
 .debug_info    0x00082349       0xc7 c:/program files (x86)/microchip/mplabc32/v2.02/bin/../lib/gcc/pic32mx/4.5.1/../../../../pic32mx/lib\libmchp_peripheral_32MX575F256L.a(I2CTransmitterIsReady.o)
 .debug_info    0x00082410       0xc9 c:/program files (x86)/microchip/mplabc32/v2.02/bin/../lib/gcc/pic32mx/4.5.1/../../../../pic32mx/lib\libmchp_peripheral_32MX575F256L.a(int_enable_interrupts_lib.o)
 .debug_info    0x000824d9        0x0 c:/program files (x86)/microchip/mplabc32/v2.02/bin/../lib/gcc/pic32mx/4.5.1/../../../../pic32mx/lib\libc.a(errno.o)
 .debug_info    0x000824d9      0x349 c:/program files (x86)/microchip/mplabc32/v2.02/bin/../lib/gcc/pic32mx/4.5.1\libgcc.a(_lshrdi3.o)
 .debug_info    0x00082822      0x345 c:/program files (x86)/microchip/mplabc32/v2.02/bin/../lib/gcc/pic32mx/4.5.1\libgcc.a(_ashldi3.o)

.debug_abbrev   0x00000000     0xc4da
 *(.debug_abbrev)
 .debug_abbrev  0x00000000      0x4a3 obj-tmp\Main.o
 .debug_abbrev  0x000004a3      0x34f obj-tmp\CustomHTTPApp.o
 .debug_abbrev  0x000007f2      0x26b obj-tmp\WF_Config.o
 .debug_abbrev  0x00000a5d      0x180 obj-tmp\WifiGDemoMPFSImg.o
 .debug_abbrev  0x00000bdd      0x21d obj-tmp\Announce.o
 .debug_abbrev  0x00000dfa      0x166 obj-tmp\ARCFOUR.o
 .debug_abbrev  0x00000f60      0x31a obj-tmp\ARP.o
 .debug_abbrev  0x0000127a      0x166 obj-tmp\AutoIP.o
 .debug_abbrev  0x000013e0      0x166 obj-tmp\BerkeleyAPI.o
 .debug_abbrev  0x00001546      0x166 obj-tmp\BigInt.o
 .debug_abbrev  0x000016ac      0x1aa obj-tmp\Delay.o
 .debug_abbrev  0x00001856      0x280 obj-tmp\DNS.o
 .debug_abbrev  0x00001ad6      0x2b5 obj-tmp\DNSs.o
 .debug_abbrev  0x00001d8b      0x166 obj-tmp\DynDNS.o
 .debug_abbrev  0x00001ef1      0x166 obj-tmp\FileSystem.o
 .debug_abbrev  0x00002057      0x166 obj-tmp\FTP.o
 .debug_abbrev  0x000021bd      0x166 obj-tmp\Hashes.o
 .debug_abbrev  0x00002323      0x286 obj-tmp\Helpers.o
 .debug_abbrev  0x000025a9      0x379 obj-tmp\HTTP2.o
 .debug_abbrev  0x00002922      0x1c0 obj-tmp\ICMP.o
 .debug_abbrev  0x00002ae2      0x25e obj-tmp\IP.o
 .debug_abbrev  0x00002d40      0x166 obj-tmp\LCDBlocking.o
 .debug_abbrev  0x00002ea6      0x2c4 obj-tmp\MPFS2.o
 .debug_abbrev  0x0000316a      0x288 obj-tmp\NBNS.o
 .debug_abbrev  0x000033f2      0x166 obj-tmp\Random.o
 .debug_abbrev  0x00003558      0x1c0 obj-tmp\Reboot.o
 .debug_abbrev  0x00003718      0x166 obj-tmp\RSA.o
 .debug_abbrev  0x0000387e      0x166 obj-tmp\SMTP.o
 .debug_abbrev  0x000039e4      0x166 obj-tmp\SNMP.o
 .debug_abbrev  0x00003b4a      0x166 obj-tmp\SNMPv3.o
 .debug_abbrev  0x00003cb0      0x166 obj-tmp\SNMPv3USM.o
 .debug_abbrev  0x00003e16      0x166 obj-tmp\SNTP.o
 .debug_abbrev  0x00003f7c      0x166 obj-tmp\SPIEEPROM.o
 .debug_abbrev  0x000040e2      0x282 obj-tmp\SPIFlash.o
 .debug_abbrev  0x00004364      0x166 obj-tmp\SPIRAM.o
 .debug_abbrev  0x000044ca      0x166 obj-tmp\SSL.o
 .debug_abbrev  0x00004630      0x21a obj-tmp\StackTsk.o
 .debug_abbrev  0x0000484a      0x3ac obj-tmp\TCP.o
 .debug_abbrev  0x00004bf6      0x166 obj-tmp\TCPPerformanceTest.o
 .debug_abbrev  0x00004d5c      0x166 obj-tmp\Telnet.o
 .debug_abbrev  0x00004ec2      0x166 obj-tmp\TFTPc.o
 .debug_abbrev  0x00005028      0x233 obj-tmp\Tick.o
 .debug_abbrev  0x0000525b      0x166 obj-tmp\UART2TCPBridge.o
 .debug_abbrev  0x000053c1      0x35a obj-tmp\UDP.o
 .debug_abbrev  0x0000571b      0x166 obj-tmp\UDPPerformanceTest.o
 .debug_abbrev  0x00005881      0x19f obj-tmp\ZeroconfHelper.o
 .debug_abbrev  0x00005a20      0x2ed obj-tmp\ZeroconfLinkLocal.o
 .debug_abbrev  0x00005d0d      0x434 obj-tmp\ZeroconfMulticastDNS.o
 .debug_abbrev  0x00006141      0x1aa obj-tmp\WF_Eint.o
 .debug_abbrev  0x000062eb      0x368 obj-tmp\WF_pbkdf2.o
 .debug_abbrev  0x00006653      0x2c4 obj-tmp\WFConnectionAlgorithm.o
 .debug_abbrev  0x00006917      0x2c9 obj-tmp\WFConnectionManager.o
 .debug_abbrev  0x00006be0      0x2a7 obj-tmp\WFConnectionProfile.o
 .debug_abbrev  0x00006e87      0x166 obj-tmp\WFConsole.o
 .debug_abbrev  0x00006fed      0x166 obj-tmp\WFConsoleIfconfig.o
 .debug_abbrev  0x00007153      0x166 obj-tmp\WFConsoleIwconfig.o
 .debug_abbrev  0x000072b9      0x166 obj-tmp\WFConsoleIwpriv.o
 .debug_abbrev  0x0000741f      0x1cd obj-tmp\WFConsoleMsgHandler.o
 .debug_abbrev  0x000075ec      0x1ef obj-tmp\WFConsoleMsgs.o
 .debug_abbrev  0x000077db      0x166 obj-tmp\WFDataTxRx.o
 .debug_abbrev  0x00007941      0x2db obj-tmp\WFDebugStrings.o
 .debug_abbrev  0x00007c1c      0x30b obj-tmp\WFEasyConfig.o
 .debug_abbrev  0x00007f27      0x27e obj-tmp\WFEventHandler.o
 .debug_abbrev  0x000081a5      0x203 obj-tmp\WFInit.o
 .debug_abbrev  0x000083a8      0x29b obj-tmp\WFPowerSave.o
 .debug_abbrev  0x00008643      0x232 obj-tmp\WFScan.o
 .debug_abbrev  0x00008875      0x218 obj-tmp\WFTxPower.o
 .debug_abbrev  0x00008a8d      0x231 obj-tmp\WF_Spi.o
 .debug_abbrev  0x00008cbe      0x3a4 obj-tmp\WFDriverCom_24G.o
 .debug_abbrev  0x00009062      0x2fe obj-tmp\WFDriverRaw_24G.o
 .debug_abbrev  0x00009360      0x31f obj-tmp\WFMac_24G.o
 .debug_abbrev  0x0000967f      0x296 obj-tmp\WFMgmtMsg_24G.o
 .debug_abbrev  0x00009915      0x292 obj-tmp\WFParamMsg_24G.o
 .debug_abbrev  0x00009ba7      0x2e8 obj-tmp\DHCP.o
 .debug_abbrev  0x00009e8f      0x338 obj-tmp\DHCPs.o
 .debug_abbrev  0x0000a1c7      0x2ec obj-tmp\i2c_master.o
 .debug_abbrev  0x0000a4b3      0x325 obj-tmp\OpenADRClient.o
 .debug_abbrev  0x0000a7d8      0x1de obj-tmp\INTiMain.o
 .debug_abbrev  0x0000a9b6      0x289 obj-tmp\UARTiMain.o
 .debug_abbrev  0x0000ac3f      0x203 obj-tmp\TimeMonitor.o
 .debug_abbrev  0x0000ae42      0x38a obj-tmp\EPRI_UARTLayer.o
 .debug_abbrev  0x0000b1cc      0x1b3 obj-tmp\app_UCM.o
 .debug_abbrev  0x0000b37f      0x1aa obj-tmp\Assert.o
 .debug_abbrev  0x0000b529      0x13d c:/program files (x86)/microchip/mplabc32/v2.02/bin/../lib/gcc/pic32mx/4.5.1\libgcc.a(_udivdi3.o)
 .debug_abbrev  0x0000b666      0x15c c:/program files (x86)/microchip/mplabc32/v2.02/bin/../lib/gcc/pic32mx/4.5.1\libgcc.a(_umoddi3.o)
 .debug_abbrev  0x0000b7c2       0x61 c:/program files (x86)/microchip/mplabc32/v2.02/bin/../lib/gcc/pic32mx/4.5.1\libgcc.a(floatunsisf.o)
 .debug_abbrev  0x0000b823       0x25 c:/program files (x86)/microchip/mplabc32/v2.02/bin/../lib/gcc/pic32mx/4.5.1/../../../../pic32mx/lib\libc.a(atoi.o)
 .debug_abbrev  0x0000b848       0x25 c:/program files (x86)/microchip/mplabc32/v2.02/bin/../lib/gcc/pic32mx/4.5.1/../../../../pic32mx/lib\libc.a(atol.o)
 .debug_abbrev  0x0000b86d       0x32 c:/program files (x86)/microchip/mplabc32/v2.02/bin/../lib/gcc/pic32mx/4.5.1/../../../../pic32mx/lib\libc.a(ctime.o)
 .debug_abbrev  0x0000b89f        0x1 c:/program files (x86)/microchip/mplabc32/v2.02/bin/../lib/gcc/pic32mx/4.5.1/../../../../pic32mx/lib\libc.a(ctype.o)
 .debug_abbrev  0x0000b8a0       0x43 c:/program files (x86)/microchip/mplabc32/v2.02/bin/../lib/gcc/pic32mx/4.5.1/../../../../pic32mx/lib\libc.a(mktime.o)
 .debug_abbrev  0x0000b8e3       0x25 c:/program files (x86)/microchip/mplabc32/v2.02/bin/../lib/gcc/pic32mx/4.5.1/../../../../pic32mx/lib\libc.a(puts.o)
 .debug_abbrev  0x0000b908       0x25 c:/program files (x86)/microchip/mplabc32/v2.02/bin/../lib/gcc/pic32mx/4.5.1/../../../../pic32mx/lib\libc.a(strcat.o)
 .debug_abbrev  0x0000b92d       0x25 c:/program files (x86)/microchip/mplabc32/v2.02/bin/../lib/gcc/pic32mx/4.5.1/../../../../pic32mx/lib\libc.a(strchr.o)
 .debug_abbrev  0x0000b952       0x25 c:/program files (x86)/microchip/mplabc32/v2.02/bin/../lib/gcc/pic32mx/4.5.1/../../../../pic32mx/lib\libc.a(strncmp.o)
 .debug_abbrev  0x0000b977       0x25 c:/program files (x86)/microchip/mplabc32/v2.02/bin/../lib/gcc/pic32mx/4.5.1/../../../../pic32mx/lib\libc.a(strncpy.o)
 .debug_abbrev  0x0000b99c       0x25 c:/program files (x86)/microchip/mplabc32/v2.02/bin/../lib/gcc/pic32mx/4.5.1/../../../../pic32mx/lib\libc.a(strrchr.o)
 .debug_abbrev  0x0000b9c1       0x25 c:/program files (x86)/microchip/mplabc32/v2.02/bin/../lib/gcc/pic32mx/4.5.1/../../../../pic32mx/lib\libc.a(strstr.o)
 .debug_abbrev  0x0000b9e6       0x25 c:/program files (x86)/microchip/mplabc32/v2.02/bin/../lib/gcc/pic32mx/4.5.1/../../../../pic32mx/lib\libc.a(strtok.o)
 .debug_abbrev  0x0000ba0b       0x27 c:/program files (x86)/microchip/mplabc32/v2.02/bin/../lib/gcc/pic32mx/4.5.1/../../../../pic32mx/lib\libc.a(printf_cdnopsuxX.eo)
 .debug_abbrev  0x0000ba32       0x27 c:/program files (x86)/microchip/mplabc32/v2.02/bin/../lib/gcc/pic32mx/4.5.1/../../../../pic32mx/lib\libc.a(sprintf_cdnopsuxX.eo)
 .debug_abbrev  0x0000ba59       0x27 c:/program files (x86)/microchip/mplabc32/v2.02/bin/../lib/gcc/pic32mx/4.5.1/../../../../pic32mx/lib\libc.a(sscanf_cdfFnopuxX.eo)
 .debug_abbrev  0x0000ba80       0x25 c:/program files (x86)/microchip/mplabc32/v2.02/bin/../lib/gcc/pic32mx/4.5.1/../../../../pic32mx/lib\libc.a(default-bootstrap-exception-handler.o)
 .debug_abbrev  0x0000baa5       0x25 c:/program files (x86)/microchip/mplabc32/v2.02/bin/../lib/gcc/pic32mx/4.5.1/../../../../pic32mx/lib\libc.a(default-on-reset.o)
 .debug_abbrev  0x0000baca       0x25 c:/program files (x86)/microchip/mplabc32/v2.02/bin/../lib/gcc/pic32mx/4.5.1/../../../../pic32mx/lib\libc.a(default-on-bootstrap.o)
 .debug_abbrev  0x0000baef        0x1 c:/program files (x86)/microchip/mplabc32/v2.02/bin/../lib/gcc/pic32mx/4.5.1/../../../../pic32mx/lib\libc.a(_iob.o)
 .debug_abbrev  0x0000baf0       0x27 c:/program files (x86)/microchip/mplabc32/v2.02/bin/../lib/gcc/pic32mx/4.5.1/../../../../pic32mx/lib\libc.a(_fputc_simple.o)
 .debug_abbrev  0x0000bb17       0x25 c:/program files (x86)/microchip/mplabc32/v2.02/bin/../lib/gcc/pic32mx/4.5.1/../../../../pic32mx/lib\libc.a(strcspn.o)
 .debug_abbrev  0x0000bb3c       0x25 c:/program files (x86)/microchip/mplabc32/v2.02/bin/../lib/gcc/pic32mx/4.5.1/../../../../pic32mx/lib\libc.a(strspn.o)
 .debug_abbrev  0x0000bb61       0x27 c:/program files (x86)/microchip/mplabc32/v2.02/bin/../lib/gcc/pic32mx/4.5.1/../../../../pic32mx/lib\libc.a(doprnt_cdnopsuxX.eo)
 .debug_abbrev  0x0000bb88       0x38 c:/program files (x86)/microchip/mplabc32/v2.02/bin/../lib/gcc/pic32mx/4.5.1/../../../../pic32mx/lib\libc.a(doscan_cdfFnopuxX.eo)
 .debug_abbrev  0x0000bbc0       0x38 c:/program files (x86)/microchip/mplabc32/v2.02/bin/../lib/gcc/pic32mx/4.5.1/../../../../pic32mx/lib\libc.a(doscan_cdnopuxX.eo)
 .debug_abbrev  0x0000bbf8       0x25 c:/program files (x86)/microchip/mplabc32/v2.02/bin/../lib/gcc/pic32mx/4.5.1/../../../../pic32mx/lib\libc.a(write.o)
 .debug_abbrev  0x0000bc1d       0x27 c:/program files (x86)/microchip/mplabc32/v2.02/bin/../lib/gcc/pic32mx/4.5.1/../../../../pic32mx/lib\libc.a(_flsbuf_simple.o)
 .debug_abbrev  0x0000bc44       0x25 c:/program files (x86)/microchip/mplabc32/v2.02/bin/../lib/gcc/pic32mx/4.5.1/../../../../pic32mx/lib\libc.a(fgetc.o)
 .debug_abbrev  0x0000bc69       0x25 c:/program files (x86)/microchip/mplabc32/v2.02/bin/../lib/gcc/pic32mx/4.5.1/../../../../pic32mx/lib\libc.a(ctypef.o)
 .debug_abbrev  0x0000bc8e       0x49 c:/program files (x86)/microchip/mplabc32/v2.02/bin/../lib/gcc/pic32mx/4.5.1/../../../../pic32mx/lib\libc.a(strtof.o)
 .debug_abbrev  0x0000bcd7       0x49 c:/program files (x86)/microchip/mplabc32/v2.02/bin/../lib/gcc/pic32mx/4.5.1/../../../../pic32mx/lib\libc.a(strtod.o)
 .debug_abbrev  0x0000bd20       0x25 c:/program files (x86)/microchip/mplabc32/v2.02/bin/../lib/gcc/pic32mx/4.5.1/../../../../pic32mx/lib\libc.a(ungetc.o)
 .debug_abbrev  0x0000bd45       0x25 c:/program files (x86)/microchip/mplabc32/v2.02/bin/../lib/gcc/pic32mx/4.5.1/../../../../pic32mx/lib\libc.a(filbuf.o)
 .debug_abbrev  0x0000bd6a       0x25 c:/program files (x86)/microchip/mplabc32/v2.02/bin/../lib/gcc/pic32mx/4.5.1/../../../../pic32mx/lib\libc.a(fflush.o)
 .debug_abbrev  0x0000bd8f       0x25 c:/program files (x86)/microchip/mplabc32/v2.02/bin/../lib/gcc/pic32mx/4.5.1/../../../../pic32mx/lib\libc.a(read.o)
 .debug_abbrev  0x0000bdb4        0x1 c:/program files (x86)/microchip/mplabc32/v2.02/bin/../lib/gcc/pic32mx/4.5.1/../../../../pic32mx/lib\libc.a(c32_uart.o)
 .debug_abbrev  0x0000bdb5       0x25 c:/program files (x86)/microchip/mplabc32/v2.02/bin/../lib/gcc/pic32mx/4.5.1/../../../../pic32mx/lib\libm.a(w_sqrtf.o)
 .debug_abbrev  0x0000bdda        0x1 c:/program files (x86)/microchip/mplabc32/v2.02/bin/../lib/gcc/pic32mx/4.5.1/../../../../pic32mx/lib\libm.a(s_lib_ver.o)
 .debug_abbrev  0x0000bddb       0x32 c:/program files (x86)/microchip/mplabc32/v2.02/bin/../lib/gcc/pic32mx/4.5.1/../../../../pic32mx/lib\libe.a(_strtod.o)
 .debug_abbrev  0x0000be0d       0x32 c:/program files (x86)/microchip/mplabc32/v2.02/bin/../lib/gcc/pic32mx/4.5.1/../../../../pic32mx/lib\libe.a(_strtof.o)
 .debug_abbrev  0x0000be3f       0x32 c:/program files (x86)/microchip/mplabc32/v2.02/bin/../lib/gcc/pic32mx/4.5.1/../../../../pic32mx/lib\libe.a(_divdf3.o)
 .debug_abbrev  0x0000be71       0x32 c:/program files (x86)/microchip/mplabc32/v2.02/bin/../lib/gcc/pic32mx/4.5.1/../../../../pic32mx/lib\libe.a(_muldf3.o)
 .debug_abbrev  0x0000bea3       0x32 c:/program files (x86)/microchip/mplabc32/v2.02/bin/../lib/gcc/pic32mx/4.5.1/../../../../pic32mx/lib\libe.a(_negdf2.o)
 .debug_abbrev  0x0000bed5       0x32 c:/program files (x86)/microchip/mplabc32/v2.02/bin/../lib/gcc/pic32mx/4.5.1/../../../../pic32mx/lib\libe.a(_adddf3.o)
 .debug_abbrev  0x0000bf07       0x32 c:/program files (x86)/microchip/mplabc32/v2.02/bin/../lib/gcc/pic32mx/4.5.1/../../../../pic32mx/lib\libe.a(_floatsidf.o)
 .debug_abbrev  0x0000bf39       0x32 c:/program files (x86)/microchip/mplabc32/v2.02/bin/../lib/gcc/pic32mx/4.5.1/../../../../pic32mx/lib\libe.a(_ldexp.o)
 .debug_abbrev  0x0000bf6b       0x32 c:/program files (x86)/microchip/mplabc32/v2.02/bin/../lib/gcc/pic32mx/4.5.1/../../../../pic32mx/lib\libe.a(_ldexpf.o)
 .debug_abbrev  0x0000bf9d       0x34 c:/program files (x86)/microchip/mplabc32/v2.02/bin/../lib/gcc/pic32mx/4.5.1/../../../../pic32mx/lib\libmchp_peripheral_32MX575F256L.a(soft_reset_lib.o)
 .debug_abbrev  0x0000bfd1       0x25 c:/program files (x86)/microchip/mplabc32/v2.02/bin/../lib/gcc/pic32mx/4.5.1/../../../../pic32mx/lib\libmchp_peripheral_32MX575F256L.a(pcache.o)
 .debug_abbrev  0x0000bff6       0x25 c:/program files (x86)/microchip/mplabc32/v2.02/bin/../lib/gcc/pic32mx/4.5.1/../../../../pic32mx/lib\libmchp_peripheral_32MX575F256L.a(int_disable_interrupts_lib.o)
 .debug_abbrev  0x0000c01b       0x25 c:/program files (x86)/microchip/mplabc32/v2.02/bin/../lib/gcc/pic32mx/4.5.1/../../../../pic32mx/lib\libmchp_peripheral_32MX575F256L.a(int_restore_interrupts_lib.o)
 .debug_abbrev  0x0000c040       0x25 c:/program files (x86)/microchip/mplabc32/v2.02/bin/../lib/gcc/pic32mx/4.5.1/../../../../pic32mx/lib\libmchp_peripheral_32MX575F256L.a(int_enable_mv_int_lib.o)
 .debug_abbrev  0x0000c065       0x25 c:/program files (x86)/microchip/mplabc32/v2.02/bin/../lib/gcc/pic32mx/4.5.1/../../../../pic32mx/lib\libmchp_peripheral_32MX575F256L.a(int_tbl_lib.o)
 .debug_abbrev  0x0000c08a       0x38 c:/program files (x86)/microchip/mplabc32/v2.02/bin/../lib/gcc/pic32mx/4.5.1/../../../../pic32mx/lib\libmchp_peripheral_32MX575F256L.a(uart_lib.o)
 .debug_abbrev  0x0000c0c2       0x25 c:/program files (x86)/microchip/mplabc32/v2.02/bin/../lib/gcc/pic32mx/4.5.1/../../../../pic32mx/lib\libmchp_peripheral_32MX575F256L.a(puts_uartx_lib_legacy.o)
 .debug_abbrev  0x0000c0e7       0x25 c:/program files (x86)/microchip/mplabc32/v2.02/bin/../lib/gcc/pic32mx/4.5.1/../../../../pic32mx/lib\libmchp_peripheral_32MX575F256L.a(idle_i2c2_lib_legacy.o)
 .debug_abbrev  0x0000c10c        0x1 c:/program files (x86)/microchip/mplabc32/v2.02/bin/../lib/gcc/pic32mx/4.5.1/../../../../pic32mx/lib\libmchp_peripheral_32MX575F256L.a(I2CPrivate.o)
 .debug_abbrev  0x0000c10d       0x25 c:/program files (x86)/microchip/mplabc32/v2.02/bin/../lib/gcc/pic32mx/4.5.1/../../../../pic32mx/lib\libmchp_peripheral_32MX575F256L.a(I2CBusIsIdle.o)
 .debug_abbrev  0x0000c132       0x25 c:/program files (x86)/microchip/mplabc32/v2.02/bin/../lib/gcc/pic32mx/4.5.1/../../../../pic32mx/lib\libmchp_peripheral_32MX575F256L.a(I2CByteWasAcknowledged.o)
 .debug_abbrev  0x0000c157       0x25 c:/program files (x86)/microchip/mplabc32/v2.02/bin/../lib/gcc/pic32mx/4.5.1/../../../../pic32mx/lib\libmchp_peripheral_32MX575F256L.a(I2CEnable.o)
 .debug_abbrev  0x0000c17c       0x25 c:/program files (x86)/microchip/mplabc32/v2.02/bin/../lib/gcc/pic32mx/4.5.1/../../../../pic32mx/lib\libmchp_peripheral_32MX575F256L.a(I2CGetByte.o)
 .debug_abbrev  0x0000c1a1       0x25 c:/program files (x86)/microchip/mplabc32/v2.02/bin/../lib/gcc/pic32mx/4.5.1/../../../../pic32mx/lib\libmchp_peripheral_32MX575F256L.a(I2CGetStatus.o)
 .debug_abbrev  0x0000c1c6       0x25 c:/program files (x86)/microchip/mplabc32/v2.02/bin/../lib/gcc/pic32mx/4.5.1/../../../../pic32mx/lib\libmchp_peripheral_32MX575F256L.a(I2CReceivedDataIsAvailable.o)
 .debug_abbrev  0x0000c1eb       0x25 c:/program files (x86)/microchip/mplabc32/v2.02/bin/../lib/gcc/pic32mx/4.5.1/../../../../pic32mx/lib\libmchp_peripheral_32MX575F256L.a(I2CReceiverEnable.o)
 .debug_abbrev  0x0000c210       0x25 c:/program files (x86)/microchip/mplabc32/v2.02/bin/../lib/gcc/pic32mx/4.5.1/../../../../pic32mx/lib\libmchp_peripheral_32MX575F256L.a(I2CRepeatStart.o)
 .debug_abbrev  0x0000c235       0x25 c:/program files (x86)/microchip/mplabc32/v2.02/bin/../lib/gcc/pic32mx/4.5.1/../../../../pic32mx/lib\libmchp_peripheral_32MX575F256L.a(I2CSetFrequency.o)
 .debug_abbrev  0x0000c25a       0x25 c:/program files (x86)/microchip/mplabc32/v2.02/bin/../lib/gcc/pic32mx/4.5.1/../../../../pic32mx/lib\libmchp_peripheral_32MX575F256L.a(I2CStart.o)
 .debug_abbrev  0x0000c27f       0x25 c:/program files (x86)/microchip/mplabc32/v2.02/bin/../lib/gcc/pic32mx/4.5.1/../../../../pic32mx/lib\libmchp_peripheral_32MX575F256L.a(I2CStop.o)
 .debug_abbrev  0x0000c2a4       0x25 c:/program files (x86)/microchip/mplabc32/v2.02/bin/../lib/gcc/pic32mx/4.5.1/../../../../pic32mx/lib\libmchp_peripheral_32MX575F256L.a(I2CTransmissionHasCompleted.o)
 .debug_abbrev  0x0000c2c9       0x25 c:/program files (x86)/microchip/mplabc32/v2.02/bin/../lib/gcc/pic32mx/4.5.1/../../../../pic32mx/lib\libmchp_peripheral_32MX575F256L.a(I2CTransmitterIsReady.o)
 .debug_abbrev  0x0000c2ee       0x25 c:/program files (x86)/microchip/mplabc32/v2.02/bin/../lib/gcc/pic32mx/4.5.1/../../../../pic32mx/lib\libmchp_peripheral_32MX575F256L.a(int_enable_interrupts_lib.o)
 .debug_abbrev  0x0000c313        0x1 c:/program files (x86)/microchip/mplabc32/v2.02/bin/../lib/gcc/pic32mx/4.5.1/../../../../pic32mx/lib\libc.a(errno.o)
 .debug_abbrev  0x0000c314       0xe3 c:/program files (x86)/microchip/mplabc32/v2.02/bin/../lib/gcc/pic32mx/4.5.1\libgcc.a(_lshrdi3.o)
 .debug_abbrev  0x0000c3f7       0xe3 c:/program files (x86)/microchip/mplabc32/v2.02/bin/../lib/gcc/pic32mx/4.5.1\libgcc.a(_ashldi3.o)

.debug_line     0x00000000     0xddf9
 *(.debug_line)
 .debug_line    0x00000000      0x400 obj-tmp\Main.o
 .debug_line    0x00000400      0x4ab obj-tmp\CustomHTTPApp.o
 .debug_line    0x000008ab      0x220 obj-tmp\WF_Config.o
 .debug_line    0x00000acb      0x159 obj-tmp\WifiGDemoMPFSImg.o
 .debug_line    0x00000c24      0x1f4 obj-tmp\Announce.o
 .debug_line    0x00000e18      0x143 obj-tmp\ARCFOUR.o
 .debug_line    0x00000f5b      0x27a obj-tmp\ARP.o
 .debug_line    0x000011d5      0x143 obj-tmp\AutoIP.o
 .debug_line    0x00001318      0x143 obj-tmp\BerkeleyAPI.o
 .debug_line    0x0000145b      0x143 obj-tmp\BigInt.o
 .debug_line    0x0000159e      0x183 obj-tmp\Delay.o
 .debug_line    0x00001721      0x2e1 obj-tmp\DNS.o
 .debug_line    0x00001a02      0x24f obj-tmp\DNSs.o
 .debug_line    0x00001c51      0x143 obj-tmp\DynDNS.o
 .debug_line    0x00001d94      0x143 obj-tmp\FileSystem.o
 .debug_line    0x00001ed7      0x143 obj-tmp\FTP.o
 .debug_line    0x0000201a      0x143 obj-tmp\Hashes.o
 .debug_line    0x0000215d      0x353 obj-tmp\Helpers.o
 .debug_line    0x000024b0      0x4b6 obj-tmp\HTTP2.o
 .debug_line    0x00002966      0x1b5 obj-tmp\ICMP.o
 .debug_line    0x00002b1b      0x1f2 obj-tmp\IP.o
 .debug_line    0x00002d0d      0x143 obj-tmp\LCDBlocking.o
 .debug_line    0x00002e50      0x2ec obj-tmp\MPFS2.o
 .debug_line    0x0000313c      0x227 obj-tmp\NBNS.o
 .debug_line    0x00003363      0x143 obj-tmp\Random.o
 .debug_line    0x000034a6      0x1c5 obj-tmp\Reboot.o
 .debug_line    0x0000366b      0x143 obj-tmp\RSA.o
 .debug_line    0x000037ae      0x143 obj-tmp\SMTP.o
 .debug_line    0x000038f1      0x143 obj-tmp\SNMP.o
 .debug_line    0x00003a34      0x143 obj-tmp\SNMPv3.o
 .debug_line    0x00003b77      0x143 obj-tmp\SNMPv3USM.o
 .debug_line    0x00003cba      0x143 obj-tmp\SNTP.o
 .debug_line    0x00003dfd      0x143 obj-tmp\SPIEEPROM.o
 .debug_line    0x00003f40      0x38c obj-tmp\SPIFlash.o
 .debug_line    0x000042cc      0x143 obj-tmp\SPIRAM.o
 .debug_line    0x0000440f      0x143 obj-tmp\SSL.o
 .debug_line    0x00004552      0x21b obj-tmp\StackTsk.o
 .debug_line    0x0000476d      0x941 obj-tmp\TCP.o
 .debug_line    0x000050ae      0x143 obj-tmp\TCPPerformanceTest.o
 .debug_line    0x000051f1      0x143 obj-tmp\Telnet.o
 .debug_line    0x00005334      0x143 obj-tmp\TFTPc.o
 .debug_line    0x00005477      0x1c7 obj-tmp\Tick.o
 .debug_line    0x0000563e      0x143 obj-tmp\UART2TCPBridge.o
 .debug_line    0x00005781      0x2fe obj-tmp\UDP.o
 .debug_line    0x00005a7f      0x143 obj-tmp\UDPPerformanceTest.o
 .debug_line    0x00005bc2      0x188 obj-tmp\ZeroconfHelper.o
 .debug_line    0x00005d4a      0x2eb obj-tmp\ZeroconfLinkLocal.o
 .debug_line    0x00006035      0x6c5 obj-tmp\ZeroconfMulticastDNS.o
 .debug_line    0x000066fa      0x1ab obj-tmp\WF_Eint.o
 .debug_line    0x000068a5      0x39b obj-tmp\WF_pbkdf2.o
 .debug_line    0x00006c40      0x2f3 obj-tmp\WFConnectionAlgorithm.o
 .debug_line    0x00006f33      0x21a obj-tmp\WFConnectionManager.o
 .debug_line    0x0000714d      0x2a1 obj-tmp\WFConnectionProfile.o
 .debug_line    0x000073ee      0x143 obj-tmp\WFConsole.o
 .debug_line    0x00007531      0x143 obj-tmp\WFConsoleIfconfig.o
 .debug_line    0x00007674      0x143 obj-tmp\WFConsoleIwconfig.o
 .debug_line    0x000077b7      0x143 obj-tmp\WFConsoleIwpriv.o
 .debug_line    0x000078fa      0x19c obj-tmp\WFConsoleMsgHandler.o
 .debug_line    0x00007a96      0x252 obj-tmp\WFConsoleMsgs.o
 .debug_line    0x00007ce8      0x143 obj-tmp\WFDataTxRx.o
 .debug_line    0x00007e2b      0x2ef obj-tmp\WFDebugStrings.o
 .debug_line    0x0000811a      0x289 obj-tmp\WFEasyConfig.o
 .debug_line    0x000083a3      0x26a obj-tmp\WFEventHandler.o
 .debug_line    0x0000860d      0x1cb obj-tmp\WFInit.o
 .debug_line    0x000087d8      0x214 obj-tmp\WFPowerSave.o
 .debug_line    0x000089ec      0x1d6 obj-tmp\WFScan.o
 .debug_line    0x00008bc2      0x1cb obj-tmp\WFTxPower.o
 .debug_line    0x00008d8d      0x1f2 obj-tmp\WF_Spi.o
 .debug_line    0x00008f7f      0x33d obj-tmp\WFDriverCom_24G.o
 .debug_line    0x000092bc      0x2bc obj-tmp\WFDriverRaw_24G.o
 .debug_line    0x00009578      0x38b obj-tmp\WFMac_24G.o
 .debug_line    0x00009903      0x226 obj-tmp\WFMgmtMsg_24G.o
 .debug_line    0x00009b29      0x2a1 obj-tmp\WFParamMsg_24G.o
 .debug_line    0x00009dca      0x36c obj-tmp\DHCP.o
 .debug_line    0x0000a136      0x3b1 obj-tmp\DHCPs.o
 .debug_line    0x0000a4e7      0x218 obj-tmp\i2c_master.o
 .debug_line    0x0000a6ff      0x792 obj-tmp\OpenADRClient.o
 .debug_line    0x0000ae91      0x1c2 obj-tmp\INTiMain.o
 .debug_line    0x0000b053      0x1f6 obj-tmp\UARTiMain.o
 .debug_line    0x0000b249      0x1dd obj-tmp\TimeMonitor.o
 .debug_line    0x0000b426      0x38d obj-tmp\EPRI_UARTLayer.o
 .debug_line    0x0000b7b3      0x16f obj-tmp\app_UCM.o
 .debug_line    0x0000b922      0x16c obj-tmp\Assert.o
 .debug_line    0x0000ba8e      0x112 c:/program files (x86)/microchip/mplabc32/v2.02/bin/../lib/gcc/pic32mx/4.5.1\libgcc.a(_udivdi3.o)
 .debug_line    0x0000bba0      0x128 c:/program files (x86)/microchip/mplabc32/v2.02/bin/../lib/gcc/pic32mx/4.5.1\libgcc.a(_umoddi3.o)
 .debug_line    0x0000bcc8       0x6d c:/program files (x86)/microchip/mplabc32/v2.02/bin/../lib/gcc/pic32mx/4.5.1\libgcc.a(floatunsisf.o)
 .debug_line    0x0000bd35       0x85 c:/program files (x86)/microchip/mplabc32/v2.02/bin/../lib/gcc/pic32mx/4.5.1/../../../../pic32mx/lib\libc.a(atoi.o)
 .debug_line    0x0000bdba       0x85 c:/program files (x86)/microchip/mplabc32/v2.02/bin/../lib/gcc/pic32mx/4.5.1/../../../../pic32mx/lib\libc.a(atol.o)
 .debug_line    0x0000be3f       0x86 c:/program files (x86)/microchip/mplabc32/v2.02/bin/../lib/gcc/pic32mx/4.5.1/../../../../pic32mx/lib\libc.a(ctime.o)
 .debug_line    0x0000bec5        0x0 c:/program files (x86)/microchip/mplabc32/v2.02/bin/../lib/gcc/pic32mx/4.5.1/../../../../pic32mx/lib\libc.a(ctype.o)
 .debug_line    0x0000bec5       0x87 c:/program files (x86)/microchip/mplabc32/v2.02/bin/../lib/gcc/pic32mx/4.5.1/../../../../pic32mx/lib\libc.a(mktime.o)
 .debug_line    0x0000bf4c       0x85 c:/program files (x86)/microchip/mplabc32/v2.02/bin/../lib/gcc/pic32mx/4.5.1/../../../../pic32mx/lib\libc.a(puts.o)
 .debug_line    0x0000bfd1       0x87 c:/program files (x86)/microchip/mplabc32/v2.02/bin/../lib/gcc/pic32mx/4.5.1/../../../../pic32mx/lib\libc.a(strcat.o)
 .debug_line    0x0000c058       0x87 c:/program files (x86)/microchip/mplabc32/v2.02/bin/../lib/gcc/pic32mx/4.5.1/../../../../pic32mx/lib\libc.a(strchr.o)
 .debug_line    0x0000c0df       0x88 c:/program files (x86)/microchip/mplabc32/v2.02/bin/../lib/gcc/pic32mx/4.5.1/../../../../pic32mx/lib\libc.a(strncmp.o)
 .debug_line    0x0000c167       0x88 c:/program files (x86)/microchip/mplabc32/v2.02/bin/../lib/gcc/pic32mx/4.5.1/../../../../pic32mx/lib\libc.a(strncpy.o)
 .debug_line    0x0000c1ef       0x88 c:/program files (x86)/microchip/mplabc32/v2.02/bin/../lib/gcc/pic32mx/4.5.1/../../../../pic32mx/lib\libc.a(strrchr.o)
 .debug_line    0x0000c277       0x87 c:/program files (x86)/microchip/mplabc32/v2.02/bin/../lib/gcc/pic32mx/4.5.1/../../../../pic32mx/lib\libc.a(strstr.o)
 .debug_line    0x0000c2fe       0x87 c:/program files (x86)/microchip/mplabc32/v2.02/bin/../lib/gcc/pic32mx/4.5.1/../../../../pic32mx/lib\libc.a(strtok.o)
 .debug_line    0x0000c385       0x30 c:/program files (x86)/microchip/mplabc32/v2.02/bin/../lib/gcc/pic32mx/4.5.1/../../../../pic32mx/lib\libc.a(printf_cdnopsuxX.eo)
 .debug_line    0x0000c3b5       0x31 c:/program files (x86)/microchip/mplabc32/v2.02/bin/../lib/gcc/pic32mx/4.5.1/../../../../pic32mx/lib\libc.a(sprintf_cdnopsuxX.eo)
 .debug_line    0x0000c3e6       0x30 c:/program files (x86)/microchip/mplabc32/v2.02/bin/../lib/gcc/pic32mx/4.5.1/../../../../pic32mx/lib\libc.a(sscanf_cdfFnopuxX.eo)
 .debug_line    0x0000c416       0xa6 c:/program files (x86)/microchip/mplabc32/v2.02/bin/../lib/gcc/pic32mx/4.5.1/../../../../pic32mx/lib\libc.a(default-bootstrap-exception-handler.o)
 .debug_line    0x0000c4bc       0x93 c:/program files (x86)/microchip/mplabc32/v2.02/bin/../lib/gcc/pic32mx/4.5.1/../../../../pic32mx/lib\libc.a(default-on-reset.o)
 .debug_line    0x0000c54f       0x97 c:/program files (x86)/microchip/mplabc32/v2.02/bin/../lib/gcc/pic32mx/4.5.1/../../../../pic32mx/lib\libc.a(default-on-bootstrap.o)
 .debug_line    0x0000c5e6        0x0 c:/program files (x86)/microchip/mplabc32/v2.02/bin/../lib/gcc/pic32mx/4.5.1/../../../../pic32mx/lib\libc.a(_iob.o)
 .debug_line    0x0000c5e6       0x2f c:/program files (x86)/microchip/mplabc32/v2.02/bin/../lib/gcc/pic32mx/4.5.1/../../../../pic32mx/lib\libc.a(_fputc_simple.o)
 .debug_line    0x0000c615       0x88 c:/program files (x86)/microchip/mplabc32/v2.02/bin/../lib/gcc/pic32mx/4.5.1/../../../../pic32mx/lib\libc.a(strcspn.o)
 .debug_line    0x0000c69d       0x87 c:/program files (x86)/microchip/mplabc32/v2.02/bin/../lib/gcc/pic32mx/4.5.1/../../../../pic32mx/lib\libc.a(strspn.o)
 .debug_line    0x0000c724       0x30 c:/program files (x86)/microchip/mplabc32/v2.02/bin/../lib/gcc/pic32mx/4.5.1/../../../../pic32mx/lib\libc.a(doprnt_cdnopsuxX.eo)
 .debug_line    0x0000c754       0x30 c:/program files (x86)/microchip/mplabc32/v2.02/bin/../lib/gcc/pic32mx/4.5.1/../../../../pic32mx/lib\libc.a(doscan_cdfFnopuxX.eo)
 .debug_line    0x0000c784       0x30 c:/program files (x86)/microchip/mplabc32/v2.02/bin/../lib/gcc/pic32mx/4.5.1/../../../../pic32mx/lib\libc.a(doscan_cdnopuxX.eo)
 .debug_line    0x0000c7b4       0x88 c:/program files (x86)/microchip/mplabc32/v2.02/bin/../lib/gcc/pic32mx/4.5.1/../../../../pic32mx/lib\libc.a(write.o)
 .debug_line    0x0000c83c       0x30 c:/program files (x86)/microchip/mplabc32/v2.02/bin/../lib/gcc/pic32mx/4.5.1/../../../../pic32mx/lib\libc.a(_flsbuf_simple.o)
 .debug_line    0x0000c86c       0x86 c:/program files (x86)/microchip/mplabc32/v2.02/bin/../lib/gcc/pic32mx/4.5.1/../../../../pic32mx/lib\libc.a(fgetc.o)
 .debug_line    0x0000c8f2       0x87 c:/program files (x86)/microchip/mplabc32/v2.02/bin/../lib/gcc/pic32mx/4.5.1/../../../../pic32mx/lib\libc.a(ctypef.o)
 .debug_line    0x0000c979       0x87 c:/program files (x86)/microchip/mplabc32/v2.02/bin/../lib/gcc/pic32mx/4.5.1/../../../../pic32mx/lib\libc.a(strtof.o)
 .debug_line    0x0000ca00       0x87 c:/program files (x86)/microchip/mplabc32/v2.02/bin/../lib/gcc/pic32mx/4.5.1/../../../../pic32mx/lib\libc.a(strtod.o)
 .debug_line    0x0000ca87       0x87 c:/program files (x86)/microchip/mplabc32/v2.02/bin/../lib/gcc/pic32mx/4.5.1/../../../../pic32mx/lib\libc.a(ungetc.o)
 .debug_line    0x0000cb0e       0x87 c:/program files (x86)/microchip/mplabc32/v2.02/bin/../lib/gcc/pic32mx/4.5.1/../../../../pic32mx/lib\libc.a(filbuf.o)
 .debug_line    0x0000cb95       0x87 c:/program files (x86)/microchip/mplabc32/v2.02/bin/../lib/gcc/pic32mx/4.5.1/../../../../pic32mx/lib\libc.a(fflush.o)
 .debug_line    0x0000cc1c       0x87 c:/program files (x86)/microchip/mplabc32/v2.02/bin/../lib/gcc/pic32mx/4.5.1/../../../../pic32mx/lib\libc.a(read.o)
 .debug_line    0x0000cca3        0x0 c:/program files (x86)/microchip/mplabc32/v2.02/bin/../lib/gcc/pic32mx/4.5.1/../../../../pic32mx/lib\libc.a(c32_uart.o)
 .debug_line    0x0000cca3       0x8b c:/program files (x86)/microchip/mplabc32/v2.02/bin/../lib/gcc/pic32mx/4.5.1/../../../../pic32mx/lib\libm.a(w_sqrtf.o)
 .debug_line    0x0000cd2e        0x0 c:/program files (x86)/microchip/mplabc32/v2.02/bin/../lib/gcc/pic32mx/4.5.1/../../../../pic32mx/lib\libm.a(s_lib_ver.o)
 .debug_line    0x0000cd2e       0x93 c:/program files (x86)/microchip/mplabc32/v2.02/bin/../lib/gcc/pic32mx/4.5.1/../../../../pic32mx/lib\libe.a(_strtod.o)
 .debug_line    0x0000cdc1       0x93 c:/program files (x86)/microchip/mplabc32/v2.02/bin/../lib/gcc/pic32mx/4.5.1/../../../../pic32mx/lib\libe.a(_strtof.o)
 .debug_line    0x0000ce54       0xa4 c:/program files (x86)/microchip/mplabc32/v2.02/bin/../lib/gcc/pic32mx/4.5.1/../../../../pic32mx/lib\libe.a(_divdf3.o)
 .debug_line    0x0000cef8       0xa4 c:/program files (x86)/microchip/mplabc32/v2.02/bin/../lib/gcc/pic32mx/4.5.1/../../../../pic32mx/lib\libe.a(_muldf3.o)
 .debug_line    0x0000cf9c       0x92 c:/program files (x86)/microchip/mplabc32/v2.02/bin/../lib/gcc/pic32mx/4.5.1/../../../../pic32mx/lib\libe.a(_negdf2.o)
 .debug_line    0x0000d02e       0xa4 c:/program files (x86)/microchip/mplabc32/v2.02/bin/../lib/gcc/pic32mx/4.5.1/../../../../pic32mx/lib\libe.a(_adddf3.o)
 .debug_line    0x0000d0d2       0x93 c:/program files (x86)/microchip/mplabc32/v2.02/bin/../lib/gcc/pic32mx/4.5.1/../../../../pic32mx/lib\libe.a(_floatsidf.o)
 .debug_line    0x0000d165       0xa6 c:/program files (x86)/microchip/mplabc32/v2.02/bin/../lib/gcc/pic32mx/4.5.1/../../../../pic32mx/lib\libe.a(_ldexp.o)
 .debug_line    0x0000d20b       0xa6 c:/program files (x86)/microchip/mplabc32/v2.02/bin/../lib/gcc/pic32mx/4.5.1/../../../../pic32mx/lib\libe.a(_ldexpf.o)
 .debug_line    0x0000d2b1       0xbf c:/program files (x86)/microchip/mplabc32/v2.02/bin/../lib/gcc/pic32mx/4.5.1/../../../../pic32mx/lib\libmchp_peripheral_32MX575F256L.a(soft_reset_lib.o)
 .debug_line    0x0000d370       0x62 c:/program files (x86)/microchip/mplabc32/v2.02/bin/../lib/gcc/pic32mx/4.5.1/../../../../pic32mx/lib\libmchp_peripheral_32MX575F256L.a(pcache.o)
 .debug_line    0x0000d3d2       0x73 c:/program files (x86)/microchip/mplabc32/v2.02/bin/../lib/gcc/pic32mx/4.5.1/../../../../pic32mx/lib\libmchp_peripheral_32MX575F256L.a(int_disable_interrupts_lib.o)
 .debug_line    0x0000d445       0x73 c:/program files (x86)/microchip/mplabc32/v2.02/bin/../lib/gcc/pic32mx/4.5.1/../../../../pic32mx/lib\libmchp_peripheral_32MX575F256L.a(int_restore_interrupts_lib.o)
 .debug_line    0x0000d4b8       0x6e c:/program files (x86)/microchip/mplabc32/v2.02/bin/../lib/gcc/pic32mx/4.5.1/../../../../pic32mx/lib\libmchp_peripheral_32MX575F256L.a(int_enable_mv_int_lib.o)
 .debug_line    0x0000d526       0x64 c:/program files (x86)/microchip/mplabc32/v2.02/bin/../lib/gcc/pic32mx/4.5.1/../../../../pic32mx/lib\libmchp_peripheral_32MX575F256L.a(int_tbl_lib.o)
 .debug_line    0x0000d58a       0x62 c:/program files (x86)/microchip/mplabc32/v2.02/bin/../lib/gcc/pic32mx/4.5.1/../../../../pic32mx/lib\libmchp_peripheral_32MX575F256L.a(uart_lib.o)
 .debug_line    0x0000d5ec       0x6f c:/program files (x86)/microchip/mplabc32/v2.02/bin/../lib/gcc/pic32mx/4.5.1/../../../../pic32mx/lib\libmchp_peripheral_32MX575F256L.a(puts_uartx_lib_legacy.o)
 .debug_line    0x0000d65b       0x6d c:/program files (x86)/microchip/mplabc32/v2.02/bin/../lib/gcc/pic32mx/4.5.1/../../../../pic32mx/lib\libmchp_peripheral_32MX575F256L.a(idle_i2c2_lib_legacy.o)
 .debug_line    0x0000d6c8        0x0 c:/program files (x86)/microchip/mplabc32/v2.02/bin/../lib/gcc/pic32mx/4.5.1/../../../../pic32mx/lib\libmchp_peripheral_32MX575F256L.a(I2CPrivate.o)
 .debug_line    0x0000d6c8       0x65 c:/program files (x86)/microchip/mplabc32/v2.02/bin/../lib/gcc/pic32mx/4.5.1/../../../../pic32mx/lib\libmchp_peripheral_32MX575F256L.a(I2CBusIsIdle.o)
 .debug_line    0x0000d72d       0x6f c:/program files (x86)/microchip/mplabc32/v2.02/bin/../lib/gcc/pic32mx/4.5.1/../../../../pic32mx/lib\libmchp_peripheral_32MX575F256L.a(I2CByteWasAcknowledged.o)
 .debug_line    0x0000d79c       0x62 c:/program files (x86)/microchip/mplabc32/v2.02/bin/../lib/gcc/pic32mx/4.5.1/../../../../pic32mx/lib\libmchp_peripheral_32MX575F256L.a(I2CEnable.o)
 .debug_line    0x0000d7fe       0x63 c:/program files (x86)/microchip/mplabc32/v2.02/bin/../lib/gcc/pic32mx/4.5.1/../../../../pic32mx/lib\libmchp_peripheral_32MX575F256L.a(I2CGetByte.o)
 .debug_line    0x0000d861       0x65 c:/program files (x86)/microchip/mplabc32/v2.02/bin/../lib/gcc/pic32mx/4.5.1/../../../../pic32mx/lib\libmchp_peripheral_32MX575F256L.a(I2CGetStatus.o)
 .debug_line    0x0000d8c6       0x73 c:/program files (x86)/microchip/mplabc32/v2.02/bin/../lib/gcc/pic32mx/4.5.1/../../../../pic32mx/lib\libmchp_peripheral_32MX575F256L.a(I2CReceivedDataIsAvailable.o)
 .debug_line    0x0000d939       0x6a c:/program files (x86)/microchip/mplabc32/v2.02/bin/../lib/gcc/pic32mx/4.5.1/../../../../pic32mx/lib\libmchp_peripheral_32MX575F256L.a(I2CReceiverEnable.o)
 .debug_line    0x0000d9a3       0x67 c:/program files (x86)/microchip/mplabc32/v2.02/bin/../lib/gcc/pic32mx/4.5.1/../../../../pic32mx/lib\libmchp_peripheral_32MX575F256L.a(I2CRepeatStart.o)
 .debug_line    0x0000da0a       0x68 c:/program files (x86)/microchip/mplabc32/v2.02/bin/../lib/gcc/pic32mx/4.5.1/../../../../pic32mx/lib\libmchp_peripheral_32MX575F256L.a(I2CSetFrequency.o)
 .debug_line    0x0000da72       0x61 c:/program files (x86)/microchip/mplabc32/v2.02/bin/../lib/gcc/pic32mx/4.5.1/../../../../pic32mx/lib\libmchp_peripheral_32MX575F256L.a(I2CStart.o)
 .debug_line    0x0000dad3       0x60 c:/program files (x86)/microchip/mplabc32/v2.02/bin/../lib/gcc/pic32mx/4.5.1/../../../../pic32mx/lib\libmchp_peripheral_32MX575F256L.a(I2CStop.o)
 .debug_line    0x0000db33       0x74 c:/program files (x86)/microchip/mplabc32/v2.02/bin/../lib/gcc/pic32mx/4.5.1/../../../../pic32mx/lib\libmchp_peripheral_32MX575F256L.a(I2CTransmissionHasCompleted.o)
 .debug_line    0x0000dba7       0x6e c:/program files (x86)/microchip/mplabc32/v2.02/bin/../lib/gcc/pic32mx/4.5.1/../../../../pic32mx/lib\libmchp_peripheral_32MX575F256L.a(I2CTransmitterIsReady.o)
 .debug_line    0x0000dc15       0x72 c:/program files (x86)/microchip/mplabc32/v2.02/bin/../lib/gcc/pic32mx/4.5.1/../../../../pic32mx/lib\libmchp_peripheral_32MX575F256L.a(int_enable_interrupts_lib.o)
 .debug_line    0x0000dc87        0x0 c:/program files (x86)/microchip/mplabc32/v2.02/bin/../lib/gcc/pic32mx/4.5.1/../../../../pic32mx/lib\libc.a(errno.o)
 .debug_line    0x0000dc87       0xb8 c:/program files (x86)/microchip/mplabc32/v2.02/bin/../lib/gcc/pic32mx/4.5.1\libgcc.a(_lshrdi3.o)
 .debug_line    0x0000dd3f       0xba c:/program files (x86)/microchip/mplabc32/v2.02/bin/../lib/gcc/pic32mx/4.5.1\libgcc.a(_ashldi3.o)

.debug_frame    0x00000000     0x4490
 *(.debug_frame)
 .debug_frame   0x00000000       0xa4 obj-tmp\Main.o
 .debug_frame   0x000000a4      0x228 obj-tmp\CustomHTTPApp.o
 .debug_frame   0x000002cc       0x4c obj-tmp\WF_Config.o
 .debug_frame   0x00000318       0x48 obj-tmp\Announce.o
 .debug_frame   0x00000360       0xe8 obj-tmp\ARP.o
 .debug_frame   0x00000448       0x3c obj-tmp\Delay.o
 .debug_frame   0x00000484       0xb0 obj-tmp\DNS.o
 .debug_frame   0x00000534       0x34 obj-tmp\DNSs.o
 .debug_frame   0x00000568      0x154 obj-tmp\Helpers.o
 .debug_frame   0x000006bc      0x174 obj-tmp\HTTP2.o
 .debug_frame   0x00000830       0x2c obj-tmp\ICMP.o
 .debug_frame   0x0000085c       0x80 obj-tmp\IP.o
 .debug_frame   0x000008dc      0x1e0 obj-tmp\MPFS2.o
 .debug_frame   0x00000abc       0x38 obj-tmp\NBNS.o
 .debug_frame   0x00000af4       0x28 obj-tmp\Reboot.o
 .debug_frame   0x00000b1c       0xd4 obj-tmp\SPIFlash.o
 .debug_frame   0x00000bf0       0x78 obj-tmp\StackTsk.o
 .debug_frame   0x00000c68      0x37c obj-tmp\TCP.o
 .debug_frame   0x00000fe4       0xac obj-tmp\Tick.o
 .debug_frame   0x00001090      0x1a8 obj-tmp\UDP.o
 .debug_frame   0x00001238       0x2c obj-tmp\ZeroconfHelper.o
 .debug_frame   0x00001264       0xac obj-tmp\ZeroconfLinkLocal.o
 .debug_frame   0x00001310      0x250 obj-tmp\ZeroconfMulticastDNS.o
 .debug_frame   0x00001560       0xa4 obj-tmp\WF_Eint.o
 .debug_frame   0x00001604      0x150 obj-tmp\WF_pbkdf2.o
 .debug_frame   0x00001754      0x3d8 obj-tmp\WFConnectionAlgorithm.o
 .debug_frame   0x00001b2c       0xc8 obj-tmp\WFConnectionManager.o
 .debug_frame   0x00001bf4      0x280 obj-tmp\WFConnectionProfile.o
 .debug_frame   0x00001e74       0x30 obj-tmp\WFConsoleMsgHandler.o
 .debug_frame   0x00001ea4       0x40 obj-tmp\WFConsoleMsgs.o
 .debug_frame   0x00001ee4       0xb0 obj-tmp\WFDebugStrings.o
 .debug_frame   0x00001f94       0xa8 obj-tmp\WFEasyConfig.o
 .debug_frame   0x0000203c       0x3c obj-tmp\WFEventHandler.o
 .debug_frame   0x00002078       0x28 obj-tmp\WFInit.o
 .debug_frame   0x000020a0      0x128 obj-tmp\WFPowerSave.o
 .debug_frame   0x000021c8       0x40 obj-tmp\WFScan.o
 .debug_frame   0x00002208       0x58 obj-tmp\WFTxPower.o
 .debug_frame   0x00002260       0x60 obj-tmp\WF_Spi.o
 .debug_frame   0x000022c0      0x1b0 obj-tmp\WFDriverCom_24G.o
 .debug_frame   0x00002470      0x20c obj-tmp\WFDriverRaw_24G.o
 .debug_frame   0x0000267c      0x2cc obj-tmp\WFMac_24G.o
 .debug_frame   0x00002948       0x90 obj-tmp\WFMgmtMsg_24G.o
 .debug_frame   0x000029d8      0x25c obj-tmp\WFParamMsg_24G.o
 .debug_frame   0x00002c34      0x100 obj-tmp\DHCP.o
 .debug_frame   0x00002d34       0xbc obj-tmp\DHCPs.o
 .debug_frame   0x00002df0       0xdc obj-tmp\i2c_master.o
 .debug_frame   0x00002ecc      0x394 obj-tmp\OpenADRClient.o
 .debug_frame   0x00003260       0xe0 obj-tmp\INTiMain.o
 .debug_frame   0x00003340       0x74 obj-tmp\UARTiMain.o
 .debug_frame   0x000033b4       0xe0 obj-tmp\TimeMonitor.o
 .debug_frame   0x00003494      0x1c0 obj-tmp\EPRI_UARTLayer.o
 .debug_frame   0x00003654       0x38 obj-tmp\app_UCM.o
 .debug_frame   0x0000368c       0x44 obj-tmp\Assert.o
 .debug_frame   0x000036d0       0x28 c:/program files (x86)/microchip/mplabc32/v2.02/bin/../lib/gcc/pic32mx/4.5.1\libgcc.a(floatunsisf.o)
 .debug_frame   0x000036f8       0x20 c:/program files (x86)/microchip/mplabc32/v2.02/bin/../lib/gcc/pic32mx/4.5.1/../../../../pic32mx/lib\libc.a(atoi.o)
 .debug_frame   0x00003718       0x20 c:/program files (x86)/microchip/mplabc32/v2.02/bin/../lib/gcc/pic32mx/4.5.1/../../../../pic32mx/lib\libc.a(atol.o)
 .debug_frame   0x00003738       0x60 c:/program files (x86)/microchip/mplabc32/v2.02/bin/../lib/gcc/pic32mx/4.5.1/../../../../pic32mx/lib\libc.a(ctime.o)
 .debug_frame   0x00003798       0x40 c:/program files (x86)/microchip/mplabc32/v2.02/bin/../lib/gcc/pic32mx/4.5.1/../../../../pic32mx/lib\libc.a(mktime.o)
 .debug_frame   0x000037d8       0x48 c:/program files (x86)/microchip/mplabc32/v2.02/bin/../lib/gcc/pic32mx/4.5.1/../../../../pic32mx/lib\libc.a(puts.o)
 .debug_frame   0x00003820       0x20 c:/program files (x86)/microchip/mplabc32/v2.02/bin/../lib/gcc/pic32mx/4.5.1/../../../../pic32mx/lib\libc.a(strcat.o)
 .debug_frame   0x00003840       0x20 c:/program files (x86)/microchip/mplabc32/v2.02/bin/../lib/gcc/pic32mx/4.5.1/../../../../pic32mx/lib\libc.a(strchr.o)
 .debug_frame   0x00003860       0x20 c:/program files (x86)/microchip/mplabc32/v2.02/bin/../lib/gcc/pic32mx/4.5.1/../../../../pic32mx/lib\libc.a(strncmp.o)
 .debug_frame   0x00003880       0x20 c:/program files (x86)/microchip/mplabc32/v2.02/bin/../lib/gcc/pic32mx/4.5.1/../../../../pic32mx/lib\libc.a(strncpy.o)
 .debug_frame   0x000038a0       0x28 c:/program files (x86)/microchip/mplabc32/v2.02/bin/../lib/gcc/pic32mx/4.5.1/../../../../pic32mx/lib\libc.a(strrchr.o)
 .debug_frame   0x000038c8       0x2c c:/program files (x86)/microchip/mplabc32/v2.02/bin/../lib/gcc/pic32mx/4.5.1/../../../../pic32mx/lib\libc.a(strstr.o)
 .debug_frame   0x000038f4       0x2c c:/program files (x86)/microchip/mplabc32/v2.02/bin/../lib/gcc/pic32mx/4.5.1/../../../../pic32mx/lib\libc.a(strtok.o)
 .debug_frame   0x00003920       0x28 c:/program files (x86)/microchip/mplabc32/v2.02/bin/../lib/gcc/pic32mx/4.5.1/../../../../pic32mx/lib\libc.a(printf_cdnopsuxX.eo)
 .debug_frame   0x00003948       0x2c c:/program files (x86)/microchip/mplabc32/v2.02/bin/../lib/gcc/pic32mx/4.5.1/../../../../pic32mx/lib\libc.a(sprintf_cdnopsuxX.eo)
 .debug_frame   0x00003974       0x2c c:/program files (x86)/microchip/mplabc32/v2.02/bin/../lib/gcc/pic32mx/4.5.1/../../../../pic32mx/lib\libc.a(sscanf_cdfFnopuxX.eo)
 .debug_frame   0x000039a0       0x20 c:/program files (x86)/microchip/mplabc32/v2.02/bin/../lib/gcc/pic32mx/4.5.1/../../../../pic32mx/lib\libc.a(default-bootstrap-exception-handler.o)
 .debug_frame   0x000039c0       0x20 c:/program files (x86)/microchip/mplabc32/v2.02/bin/../lib/gcc/pic32mx/4.5.1/../../../../pic32mx/lib\libc.a(default-on-reset.o)
 .debug_frame   0x000039e0       0x20 c:/program files (x86)/microchip/mplabc32/v2.02/bin/../lib/gcc/pic32mx/4.5.1/../../../../pic32mx/lib\libc.a(default-on-bootstrap.o)
 .debug_frame   0x00003a00       0x2c c:/program files (x86)/microchip/mplabc32/v2.02/bin/../lib/gcc/pic32mx/4.5.1/../../../../pic32mx/lib\libc.a(_fputc_simple.o)
 .debug_frame   0x00003a2c       0x2c c:/program files (x86)/microchip/mplabc32/v2.02/bin/../lib/gcc/pic32mx/4.5.1/../../../../pic32mx/lib\libc.a(strcspn.o)
 .debug_frame   0x00003a58       0x2c c:/program files (x86)/microchip/mplabc32/v2.02/bin/../lib/gcc/pic32mx/4.5.1/../../../../pic32mx/lib\libc.a(strspn.o)
 .debug_frame   0x00003a84       0x38 c:/program files (x86)/microchip/mplabc32/v2.02/bin/../lib/gcc/pic32mx/4.5.1/../../../../pic32mx/lib\libc.a(doprnt_cdnopsuxX.eo)
 .debug_frame   0x00003abc       0x74 c:/program files (x86)/microchip/mplabc32/v2.02/bin/../lib/gcc/pic32mx/4.5.1/../../../../pic32mx/lib\libc.a(doscan_cdfFnopuxX.eo)
 .debug_frame   0x00003b30       0x74 c:/program files (x86)/microchip/mplabc32/v2.02/bin/../lib/gcc/pic32mx/4.5.1/../../../../pic32mx/lib\libc.a(doscan_cdnopuxX.eo)
 .debug_frame   0x00003ba4       0x28 c:/program files (x86)/microchip/mplabc32/v2.02/bin/../lib/gcc/pic32mx/4.5.1/../../../../pic32mx/lib\libc.a(write.o)
 .debug_frame   0x00003bcc       0x28 c:/program files (x86)/microchip/mplabc32/v2.02/bin/../lib/gcc/pic32mx/4.5.1/../../../../pic32mx/lib\libc.a(_flsbuf_simple.o)
 .debug_frame   0x00003bf4       0x30 c:/program files (x86)/microchip/mplabc32/v2.02/bin/../lib/gcc/pic32mx/4.5.1/../../../../pic32mx/lib\libc.a(fgetc.o)
 .debug_frame   0x00003c24      0x120 c:/program files (x86)/microchip/mplabc32/v2.02/bin/../lib/gcc/pic32mx/4.5.1/../../../../pic32mx/lib\libc.a(ctypef.o)
 .debug_frame   0x00003d44       0x40 c:/program files (x86)/microchip/mplabc32/v2.02/bin/../lib/gcc/pic32mx/4.5.1/../../../../pic32mx/lib\libc.a(strtof.o)
 .debug_frame   0x00003d84       0x40 c:/program files (x86)/microchip/mplabc32/v2.02/bin/../lib/gcc/pic32mx/4.5.1/../../../../pic32mx/lib\libc.a(strtod.o)
 .debug_frame   0x00003dc4       0x20 c:/program files (x86)/microchip/mplabc32/v2.02/bin/../lib/gcc/pic32mx/4.5.1/../../../../pic32mx/lib\libc.a(ungetc.o)
 .debug_frame   0x00003de4       0x30 c:/program files (x86)/microchip/mplabc32/v2.02/bin/../lib/gcc/pic32mx/4.5.1/../../../../pic32mx/lib\libc.a(filbuf.o)
 .debug_frame   0x00003e14       0x2c c:/program files (x86)/microchip/mplabc32/v2.02/bin/../lib/gcc/pic32mx/4.5.1/../../../../pic32mx/lib\libc.a(fflush.o)
 .debug_frame   0x00003e40       0x2c c:/program files (x86)/microchip/mplabc32/v2.02/bin/../lib/gcc/pic32mx/4.5.1/../../../../pic32mx/lib\libc.a(read.o)
 .debug_frame   0x00003e6c       0x28 c:/program files (x86)/microchip/mplabc32/v2.02/bin/../lib/gcc/pic32mx/4.5.1/../../../../pic32mx/lib\libm.a(w_sqrtf.o)
 .debug_frame   0x00003e94       0x38 c:/program files (x86)/microchip/mplabc32/v2.02/bin/../lib/gcc/pic32mx/4.5.1/../../../../pic32mx/lib\libe.a(_strtod.o)
 .debug_frame   0x00003ecc       0x38 c:/program files (x86)/microchip/mplabc32/v2.02/bin/../lib/gcc/pic32mx/4.5.1/../../../../pic32mx/lib\libe.a(_strtof.o)
 .debug_frame   0x00003f04       0x3c c:/program files (x86)/microchip/mplabc32/v2.02/bin/../lib/gcc/pic32mx/4.5.1/../../../../pic32mx/lib\libe.a(_divdf3.o)
 .debug_frame   0x00003f40       0x3c c:/program files (x86)/microchip/mplabc32/v2.02/bin/../lib/gcc/pic32mx/4.5.1/../../../../pic32mx/lib\libe.a(_muldf3.o)
 .debug_frame   0x00003f7c       0x20 c:/program files (x86)/microchip/mplabc32/v2.02/bin/../lib/gcc/pic32mx/4.5.1/../../../../pic32mx/lib\libe.a(_negdf2.o)
 .debug_frame   0x00003f9c       0x40 c:/program files (x86)/microchip/mplabc32/v2.02/bin/../lib/gcc/pic32mx/4.5.1/../../../../pic32mx/lib\libe.a(_adddf3.o)
 .debug_frame   0x00003fdc       0x20 c:/program files (x86)/microchip/mplabc32/v2.02/bin/../lib/gcc/pic32mx/4.5.1/../../../../pic32mx/lib\libe.a(_floatsidf.o)
 .debug_frame   0x00003ffc       0x34 c:/program files (x86)/microchip/mplabc32/v2.02/bin/../lib/gcc/pic32mx/4.5.1/../../../../pic32mx/lib\libe.a(_ldexp.o)
 .debug_frame   0x00004030       0x20 c:/program files (x86)/microchip/mplabc32/v2.02/bin/../lib/gcc/pic32mx/4.5.1/../../../../pic32mx/lib\libe.a(_ldexpf.o)
 .debug_frame   0x00004050       0x28 c:/program files (x86)/microchip/mplabc32/v2.02/bin/../lib/gcc/pic32mx/4.5.1/../../../../pic32mx/lib\libmchp_peripheral_32MX575F256L.a(soft_reset_lib.o)
 .debug_frame   0x00004078       0x30 c:/program files (x86)/microchip/mplabc32/v2.02/bin/../lib/gcc/pic32mx/4.5.1/../../../../pic32mx/lib\libmchp_peripheral_32MX575F256L.a(pcache.o)
 .debug_frame   0x000040a8       0x20 c:/program files (x86)/microchip/mplabc32/v2.02/bin/../lib/gcc/pic32mx/4.5.1/../../../../pic32mx/lib\libmchp_peripheral_32MX575F256L.a(int_disable_interrupts_lib.o)
 .debug_frame   0x000040c8       0x20 c:/program files (x86)/microchip/mplabc32/v2.02/bin/../lib/gcc/pic32mx/4.5.1/../../../../pic32mx/lib\libmchp_peripheral_32MX575F256L.a(int_restore_interrupts_lib.o)
 .debug_frame   0x000040e8       0x28 c:/program files (x86)/microchip/mplabc32/v2.02/bin/../lib/gcc/pic32mx/4.5.1/../../../../pic32mx/lib\libmchp_peripheral_32MX575F256L.a(int_enable_mv_int_lib.o)
 .debug_frame   0x00004110       0xa0 c:/program files (x86)/microchip/mplabc32/v2.02/bin/../lib/gcc/pic32mx/4.5.1/../../../../pic32mx/lib\libmchp_peripheral_32MX575F256L.a(int_tbl_lib.o)
 .debug_frame   0x000041b0       0x90 c:/program files (x86)/microchip/mplabc32/v2.02/bin/../lib/gcc/pic32mx/4.5.1/../../../../pic32mx/lib\libmchp_peripheral_32MX575F256L.a(uart_lib.o)
 .debug_frame   0x00004240       0x30 c:/program files (x86)/microchip/mplabc32/v2.02/bin/../lib/gcc/pic32mx/4.5.1/../../../../pic32mx/lib\libmchp_peripheral_32MX575F256L.a(puts_uartx_lib_legacy.o)
 .debug_frame   0x00004270       0x20 c:/program files (x86)/microchip/mplabc32/v2.02/bin/../lib/gcc/pic32mx/4.5.1/../../../../pic32mx/lib\libmchp_peripheral_32MX575F256L.a(idle_i2c2_lib_legacy.o)
 .debug_frame   0x00004290       0x20 c:/program files (x86)/microchip/mplabc32/v2.02/bin/../lib/gcc/pic32mx/4.5.1/../../../../pic32mx/lib\libmchp_peripheral_32MX575F256L.a(I2CBusIsIdle.o)
 .debug_frame   0x000042b0       0x20 c:/program files (x86)/microchip/mplabc32/v2.02/bin/../lib/gcc/pic32mx/4.5.1/../../../../pic32mx/lib\libmchp_peripheral_32MX575F256L.a(I2CByteWasAcknowledged.o)
 .debug_frame   0x000042d0       0x20 c:/program files (x86)/microchip/mplabc32/v2.02/bin/../lib/gcc/pic32mx/4.5.1/../../../../pic32mx/lib\libmchp_peripheral_32MX575F256L.a(I2CEnable.o)
 .debug_frame   0x000042f0       0x20 c:/program files (x86)/microchip/mplabc32/v2.02/bin/../lib/gcc/pic32mx/4.5.1/../../../../pic32mx/lib\libmchp_peripheral_32MX575F256L.a(I2CGetByte.o)
 .debug_frame   0x00004310       0x20 c:/program files (x86)/microchip/mplabc32/v2.02/bin/../lib/gcc/pic32mx/4.5.1/../../../../pic32mx/lib\libmchp_peripheral_32MX575F256L.a(I2CGetStatus.o)
 .debug_frame   0x00004330       0x20 c:/program files (x86)/microchip/mplabc32/v2.02/bin/../lib/gcc/pic32mx/4.5.1/../../../../pic32mx/lib\libmchp_peripheral_32MX575F256L.a(I2CReceivedDataIsAvailable.o)
 .debug_frame   0x00004350       0x20 c:/program files (x86)/microchip/mplabc32/v2.02/bin/../lib/gcc/pic32mx/4.5.1/../../../../pic32mx/lib\libmchp_peripheral_32MX575F256L.a(I2CReceiverEnable.o)
 .debug_frame   0x00004370       0x20 c:/program files (x86)/microchip/mplabc32/v2.02/bin/../lib/gcc/pic32mx/4.5.1/../../../../pic32mx/lib\libmchp_peripheral_32MX575F256L.a(I2CRepeatStart.o)
 .debug_frame   0x00004390       0x20 c:/program files (x86)/microchip/mplabc32/v2.02/bin/../lib/gcc/pic32mx/4.5.1/../../../../pic32mx/lib\libmchp_peripheral_32MX575F256L.a(I2CSetFrequency.o)
 .debug_frame   0x000043b0       0x20 c:/program files (x86)/microchip/mplabc32/v2.02/bin/../lib/gcc/pic32mx/4.5.1/../../../../pic32mx/lib\libmchp_peripheral_32MX575F256L.a(I2CStart.o)
 .debug_frame   0x000043d0       0x20 c:/program files (x86)/microchip/mplabc32/v2.02/bin/../lib/gcc/pic32mx/4.5.1/../../../../pic32mx/lib\libmchp_peripheral_32MX575F256L.a(I2CStop.o)
 .debug_frame   0x000043f0       0x20 c:/program files (x86)/microchip/mplabc32/v2.02/bin/../lib/gcc/pic32mx/4.5.1/../../../../pic32mx/lib\libmchp_peripheral_32MX575F256L.a(I2CTransmissionHasCompleted.o)
 .debug_frame   0x00004410       0x20 c:/program files (x86)/microchip/mplabc32/v2.02/bin/../lib/gcc/pic32mx/4.5.1/../../../../pic32mx/lib\libmchp_peripheral_32MX575F256L.a(I2CTransmitterIsReady.o)
 .debug_frame   0x00004430       0x20 c:/program files (x86)/microchip/mplabc32/v2.02/bin/../lib/gcc/pic32mx/4.5.1/../../../../pic32mx/lib\libmchp_peripheral_32MX575F256L.a(int_enable_interrupts_lib.o)
 .debug_frame   0x00004450       0x20 c:/program files (x86)/microchip/mplabc32/v2.02/bin/../lib/gcc/pic32mx/4.5.1\libgcc.a(_lshrdi3.o)
 .debug_frame   0x00004470       0x20 c:/program files (x86)/microchip/mplabc32/v2.02/bin/../lib/gcc/pic32mx/4.5.1\libgcc.a(_ashldi3.o)

.debug_str      0x00000000     0x5df3
 *(.debug_str)
 .debug_str     0x00000000      0x1b0 obj-tmp\Main.o
 .debug_str     0x000001b0      0x196 obj-tmp\CustomHTTPApp.o
 .debug_str     0x00000346      0x108 obj-tmp\WF_Config.o
 .debug_str     0x0000044e       0xe2 obj-tmp\WifiGDemoMPFSImg.o
 .debug_str     0x00000530      0x10e obj-tmp\Announce.o
 .debug_str     0x0000063e       0xe2 obj-tmp\ARCFOUR.o
 .debug_str     0x00000720       0xfa obj-tmp\ARP.o
 .debug_str     0x0000081a       0xe2 obj-tmp\AutoIP.o
 .debug_str     0x000008fc       0xe2 obj-tmp\BerkeleyAPI.o
 .debug_str     0x000009de       0xe2 obj-tmp\BigInt.o
 .debug_str     0x00000ac0       0xe2 obj-tmp\Delay.o
 .debug_str     0x00000ba2       0xec obj-tmp\DNS.o
 .debug_str     0x00000c8e       0xec obj-tmp\DNSs.o
 .debug_str     0x00000d7a       0xe2 obj-tmp\DynDNS.o
 .debug_str     0x00000e5c       0xe2 obj-tmp\FileSystem.o
 .debug_str     0x00000f3e       0xe2 obj-tmp\FTP.o
 .debug_str     0x00001020       0xe2 obj-tmp\Hashes.o
 .debug_str     0x00001102       0xf5 obj-tmp\Helpers.o
 .debug_str     0x000011f7      0x10e obj-tmp\HTTP2.o
 .debug_str     0x00001305       0xe2 obj-tmp\ICMP.o
 .debug_str     0x000013e7       0xf5 obj-tmp\IP.o
 .debug_str     0x000014dc       0xe2 obj-tmp\LCDBlocking.o
 .debug_str     0x000015be      0x106 obj-tmp\MPFS2.o
 .debug_str     0x000016c4      0x105 obj-tmp\NBNS.o
 .debug_str     0x000017c9       0xe2 obj-tmp\Random.o
 .debug_str     0x000018ab      0x100 obj-tmp\Reboot.o
 .debug_str     0x000019ab       0xe2 obj-tmp\RSA.o
 .debug_str     0x00001a8d       0xe2 obj-tmp\SMTP.o
 .debug_str     0x00001b6f       0xe2 obj-tmp\SNMP.o
 .debug_str     0x00001c51       0xe2 obj-tmp\SNMPv3.o
 .debug_str     0x00001d33       0xe2 obj-tmp\SNMPv3USM.o
 .debug_str     0x00001e15       0xe2 obj-tmp\SNTP.o
 .debug_str     0x00001ef7       0xe2 obj-tmp\SPIEEPROM.o
 .debug_str     0x00001fd9      0x13e obj-tmp\SPIFlash.o
 .debug_str     0x00002117       0xe2 obj-tmp\SPIRAM.o
 .debug_str     0x000021f9       0xe2 obj-tmp\SSL.o
 .debug_str     0x000022db      0x114 obj-tmp\StackTsk.o
 .debug_str     0x000023ef      0x1ad obj-tmp\TCP.o
 .debug_str     0x0000259c       0xe2 obj-tmp\TCPPerformanceTest.o
 .debug_str     0x0000267e       0xe2 obj-tmp\Telnet.o
 .debug_str     0x00002760       0xe2 obj-tmp\TFTPc.o
 .debug_str     0x00002842       0xfe obj-tmp\Tick.o
 .debug_str     0x00002940       0xe2 obj-tmp\UART2TCPBridge.o
 .debug_str     0x00002a22      0x154 obj-tmp\UDP.o
 .debug_str     0x00002b76       0xe2 obj-tmp\UDPPerformanceTest.o
 .debug_str     0x00002c58       0xe2 obj-tmp\ZeroconfHelper.o
 .debug_str     0x00002d3a      0x143 obj-tmp\ZeroconfLinkLocal.o
 .debug_str     0x00002e7d      0x1a6 obj-tmp\ZeroconfMulticastDNS.o
 .debug_str     0x00003023      0x113 obj-tmp\WF_Eint.o
 .debug_str     0x00003136      0x134 obj-tmp\WF_pbkdf2.o
 .debug_str     0x0000326a      0x1e0 obj-tmp\WFConnectionAlgorithm.o
 .debug_str     0x0000344a       0xf7 obj-tmp\WFConnectionManager.o
 .debug_str     0x00003541      0x188 obj-tmp\WFConnectionProfile.o
 .debug_str     0x000036c9       0xe2 obj-tmp\WFConsole.o
 .debug_str     0x000037ab       0xe2 obj-tmp\WFConsoleIfconfig.o
 .debug_str     0x0000388d       0xe2 obj-tmp\WFConsoleIwconfig.o
 .debug_str     0x0000396f       0xe2 obj-tmp\WFConsoleIwpriv.o
 .debug_str     0x00003a51       0xe2 obj-tmp\WFConsoleMsgHandler.o
 .debug_str     0x00003b33      0x17c obj-tmp\WFConsoleMsgs.o
 .debug_str     0x00003caf       0xe2 obj-tmp\WFDataTxRx.o
 .debug_str     0x00003d91      0x16b obj-tmp\WFDebugStrings.o
 .debug_str     0x00003efc      0x121 obj-tmp\WFEasyConfig.o
 .debug_str     0x0000401d       0xed obj-tmp\WFEventHandler.o
 .debug_str     0x0000410a       0xec obj-tmp\WFInit.o
 .debug_str     0x000041f6      0x10a obj-tmp\WFPowerSave.o
 .debug_str     0x00004300       0xe2 obj-tmp\WFScan.o
 .debug_str     0x000043e2       0xea obj-tmp\WFTxPower.o
 .debug_str     0x000044cc      0x121 obj-tmp\WF_Spi.o
 .debug_str     0x000045ed      0x1b5 obj-tmp\WFDriverCom_24G.o
 .debug_str     0x000047a2      0x1a1 obj-tmp\WFDriverRaw_24G.o
 .debug_str     0x00004943      0x169 obj-tmp\WFMac_24G.o
 .debug_str     0x00004aac      0x127 obj-tmp\WFMgmtMsg_24G.o
 .debug_str     0x00004bd3      0x125 obj-tmp\WFParamMsg_24G.o
 .debug_str     0x00004cf8      0x12a obj-tmp\DHCP.o
 .debug_str     0x00004e22      0x134 obj-tmp\DHCPs.o
 .debug_str     0x00004f56      0x127 obj-tmp\i2c_master.o
 .debug_str     0x0000507d      0x65b obj-tmp\OpenADRClient.o
 .debug_str     0x000056d8      0x121 obj-tmp\INTiMain.o
 .debug_str     0x000057f9       0xf2 obj-tmp\UARTiMain.o
 .debug_str     0x000058eb      0x15b obj-tmp\TimeMonitor.o
 .debug_str     0x00005a46      0x1d7 obj-tmp\EPRI_UARTLayer.o
 .debug_str     0x00005c1d       0xe2 obj-tmp\app_UCM.o
 .debug_str     0x00005cff       0xe2 obj-tmp\Assert.o
 .debug_str     0x00005de1        0x0 c:/program files (x86)/microchip/mplabc32/v2.02/bin/../lib/gcc/pic32mx/4.5.1\libgcc.a(_udivdi3.o)
 .debug_str     0x00005de1        0x0 c:/program files (x86)/microchip/mplabc32/v2.02/bin/../lib/gcc/pic32mx/4.5.1\libgcc.a(_umoddi3.o)
 .debug_str     0x00005de1        0x0 c:/program files (x86)/microchip/mplabc32/v2.02/bin/../lib/gcc/pic32mx/4.5.1\libgcc.a(floatunsisf.o)
 .debug_str     0x00005de1        0x0 c:/program files (x86)/microchip/mplabc32/v2.02/bin/../lib/gcc/pic32mx/4.5.1/../../../../pic32mx/lib\libc.a(atoi.o)
 .debug_str     0x00005de1        0x0 c:/program files (x86)/microchip/mplabc32/v2.02/bin/../lib/gcc/pic32mx/4.5.1/../../../../pic32mx/lib\libc.a(atol.o)
 .debug_str     0x00005de1        0x0 c:/program files (x86)/microchip/mplabc32/v2.02/bin/../lib/gcc/pic32mx/4.5.1/../../../../pic32mx/lib\libc.a(ctime.o)
 .debug_str     0x00005de1        0x0 c:/program files (x86)/microchip/mplabc32/v2.02/bin/../lib/gcc/pic32mx/4.5.1/../../../../pic32mx/lib\libc.a(ctype.o)
 .debug_str     0x00005de1        0x0 c:/program files (x86)/microchip/mplabc32/v2.02/bin/../lib/gcc/pic32mx/4.5.1/../../../../pic32mx/lib\libc.a(mktime.o)
 .debug_str     0x00005de1        0x0 c:/program files (x86)/microchip/mplabc32/v2.02/bin/../lib/gcc/pic32mx/4.5.1/../../../../pic32mx/lib\libc.a(puts.o)
 .debug_str     0x00005de1        0x0 c:/program files (x86)/microchip/mplabc32/v2.02/bin/../lib/gcc/pic32mx/4.5.1/../../../../pic32mx/lib\libc.a(strcat.o)
 .debug_str     0x00005de1        0x0 c:/program files (x86)/microchip/mplabc32/v2.02/bin/../lib/gcc/pic32mx/4.5.1/../../../../pic32mx/lib\libc.a(strchr.o)
 .debug_str     0x00005de1        0x0 c:/program files (x86)/microchip/mplabc32/v2.02/bin/../lib/gcc/pic32mx/4.5.1/../../../../pic32mx/lib\libc.a(strncmp.o)
 .debug_str     0x00005de1        0x0 c:/program files (x86)/microchip/mplabc32/v2.02/bin/../lib/gcc/pic32mx/4.5.1/../../../../pic32mx/lib\libc.a(strncpy.o)
 .debug_str     0x00005de1        0x0 c:/program files (x86)/microchip/mplabc32/v2.02/bin/../lib/gcc/pic32mx/4.5.1/../../../../pic32mx/lib\libc.a(strrchr.o)
 .debug_str     0x00005de1        0x0 c:/program files (x86)/microchip/mplabc32/v2.02/bin/../lib/gcc/pic32mx/4.5.1/../../../../pic32mx/lib\libc.a(strstr.o)
 .debug_str     0x00005de1        0x0 c:/program files (x86)/microchip/mplabc32/v2.02/bin/../lib/gcc/pic32mx/4.5.1/../../../../pic32mx/lib\libc.a(strtok.o)
 .debug_str     0x00005de1        0x0 c:/program files (x86)/microchip/mplabc32/v2.02/bin/../lib/gcc/pic32mx/4.5.1/../../../../pic32mx/lib\libc.a(printf_cdnopsuxX.eo)
 .debug_str     0x00005de1        0x0 c:/program files (x86)/microchip/mplabc32/v2.02/bin/../lib/gcc/pic32mx/4.5.1/../../../../pic32mx/lib\libc.a(sprintf_cdnopsuxX.eo)
 .debug_str     0x00005de1        0x0 c:/program files (x86)/microchip/mplabc32/v2.02/bin/../lib/gcc/pic32mx/4.5.1/../../../../pic32mx/lib\libc.a(sscanf_cdfFnopuxX.eo)
 .debug_str     0x00005de1        0x0 c:/program files (x86)/microchip/mplabc32/v2.02/bin/../lib/gcc/pic32mx/4.5.1/../../../../pic32mx/lib\libc.a(default-bootstrap-exception-handler.o)
 .debug_str     0x00005de1        0x0 c:/program files (x86)/microchip/mplabc32/v2.02/bin/../lib/gcc/pic32mx/4.5.1/../../../../pic32mx/lib\libc.a(default-on-reset.o)
 .debug_str     0x00005de1        0x0 c:/program files (x86)/microchip/mplabc32/v2.02/bin/../lib/gcc/pic32mx/4.5.1/../../../../pic32mx/lib\libc.a(default-on-bootstrap.o)
 .debug_str     0x00005de1        0x0 c:/program files (x86)/microchip/mplabc32/v2.02/bin/../lib/gcc/pic32mx/4.5.1/../../../../pic32mx/lib\libc.a(_iob.o)
 .debug_str     0x00005de1        0x0 c:/program files (x86)/microchip/mplabc32/v2.02/bin/../lib/gcc/pic32mx/4.5.1/../../../../pic32mx/lib\libc.a(_fputc_simple.o)
 .debug_str     0x00005de1        0x0 c:/program files (x86)/microchip/mplabc32/v2.02/bin/../lib/gcc/pic32mx/4.5.1/../../../../pic32mx/lib\libc.a(strcspn.o)
 .debug_str     0x00005de1        0x0 c:/program files (x86)/microchip/mplabc32/v2.02/bin/../lib/gcc/pic32mx/4.5.1/../../../../pic32mx/lib\libc.a(strspn.o)
 .debug_str     0x00005de1        0x0 c:/program files (x86)/microchip/mplabc32/v2.02/bin/../lib/gcc/pic32mx/4.5.1/../../../../pic32mx/lib\libc.a(doprnt_cdnopsuxX.eo)
 .debug_str     0x00005de1        0x0 c:/program files (x86)/microchip/mplabc32/v2.02/bin/../lib/gcc/pic32mx/4.5.1/../../../../pic32mx/lib\libc.a(doscan_cdfFnopuxX.eo)
 .debug_str     0x00005de1        0x0 c:/program files (x86)/microchip/mplabc32/v2.02/bin/../lib/gcc/pic32mx/4.5.1/../../../../pic32mx/lib\libc.a(doscan_cdnopuxX.eo)
 .debug_str     0x00005de1        0x0 c:/program files (x86)/microchip/mplabc32/v2.02/bin/../lib/gcc/pic32mx/4.5.1/../../../../pic32mx/lib\libc.a(write.o)
 .debug_str     0x00005de1        0x0 c:/program files (x86)/microchip/mplabc32/v2.02/bin/../lib/gcc/pic32mx/4.5.1/../../../../pic32mx/lib\libc.a(_flsbuf_simple.o)
 .debug_str     0x00005de1        0x0 c:/program files (x86)/microchip/mplabc32/v2.02/bin/../lib/gcc/pic32mx/4.5.1/../../../../pic32mx/lib\libc.a(fgetc.o)
 .debug_str     0x00005de1        0x0 c:/program files (x86)/microchip/mplabc32/v2.02/bin/../lib/gcc/pic32mx/4.5.1/../../../../pic32mx/lib\libc.a(ctypef.o)
 .debug_str     0x00005de1        0x9 c:/program files (x86)/microchip/mplabc32/v2.02/bin/../lib/gcc/pic32mx/4.5.1/../../../../pic32mx/lib\libc.a(strtof.o)
 .debug_str     0x00005dea        0x9 c:/program files (x86)/microchip/mplabc32/v2.02/bin/../lib/gcc/pic32mx/4.5.1/../../../../pic32mx/lib\libc.a(strtod.o)
 .debug_str     0x00005df3        0x0 c:/program files (x86)/microchip/mplabc32/v2.02/bin/../lib/gcc/pic32mx/4.5.1/../../../../pic32mx/lib\libc.a(ungetc.o)
 .debug_str     0x00005df3        0x0 c:/program files (x86)/microchip/mplabc32/v2.02/bin/../lib/gcc/pic32mx/4.5.1/../../../../pic32mx/lib\libc.a(filbuf.o)
 .debug_str     0x00005df3        0x0 c:/program files (x86)/microchip/mplabc32/v2.02/bin/../lib/gcc/pic32mx/4.5.1/../../../../pic32mx/lib\libc.a(fflush.o)
 .debug_str     0x00005df3        0x0 c:/program files (x86)/microchip/mplabc32/v2.02/bin/../lib/gcc/pic32mx/4.5.1/../../../../pic32mx/lib\libc.a(read.o)
 .debug_str     0x00005df3        0x0 c:/program files (x86)/microchip/mplabc32/v2.02/bin/../lib/gcc/pic32mx/4.5.1/../../../../pic32mx/lib\libc.a(c32_uart.o)
 .debug_str     0x00005df3        0x0 c:/program files (x86)/microchip/mplabc32/v2.02/bin/../lib/gcc/pic32mx/4.5.1/../../../../pic32mx/lib\libm.a(w_sqrtf.o)
 .debug_str     0x00005df3        0x0 c:/program files (x86)/microchip/mplabc32/v2.02/bin/../lib/gcc/pic32mx/4.5.1/../../../../pic32mx/lib\libm.a(s_lib_ver.o)
 .debug_str     0x00005df3        0x0 c:/program files (x86)/microchip/mplabc32/v2.02/bin/../lib/gcc/pic32mx/4.5.1/../../../../pic32mx/lib\libe.a(_strtod.o)
 .debug_str     0x00005df3        0x0 c:/program files (x86)/microchip/mplabc32/v2.02/bin/../lib/gcc/pic32mx/4.5.1/../../../../pic32mx/lib\libe.a(_strtof.o)
 .debug_str     0x00005df3        0x0 c:/program files (x86)/microchip/mplabc32/v2.02/bin/../lib/gcc/pic32mx/4.5.1/../../../../pic32mx/lib\libe.a(_divdf3.o)
 .debug_str     0x00005df3        0x0 c:/program files (x86)/microchip/mplabc32/v2.02/bin/../lib/gcc/pic32mx/4.5.1/../../../../pic32mx/lib\libe.a(_muldf3.o)
 .debug_str     0x00005df3        0x0 c:/program files (x86)/microchip/mplabc32/v2.02/bin/../lib/gcc/pic32mx/4.5.1/../../../../pic32mx/lib\libe.a(_negdf2.o)
 .debug_str     0x00005df3        0x0 c:/program files (x86)/microchip/mplabc32/v2.02/bin/../lib/gcc/pic32mx/4.5.1/../../../../pic32mx/lib\libe.a(_adddf3.o)
 .debug_str     0x00005df3        0x0 c:/program files (x86)/microchip/mplabc32/v2.02/bin/../lib/gcc/pic32mx/4.5.1/../../../../pic32mx/lib\libe.a(_floatsidf.o)
 .debug_str     0x00005df3        0x0 c:/program files (x86)/microchip/mplabc32/v2.02/bin/../lib/gcc/pic32mx/4.5.1/../../../../pic32mx/lib\libe.a(_ldexp.o)
 .debug_str     0x00005df3        0x0 c:/program files (x86)/microchip/mplabc32/v2.02/bin/../lib/gcc/pic32mx/4.5.1/../../../../pic32mx/lib\libe.a(_ldexpf.o)
 .debug_str     0x00005df3        0x0 c:/program files (x86)/microchip/mplabc32/v2.02/bin/../lib/gcc/pic32mx/4.5.1/../../../../pic32mx/lib\libmchp_peripheral_32MX575F256L.a(soft_reset_lib.o)
 .debug_str     0x00005df3        0x0 c:/program files (x86)/microchip/mplabc32/v2.02/bin/../lib/gcc/pic32mx/4.5.1/../../../../pic32mx/lib\libmchp_peripheral_32MX575F256L.a(pcache.o)
 .debug_str     0x00005df3        0x0 c:/program files (x86)/microchip/mplabc32/v2.02/bin/../lib/gcc/pic32mx/4.5.1/../../../../pic32mx/lib\libmchp_peripheral_32MX575F256L.a(int_disable_interrupts_lib.o)
 .debug_str     0x00005df3        0x0 c:/program files (x86)/microchip/mplabc32/v2.02/bin/../lib/gcc/pic32mx/4.5.1/../../../../pic32mx/lib\libmchp_peripheral_32MX575F256L.a(int_restore_interrupts_lib.o)
 .debug_str     0x00005df3        0x0 c:/program files (x86)/microchip/mplabc32/v2.02/bin/../lib/gcc/pic32mx/4.5.1/../../../../pic32mx/lib\libmchp_peripheral_32MX575F256L.a(int_enable_mv_int_lib.o)
 .debug_str     0x00005df3        0x0 c:/program files (x86)/microchip/mplabc32/v2.02/bin/../lib/gcc/pic32mx/4.5.1/../../../../pic32mx/lib\libmchp_peripheral_32MX575F256L.a(int_tbl_lib.o)
 .debug_str     0x00005df3        0x0 c:/program files (x86)/microchip/mplabc32/v2.02/bin/../lib/gcc/pic32mx/4.5.1/../../../../pic32mx/lib\libmchp_peripheral_32MX575F256L.a(uart_lib.o)
 .debug_str     0x00005df3        0x0 c:/program files (x86)/microchip/mplabc32/v2.02/bin/../lib/gcc/pic32mx/4.5.1/../../../../pic32mx/lib\libmchp_peripheral_32MX575F256L.a(puts_uartx_lib_legacy.o)
 .debug_str     0x00005df3        0x0 c:/program files (x86)/microchip/mplabc32/v2.02/bin/../lib/gcc/pic32mx/4.5.1/../../../../pic32mx/lib\libmchp_peripheral_32MX575F256L.a(idle_i2c2_lib_legacy.o)
 .debug_str     0x00005df3        0x0 c:/program files (x86)/microchip/mplabc32/v2.02/bin/../lib/gcc/pic32mx/4.5.1/../../../../pic32mx/lib\libmchp_peripheral_32MX575F256L.a(I2CPrivate.o)
 .debug_str     0x00005df3        0x0 c:/program files (x86)/microchip/mplabc32/v2.02/bin/../lib/gcc/pic32mx/4.5.1/../../../../pic32mx/lib\libmchp_peripheral_32MX575F256L.a(I2CBusIsIdle.o)
 .debug_str     0x00005df3        0x0 c:/program files (x86)/microchip/mplabc32/v2.02/bin/../lib/gcc/pic32mx/4.5.1/../../../../pic32mx/lib\libmchp_peripheral_32MX575F256L.a(I2CByteWasAcknowledged.o)
 .debug_str     0x00005df3        0x0 c:/program files (x86)/microchip/mplabc32/v2.02/bin/../lib/gcc/pic32mx/4.5.1/../../../../pic32mx/lib\libmchp_peripheral_32MX575F256L.a(I2CEnable.o)
 .debug_str     0x00005df3        0x0 c:/program files (x86)/microchip/mplabc32/v2.02/bin/../lib/gcc/pic32mx/4.5.1/../../../../pic32mx/lib\libmchp_peripheral_32MX575F256L.a(I2CGetByte.o)
 .debug_str     0x00005df3        0x0 c:/program files (x86)/microchip/mplabc32/v2.02/bin/../lib/gcc/pic32mx/4.5.1/../../../../pic32mx/lib\libmchp_peripheral_32MX575F256L.a(I2CGetStatus.o)
 .debug_str     0x00005df3        0x0 c:/program files (x86)/microchip/mplabc32/v2.02/bin/../lib/gcc/pic32mx/4.5.1/../../../../pic32mx/lib\libmchp_peripheral_32MX575F256L.a(I2CReceivedDataIsAvailable.o)
 .debug_str     0x00005df3        0x0 c:/program files (x86)/microchip/mplabc32/v2.02/bin/../lib/gcc/pic32mx/4.5.1/../../../../pic32mx/lib\libmchp_peripheral_32MX575F256L.a(I2CReceiverEnable.o)
 .debug_str     0x00005df3        0x0 c:/program files (x86)/microchip/mplabc32/v2.02/bin/../lib/gcc/pic32mx/4.5.1/../../../../pic32mx/lib\libmchp_peripheral_32MX575F256L.a(I2CRepeatStart.o)
 .debug_str     0x00005df3        0x0 c:/program files (x86)/microchip/mplabc32/v2.02/bin/../lib/gcc/pic32mx/4.5.1/../../../../pic32mx/lib\libmchp_peripheral_32MX575F256L.a(I2CSetFrequency.o)
 .debug_str     0x00005df3        0x0 c:/program files (x86)/microchip/mplabc32/v2.02/bin/../lib/gcc/pic32mx/4.5.1/../../../../pic32mx/lib\libmchp_peripheral_32MX575F256L.a(I2CStart.o)
 .debug_str     0x00005df3        0x0 c:/program files (x86)/microchip/mplabc32/v2.02/bin/../lib/gcc/pic32mx/4.5.1/../../../../pic32mx/lib\libmchp_peripheral_32MX575F256L.a(I2CStop.o)
 .debug_str     0x00005df3        0x0 c:/program files (x86)/microchip/mplabc32/v2.02/bin/../lib/gcc/pic32mx/4.5.1/../../../../pic32mx/lib\libmchp_peripheral_32MX575F256L.a(I2CTransmissionHasCompleted.o)
 .debug_str     0x00005df3        0x0 c:/program files (x86)/microchip/mplabc32/v2.02/bin/../lib/gcc/pic32mx/4.5.1/../../../../pic32mx/lib\libmchp_peripheral_32MX575F256L.a(I2CTransmitterIsReady.o)
 .debug_str     0x00005df3        0x0 c:/program files (x86)/microchip/mplabc32/v2.02/bin/../lib/gcc/pic32mx/4.5.1/../../../../pic32mx/lib\libmchp_peripheral_32MX575F256L.a(int_enable_interrupts_lib.o)
 .debug_str     0x00005df3        0x0 c:/program files (x86)/microchip/mplabc32/v2.02/bin/../lib/gcc/pic32mx/4.5.1/../../../../pic32mx/lib\libc.a(errno.o)
 .debug_str     0x00005df3        0x0 c:/program files (x86)/microchip/mplabc32/v2.02/bin/../lib/gcc/pic32mx/4.5.1\libgcc.a(_lshrdi3.o)
 .debug_str     0x00005df3        0x0 c:/program files (x86)/microchip/mplabc32/v2.02/bin/../lib/gcc/pic32mx/4.5.1\libgcc.a(_ashldi3.o)

.debug_loc      0x00000000     0xbe08
 *(.debug_loc)
 .debug_loc     0x00000000      0x283 obj-tmp\Main.o
 .debug_loc     0x00000283      0x2a5 obj-tmp\CustomHTTPApp.o
 .debug_loc     0x00000528      0x148 obj-tmp\WF_Config.o
 .debug_loc     0x00000670       0xb9 obj-tmp\Announce.o
 .debug_loc     0x00000729      0x10f obj-tmp\ARP.o
 .debug_loc     0x00000838       0x5f obj-tmp\Delay.o
 .debug_loc     0x00000897      0x152 obj-tmp\DNS.o
 .debug_loc     0x000009e9      0x1b7 obj-tmp\DNSs.o
 .debug_loc     0x00000ba0      0x734 obj-tmp\Helpers.o
 .debug_loc     0x000012d4      0x823 obj-tmp\HTTP2.o
 .debug_loc     0x00001af7       0x3c obj-tmp\ICMP.o
 .debug_loc     0x00001b33      0x100 obj-tmp\IP.o
 .debug_loc     0x00001c33      0x4a0 obj-tmp\MPFS2.o
 .debug_loc     0x000020d3       0xb3 obj-tmp\NBNS.o
 .debug_loc     0x00002186      0x52a obj-tmp\SPIFlash.o
 .debug_loc     0x000026b0       0x29 obj-tmp\StackTsk.o
 .debug_loc     0x000026d9     0x14ed obj-tmp\TCP.o
 .debug_loc     0x00003bc6       0x49 obj-tmp\Tick.o
 .debug_loc     0x00003c0f      0x3f0 obj-tmp\UDP.o
 .debug_loc     0x00003fff       0x5a obj-tmp\ZeroconfHelper.o
 .debug_loc     0x00004059       0xf5 obj-tmp\ZeroconfLinkLocal.o
 .debug_loc     0x0000414e      0xc4c obj-tmp\ZeroconfMulticastDNS.o
 .debug_loc     0x00004d9a      0xecb obj-tmp\WF_pbkdf2.o
 .debug_loc     0x00005c65      0x536 obj-tmp\WFConnectionAlgorithm.o
 .debug_loc     0x0000619b      0x122 obj-tmp\WFConnectionManager.o
 .debug_loc     0x000062bd      0x63c obj-tmp\WFConnectionProfile.o
 .debug_loc     0x000068f9       0xb4 obj-tmp\WFConsoleMsgHandler.o
 .debug_loc     0x000069ad       0xad obj-tmp\WFConsoleMsgs.o
 .debug_loc     0x00006a5a      0x2cd obj-tmp\WFDebugStrings.o
 .debug_loc     0x00006d27       0xb3 obj-tmp\WFEasyConfig.o
 .debug_loc     0x00006dda      0x292 obj-tmp\WFEventHandler.o
 .debug_loc     0x0000706c       0x6d obj-tmp\WFPowerSave.o
 .debug_loc     0x000070d9       0x5b obj-tmp\WFScan.o
 .debug_loc     0x00007134       0x8c obj-tmp\WFTxPower.o
 .debug_loc     0x000071c0       0xd9 obj-tmp\WF_Spi.o
 .debug_loc     0x00007299      0x40c obj-tmp\WFDriverCom_24G.o
 .debug_loc     0x000076a5      0x53d obj-tmp\WFDriverRaw_24G.o
 .debug_loc     0x00007be2      0x602 obj-tmp\WFMac_24G.o
 .debug_loc     0x000081e4      0x168 obj-tmp\WFMgmtMsg_24G.o
 .debug_loc     0x0000834c      0x400 obj-tmp\WFParamMsg_24G.o
 .debug_loc     0x0000874c      0x2e6 obj-tmp\DHCP.o
 .debug_loc     0x00008a32      0x512 obj-tmp\DHCPs.o
 .debug_loc     0x00008f44      0x41e obj-tmp\i2c_master.o
 .debug_loc     0x00009362      0xd75 obj-tmp\OpenADRClient.o
 .debug_loc     0x0000a0d7       0x2c obj-tmp\INTiMain.o
 .debug_loc     0x0000a103      0x19e obj-tmp\UARTiMain.o
 .debug_loc     0x0000a2a1      0x10c obj-tmp\TimeMonitor.o
 .debug_loc     0x0000a3ad      0x3f1 obj-tmp\EPRI_UARTLayer.o
 .debug_loc     0x0000a79e      0x103 obj-tmp\Assert.o
 .debug_loc     0x0000a8a1      0xa47 c:/program files (x86)/microchip/mplabc32/v2.02/bin/../lib/gcc/pic32mx/4.5.1\libgcc.a(_udivdi3.o)
 .debug_loc     0x0000b2e8      0xa1d c:/program files (x86)/microchip/mplabc32/v2.02/bin/../lib/gcc/pic32mx/4.5.1\libgcc.a(_umoddi3.o)
 .debug_loc     0x0000bd05       0x68 c:/program files (x86)/microchip/mplabc32/v2.02/bin/../lib/gcc/pic32mx/4.5.1\libgcc.a(floatunsisf.o)
 .debug_loc     0x0000bd6d       0x5f c:/program files (x86)/microchip/mplabc32/v2.02/bin/../lib/gcc/pic32mx/4.5.1\libgcc.a(_lshrdi3.o)
 .debug_loc     0x0000bdcc       0x3c c:/program files (x86)/microchip/mplabc32/v2.02/bin/../lib/gcc/pic32mx/4.5.1\libgcc.a(_ashldi3.o)

.debug_macinfo
 *(.debug_macinfo)

.debug_weaknames
 *(.debug_weaknames)

.debug_funcnames
 *(.debug_funcnames)

.debug_typenames
 *(.debug_typenames)

.debug_varnames
 *(.debug_varnames)

.debug_pubtypes
                0x00000000     0x6190
 *(.debug_pubtypes)
 .debug_pubtypes
                0x00000000      0x23d obj-tmp\Main.o
 .debug_pubtypes
                0x0000023d      0x271 obj-tmp\CustomHTTPApp.o
 .debug_pubtypes
                0x000004ae      0x1d2 obj-tmp\WF_Config.o
 .debug_pubtypes
                0x00000680       0xc6 obj-tmp\WifiGDemoMPFSImg.o
 .debug_pubtypes
                0x00000746      0x170 obj-tmp\Announce.o
 .debug_pubtypes
                0x000008b6       0xbd obj-tmp\ARCFOUR.o
 .debug_pubtypes
                0x00000973      0x173 obj-tmp\ARP.o
 .debug_pubtypes
                0x00000ae6       0xbd obj-tmp\AutoIP.o
 .debug_pubtypes
                0x00000ba3       0xbd obj-tmp\BerkeleyAPI.o
 .debug_pubtypes
                0x00000c60       0xbd obj-tmp\BigInt.o
 .debug_pubtypes
                0x00000d1d       0xd0 obj-tmp\Delay.o
 .debug_pubtypes
                0x00000ded      0x183 obj-tmp\DNS.o
 .debug_pubtypes
                0x00000f70      0x146 obj-tmp\DNSs.o
 .debug_pubtypes
                0x000010b6       0xbd obj-tmp\DynDNS.o
 .debug_pubtypes
                0x00001173       0xbd obj-tmp\FileSystem.o
 .debug_pubtypes
                0x00001230       0xbd obj-tmp\FTP.o
 .debug_pubtypes
                0x000012ed       0xbd obj-tmp\Hashes.o
 .debug_pubtypes
                0x000013aa      0x13d obj-tmp\Helpers.o
 .debug_pubtypes
                0x000014e7      0x19a obj-tmp\HTTP2.o
 .debug_pubtypes
                0x00001681      0x10f obj-tmp\ICMP.o
 .debug_pubtypes
                0x00001790      0x162 obj-tmp\IP.o
 .debug_pubtypes
                0x000018f2       0xbd obj-tmp\LCDBlocking.o
 .debug_pubtypes
                0x000019af      0x13e obj-tmp\MPFS2.o
 .debug_pubtypes
                0x00001aed      0x191 obj-tmp\NBNS.o
 .debug_pubtypes
                0x00001c7e       0xbd obj-tmp\Random.o
 .debug_pubtypes
                0x00001d3b      0x152 obj-tmp\Reboot.o
 .debug_pubtypes
                0x00001e8d       0xbd obj-tmp\RSA.o
 .debug_pubtypes
                0x00001f4a       0xbd obj-tmp\SMTP.o
 .debug_pubtypes
                0x00002007       0xbd obj-tmp\SNMP.o
 .debug_pubtypes
                0x000020c4       0xbd obj-tmp\SNMPv3.o
 .debug_pubtypes
                0x00002181       0xbd obj-tmp\SNMPv3USM.o
 .debug_pubtypes
                0x0000223e       0xbd obj-tmp\SNTP.o
 .debug_pubtypes
                0x000022fb       0xbd obj-tmp\SPIEEPROM.o
 .debug_pubtypes
                0x000023b8      0x138 obj-tmp\SPIFlash.o
 .debug_pubtypes
                0x000024f0       0xbd obj-tmp\SPIRAM.o
 .debug_pubtypes
                0x000025ad       0xbd obj-tmp\SSL.o
 .debug_pubtypes
                0x0000266a      0x15d obj-tmp\StackTsk.o
 .debug_pubtypes
                0x000027c7      0x1fa obj-tmp\TCP.o
 .debug_pubtypes
                0x000029c1       0xbd obj-tmp\TCPPerformanceTest.o
 .debug_pubtypes
                0x00002a7e       0xbd obj-tmp\Telnet.o
 .debug_pubtypes
                0x00002b3b       0xbd obj-tmp\TFTPc.o
 .debug_pubtypes
                0x00002bf8      0x11a obj-tmp\Tick.o
 .debug_pubtypes
                0x00002d12       0xbd obj-tmp\UART2TCPBridge.o
 .debug_pubtypes
                0x00002dcf      0x1c1 obj-tmp\UDP.o
 .debug_pubtypes
                0x00002f90       0xbd obj-tmp\UDPPerformanceTest.o
 .debug_pubtypes
                0x0000304d       0xd0 obj-tmp\ZeroconfHelper.o
 .debug_pubtypes
                0x0000311d      0x211 obj-tmp\ZeroconfLinkLocal.o
 .debug_pubtypes
                0x0000332e      0x369 obj-tmp\ZeroconfMulticastDNS.o
 .debug_pubtypes
                0x00003697      0x129 obj-tmp\WF_Eint.o
 .debug_pubtypes
                0x000037c0      0x113 obj-tmp\WF_pbkdf2.o
 .debug_pubtypes
                0x000038d3      0x161 obj-tmp\WFConnectionAlgorithm.o
 .debug_pubtypes
                0x00003a34      0x117 obj-tmp\WFConnectionManager.o
 .debug_pubtypes
                0x00003b4b      0x170 obj-tmp\WFConnectionProfile.o
 .debug_pubtypes
                0x00003cbb       0xbd obj-tmp\WFConsole.o
 .debug_pubtypes
                0x00003d78       0xbd obj-tmp\WFConsoleIfconfig.o
 .debug_pubtypes
                0x00003e35       0xbd obj-tmp\WFConsoleIwconfig.o
 .debug_pubtypes
                0x00003ef2       0xbd obj-tmp\WFConsoleIwpriv.o
 .debug_pubtypes
                0x00003faf       0xee obj-tmp\WFConsoleMsgHandler.o
 .debug_pubtypes
                0x0000409d      0x113 obj-tmp\WFConsoleMsgs.o
 .debug_pubtypes
                0x000041b0       0xbd obj-tmp\WFDataTxRx.o
 .debug_pubtypes
                0x0000426d      0x176 obj-tmp\WFDebugStrings.o
 .debug_pubtypes
                0x000043e3      0x1c9 obj-tmp\WFEasyConfig.o
 .debug_pubtypes
                0x000045ac      0x18e obj-tmp\WFEventHandler.o
 .debug_pubtypes
                0x0000473a      0x158 obj-tmp\WFInit.o
 .debug_pubtypes
                0x00004892      0x134 obj-tmp\WFPowerSave.o
 .debug_pubtypes
                0x000049c6       0xf7 obj-tmp\WFScan.o
 .debug_pubtypes
                0x00004abd       0xda obj-tmp\WFTxPower.o
 .debug_pubtypes
                0x00004b97      0x11e obj-tmp\WF_Spi.o
 .debug_pubtypes
                0x00004cb5      0x1b0 obj-tmp\WFDriverCom_24G.o
 .debug_pubtypes
                0x00004e65      0x102 obj-tmp\WFDriverRaw_24G.o
 .debug_pubtypes
                0x00004f67      0x19a obj-tmp\WFMac_24G.o
 .debug_pubtypes
                0x00005101      0x116 obj-tmp\WFMgmtMsg_24G.o
 .debug_pubtypes
                0x00005217      0x1a7 obj-tmp\WFParamMsg_24G.o
 .debug_pubtypes
                0x000053be      0x1ae obj-tmp\DHCP.o
 .debug_pubtypes
                0x0000556c      0x1cd obj-tmp\DHCPs.o
 .debug_pubtypes
                0x00005739      0x189 obj-tmp\i2c_master.o
 .debug_pubtypes
                0x000058c2      0x194 obj-tmp\OpenADRClient.o
 .debug_pubtypes
                0x00005a56       0xbd obj-tmp\INTiMain.o
 .debug_pubtypes
                0x00005b13      0x106 obj-tmp\UARTiMain.o
 .debug_pubtypes
                0x00005c19       0xf1 obj-tmp\TimeMonitor.o
 .debug_pubtypes
                0x00005d0a      0x12d obj-tmp\EPRI_UARTLayer.o
 .debug_pubtypes
                0x00005e37       0xf2 obj-tmp\app_UCM.o
 .debug_pubtypes
                0x00005f29       0xbd obj-tmp\Assert.o
 .debug_pubtypes
                0x00005fe6       0x59 c:/program files (x86)/microchip/mplabc32/v2.02/bin/../lib/gcc/pic32mx/4.5.1\libgcc.a(_udivdi3.o)
 .debug_pubtypes
                0x0000603f       0x59 c:/program files (x86)/microchip/mplabc32/v2.02/bin/../lib/gcc/pic32mx/4.5.1\libgcc.a(_umoddi3.o)
 .debug_pubtypes
                0x00006098       0x34 c:/program files (x86)/microchip/mplabc32/v2.02/bin/../lib/gcc/pic32mx/4.5.1\libgcc.a(floatunsisf.o)
 .debug_pubtypes
                0x000060cc       0x62 c:/program files (x86)/microchip/mplabc32/v2.02/bin/../lib/gcc/pic32mx/4.5.1\libgcc.a(_lshrdi3.o)
 .debug_pubtypes
                0x0000612e       0x62 c:/program files (x86)/microchip/mplabc32/v2.02/bin/../lib/gcc/pic32mx/4.5.1\libgcc.a(_ashldi3.o)

.debug_ranges   0x00000000      0xda8
 *(.debug_ranges)
 .debug_ranges  0x00000000      0x150 obj-tmp\Main.o
 .debug_ranges  0x00000150       0x30 obj-tmp\CustomHTTPApp.o
 .debug_ranges  0x00000180       0x70 obj-tmp\DNSs.o
 .debug_ranges  0x000001f0       0x88 obj-tmp\HTTP2.o
 .debug_ranges  0x00000278       0x70 obj-tmp\NBNS.o
 .debug_ranges  0x000002e8       0x60 obj-tmp\SPIFlash.o
 .debug_ranges  0x00000348       0x40 obj-tmp\TCP.o
 .debug_ranges  0x00000388       0x18 obj-tmp\Tick.o
 .debug_ranges  0x000003a0       0x18 obj-tmp\UDP.o
 .debug_ranges  0x000003b8       0x60 obj-tmp\ZeroconfMulticastDNS.o
 .debug_ranges  0x00000418       0x68 obj-tmp\WF_pbkdf2.o
 .debug_ranges  0x00000480       0x70 obj-tmp\WFEventHandler.o
 .debug_ranges  0x000004f0       0x18 obj-tmp\WF_Spi.o
 .debug_ranges  0x00000508       0xd8 obj-tmp\DHCPs.o
 .debug_ranges  0x000005e0       0x28 obj-tmp\OpenADRClient.o
 .debug_ranges  0x00000608       0x38 obj-tmp\UARTiMain.o
 .debug_ranges  0x00000640       0x18 obj-tmp\EPRI_UARTLayer.o
 .debug_ranges  0x00000658       0xc0 c:/program files (x86)/microchip/mplabc32/v2.02/bin/../lib/gcc/pic32mx/4.5.1\libgcc.a(_udivdi3.o)
 .debug_ranges  0x00000718       0xf8 c:/program files (x86)/microchip/mplabc32/v2.02/bin/../lib/gcc/pic32mx/4.5.1\libgcc.a(_umoddi3.o)
 .debug_ranges  0x00000810       0x10 c:/program files (x86)/microchip/mplabc32/v2.02/bin/../lib/gcc/pic32mx/4.5.1/../../../../pic32mx/lib\libc.a(atoi.o)
 .debug_ranges  0x00000820       0x10 c:/program files (x86)/microchip/mplabc32/v2.02/bin/../lib/gcc/pic32mx/4.5.1/../../../../pic32mx/lib\libc.a(atol.o)
 .debug_ranges  0x00000830       0x28 c:/program files (x86)/microchip/mplabc32/v2.02/bin/../lib/gcc/pic32mx/4.5.1/../../../../pic32mx/lib\libc.a(ctime.o)
 .debug_ranges  0x00000858       0x18 c:/program files (x86)/microchip/mplabc32/v2.02/bin/../lib/gcc/pic32mx/4.5.1/../../../../pic32mx/lib\libc.a(mktime.o)
 .debug_ranges  0x00000870       0x18 c:/program files (x86)/microchip/mplabc32/v2.02/bin/../lib/gcc/pic32mx/4.5.1/../../../../pic32mx/lib\libc.a(puts.o)
 .debug_ranges  0x00000888       0x10 c:/program files (x86)/microchip/mplabc32/v2.02/bin/../lib/gcc/pic32mx/4.5.1/../../../../pic32mx/lib\libc.a(strcat.o)
 .debug_ranges  0x00000898       0x10 c:/program files (x86)/microchip/mplabc32/v2.02/bin/../lib/gcc/pic32mx/4.5.1/../../../../pic32mx/lib\libc.a(strchr.o)
 .debug_ranges  0x000008a8       0x10 c:/program files (x86)/microchip/mplabc32/v2.02/bin/../lib/gcc/pic32mx/4.5.1/../../../../pic32mx/lib\libc.a(strncmp.o)
 .debug_ranges  0x000008b8       0x10 c:/program files (x86)/microchip/mplabc32/v2.02/bin/../lib/gcc/pic32mx/4.5.1/../../../../pic32mx/lib\libc.a(strncpy.o)
 .debug_ranges  0x000008c8       0x10 c:/program files (x86)/microchip/mplabc32/v2.02/bin/../lib/gcc/pic32mx/4.5.1/../../../../pic32mx/lib\libc.a(strrchr.o)
 .debug_ranges  0x000008d8       0x10 c:/program files (x86)/microchip/mplabc32/v2.02/bin/../lib/gcc/pic32mx/4.5.1/../../../../pic32mx/lib\libc.a(strstr.o)
 .debug_ranges  0x000008e8       0x10 c:/program files (x86)/microchip/mplabc32/v2.02/bin/../lib/gcc/pic32mx/4.5.1/../../../../pic32mx/lib\libc.a(strtok.o)
 .debug_ranges  0x000008f8       0x10 c:/program files (x86)/microchip/mplabc32/v2.02/bin/../lib/gcc/pic32mx/4.5.1/../../../../pic32mx/lib\libc.a(printf_cdnopsuxX.eo)
 .debug_ranges  0x00000908       0x10 c:/program files (x86)/microchip/mplabc32/v2.02/bin/../lib/gcc/pic32mx/4.5.1/../../../../pic32mx/lib\libc.a(sprintf_cdnopsuxX.eo)
 .debug_ranges  0x00000918       0x10 c:/program files (x86)/microchip/mplabc32/v2.02/bin/../lib/gcc/pic32mx/4.5.1/../../../../pic32mx/lib\libc.a(sscanf_cdfFnopuxX.eo)
 .debug_ranges  0x00000928       0x10 c:/program files (x86)/microchip/mplabc32/v2.02/bin/../lib/gcc/pic32mx/4.5.1/../../../../pic32mx/lib\libc.a(default-bootstrap-exception-handler.o)
 .debug_ranges  0x00000938       0x10 c:/program files (x86)/microchip/mplabc32/v2.02/bin/../lib/gcc/pic32mx/4.5.1/../../../../pic32mx/lib\libc.a(default-on-reset.o)
 .debug_ranges  0x00000948       0x10 c:/program files (x86)/microchip/mplabc32/v2.02/bin/../lib/gcc/pic32mx/4.5.1/../../../../pic32mx/lib\libc.a(default-on-bootstrap.o)
 .debug_ranges  0x00000958       0x10 c:/program files (x86)/microchip/mplabc32/v2.02/bin/../lib/gcc/pic32mx/4.5.1/../../../../pic32mx/lib\libc.a(_fputc_simple.o)
 .debug_ranges  0x00000968       0x10 c:/program files (x86)/microchip/mplabc32/v2.02/bin/../lib/gcc/pic32mx/4.5.1/../../../../pic32mx/lib\libc.a(strcspn.o)
 .debug_ranges  0x00000978       0x10 c:/program files (x86)/microchip/mplabc32/v2.02/bin/../lib/gcc/pic32mx/4.5.1/../../../../pic32mx/lib\libc.a(strspn.o)
 .debug_ranges  0x00000988       0x10 c:/program files (x86)/microchip/mplabc32/v2.02/bin/../lib/gcc/pic32mx/4.5.1/../../../../pic32mx/lib\libc.a(doprnt_cdnopsuxX.eo)
 .debug_ranges  0x00000998       0x20 c:/program files (x86)/microchip/mplabc32/v2.02/bin/../lib/gcc/pic32mx/4.5.1/../../../../pic32mx/lib\libc.a(doscan_cdfFnopuxX.eo)
 .debug_ranges  0x000009b8       0x20 c:/program files (x86)/microchip/mplabc32/v2.02/bin/../lib/gcc/pic32mx/4.5.1/../../../../pic32mx/lib\libc.a(doscan_cdnopuxX.eo)
 .debug_ranges  0x000009d8       0x10 c:/program files (x86)/microchip/mplabc32/v2.02/bin/../lib/gcc/pic32mx/4.5.1/../../../../pic32mx/lib\libc.a(write.o)
 .debug_ranges  0x000009e8       0x10 c:/program files (x86)/microchip/mplabc32/v2.02/bin/../lib/gcc/pic32mx/4.5.1/../../../../pic32mx/lib\libc.a(_flsbuf_simple.o)
 .debug_ranges  0x000009f8       0x10 c:/program files (x86)/microchip/mplabc32/v2.02/bin/../lib/gcc/pic32mx/4.5.1/../../../../pic32mx/lib\libc.a(fgetc.o)
 .debug_ranges  0x00000a08       0x90 c:/program files (x86)/microchip/mplabc32/v2.02/bin/../lib/gcc/pic32mx/4.5.1/../../../../pic32mx/lib\libc.a(ctypef.o)
 .debug_ranges  0x00000a98       0x18 c:/program files (x86)/microchip/mplabc32/v2.02/bin/../lib/gcc/pic32mx/4.5.1/../../../../pic32mx/lib\libc.a(strtof.o)
 .debug_ranges  0x00000ab0       0x18 c:/program files (x86)/microchip/mplabc32/v2.02/bin/../lib/gcc/pic32mx/4.5.1/../../../../pic32mx/lib\libc.a(strtod.o)
 .debug_ranges  0x00000ac8       0x10 c:/program files (x86)/microchip/mplabc32/v2.02/bin/../lib/gcc/pic32mx/4.5.1/../../../../pic32mx/lib\libc.a(ungetc.o)
 .debug_ranges  0x00000ad8       0x10 c:/program files (x86)/microchip/mplabc32/v2.02/bin/../lib/gcc/pic32mx/4.5.1/../../../../pic32mx/lib\libc.a(filbuf.o)
 .debug_ranges  0x00000ae8       0x10 c:/program files (x86)/microchip/mplabc32/v2.02/bin/../lib/gcc/pic32mx/4.5.1/../../../../pic32mx/lib\libc.a(fflush.o)
 .debug_ranges  0x00000af8       0x10 c:/program files (x86)/microchip/mplabc32/v2.02/bin/../lib/gcc/pic32mx/4.5.1/../../../../pic32mx/lib\libc.a(read.o)
 .debug_ranges  0x00000b08       0x10 c:/program files (x86)/microchip/mplabc32/v2.02/bin/../lib/gcc/pic32mx/4.5.1/../../../../pic32mx/lib\libm.a(w_sqrtf.o)
 .debug_ranges  0x00000b18       0x10 c:/program files (x86)/microchip/mplabc32/v2.02/bin/../lib/gcc/pic32mx/4.5.1/../../../../pic32mx/lib\libe.a(_strtod.o)
 .debug_ranges  0x00000b28       0x10 c:/program files (x86)/microchip/mplabc32/v2.02/bin/../lib/gcc/pic32mx/4.5.1/../../../../pic32mx/lib\libe.a(_strtof.o)
 .debug_ranges  0x00000b38       0x10 c:/program files (x86)/microchip/mplabc32/v2.02/bin/../lib/gcc/pic32mx/4.5.1/../../../../pic32mx/lib\libe.a(_divdf3.o)
 .debug_ranges  0x00000b48       0x10 c:/program files (x86)/microchip/mplabc32/v2.02/bin/../lib/gcc/pic32mx/4.5.1/../../../../pic32mx/lib\libe.a(_muldf3.o)
 .debug_ranges  0x00000b58       0x10 c:/program files (x86)/microchip/mplabc32/v2.02/bin/../lib/gcc/pic32mx/4.5.1/../../../../pic32mx/lib\libe.a(_negdf2.o)
 .debug_ranges  0x00000b68       0x18 c:/program files (x86)/microchip/mplabc32/v2.02/bin/../lib/gcc/pic32mx/4.5.1/../../../../pic32mx/lib\libe.a(_adddf3.o)
 .debug_ranges  0x00000b80       0x10 c:/program files (x86)/microchip/mplabc32/v2.02/bin/../lib/gcc/pic32mx/4.5.1/../../../../pic32mx/lib\libe.a(_floatsidf.o)
 .debug_ranges  0x00000b90       0x10 c:/program files (x86)/microchip/mplabc32/v2.02/bin/../lib/gcc/pic32mx/4.5.1/../../../../pic32mx/lib\libe.a(_ldexp.o)
 .debug_ranges  0x00000ba0       0x10 c:/program files (x86)/microchip/mplabc32/v2.02/bin/../lib/gcc/pic32mx/4.5.1/../../../../pic32mx/lib\libe.a(_ldexpf.o)
 .debug_ranges  0x00000bb0       0x10 c:/program files (x86)/microchip/mplabc32/v2.02/bin/../lib/gcc/pic32mx/4.5.1/../../../../pic32mx/lib\libmchp_peripheral_32MX575F256L.a(soft_reset_lib.o)
 .debug_ranges  0x00000bc0       0x18 c:/program files (x86)/microchip/mplabc32/v2.02/bin/../lib/gcc/pic32mx/4.5.1/../../../../pic32mx/lib\libmchp_peripheral_32MX575F256L.a(pcache.o)
 .debug_ranges  0x00000bd8       0x10 c:/program files (x86)/microchip/mplabc32/v2.02/bin/../lib/gcc/pic32mx/4.5.1/../../../../pic32mx/lib\libmchp_peripheral_32MX575F256L.a(int_disable_interrupts_lib.o)
 .debug_ranges  0x00000be8       0x10 c:/program files (x86)/microchip/mplabc32/v2.02/bin/../lib/gcc/pic32mx/4.5.1/../../../../pic32mx/lib\libmchp_peripheral_32MX575F256L.a(int_restore_interrupts_lib.o)
 .debug_ranges  0x00000bf8       0x10 c:/program files (x86)/microchip/mplabc32/v2.02/bin/../lib/gcc/pic32mx/4.5.1/../../../../pic32mx/lib\libmchp_peripheral_32MX575F256L.a(int_enable_mv_int_lib.o)
 .debug_ranges  0x00000c08       0x50 c:/program files (x86)/microchip/mplabc32/v2.02/bin/../lib/gcc/pic32mx/4.5.1/../../../../pic32mx/lib\libmchp_peripheral_32MX575F256L.a(int_tbl_lib.o)
 .debug_ranges  0x00000c58       0x48 c:/program files (x86)/microchip/mplabc32/v2.02/bin/../lib/gcc/pic32mx/4.5.1/../../../../pic32mx/lib\libmchp_peripheral_32MX575F256L.a(uart_lib.o)
 .debug_ranges  0x00000ca0       0x18 c:/program files (x86)/microchip/mplabc32/v2.02/bin/../lib/gcc/pic32mx/4.5.1/../../../../pic32mx/lib\libmchp_peripheral_32MX575F256L.a(puts_uartx_lib_legacy.o)
 .debug_ranges  0x00000cb8       0x10 c:/program files (x86)/microchip/mplabc32/v2.02/bin/../lib/gcc/pic32mx/4.5.1/../../../../pic32mx/lib\libmchp_peripheral_32MX575F256L.a(idle_i2c2_lib_legacy.o)
 .debug_ranges  0x00000cc8       0x10 c:/program files (x86)/microchip/mplabc32/v2.02/bin/../lib/gcc/pic32mx/4.5.1/../../../../pic32mx/lib\libmchp_peripheral_32MX575F256L.a(I2CBusIsIdle.o)
 .debug_ranges  0x00000cd8       0x10 c:/program files (x86)/microchip/mplabc32/v2.02/bin/../lib/gcc/pic32mx/4.5.1/../../../../pic32mx/lib\libmchp_peripheral_32MX575F256L.a(I2CByteWasAcknowledged.o)
 .debug_ranges  0x00000ce8       0x10 c:/program files (x86)/microchip/mplabc32/v2.02/bin/../lib/gcc/pic32mx/4.5.1/../../../../pic32mx/lib\libmchp_peripheral_32MX575F256L.a(I2CEnable.o)
 .debug_ranges  0x00000cf8       0x10 c:/program files (x86)/microchip/mplabc32/v2.02/bin/../lib/gcc/pic32mx/4.5.1/../../../../pic32mx/lib\libmchp_peripheral_32MX575F256L.a(I2CGetByte.o)
 .debug_ranges  0x00000d08       0x10 c:/program files (x86)/microchip/mplabc32/v2.02/bin/../lib/gcc/pic32mx/4.5.1/../../../../pic32mx/lib\libmchp_peripheral_32MX575F256L.a(I2CGetStatus.o)
 .debug_ranges  0x00000d18       0x10 c:/program files (x86)/microchip/mplabc32/v2.02/bin/../lib/gcc/pic32mx/4.5.1/../../../../pic32mx/lib\libmchp_peripheral_32MX575F256L.a(I2CReceivedDataIsAvailable.o)
 .debug_ranges  0x00000d28       0x10 c:/program files (x86)/microchip/mplabc32/v2.02/bin/../lib/gcc/pic32mx/4.5.1/../../../../pic32mx/lib\libmchp_peripheral_32MX575F256L.a(I2CReceiverEnable.o)
 .debug_ranges  0x00000d38       0x10 c:/program files (x86)/microchip/mplabc32/v2.02/bin/../lib/gcc/pic32mx/4.5.1/../../../../pic32mx/lib\libmchp_peripheral_32MX575F256L.a(I2CRepeatStart.o)
 .debug_ranges  0x00000d48       0x10 c:/program files (x86)/microchip/mplabc32/v2.02/bin/../lib/gcc/pic32mx/4.5.1/../../../../pic32mx/lib\libmchp_peripheral_32MX575F256L.a(I2CSetFrequency.o)
 .debug_ranges  0x00000d58       0x10 c:/program files (x86)/microchip/mplabc32/v2.02/bin/../lib/gcc/pic32mx/4.5.1/../../../../pic32mx/lib\libmchp_peripheral_32MX575F256L.a(I2CStart.o)
 .debug_ranges  0x00000d68       0x10 c:/program files (x86)/microchip/mplabc32/v2.02/bin/../lib/gcc/pic32mx/4.5.1/../../../../pic32mx/lib\libmchp_peripheral_32MX575F256L.a(I2CStop.o)
 .debug_ranges  0x00000d78       0x10 c:/program files (x86)/microchip/mplabc32/v2.02/bin/../lib/gcc/pic32mx/4.5.1/../../../../pic32mx/lib\libmchp_peripheral_32MX575F256L.a(I2CTransmissionHasCompleted.o)
 .debug_ranges  0x00000d88       0x10 c:/program files (x86)/microchip/mplabc32/v2.02/bin/../lib/gcc/pic32mx/4.5.1/../../../../pic32mx/lib\libmchp_peripheral_32MX575F256L.a(I2CTransmitterIsReady.o)
 .debug_ranges  0x00000d98       0x10 c:/program files (x86)/microchip/mplabc32/v2.02/bin/../lib/gcc/pic32mx/4.5.1/../../../../pic32mx/lib\libmchp_peripheral_32MX575F256L.a(int_enable_interrupts_lib.o)

.gnu.attributes
                0x00000000       0x10
 *(.gnu.attributes)
 .gnu.attributes
                0x00000000       0x10 obj-tmp\Main.o
 .gnu.attributes
                0x00000010       0x10 obj-tmp\CustomHTTPApp.o
 .gnu.attributes
                0x00000020       0x10 obj-tmp\WF_Config.o
 .gnu.attributes
                0x00000030       0x10 obj-tmp\WifiGDemoMPFSImg.o
 .gnu.attributes
                0x00000040       0x10 obj-tmp\Announce.o
 .gnu.attributes
                0x00000050       0x10 obj-tmp\ARCFOUR.o
 .gnu.attributes
                0x00000060       0x10 obj-tmp\ARP.o
 .gnu.attributes
                0x00000070       0x10 obj-tmp\AutoIP.o
 .gnu.attributes
                0x00000080       0x10 obj-tmp\BerkeleyAPI.o
 .gnu.attributes
                0x00000090       0x10 obj-tmp\BigInt.o
 .gnu.attributes
                0x000000a0       0x10 obj-tmp\Delay.o
 .gnu.attributes
                0x000000b0       0x10 obj-tmp\DNS.o
 .gnu.attributes
                0x000000c0       0x10 obj-tmp\DNSs.o
 .gnu.attributes
                0x000000d0       0x10 obj-tmp\DynDNS.o
 .gnu.attributes
                0x000000e0       0x10 obj-tmp\FileSystem.o
 .gnu.attributes
                0x000000f0       0x10 obj-tmp\FTP.o
 .gnu.attributes
                0x00000100       0x10 obj-tmp\Hashes.o
 .gnu.attributes
                0x00000110       0x10 obj-tmp\Helpers.o
 .gnu.attributes
                0x00000120       0x10 obj-tmp\HTTP2.o
 .gnu.attributes
                0x00000130       0x10 obj-tmp\ICMP.o
 .gnu.attributes
                0x00000140       0x10 obj-tmp\IP.o
 .gnu.attributes
                0x00000150       0x10 obj-tmp\LCDBlocking.o
 .gnu.attributes
                0x00000160       0x10 obj-tmp\MPFS2.o
 .gnu.attributes
                0x00000170       0x10 obj-tmp\NBNS.o
 .gnu.attributes
                0x00000180       0x10 obj-tmp\Random.o
 .gnu.attributes
                0x00000190       0x10 obj-tmp\Reboot.o
 .gnu.attributes
                0x000001a0       0x10 obj-tmp\RSA.o
 .gnu.attributes
                0x000001b0       0x10 obj-tmp\SMTP.o
 .gnu.attributes
                0x000001c0       0x10 obj-tmp\SNMP.o
 .gnu.attributes
                0x000001d0       0x10 obj-tmp\SNMPv3.o
 .gnu.attributes
                0x000001e0       0x10 obj-tmp\SNMPv3USM.o
 .gnu.attributes
                0x000001f0       0x10 obj-tmp\SNTP.o
 .gnu.attributes
                0x00000200       0x10 obj-tmp\SPIEEPROM.o
 .gnu.attributes
                0x00000210       0x10 obj-tmp\SPIFlash.o
 .gnu.attributes
                0x00000220       0x10 obj-tmp\SPIRAM.o
 .gnu.attributes
                0x00000230       0x10 obj-tmp\SSL.o
 .gnu.attributes
                0x00000240       0x10 obj-tmp\StackTsk.o
 .gnu.attributes
                0x00000250       0x10 obj-tmp\TCP.o
 .gnu.attributes
                0x00000260       0x10 obj-tmp\TCPPerformanceTest.o
 .gnu.attributes
                0x00000270       0x10 obj-tmp\Telnet.o
 .gnu.attributes
                0x00000280       0x10 obj-tmp\TFTPc.o
 .gnu.attributes
                0x00000290       0x10 obj-tmp\Tick.o
 .gnu.attributes
                0x000002a0       0x10 obj-tmp\UART2TCPBridge.o
 .gnu.attributes
                0x000002b0       0x10 obj-tmp\UDP.o
 .gnu.attributes
                0x000002c0       0x10 obj-tmp\UDPPerformanceTest.o
 .gnu.attributes
                0x000002d0       0x10 obj-tmp\ZeroconfHelper.o
 .gnu.attributes
                0x000002e0       0x10 obj-tmp\ZeroconfLinkLocal.o
 .gnu.attributes
                0x000002f0       0x10 obj-tmp\ZeroconfMulticastDNS.o
 .gnu.attributes
                0x00000300       0x10 obj-tmp\WF_Eint.o
 .gnu.attributes
                0x00000310       0x10 obj-tmp\WF_pbkdf2.o
 .gnu.attributes
                0x00000320       0x10 obj-tmp\WFConnectionAlgorithm.o
 .gnu.attributes
                0x00000330       0x10 obj-tmp\WFConnectionManager.o
 .gnu.attributes
                0x00000340       0x10 obj-tmp\WFConnectionProfile.o
 .gnu.attributes
                0x00000350       0x10 obj-tmp\WFConsole.o
 .gnu.attributes
                0x00000360       0x10 obj-tmp\WFConsoleIfconfig.o
 .gnu.attributes
                0x00000370       0x10 obj-tmp\WFConsoleIwconfig.o
 .gnu.attributes
                0x00000380       0x10 obj-tmp\WFConsoleIwpriv.o
 .gnu.attributes
                0x00000390       0x10 obj-tmp\WFConsoleMsgHandler.o
 .gnu.attributes
                0x000003a0       0x10 obj-tmp\WFConsoleMsgs.o
 .gnu.attributes
                0x000003b0       0x10 obj-tmp\WFDataTxRx.o
 .gnu.attributes
                0x000003c0       0x10 obj-tmp\WFDebugStrings.o
 .gnu.attributes
                0x000003d0       0x10 obj-tmp\WFEasyConfig.o
 .gnu.attributes
                0x000003e0       0x10 obj-tmp\WFEventHandler.o
 .gnu.attributes
                0x000003f0       0x10 obj-tmp\WFInit.o
 .gnu.attributes
                0x00000400       0x10 obj-tmp\WFPowerSave.o
 .gnu.attributes
                0x00000410       0x10 obj-tmp\WFScan.o
 .gnu.attributes
                0x00000420       0x10 obj-tmp\WFTxPower.o
 .gnu.attributes
                0x00000430       0x10 obj-tmp\WF_Spi.o
 .gnu.attributes
                0x00000440       0x10 obj-tmp\WFDriverCom_24G.o
 .gnu.attributes
                0x00000450       0x10 obj-tmp\WFDriverRaw_24G.o
 .gnu.attributes
                0x00000460       0x10 obj-tmp\WFMac_24G.o
 .gnu.attributes
                0x00000470       0x10 obj-tmp\WFMgmtMsg_24G.o
 .gnu.attributes
                0x00000480       0x10 obj-tmp\WFParamMsg_24G.o
 .gnu.attributes
                0x00000490       0x10 obj-tmp\DHCP.o
 .gnu.attributes
                0x000004a0       0x10 obj-tmp\DHCPs.o
 .gnu.attributes
                0x000004b0       0x10 obj-tmp\i2c_master.o
 .gnu.attributes
                0x000004c0       0x10 obj-tmp\OpenADRClient.o
 .gnu.attributes
                0x000004d0       0x10 obj-tmp\INTiMain.o
 .gnu.attributes
                0x000004e0       0x10 obj-tmp\UARTiMain.o
 .gnu.attributes
                0x000004f0       0x10 obj-tmp\TimeMonitor.o
 .gnu.attributes
                0x00000500       0x10 obj-tmp\EPRI_UARTLayer.o
 .gnu.attributes
                0x00000510       0x10 obj-tmp\app_UCM.o
 .gnu.attributes
                0x00000520       0x10 obj-tmp\Assert.o
 .gnu.attributes
                0x00000530       0x10 c:/program files (x86)/microchip/mplabc32/v2.02/bin/../lib/gcc/pic32mx/4.5.1\libgcc.a(_udivdi3.o)
 .gnu.attributes
                0x00000540       0x10 c:/program files (x86)/microchip/mplabc32/v2.02/bin/../lib/gcc/pic32mx/4.5.1\libgcc.a(_umoddi3.o)
 .gnu.attributes
                0x00000550       0x10 c:/program files (x86)/microchip/mplabc32/v2.02/bin/../lib/gcc/pic32mx/4.5.1\libgcc.a(floatunsisf.o)
 .gnu.attributes
                0x00000560       0x10 c:/program files (x86)/microchip/mplabc32/v2.02/bin/../lib/gcc/pic32mx/4.5.1/../../../../pic32mx/lib\libc.a(atoi.o)
 .gnu.attributes
                0x00000570       0x10 c:/program files (x86)/microchip/mplabc32/v2.02/bin/../lib/gcc/pic32mx/4.5.1/../../../../pic32mx/lib\libc.a(atol.o)
 .gnu.attributes
                0x00000580       0x10 c:/program files (x86)/microchip/mplabc32/v2.02/bin/../lib/gcc/pic32mx/4.5.1/../../../../pic32mx/lib\libc.a(ctime.o)
 .gnu.attributes
                0x00000590       0x10 c:/program files (x86)/microchip/mplabc32/v2.02/bin/../lib/gcc/pic32mx/4.5.1/../../../../pic32mx/lib\libc.a(ctype.o)
 .gnu.attributes
                0x000005a0       0x10 c:/program files (x86)/microchip/mplabc32/v2.02/bin/../lib/gcc/pic32mx/4.5.1/../../../../pic32mx/lib\libc.a(mktime.o)
 .gnu.attributes
                0x000005b0       0x10 c:/program files (x86)/microchip/mplabc32/v2.02/bin/../lib/gcc/pic32mx/4.5.1/../../../../pic32mx/lib\libc.a(puts.o)
 .gnu.attributes
                0x000005c0       0x10 c:/program files (x86)/microchip/mplabc32/v2.02/bin/../lib/gcc/pic32mx/4.5.1/../../../../pic32mx/lib\libc.a(strcat.o)
 .gnu.attributes
                0x000005d0       0x10 c:/program files (x86)/microchip/mplabc32/v2.02/bin/../lib/gcc/pic32mx/4.5.1/../../../../pic32mx/lib\libc.a(strchr.o)
 .gnu.attributes
                0x000005e0       0x10 c:/program files (x86)/microchip/mplabc32/v2.02/bin/../lib/gcc/pic32mx/4.5.1/../../../../pic32mx/lib\libc.a(strncmp.o)
 .gnu.attributes
                0x000005f0       0x10 c:/program files (x86)/microchip/mplabc32/v2.02/bin/../lib/gcc/pic32mx/4.5.1/../../../../pic32mx/lib\libc.a(strncpy.o)
 .gnu.attributes
                0x00000600       0x10 c:/program files (x86)/microchip/mplabc32/v2.02/bin/../lib/gcc/pic32mx/4.5.1/../../../../pic32mx/lib\libc.a(strrchr.o)
 .gnu.attributes
                0x00000610       0x10 c:/program files (x86)/microchip/mplabc32/v2.02/bin/../lib/gcc/pic32mx/4.5.1/../../../../pic32mx/lib\libc.a(strstr.o)
 .gnu.attributes
                0x00000620       0x10 c:/program files (x86)/microchip/mplabc32/v2.02/bin/../lib/gcc/pic32mx/4.5.1/../../../../pic32mx/lib\libc.a(strtok.o)
 .gnu.attributes
                0x00000630       0x10 c:/program files (x86)/microchip/mplabc32/v2.02/bin/../lib/gcc/pic32mx/4.5.1/../../../../pic32mx/lib\libc.a(printf_cdnopsuxX.eo)
 .gnu.attributes
                0x00000640       0x10 c:/program files (x86)/microchip/mplabc32/v2.02/bin/../lib/gcc/pic32mx/4.5.1/../../../../pic32mx/lib\libc.a(sprintf_cdnopsuxX.eo)
 .gnu.attributes
                0x00000650       0x10 c:/program files (x86)/microchip/mplabc32/v2.02/bin/../lib/gcc/pic32mx/4.5.1/../../../../pic32mx/lib\libc.a(sscanf_cdfFnopuxX.eo)
 .gnu.attributes
                0x00000660       0x10 c:/program files (x86)/microchip/mplabc32/v2.02/bin/../lib/gcc/pic32mx/4.5.1/../../../../pic32mx/lib\libc.a(default-bootstrap-exception-handler.o)
 .gnu.attributes
                0x00000670       0x10 c:/program files (x86)/microchip/mplabc32/v2.02/bin/../lib/gcc/pic32mx/4.5.1/../../../../pic32mx/lib\libc.a(default-on-reset.o)
 .gnu.attributes
                0x00000680       0x10 c:/program files (x86)/microchip/mplabc32/v2.02/bin/../lib/gcc/pic32mx/4.5.1/../../../../pic32mx/lib\libc.a(default-on-bootstrap.o)
 .gnu.attributes
                0x00000690       0x10 c:/program files (x86)/microchip/mplabc32/v2.02/bin/../lib/gcc/pic32mx/4.5.1/../../../../pic32mx/lib\libc.a(_iob.o)
 .gnu.attributes
                0x000006a0       0x10 c:/program files (x86)/microchip/mplabc32/v2.02/bin/../lib/gcc/pic32mx/4.5.1/../../../../pic32mx/lib\libc.a(_fputc_simple.o)
 .gnu.attributes
                0x000006b0       0x10 c:/program files (x86)/microchip/mplabc32/v2.02/bin/../lib/gcc/pic32mx/4.5.1/../../../../pic32mx/lib\libc.a(strcspn.o)
 .gnu.attributes
                0x000006c0       0x10 c:/program files (x86)/microchip/mplabc32/v2.02/bin/../lib/gcc/pic32mx/4.5.1/../../../../pic32mx/lib\libc.a(strspn.o)
 .gnu.attributes
                0x000006d0       0x10 c:/program files (x86)/microchip/mplabc32/v2.02/bin/../lib/gcc/pic32mx/4.5.1/../../../../pic32mx/lib\libc.a(doprnt_cdnopsuxX.eo)
 .gnu.attributes
                0x000006e0       0x10 c:/program files (x86)/microchip/mplabc32/v2.02/bin/../lib/gcc/pic32mx/4.5.1/../../../../pic32mx/lib\libc.a(doscan_cdfFnopuxX.eo)
 .gnu.attributes
                0x000006f0       0x10 c:/program files (x86)/microchip/mplabc32/v2.02/bin/../lib/gcc/pic32mx/4.5.1/../../../../pic32mx/lib\libc.a(doscan_cdnopuxX.eo)
 .gnu.attributes
                0x00000700       0x10 c:/program files (x86)/microchip/mplabc32/v2.02/bin/../lib/gcc/pic32mx/4.5.1/../../../../pic32mx/lib\libc.a(write.o)
 .gnu.attributes
                0x00000710       0x10 c:/program files (x86)/microchip/mplabc32/v2.02/bin/../lib/gcc/pic32mx/4.5.1/../../../../pic32mx/lib\libc.a(_flsbuf_simple.o)
 .gnu.attributes
                0x00000720       0x10 c:/program files (x86)/microchip/mplabc32/v2.02/bin/../lib/gcc/pic32mx/4.5.1/../../../../pic32mx/lib\libc.a(fgetc.o)
 .gnu.attributes
                0x00000730       0x10 c:/program files (x86)/microchip/mplabc32/v2.02/bin/../lib/gcc/pic32mx/4.5.1/../../../../pic32mx/lib\libc.a(ctypef.o)
 .gnu.attributes
                0x00000740       0x10 c:/program files (x86)/microchip/mplabc32/v2.02/bin/../lib/gcc/pic32mx/4.5.1/../../../../pic32mx/lib\libc.a(strtof.o)
 .gnu.attributes
                0x00000750       0x10 c:/program files (x86)/microchip/mplabc32/v2.02/bin/../lib/gcc/pic32mx/4.5.1/../../../../pic32mx/lib\libc.a(strtod.o)
 .gnu.attributes
                0x00000760       0x10 c:/program files (x86)/microchip/mplabc32/v2.02/bin/../lib/gcc/pic32mx/4.5.1/../../../../pic32mx/lib\libc.a(ungetc.o)
 .gnu.attributes
                0x00000770       0x10 c:/program files (x86)/microchip/mplabc32/v2.02/bin/../lib/gcc/pic32mx/4.5.1/../../../../pic32mx/lib\libc.a(filbuf.o)
 .gnu.attributes
                0x00000780       0x10 c:/program files (x86)/microchip/mplabc32/v2.02/bin/../lib/gcc/pic32mx/4.5.1/../../../../pic32mx/lib\libc.a(fflush.o)
 .gnu.attributes
                0x00000790       0x10 c:/program files (x86)/microchip/mplabc32/v2.02/bin/../lib/gcc/pic32mx/4.5.1/../../../../pic32mx/lib\libc.a(read.o)
 .gnu.attributes
                0x000007a0       0x10 c:/program files (x86)/microchip/mplabc32/v2.02/bin/../lib/gcc/pic32mx/4.5.1/../../../../pic32mx/lib\libc.a(c32_uart.o)
 .gnu.attributes
                0x000007b0       0x10 c:/program files (x86)/microchip/mplabc32/v2.02/bin/../lib/gcc/pic32mx/4.5.1/../../../../pic32mx/lib\libm.a(w_sqrtf.o)
 .gnu.attributes
                0x000007c0       0x10 c:/program files (x86)/microchip/mplabc32/v2.02/bin/../lib/gcc/pic32mx/4.5.1/../../../../pic32mx/lib\libm.a(s_lib_ver.o)
 .gnu.attributes
                0x000007d0       0x10 c:/program files (x86)/microchip/mplabc32/v2.02/bin/../lib/gcc/pic32mx/4.5.1/../../../../pic32mx/lib\libe.a(_strtod.o)
 .gnu.attributes
                0x000007e0       0x10 c:/program files (x86)/microchip/mplabc32/v2.02/bin/../lib/gcc/pic32mx/4.5.1/../../../../pic32mx/lib\libe.a(_strtof.o)
 .gnu.attributes
                0x000007f0       0x10 c:/program files (x86)/microchip/mplabc32/v2.02/bin/../lib/gcc/pic32mx/4.5.1/../../../../pic32mx/lib\libe.a(_divdf3.o)
 .gnu.attributes
                0x00000800       0x10 c:/program files (x86)/microchip/mplabc32/v2.02/bin/../lib/gcc/pic32mx/4.5.1/../../../../pic32mx/lib\libe.a(_muldf3.o)
 .gnu.attributes
                0x00000810       0x10 c:/program files (x86)/microchip/mplabc32/v2.02/bin/../lib/gcc/pic32mx/4.5.1/../../../../pic32mx/lib\libe.a(_negdf2.o)
 .gnu.attributes
                0x00000820       0x10 c:/program files (x86)/microchip/mplabc32/v2.02/bin/../lib/gcc/pic32mx/4.5.1/../../../../pic32mx/lib\libe.a(_adddf3.o)
 .gnu.attributes
                0x00000830       0x10 c:/program files (x86)/microchip/mplabc32/v2.02/bin/../lib/gcc/pic32mx/4.5.1/../../../../pic32mx/lib\libe.a(_floatsidf.o)
 .gnu.attributes
                0x00000840       0x10 c:/program files (x86)/microchip/mplabc32/v2.02/bin/../lib/gcc/pic32mx/4.5.1/../../../../pic32mx/lib\libe.a(_ldexp.o)
 .gnu.attributes
                0x00000850       0x10 c:/program files (x86)/microchip/mplabc32/v2.02/bin/../lib/gcc/pic32mx/4.5.1/../../../../pic32mx/lib\libe.a(_ldexpf.o)
 .gnu.attributes
                0x00000860       0x10 c:/program files (x86)/microchip/mplabc32/v2.02/bin/../lib/gcc/pic32mx/4.5.1/../../../../pic32mx/lib\libmchp_peripheral_32MX575F256L.a(soft_reset_lib.o)
 .gnu.attributes
                0x00000870       0x10 c:/program files (x86)/microchip/mplabc32/v2.02/bin/../lib/gcc/pic32mx/4.5.1/../../../../pic32mx/lib\libmchp_peripheral_32MX575F256L.a(pcache.o)
 .gnu.attributes
                0x00000880       0x10 c:/program files (x86)/microchip/mplabc32/v2.02/bin/../lib/gcc/pic32mx/4.5.1/../../../../pic32mx/lib\libmchp_peripheral_32MX575F256L.a(int_disable_interrupts_lib.o)
 .gnu.attributes
                0x00000890       0x10 c:/program files (x86)/microchip/mplabc32/v2.02/bin/../lib/gcc/pic32mx/4.5.1/../../../../pic32mx/lib\libmchp_peripheral_32MX575F256L.a(int_restore_interrupts_lib.o)
 .gnu.attributes
                0x000008a0       0x10 c:/program files (x86)/microchip/mplabc32/v2.02/bin/../lib/gcc/pic32mx/4.5.1/../../../../pic32mx/lib\libmchp_peripheral_32MX575F256L.a(int_enable_mv_int_lib.o)
 .gnu.attributes
                0x000008b0       0x10 c:/program files (x86)/microchip/mplabc32/v2.02/bin/../lib/gcc/pic32mx/4.5.1/../../../../pic32mx/lib\libmchp_peripheral_32MX575F256L.a(int_tbl_lib.o)
 .gnu.attributes
                0x000008c0       0x10 c:/program files (x86)/microchip/mplabc32/v2.02/bin/../lib/gcc/pic32mx/4.5.1/../../../../pic32mx/lib\libmchp_peripheral_32MX575F256L.a(uart_lib.o)
 .gnu.attributes
                0x000008d0       0x10 c:/program files (x86)/microchip/mplabc32/v2.02/bin/../lib/gcc/pic32mx/4.5.1/../../../../pic32mx/lib\libmchp_peripheral_32MX575F256L.a(puts_uartx_lib_legacy.o)
 .gnu.attributes
                0x000008e0       0x10 c:/program files (x86)/microchip/mplabc32/v2.02/bin/../lib/gcc/pic32mx/4.5.1/../../../../pic32mx/lib\libmchp_peripheral_32MX575F256L.a(idle_i2c2_lib_legacy.o)
 .gnu.attributes
                0x000008f0       0x10 c:/program files (x86)/microchip/mplabc32/v2.02/bin/../lib/gcc/pic32mx/4.5.1/../../../../pic32mx/lib\libmchp_peripheral_32MX575F256L.a(I2CPrivate.o)
 .gnu.attributes
                0x00000900       0x10 c:/program files (x86)/microchip/mplabc32/v2.02/bin/../lib/gcc/pic32mx/4.5.1/../../../../pic32mx/lib\libmchp_peripheral_32MX575F256L.a(I2CBusIsIdle.o)
 .gnu.attributes
                0x00000910       0x10 c:/program files (x86)/microchip/mplabc32/v2.02/bin/../lib/gcc/pic32mx/4.5.1/../../../../pic32mx/lib\libmchp_peripheral_32MX575F256L.a(I2CByteWasAcknowledged.o)
 .gnu.attributes
                0x00000920       0x10 c:/program files (x86)/microchip/mplabc32/v2.02/bin/../lib/gcc/pic32mx/4.5.1/../../../../pic32mx/lib\libmchp_peripheral_32MX575F256L.a(I2CEnable.o)
 .gnu.attributes
                0x00000930       0x10 c:/program files (x86)/microchip/mplabc32/v2.02/bin/../lib/gcc/pic32mx/4.5.1/../../../../pic32mx/lib\libmchp_peripheral_32MX575F256L.a(I2CGetByte.o)
 .gnu.attributes
                0x00000940       0x10 c:/program files (x86)/microchip/mplabc32/v2.02/bin/../lib/gcc/pic32mx/4.5.1/../../../../pic32mx/lib\libmchp_peripheral_32MX575F256L.a(I2CGetStatus.o)
 .gnu.attributes
                0x00000950       0x10 c:/program files (x86)/microchip/mplabc32/v2.02/bin/../lib/gcc/pic32mx/4.5.1/../../../../pic32mx/lib\libmchp_peripheral_32MX575F256L.a(I2CReceivedDataIsAvailable.o)
 .gnu.attributes
                0x00000960       0x10 c:/program files (x86)/microchip/mplabc32/v2.02/bin/../lib/gcc/pic32mx/4.5.1/../../../../pic32mx/lib\libmchp_peripheral_32MX575F256L.a(I2CReceiverEnable.o)
 .gnu.attributes
                0x00000970       0x10 c:/program files (x86)/microchip/mplabc32/v2.02/bin/../lib/gcc/pic32mx/4.5.1/../../../../pic32mx/lib\libmchp_peripheral_32MX575F256L.a(I2CRepeatStart.o)
 .gnu.attributes
                0x00000980       0x10 c:/program files (x86)/microchip/mplabc32/v2.02/bin/../lib/gcc/pic32mx/4.5.1/../../../../pic32mx/lib\libmchp_peripheral_32MX575F256L.a(I2CSetFrequency.o)
 .gnu.attributes
                0x00000990       0x10 c:/program files (x86)/microchip/mplabc32/v2.02/bin/../lib/gcc/pic32mx/4.5.1/../../../../pic32mx/lib\libmchp_peripheral_32MX575F256L.a(I2CStart.o)
 .gnu.attributes
                0x000009a0       0x10 c:/program files (x86)/microchip/mplabc32/v2.02/bin/../lib/gcc/pic32mx/4.5.1/../../../../pic32mx/lib\libmchp_peripheral_32MX575F256L.a(I2CStop.o)
 .gnu.attributes
                0x000009b0       0x10 c:/program files (x86)/microchip/mplabc32/v2.02/bin/../lib/gcc/pic32mx/4.5.1/../../../../pic32mx/lib\libmchp_peripheral_32MX575F256L.a(I2CTransmissionHasCompleted.o)
 .gnu.attributes
                0x000009c0       0x10 c:/program files (x86)/microchip/mplabc32/v2.02/bin/../lib/gcc/pic32mx/4.5.1/../../../../pic32mx/lib\libmchp_peripheral_32MX575F256L.a(I2CTransmitterIsReady.o)
 .gnu.attributes
                0x000009d0       0x10 c:/program files (x86)/microchip/mplabc32/v2.02/bin/../lib/gcc/pic32mx/4.5.1/../../../../pic32mx/lib\libmchp_peripheral_32MX575F256L.a(int_enable_interrupts_lib.o)
 .gnu.attributes
                0x000009e0       0x10 c:/program files (x86)/microchip/mplabc32/v2.02/bin/../lib/gcc/pic32mx/4.5.1/../../../../pic32mx/lib\libc.a(errno.o)
 .gnu.attributes
                0x000009f0       0x10 c:/program files (x86)/microchip/mplabc32/v2.02/bin/../lib/gcc/pic32mx/4.5.1\libgcc.a(_lshrdi3.o)
 .gnu.attributes
                0x00000a00       0x10 c:/program files (x86)/microchip/mplabc32/v2.02/bin/../lib/gcc/pic32mx/4.5.1\libgcc.a(_ashldi3.o)
OUTPUT(bin\Aztec.elf elf32-tradlittlemips)
LOAD stack
LOAD data_init

.stack          0xa0004788      0x400
 .stack         0xa0004788      0x400 stack

.bss            0xa00039c8      0x360
 .bss           0xa00039c8      0x360 obj-tmp\ZeroconfMulticastDNS.o

.data           0xa0003d28      0x5e4
 .data          0xa0003d28      0x268 obj-tmp\WFDebugStrings.o
                0xa0003d28                connectionFailureStrings
                0xa0003d78                connectionLostStrings
                0xa0003d90                deauthDisssocReasonCodes
                0xa0003df4                statusCodes
                0xa0003eb4                wpsState
                0xa0003ef0                wpsConfigErr
                0xa0003f30                moduleName
 .data          0xa0003f90      0x250 obj-tmp\OpenADRClient.o
                0xa0003f90                drasClientID
                0xa0003fc4                drasClientIDPW
                0xa0003fd0                EventStatePage
                0xa0004034                EventStateConfirmPage
                0xa0004098                OpenADRServerName
                0xa0004194                OpenADRServerIP
                0xa00041a4                SetEnergyPrice
 .data          0xa00041e0      0x12c obj-tmp\EPRI_UARTLayer.o
                0xa00041e0                AppAckMsg

.bss            0xa000430c      0x1cc
 .bss           0xa000430c      0x104 obj-tmp\TCP.o
 .bss           0xa0004410       0xc8 obj-tmp\OpenADRClient.o
                0xa0004410                FeedBackPage
                0xa0004474                OptOutPage

.data           0xa00044d8       0xa0
 .data          0xa00044d8       0xa0 c:/program files (x86)/microchip/mplabc32/v2.02/bin/../lib/gcc/pic32mx/4.5.1/../../../../pic32mx/lib\libc.a(_iob.o)
                0xa00044d8                _iob

.bss            0xa0004578      0x1dc
 .bss           0xa0004578       0x78 obj-tmp\MPFS2.o
 .bss           0xa00045f0       0x40 obj-tmp\DNSs.o
 .bss           0xa0004630       0x40 c:/program files (x86)/microchip/mplabc32/v2.02/bin/../lib/gcc/pic32mx/4.5.1/../../../../pic32mx/lib\libc.a(ctime.o)
 .bss           0xa0004670       0x40 c:/program files (x86)/microchip/mplabc32/v2.02/bin/../lib/gcc/pic32mx/4.5.1/../../../../pic32mx/lib\libc.a(_iob.o)
                0xa0004670                _sibuf
                0xa0004690                _sobuf
 .bss           0xa00046b0       0x3c obj-tmp\CustomHTTPApp.o
 .bss           0xa00046ec       0x34 obj-tmp\DHCP.o
 .bss           0xa0004720       0x28 obj-tmp\ARP.o
 .bss           0xa0004748        0xc obj-tmp\DNS.o

.pbss           0xa0004754        0x4
 .pbss          0xa0004754        0x4 obj-tmp\DNS.o

.bss            0xa0004758        0xc
 .bss           0xa0004758        0x4 c:/program files (x86)/microchip/mplabc32/v2.02/bin/../lib/gcc/pic32mx/4.5.1/../../../../pic32mx/lib\libc.a(strtok.o)
 .bss           0xa000475c        0x4 c:/program files (x86)/microchip/mplabc32/v2.02/bin/../lib/gcc/pic32mx/4.5.1/../../../../pic32mx/lib\libc.a(doscan_cdfFnopuxX.eo)
 .bss           0xa0004760        0x4 c:/program files (x86)/microchip/mplabc32/v2.02/bin/../lib/gcc/pic32mx/4.5.1/../../../../pic32mx/lib\libc.a(doscan_cdnopuxX.eo)

.data.math_errhandling_flag
                0xa0004764        0x4
 .data.math_errhandling_flag
                0xa0004764        0x4 c:/program files (x86)/microchip/mplabc32/v2.02/bin/../lib/gcc/pic32mx/4.5.1/../../../../pic32mx/lib\libm.a(s_lib_ver.o)
                0xa0004764                math_errhandling

.pbss           0xa0004768        0x4
 .pbss          0xa0004768        0x2 obj-tmp\TCP.o
 .pbss          0xa000476a        0x2 obj-tmp\UDP.o

.bss%z1         0x00000000        0x0
 .bss           0x00000000        0x0 c:/program files (x86)/microchip/mplabc32/v2.02/bin/../lib/gcc/pic32mx/4.5.1/../../../../pic32mx/lib/./proc/32MX575F256L\processor.o

.data%z2        0x00000000        0x0
 .data          0x00000000        0x0 c:/program files (x86)/microchip/mplabc32/v2.02/bin/../lib/gcc/pic32mx/4.5.1/../../../../pic32mx/lib/./proc/32MX575F256L\processor.o

.mdebug.abi32%z3
                0x00000000        0x0
 .mdebug.abi32  0x00000000        0x0 c:/program files (x86)/microchip/mplabc32/v2.02/bin/../lib/gcc/pic32mx/4.5.1\libgcc.a(_ashldi3.o)

.bss%z4         0x00000000        0x0
 .bss           0x00000000        0x0 c:/program files (x86)/microchip/mplabc32/v2.02/bin/../lib/gcc/pic32mx/4.5.1\libgcc.a(_ashldi3.o)

.data%z5        0x00000000        0x0
 .data          0x00000000        0x0 c:/program files (x86)/microchip/mplabc32/v2.02/bin/../lib/gcc/pic32mx/4.5.1\libgcc.a(_ashldi3.o)

.mdebug.abi32%z6
                0x00000000        0x0
 .mdebug.abi32  0x00000000        0x0 c:/program files (x86)/microchip/mplabc32/v2.02/bin/../lib/gcc/pic32mx/4.5.1\libgcc.a(_lshrdi3.o)

.bss%z7         0x00000000        0x0
 .bss           0x00000000        0x0 c:/program files (x86)/microchip/mplabc32/v2.02/bin/../lib/gcc/pic32mx/4.5.1\libgcc.a(_lshrdi3.o)

.data%z8        0x00000000        0x0
 .data          0x00000000        0x0 c:/program files (x86)/microchip/mplabc32/v2.02/bin/../lib/gcc/pic32mx/4.5.1\libgcc.a(_lshrdi3.o)

.mdebug.abi32%z9
                0x00000000        0x0
 .mdebug.abi32  0x00000000        0x0 c:/program files (x86)/microchip/mplabc32/v2.02/bin/../lib/gcc/pic32mx/4.5.1/../../../../pic32mx/lib\libc.a(errno.o)

.bss%z10        0x00000000        0x0
 .bss           0x00000000        0x0 c:/program files (x86)/microchip/mplabc32/v2.02/bin/../lib/gcc/pic32mx/4.5.1/../../../../pic32mx/lib\libc.a(errno.o)

.data%z11       0x00000000        0x0
 .data          0x00000000        0x0 c:/program files (x86)/microchip/mplabc32/v2.02/bin/../lib/gcc/pic32mx/4.5.1/../../../../pic32mx/lib\libc.a(errno.o)

.mdebug.abi32%z12
                0x00000000        0x0
 .mdebug.abi32  0x00000000        0x0 c:/program files (x86)/microchip/mplabc32/v2.02/bin/../lib/gcc/pic32mx/4.5.1/../../../../pic32mx/lib\libmchp_peripheral_32MX575F256L.a(int_enable_interrupts_lib.o)

.bss%z13        0x00000000        0x0
 .bss           0x00000000        0x0 c:/program files (x86)/microchip/mplabc32/v2.02/bin/../lib/gcc/pic32mx/4.5.1/../../../../pic32mx/lib\libmchp_peripheral_32MX575F256L.a(int_enable_interrupts_lib.o)

.data%z14       0x00000000        0x0
 .data          0x00000000        0x0 c:/program files (x86)/microchip/mplabc32/v2.02/bin/../lib/gcc/pic32mx/4.5.1/../../../../pic32mx/lib\libmchp_peripheral_32MX575F256L.a(int_enable_interrupts_lib.o)

.mdebug.abi32%z15
                0x00000000        0x0
 .mdebug.abi32  0x00000000        0x0 c:/program files (x86)/microchip/mplabc32/v2.02/bin/../lib/gcc/pic32mx/4.5.1/../../../../pic32mx/lib\libmchp_peripheral_32MX575F256L.a(I2CTransmitterIsReady.o)

.bss%z16        0x00000000        0x0
 .bss           0x00000000        0x0 c:/program files (x86)/microchip/mplabc32/v2.02/bin/../lib/gcc/pic32mx/4.5.1/../../../../pic32mx/lib\libmchp_peripheral_32MX575F256L.a(I2CTransmitterIsReady.o)

.data%z17       0x00000000        0x0
 .data          0x00000000        0x0 c:/program files (x86)/microchip/mplabc32/v2.02/bin/../lib/gcc/pic32mx/4.5.1/../../../../pic32mx/lib\libmchp_peripheral_32MX575F256L.a(I2CTransmitterIsReady.o)

.mdebug.abi32%z18
                0x00000000        0x0
 .mdebug.abi32  0x00000000        0x0 c:/program files (x86)/microchip/mplabc32/v2.02/bin/../lib/gcc/pic32mx/4.5.1/../../../../pic32mx/lib\libmchp_peripheral_32MX575F256L.a(I2CTransmissionHasCompleted.o)

.bss%z19        0x00000000        0x0
 .bss           0x00000000        0x0 c:/program files (x86)/microchip/mplabc32/v2.02/bin/../lib/gcc/pic32mx/4.5.1/../../../../pic32mx/lib\libmchp_peripheral_32MX575F256L.a(I2CTransmissionHasCompleted.o)

.data%z20       0x00000000        0x0
 .data          0x00000000        0x0 c:/program files (x86)/microchip/mplabc32/v2.02/bin/../lib/gcc/pic32mx/4.5.1/../../../../pic32mx/lib\libmchp_peripheral_32MX575F256L.a(I2CTransmissionHasCompleted.o)

.mdebug.abi32%z21
                0x00000000        0x0
 .mdebug.abi32  0x00000000        0x0 c:/program files (x86)/microchip/mplabc32/v2.02/bin/../lib/gcc/pic32mx/4.5.1/../../../../pic32mx/lib\libmchp_peripheral_32MX575F256L.a(I2CStop.o)

.bss%z22        0x00000000        0x0
 .bss           0x00000000        0x0 c:/program files (x86)/microchip/mplabc32/v2.02/bin/../lib/gcc/pic32mx/4.5.1/../../../../pic32mx/lib\libmchp_peripheral_32MX575F256L.a(I2CStop.o)

.data%z23       0x00000000        0x0
 .data          0x00000000        0x0 c:/program files (x86)/microchip/mplabc32/v2.02/bin/../lib/gcc/pic32mx/4.5.1/../../../../pic32mx/lib\libmchp_peripheral_32MX575F256L.a(I2CStop.o)

.mdebug.abi32%z24
                0x00000000        0x0
 .mdebug.abi32  0x00000000        0x0 c:/program files (x86)/microchip/mplabc32/v2.02/bin/../lib/gcc/pic32mx/4.5.1/../../../../pic32mx/lib\libmchp_peripheral_32MX575F256L.a(I2CStart.o)

.bss%z25        0x00000000        0x0
 .bss           0x00000000        0x0 c:/program files (x86)/microchip/mplabc32/v2.02/bin/../lib/gcc/pic32mx/4.5.1/../../../../pic32mx/lib\libmchp_peripheral_32MX575F256L.a(I2CStart.o)

.data%z26       0x00000000        0x0
 .data          0x00000000        0x0 c:/program files (x86)/microchip/mplabc32/v2.02/bin/../lib/gcc/pic32mx/4.5.1/../../../../pic32mx/lib\libmchp_peripheral_32MX575F256L.a(I2CStart.o)

.mdebug.abi32%z27
                0x00000000        0x0
 .mdebug.abi32  0x00000000        0x0 c:/program files (x86)/microchip/mplabc32/v2.02/bin/../lib/gcc/pic32mx/4.5.1/../../../../pic32mx/lib\libmchp_peripheral_32MX575F256L.a(I2CSetFrequency.o)

.bss%z28        0x00000000        0x0
 .bss           0x00000000        0x0 c:/program files (x86)/microchip/mplabc32/v2.02/bin/../lib/gcc/pic32mx/4.5.1/../../../../pic32mx/lib\libmchp_peripheral_32MX575F256L.a(I2CSetFrequency.o)

.data%z29       0x00000000        0x0
 .data          0x00000000        0x0 c:/program files (x86)/microchip/mplabc32/v2.02/bin/../lib/gcc/pic32mx/4.5.1/../../../../pic32mx/lib\libmchp_peripheral_32MX575F256L.a(I2CSetFrequency.o)

.mdebug.abi32%z30
                0x00000000        0x0
 .mdebug.abi32  0x00000000        0x0 c:/program files (x86)/microchip/mplabc32/v2.02/bin/../lib/gcc/pic32mx/4.5.1/../../../../pic32mx/lib\libmchp_peripheral_32MX575F256L.a(I2CRepeatStart.o)

.bss%z31        0x00000000        0x0
 .bss           0x00000000        0x0 c:/program files (x86)/microchip/mplabc32/v2.02/bin/../lib/gcc/pic32mx/4.5.1/../../../../pic32mx/lib\libmchp_peripheral_32MX575F256L.a(I2CRepeatStart.o)

.data%z32       0x00000000        0x0
 .data          0x00000000        0x0 c:/program files (x86)/microchip/mplabc32/v2.02/bin/../lib/gcc/pic32mx/4.5.1/../../../../pic32mx/lib\libmchp_peripheral_32MX575F256L.a(I2CRepeatStart.o)

.mdebug.abi32%z33
                0x00000000        0x0
 .mdebug.abi32  0x00000000        0x0 c:/program files (x86)/microchip/mplabc32/v2.02/bin/../lib/gcc/pic32mx/4.5.1/../../../../pic32mx/lib\libmchp_peripheral_32MX575F256L.a(I2CReceiverEnable.o)

.bss%z34        0x00000000        0x0
 .bss           0x00000000        0x0 c:/program files (x86)/microchip/mplabc32/v2.02/bin/../lib/gcc/pic32mx/4.5.1/../../../../pic32mx/lib\libmchp_peripheral_32MX575F256L.a(I2CReceiverEnable.o)

.data%z35       0x00000000        0x0
 .data          0x00000000        0x0 c:/program files (x86)/microchip/mplabc32/v2.02/bin/../lib/gcc/pic32mx/4.5.1/../../../../pic32mx/lib\libmchp_peripheral_32MX575F256L.a(I2CReceiverEnable.o)

.mdebug.abi32%z36
                0x00000000        0x0
 .mdebug.abi32  0x00000000        0x0 c:/program files (x86)/microchip/mplabc32/v2.02/bin/../lib/gcc/pic32mx/4.5.1/../../../../pic32mx/lib\libmchp_peripheral_32MX575F256L.a(I2CReceivedDataIsAvailable.o)

.bss%z37        0x00000000        0x0
 .bss           0x00000000        0x0 c:/program files (x86)/microchip/mplabc32/v2.02/bin/../lib/gcc/pic32mx/4.5.1/../../../../pic32mx/lib\libmchp_peripheral_32MX575F256L.a(I2CReceivedDataIsAvailable.o)

.data%z38       0x00000000        0x0
 .data          0x00000000        0x0 c:/program files (x86)/microchip/mplabc32/v2.02/bin/../lib/gcc/pic32mx/4.5.1/../../../../pic32mx/lib\libmchp_peripheral_32MX575F256L.a(I2CReceivedDataIsAvailable.o)

.mdebug.abi32%z39
                0x00000000        0x0
 .mdebug.abi32  0x00000000        0x0 c:/program files (x86)/microchip/mplabc32/v2.02/bin/../lib/gcc/pic32mx/4.5.1/../../../../pic32mx/lib\libmchp_peripheral_32MX575F256L.a(I2CGetStatus.o)

.bss%z40        0x00000000        0x0
 .bss           0x00000000        0x0 c:/program files (x86)/microchip/mplabc32/v2.02/bin/../lib/gcc/pic32mx/4.5.1/../../../../pic32mx/lib\libmchp_peripheral_32MX575F256L.a(I2CGetStatus.o)

.data%z41       0x00000000        0x0
 .data          0x00000000        0x0 c:/program files (x86)/microchip/mplabc32/v2.02/bin/../lib/gcc/pic32mx/4.5.1/../../../../pic32mx/lib\libmchp_peripheral_32MX575F256L.a(I2CGetStatus.o)

.mdebug.abi32%z42
                0x00000000        0x0
 .mdebug.abi32  0x00000000        0x0 c:/program files (x86)/microchip/mplabc32/v2.02/bin/../lib/gcc/pic32mx/4.5.1/../../../../pic32mx/lib\libmchp_peripheral_32MX575F256L.a(I2CGetByte.o)

.bss%z43        0x00000000        0x0
 .bss           0x00000000        0x0 c:/program files (x86)/microchip/mplabc32/v2.02/bin/../lib/gcc/pic32mx/4.5.1/../../../../pic32mx/lib\libmchp_peripheral_32MX575F256L.a(I2CGetByte.o)

.data%z44       0x00000000        0x0
 .data          0x00000000        0x0 c:/program files (x86)/microchip/mplabc32/v2.02/bin/../lib/gcc/pic32mx/4.5.1/../../../../pic32mx/lib\libmchp_peripheral_32MX575F256L.a(I2CGetByte.o)

.mdebug.abi32%z45
                0x00000000        0x0
 .mdebug.abi32  0x00000000        0x0 c:/program files (x86)/microchip/mplabc32/v2.02/bin/../lib/gcc/pic32mx/4.5.1/../../../../pic32mx/lib\libmchp_peripheral_32MX575F256L.a(I2CEnable.o)

.bss%z46        0x00000000        0x0
 .bss           0x00000000        0x0 c:/program files (x86)/microchip/mplabc32/v2.02/bin/../lib/gcc/pic32mx/4.5.1/../../../../pic32mx/lib\libmchp_peripheral_32MX575F256L.a(I2CEnable.o)

.data%z47       0x00000000        0x0
 .data          0x00000000        0x0 c:/program files (x86)/microchip/mplabc32/v2.02/bin/../lib/gcc/pic32mx/4.5.1/../../../../pic32mx/lib\libmchp_peripheral_32MX575F256L.a(I2CEnable.o)

.mdebug.abi32%z48
                0x00000000        0x0
 .mdebug.abi32  0x00000000        0x0 c:/program files (x86)/microchip/mplabc32/v2.02/bin/../lib/gcc/pic32mx/4.5.1/../../../../pic32mx/lib\libmchp_peripheral_32MX575F256L.a(I2CByteWasAcknowledged.o)

.bss%z49        0x00000000        0x0
 .bss           0x00000000        0x0 c:/program files (x86)/microchip/mplabc32/v2.02/bin/../lib/gcc/pic32mx/4.5.1/../../../../pic32mx/lib\libmchp_peripheral_32MX575F256L.a(I2CByteWasAcknowledged.o)

.data%z50       0x00000000        0x0
 .data          0x00000000        0x0 c:/program files (x86)/microchip/mplabc32/v2.02/bin/../lib/gcc/pic32mx/4.5.1/../../../../pic32mx/lib\libmchp_peripheral_32MX575F256L.a(I2CByteWasAcknowledged.o)

.mdebug.abi32%z51
                0x00000000        0x0
 .mdebug.abi32  0x00000000        0x0 c:/program files (x86)/microchip/mplabc32/v2.02/bin/../lib/gcc/pic32mx/4.5.1/../../../../pic32mx/lib\libmchp_peripheral_32MX575F256L.a(I2CBusIsIdle.o)

.bss%z52        0x00000000        0x0
 .bss           0x00000000        0x0 c:/program files (x86)/microchip/mplabc32/v2.02/bin/../lib/gcc/pic32mx/4.5.1/../../../../pic32mx/lib\libmchp_peripheral_32MX575F256L.a(I2CBusIsIdle.o)

.data%z53       0x00000000        0x0
 .data          0x00000000        0x0 c:/program files (x86)/microchip/mplabc32/v2.02/bin/../lib/gcc/pic32mx/4.5.1/../../../../pic32mx/lib\libmchp_peripheral_32MX575F256L.a(I2CBusIsIdle.o)

.mdebug.abi32%z54
                0x00000000        0x0
 .mdebug.abi32  0x00000000        0x0 c:/program files (x86)/microchip/mplabc32/v2.02/bin/../lib/gcc/pic32mx/4.5.1/../../../../pic32mx/lib\libmchp_peripheral_32MX575F256L.a(I2CPrivate.o)

.bss%z55        0x00000000        0x0
 .bss           0x00000000        0x0 c:/program files (x86)/microchip/mplabc32/v2.02/bin/../lib/gcc/pic32mx/4.5.1/../../../../pic32mx/lib\libmchp_peripheral_32MX575F256L.a(I2CPrivate.o)

.data%z56       0x00000000        0x0
 .data          0x00000000        0x0 c:/program files (x86)/microchip/mplabc32/v2.02/bin/../lib/gcc/pic32mx/4.5.1/../../../../pic32mx/lib\libmchp_peripheral_32MX575F256L.a(I2CPrivate.o)

.mdebug.abi32%z57
                0x00000000        0x0
 .mdebug.abi32  0x00000000        0x0 c:/program files (x86)/microchip/mplabc32/v2.02/bin/../lib/gcc/pic32mx/4.5.1/../../../../pic32mx/lib\libmchp_peripheral_32MX575F256L.a(idle_i2c2_lib_legacy.o)

.bss%z58        0x00000000        0x0
 .bss           0x00000000        0x0 c:/program files (x86)/microchip/mplabc32/v2.02/bin/../lib/gcc/pic32mx/4.5.1/../../../../pic32mx/lib\libmchp_peripheral_32MX575F256L.a(idle_i2c2_lib_legacy.o)

.data%z59       0x00000000        0x0
 .data          0x00000000        0x0 c:/program files (x86)/microchip/mplabc32/v2.02/bin/../lib/gcc/pic32mx/4.5.1/../../../../pic32mx/lib\libmchp_peripheral_32MX575F256L.a(idle_i2c2_lib_legacy.o)

.mdebug.abi32%z60
                0x00000000        0x0
 .mdebug.abi32  0x00000000        0x0 c:/program files (x86)/microchip/mplabc32/v2.02/bin/../lib/gcc/pic32mx/4.5.1/../../../../pic32mx/lib\libmchp_peripheral_32MX575F256L.a(puts_uartx_lib_legacy.o)

.bss%z61        0x00000000        0x0
 .bss           0x00000000        0x0 c:/program files (x86)/microchip/mplabc32/v2.02/bin/../lib/gcc/pic32mx/4.5.1/../../../../pic32mx/lib\libmchp_peripheral_32MX575F256L.a(puts_uartx_lib_legacy.o)

.data%z62       0x00000000        0x0
 .data          0x00000000        0x0 c:/program files (x86)/microchip/mplabc32/v2.02/bin/../lib/gcc/pic32mx/4.5.1/../../../../pic32mx/lib\libmchp_peripheral_32MX575F256L.a(puts_uartx_lib_legacy.o)

.mdebug.abi32%z63
                0x00000000        0x0
 .mdebug.abi32  0x00000000        0x0 c:/program files (x86)/microchip/mplabc32/v2.02/bin/../lib/gcc/pic32mx/4.5.1/../../../../pic32mx/lib\libmchp_peripheral_32MX575F256L.a(uart_lib.o)

.bss%z64        0x00000000        0x0
 .bss           0x00000000        0x0 c:/program files (x86)/microchip/mplabc32/v2.02/bin/../lib/gcc/pic32mx/4.5.1/../../../../pic32mx/lib\libmchp_peripheral_32MX575F256L.a(uart_lib.o)

.data%z65       0x00000000        0x0
 .data          0x00000000        0x0 c:/program files (x86)/microchip/mplabc32/v2.02/bin/../lib/gcc/pic32mx/4.5.1/../../../../pic32mx/lib\libmchp_peripheral_32MX575F256L.a(uart_lib.o)

.mdebug.abi32%z66
                0x00000000        0x0
 .mdebug.abi32  0x00000000        0x0 c:/program files (x86)/microchip/mplabc32/v2.02/bin/../lib/gcc/pic32mx/4.5.1/../../../../pic32mx/lib\libmchp_peripheral_32MX575F256L.a(int_tbl_lib.o)

.bss%z67        0x00000000        0x0
 .bss           0x00000000        0x0 c:/program files (x86)/microchip/mplabc32/v2.02/bin/../lib/gcc/pic32mx/4.5.1/../../../../pic32mx/lib\libmchp_peripheral_32MX575F256L.a(int_tbl_lib.o)

.data%z68       0x00000000        0x0
 .data          0x00000000        0x0 c:/program files (x86)/microchip/mplabc32/v2.02/bin/../lib/gcc/pic32mx/4.5.1/../../../../pic32mx/lib\libmchp_peripheral_32MX575F256L.a(int_tbl_lib.o)

.mdebug.abi32%z69
                0x00000000        0x0
 .mdebug.abi32  0x00000000        0x0 c:/program files (x86)/microchip/mplabc32/v2.02/bin/../lib/gcc/pic32mx/4.5.1/../../../../pic32mx/lib\libmchp_peripheral_32MX575F256L.a(int_enable_mv_int_lib.o)

.bss%z70        0x00000000        0x0
 .bss           0x00000000        0x0 c:/program files (x86)/microchip/mplabc32/v2.02/bin/../lib/gcc/pic32mx/4.5.1/../../../../pic32mx/lib\libmchp_peripheral_32MX575F256L.a(int_enable_mv_int_lib.o)

.data%z71       0x00000000        0x0
 .data          0x00000000        0x0 c:/program files (x86)/microchip/mplabc32/v2.02/bin/../lib/gcc/pic32mx/4.5.1/../../../../pic32mx/lib\libmchp_peripheral_32MX575F256L.a(int_enable_mv_int_lib.o)

.mdebug.abi32%z72
                0x00000000        0x0
 .mdebug.abi32  0x00000000        0x0 c:/program files (x86)/microchip/mplabc32/v2.02/bin/../lib/gcc/pic32mx/4.5.1/../../../../pic32mx/lib\libmchp_peripheral_32MX575F256L.a(int_restore_interrupts_lib.o)

.bss%z73        0x00000000        0x0
 .bss           0x00000000        0x0 c:/program files (x86)/microchip/mplabc32/v2.02/bin/../lib/gcc/pic32mx/4.5.1/../../../../pic32mx/lib\libmchp_peripheral_32MX575F256L.a(int_restore_interrupts_lib.o)

.data%z74       0x00000000        0x0
 .data          0x00000000        0x0 c:/program files (x86)/microchip/mplabc32/v2.02/bin/../lib/gcc/pic32mx/4.5.1/../../../../pic32mx/lib\libmchp_peripheral_32MX575F256L.a(int_restore_interrupts_lib.o)

.mdebug.abi32%z75
                0x00000000        0x0
 .mdebug.abi32  0x00000000        0x0 c:/program files (x86)/microchip/mplabc32/v2.02/bin/../lib/gcc/pic32mx/4.5.1/../../../../pic32mx/lib\libmchp_peripheral_32MX575F256L.a(int_disable_interrupts_lib.o)

.bss%z76        0x00000000        0x0
 .bss           0x00000000        0x0 c:/program files (x86)/microchip/mplabc32/v2.02/bin/../lib/gcc/pic32mx/4.5.1/../../../../pic32mx/lib\libmchp_peripheral_32MX575F256L.a(int_disable_interrupts_lib.o)

.data%z77       0x00000000        0x0
 .data          0x00000000        0x0 c:/program files (x86)/microchip/mplabc32/v2.02/bin/../lib/gcc/pic32mx/4.5.1/../../../../pic32mx/lib\libmchp_peripheral_32MX575F256L.a(int_disable_interrupts_lib.o)

.mdebug.abi32%z78
                0x00000000        0x0
 .mdebug.abi32  0x00000000        0x0 c:/program files (x86)/microchip/mplabc32/v2.02/bin/../lib/gcc/pic32mx/4.5.1/../../../../pic32mx/lib\libmchp_peripheral_32MX575F256L.a(pcache.o)

.bss%z79        0x00000000        0x0
 .bss           0x00000000        0x0 c:/program files (x86)/microchip/mplabc32/v2.02/bin/../lib/gcc/pic32mx/4.5.1/../../../../pic32mx/lib\libmchp_peripheral_32MX575F256L.a(pcache.o)

.data%z80       0x00000000        0x0
 .data          0x00000000        0x0 c:/program files (x86)/microchip/mplabc32/v2.02/bin/../lib/gcc/pic32mx/4.5.1/../../../../pic32mx/lib\libmchp_peripheral_32MX575F256L.a(pcache.o)

.mdebug.abi32%z81
                0x00000000        0x0
 .mdebug.abi32  0x00000000        0x0 c:/program files (x86)/microchip/mplabc32/v2.02/bin/../lib/gcc/pic32mx/4.5.1/../../../../pic32mx/lib\libmchp_peripheral_32MX575F256L.a(soft_reset_lib.o)

.bss%z82        0x00000000        0x0
 .bss           0x00000000        0x0 c:/program files (x86)/microchip/mplabc32/v2.02/bin/../lib/gcc/pic32mx/4.5.1/../../../../pic32mx/lib\libmchp_peripheral_32MX575F256L.a(soft_reset_lib.o)

.data%z83       0x00000000        0x0
 .data          0x00000000        0x0 c:/program files (x86)/microchip/mplabc32/v2.02/bin/../lib/gcc/pic32mx/4.5.1/../../../../pic32mx/lib\libmchp_peripheral_32MX575F256L.a(soft_reset_lib.o)

.mdebug.abi32%z84
                0x00000000        0x0
 .mdebug.abi32  0x00000000        0x0 c:/program files (x86)/microchip/mplabc32/v2.02/bin/../lib/gcc/pic32mx/4.5.1/../../../../pic32mx/lib\libe.a(_ldexpf.o)

.bss%z85        0x00000000        0x0
 .bss           0x00000000        0x0 c:/program files (x86)/microchip/mplabc32/v2.02/bin/../lib/gcc/pic32mx/4.5.1/../../../../pic32mx/lib\libe.a(_ldexpf.o)

.data%z86       0x00000000        0x0
 .data          0x00000000        0x0 c:/program files (x86)/microchip/mplabc32/v2.02/bin/../lib/gcc/pic32mx/4.5.1/../../../../pic32mx/lib\libe.a(_ldexpf.o)

.mdebug.abi32%z87
                0x00000000        0x0
 .mdebug.abi32  0x00000000        0x0 c:/program files (x86)/microchip/mplabc32/v2.02/bin/../lib/gcc/pic32mx/4.5.1/../../../../pic32mx/lib\libe.a(_ldexp.o)

.bss%z88        0x00000000        0x0
 .bss           0x00000000        0x0 c:/program files (x86)/microchip/mplabc32/v2.02/bin/../lib/gcc/pic32mx/4.5.1/../../../../pic32mx/lib\libe.a(_ldexp.o)

.data%z89       0x00000000        0x0
 .data          0x00000000        0x0 c:/program files (x86)/microchip/mplabc32/v2.02/bin/../lib/gcc/pic32mx/4.5.1/../../../../pic32mx/lib\libe.a(_ldexp.o)

.mdebug.abi32%z90
                0x00000000        0x0
 .mdebug.abi32  0x00000000        0x0 c:/program files (x86)/microchip/mplabc32/v2.02/bin/../lib/gcc/pic32mx/4.5.1/../../../../pic32mx/lib\libe.a(_floatsidf.o)

.bss%z91        0x00000000        0x0
 .bss           0x00000000        0x0 c:/program files (x86)/microchip/mplabc32/v2.02/bin/../lib/gcc/pic32mx/4.5.1/../../../../pic32mx/lib\libe.a(_floatsidf.o)

.data%z92       0x00000000        0x0
 .data          0x00000000        0x0 c:/program files (x86)/microchip/mplabc32/v2.02/bin/../lib/gcc/pic32mx/4.5.1/../../../../pic32mx/lib\libe.a(_floatsidf.o)

.mdebug.abi32%z93
                0x00000000        0x0
 .mdebug.abi32  0x00000000        0x0 c:/program files (x86)/microchip/mplabc32/v2.02/bin/../lib/gcc/pic32mx/4.5.1/../../../../pic32mx/lib\libe.a(_adddf3.o)

.bss%z94        0x00000000        0x0
 .bss           0x00000000        0x0 c:/program files (x86)/microchip/mplabc32/v2.02/bin/../lib/gcc/pic32mx/4.5.1/../../../../pic32mx/lib\libe.a(_adddf3.o)

.data%z95       0x00000000        0x0
 .data          0x00000000        0x0 c:/program files (x86)/microchip/mplabc32/v2.02/bin/../lib/gcc/pic32mx/4.5.1/../../../../pic32mx/lib\libe.a(_adddf3.o)

.mdebug.abi32%z96
                0x00000000        0x0
 .mdebug.abi32  0x00000000        0x0 c:/program files (x86)/microchip/mplabc32/v2.02/bin/../lib/gcc/pic32mx/4.5.1/../../../../pic32mx/lib\libe.a(_negdf2.o)

.bss%z97        0x00000000        0x0
 .bss           0x00000000        0x0 c:/program files (x86)/microchip/mplabc32/v2.02/bin/../lib/gcc/pic32mx/4.5.1/../../../../pic32mx/lib\libe.a(_negdf2.o)

.data%z98       0x00000000        0x0
 .data          0x00000000        0x0 c:/program files (x86)/microchip/mplabc32/v2.02/bin/../lib/gcc/pic32mx/4.5.1/../../../../pic32mx/lib\libe.a(_negdf2.o)

.mdebug.abi32%z99
                0x00000000        0x0
 .mdebug.abi32  0x00000000        0x0 c:/program files (x86)/microchip/mplabc32/v2.02/bin/../lib/gcc/pic32mx/4.5.1/../../../../pic32mx/lib\libe.a(_muldf3.o)

.bss%z100       0x00000000        0x0
 .bss           0x00000000        0x0 c:/program files (x86)/microchip/mplabc32/v2.02/bin/../lib/gcc/pic32mx/4.5.1/../../../../pic32mx/lib\libe.a(_muldf3.o)

.data%z101      0x00000000        0x0
 .data          0x00000000        0x0 c:/program files (x86)/microchip/mplabc32/v2.02/bin/../lib/gcc/pic32mx/4.5.1/../../../../pic32mx/lib\libe.a(_muldf3.o)

.mdebug.abi32%z102
                0x00000000        0x0
 .mdebug.abi32  0x00000000        0x0 c:/program files (x86)/microchip/mplabc32/v2.02/bin/../lib/gcc/pic32mx/4.5.1/../../../../pic32mx/lib\libe.a(_divdf3.o)

.bss%z103       0x00000000        0x0
 .bss           0x00000000        0x0 c:/program files (x86)/microchip/mplabc32/v2.02/bin/../lib/gcc/pic32mx/4.5.1/../../../../pic32mx/lib\libe.a(_divdf3.o)

.data%z104      0x00000000        0x0
 .data          0x00000000        0x0 c:/program files (x86)/microchip/mplabc32/v2.02/bin/../lib/gcc/pic32mx/4.5.1/../../../../pic32mx/lib\libe.a(_divdf3.o)

.mdebug.abi32%z105
                0x00000000        0x0
 .mdebug.abi32  0x00000000        0x0 c:/program files (x86)/microchip/mplabc32/v2.02/bin/../lib/gcc/pic32mx/4.5.1/../../../../pic32mx/lib\libe.a(_strtof.o)

.bss%z106       0x00000000        0x0
 .bss           0x00000000        0x0 c:/program files (x86)/microchip/mplabc32/v2.02/bin/../lib/gcc/pic32mx/4.5.1/../../../../pic32mx/lib\libe.a(_strtof.o)

.data%z107      0x00000000        0x0
 .data          0x00000000        0x0 c:/program files (x86)/microchip/mplabc32/v2.02/bin/../lib/gcc/pic32mx/4.5.1/../../../../pic32mx/lib\libe.a(_strtof.o)

.mdebug.abi32%z108
                0x00000000        0x0
 .mdebug.abi32  0x00000000        0x0 c:/program files (x86)/microchip/mplabc32/v2.02/bin/../lib/gcc/pic32mx/4.5.1/../../../../pic32mx/lib\libe.a(_strtod.o)

.bss%z109       0x00000000        0x0
 .bss           0x00000000        0x0 c:/program files (x86)/microchip/mplabc32/v2.02/bin/../lib/gcc/pic32mx/4.5.1/../../../../pic32mx/lib\libe.a(_strtod.o)

.data%z110      0x00000000        0x0
 .data          0x00000000        0x0 c:/program files (x86)/microchip/mplabc32/v2.02/bin/../lib/gcc/pic32mx/4.5.1/../../../../pic32mx/lib\libe.a(_strtod.o)

.bss%z111       0x00000000        0x0
 .bss           0x00000000        0x0 c:/program files (x86)/microchip/mplabc32/v2.02/bin/../lib/gcc/pic32mx/4.5.1/../../../../pic32mx/lib\libm.a(fpsqrt32.o)

.data%z112      0x00000000        0x0
 .data          0x00000000        0x0 c:/program files (x86)/microchip/mplabc32/v2.02/bin/../lib/gcc/pic32mx/4.5.1/../../../../pic32mx/lib\libm.a(fpsqrt32.o)

.mdebug.abi32%z113
                0x00000000        0x0
 .mdebug.abi32  0x00000000        0x0 c:/program files (x86)/microchip/mplabc32/v2.02/bin/../lib/gcc/pic32mx/4.5.1/../../../../pic32mx/lib\libm.a(s_lib_ver.o)

.bss%z114       0x00000000        0x0
 .bss           0x00000000        0x0 c:/program files (x86)/microchip/mplabc32/v2.02/bin/../lib/gcc/pic32mx/4.5.1/../../../../pic32mx/lib\libm.a(s_lib_ver.o)

.data%z115      0x00000000        0x0
 .data          0x00000000        0x0 c:/program files (x86)/microchip/mplabc32/v2.02/bin/../lib/gcc/pic32mx/4.5.1/../../../../pic32mx/lib\libm.a(s_lib_ver.o)

.bss%z116       0x00000000        0x0
 .bss           0x00000000        0x0 c:/program files (x86)/microchip/mplabc32/v2.02/bin/../lib/gcc/pic32mx/4.5.1/../../../../pic32mx/lib\libm.a(fp32.o)

.data%z117      0x00000000        0x0
 .data          0x00000000        0x0 c:/program files (x86)/microchip/mplabc32/v2.02/bin/../lib/gcc/pic32mx/4.5.1/../../../../pic32mx/lib\libm.a(fp32.o)

.mdebug.abi32%z118
                0x00000000        0x0
 .mdebug.abi32  0x00000000        0x0 c:/program files (x86)/microchip/mplabc32/v2.02/bin/../lib/gcc/pic32mx/4.5.1/../../../../pic32mx/lib\libm.a(w_sqrtf.o)

.bss%z119       0x00000000        0x0
 .bss           0x00000000        0x0 c:/program files (x86)/microchip/mplabc32/v2.02/bin/../lib/gcc/pic32mx/4.5.1/../../../../pic32mx/lib\libm.a(w_sqrtf.o)

.data%z120      0x00000000        0x0
 .data          0x00000000        0x0 c:/program files (x86)/microchip/mplabc32/v2.02/bin/../lib/gcc/pic32mx/4.5.1/../../../../pic32mx/lib\libm.a(w_sqrtf.o)

.mdebug.abi32%z121
                0x00000000        0x0
 .mdebug.abi32  0x00000000        0x0 c:/program files (x86)/microchip/mplabc32/v2.02/bin/../lib/gcc/pic32mx/4.5.1/../../../../pic32mx/lib\libc.a(c32_uart.o)

.bss%z122       0x00000000        0x0
 .bss           0x00000000        0x0 c:/program files (x86)/microchip/mplabc32/v2.02/bin/../lib/gcc/pic32mx/4.5.1/../../../../pic32mx/lib\libc.a(c32_uart.o)

.data%z123      0x00000000        0x0
 .data          0x00000000        0x0 c:/program files (x86)/microchip/mplabc32/v2.02/bin/../lib/gcc/pic32mx/4.5.1/../../../../pic32mx/lib\libc.a(c32_uart.o)

.mdebug.abi32%z124
                0x00000000        0x0
 .mdebug.abi32  0x00000000        0x0 c:/program files (x86)/microchip/mplabc32/v2.02/bin/../lib/gcc/pic32mx/4.5.1/../../../../pic32mx/lib\libc.a(read.o)

.bss%z125       0x00000000        0x0
 .bss           0x00000000        0x0 c:/program files (x86)/microchip/mplabc32/v2.02/bin/../lib/gcc/pic32mx/4.5.1/../../../../pic32mx/lib\libc.a(read.o)

.data%z126      0x00000000        0x0
 .data          0x00000000        0x0 c:/program files (x86)/microchip/mplabc32/v2.02/bin/../lib/gcc/pic32mx/4.5.1/../../../../pic32mx/lib\libc.a(read.o)

.mdebug.abi32%z127
                0x00000000        0x0
 .mdebug.abi32  0x00000000        0x0 c:/program files (x86)/microchip/mplabc32/v2.02/bin/../lib/gcc/pic32mx/4.5.1/../../../../pic32mx/lib\libc.a(fflush.o)

.bss%z128       0x00000000        0x0
 .bss           0x00000000        0x0 c:/program files (x86)/microchip/mplabc32/v2.02/bin/../lib/gcc/pic32mx/4.5.1/../../../../pic32mx/lib\libc.a(fflush.o)

.data%z129      0x00000000        0x0
 .data          0x00000000        0x0 c:/program files (x86)/microchip/mplabc32/v2.02/bin/../lib/gcc/pic32mx/4.5.1/../../../../pic32mx/lib\libc.a(fflush.o)

.mdebug.abi32%z130
                0x00000000        0x0
 .mdebug.abi32  0x00000000        0x0 c:/program files (x86)/microchip/mplabc32/v2.02/bin/../lib/gcc/pic32mx/4.5.1/../../../../pic32mx/lib\libc.a(filbuf.o)

.bss%z131       0x00000000        0x0
 .bss           0x00000000        0x0 c:/program files (x86)/microchip/mplabc32/v2.02/bin/../lib/gcc/pic32mx/4.5.1/../../../../pic32mx/lib\libc.a(filbuf.o)

.data%z132      0x00000000        0x0
 .data          0x00000000        0x0 c:/program files (x86)/microchip/mplabc32/v2.02/bin/../lib/gcc/pic32mx/4.5.1/../../../../pic32mx/lib\libc.a(filbuf.o)

.mdebug.abi32%z133
                0x00000000        0x0
 .mdebug.abi32  0x00000000        0x0 c:/program files (x86)/microchip/mplabc32/v2.02/bin/../lib/gcc/pic32mx/4.5.1/../../../../pic32mx/lib\libc.a(ungetc.o)

.bss%z134       0x00000000        0x0
 .bss           0x00000000        0x0 c:/program files (x86)/microchip/mplabc32/v2.02/bin/../lib/gcc/pic32mx/4.5.1/../../../../pic32mx/lib\libc.a(ungetc.o)

.data%z135      0x00000000        0x0
 .data          0x00000000        0x0 c:/program files (x86)/microchip/mplabc32/v2.02/bin/../lib/gcc/pic32mx/4.5.1/../../../../pic32mx/lib\libc.a(ungetc.o)

.mdebug.abi32%z136
                0x00000000        0x0
 .mdebug.abi32  0x00000000        0x0 c:/program files (x86)/microchip/mplabc32/v2.02/bin/../lib/gcc/pic32mx/4.5.1/../../../../pic32mx/lib\libc.a(strtod.o)

.bss%z137       0x00000000        0x0
 .bss           0x00000000        0x0 c:/program files (x86)/microchip/mplabc32/v2.02/bin/../lib/gcc/pic32mx/4.5.1/../../../../pic32mx/lib\libc.a(strtod.o)

.data%z138      0x00000000        0x0
 .data          0x00000000        0x0 c:/program files (x86)/microchip/mplabc32/v2.02/bin/../lib/gcc/pic32mx/4.5.1/../../../../pic32mx/lib\libc.a(strtod.o)

.mdebug.abi32%z139
                0x00000000        0x0
 .mdebug.abi32  0x00000000        0x0 c:/program files (x86)/microchip/mplabc32/v2.02/bin/../lib/gcc/pic32mx/4.5.1/../../../../pic32mx/lib\libc.a(strtof.o)

.bss%z140       0x00000000        0x0
 .bss           0x00000000        0x0 c:/program files (x86)/microchip/mplabc32/v2.02/bin/../lib/gcc/pic32mx/4.5.1/../../../../pic32mx/lib\libc.a(strtof.o)

.data%z141      0x00000000        0x0
 .data          0x00000000        0x0 c:/program files (x86)/microchip/mplabc32/v2.02/bin/../lib/gcc/pic32mx/4.5.1/../../../../pic32mx/lib\libc.a(strtof.o)

.mdebug.abi32%z142
                0x00000000        0x0
 .mdebug.abi32  0x00000000        0x0 c:/program files (x86)/microchip/mplabc32/v2.02/bin/../lib/gcc/pic32mx/4.5.1/../../../../pic32mx/lib\libc.a(ctypef.o)

.bss%z143       0x00000000        0x0
 .bss           0x00000000        0x0 c:/program files (x86)/microchip/mplabc32/v2.02/bin/../lib/gcc/pic32mx/4.5.1/../../../../pic32mx/lib\libc.a(ctypef.o)

.data%z144      0x00000000        0x0
 .data          0x00000000        0x0 c:/program files (x86)/microchip/mplabc32/v2.02/bin/../lib/gcc/pic32mx/4.5.1/../../../../pic32mx/lib\libc.a(ctypef.o)

.mdebug.abi32%z145
                0x00000000        0x0
 .mdebug.abi32  0x00000000        0x0 c:/program files (x86)/microchip/mplabc32/v2.02/bin/../lib/gcc/pic32mx/4.5.1/../../../../pic32mx/lib\libc.a(fgetc.o)

.bss%z146       0x00000000        0x0
 .bss           0x00000000        0x0 c:/program files (x86)/microchip/mplabc32/v2.02/bin/../lib/gcc/pic32mx/4.5.1/../../../../pic32mx/lib\libc.a(fgetc.o)

.data%z147      0x00000000        0x0
 .data          0x00000000        0x0 c:/program files (x86)/microchip/mplabc32/v2.02/bin/../lib/gcc/pic32mx/4.5.1/../../../../pic32mx/lib\libc.a(fgetc.o)

.mdebug.abi32%z148
                0x00000000        0x0
 .mdebug.abi32  0x00000000        0x0 c:/program files (x86)/microchip/mplabc32/v2.02/bin/../lib/gcc/pic32mx/4.5.1/../../../../pic32mx/lib\libc.a(_flsbuf_simple.o)

.bss%z149       0x00000000        0x0
 .bss           0x00000000        0x0 c:/program files (x86)/microchip/mplabc32/v2.02/bin/../lib/gcc/pic32mx/4.5.1/../../../../pic32mx/lib\libc.a(_flsbuf_simple.o)

.data%z150      0x00000000        0x0
 .data          0x00000000        0x0 c:/program files (x86)/microchip/mplabc32/v2.02/bin/../lib/gcc/pic32mx/4.5.1/../../../../pic32mx/lib\libc.a(_flsbuf_simple.o)

.mdebug.abi32%z151
                0x00000000        0x0
 .mdebug.abi32  0x00000000        0x0 c:/program files (x86)/microchip/mplabc32/v2.02/bin/../lib/gcc/pic32mx/4.5.1/../../../../pic32mx/lib\libc.a(write.o)

.bss%z152       0x00000000        0x0
 .bss           0x00000000        0x0 c:/program files (x86)/microchip/mplabc32/v2.02/bin/../lib/gcc/pic32mx/4.5.1/../../../../pic32mx/lib\libc.a(write.o)

.data%z153      0x00000000        0x0
 .data          0x00000000        0x0 c:/program files (x86)/microchip/mplabc32/v2.02/bin/../lib/gcc/pic32mx/4.5.1/../../../../pic32mx/lib\libc.a(write.o)

.mdebug.abi32%z154
                0x00000000        0x0
 .mdebug.abi32  0x00000000        0x0 c:/program files (x86)/microchip/mplabc32/v2.02/bin/../lib/gcc/pic32mx/4.5.1/../../../../pic32mx/lib\libc.a(doscan_cdnopuxX.eo)

.data%z155      0x00000000        0x0
 .data          0x00000000        0x0 c:/program files (x86)/microchip/mplabc32/v2.02/bin/../lib/gcc/pic32mx/4.5.1/../../../../pic32mx/lib\libc.a(doscan_cdnopuxX.eo)

.mdebug.abi32%z156
                0x00000000        0x0
 .mdebug.abi32  0x00000000        0x0 c:/program files (x86)/microchip/mplabc32/v2.02/bin/../lib/gcc/pic32mx/4.5.1/../../../../pic32mx/lib\libc.a(doscan_cdfFnopuxX.eo)

.data%z157      0x00000000        0x0
 .data          0x00000000        0x0 c:/program files (x86)/microchip/mplabc32/v2.02/bin/../lib/gcc/pic32mx/4.5.1/../../../../pic32mx/lib\libc.a(doscan_cdfFnopuxX.eo)

.mdebug.abi32%z158
                0x00000000        0x0
 .mdebug.abi32  0x00000000        0x0 c:/program files (x86)/microchip/mplabc32/v2.02/bin/../lib/gcc/pic32mx/4.5.1/../../../../pic32mx/lib\libc.a(doprnt_cdnopsuxX.eo)

.bss%z159       0x00000000        0x0
 .bss           0x00000000        0x0 c:/program files (x86)/microchip/mplabc32/v2.02/bin/../lib/gcc/pic32mx/4.5.1/../../../../pic32mx/lib\libc.a(doprnt_cdnopsuxX.eo)

.data%z160      0x00000000        0x0
 .data          0x00000000        0x0 c:/program files (x86)/microchip/mplabc32/v2.02/bin/../lib/gcc/pic32mx/4.5.1/../../../../pic32mx/lib\libc.a(doprnt_cdnopsuxX.eo)

.mdebug.abi32%z161
                0x00000000        0x0
 .mdebug.abi32  0x00000000        0x0 c:/program files (x86)/microchip/mplabc32/v2.02/bin/../lib/gcc/pic32mx/4.5.1/../../../../pic32mx/lib\libc.a(strspn.o)

.bss%z162       0x00000000        0x0
 .bss           0x00000000        0x0 c:/program files (x86)/microchip/mplabc32/v2.02/bin/../lib/gcc/pic32mx/4.5.1/../../../../pic32mx/lib\libc.a(strspn.o)

.data%z163      0x00000000        0x0
 .data          0x00000000        0x0 c:/program files (x86)/microchip/mplabc32/v2.02/bin/../lib/gcc/pic32mx/4.5.1/../../../../pic32mx/lib\libc.a(strspn.o)

.mdebug.abi32%z164
                0x00000000        0x0
 .mdebug.abi32  0x00000000        0x0 c:/program files (x86)/microchip/mplabc32/v2.02/bin/../lib/gcc/pic32mx/4.5.1/../../../../pic32mx/lib\libc.a(strcspn.o)

.bss%z165       0x00000000        0x0
 .bss           0x00000000        0x0 c:/program files (x86)/microchip/mplabc32/v2.02/bin/../lib/gcc/pic32mx/4.5.1/../../../../pic32mx/lib\libc.a(strcspn.o)

.data%z166      0x00000000        0x0
 .data          0x00000000        0x0 c:/program files (x86)/microchip/mplabc32/v2.02/bin/../lib/gcc/pic32mx/4.5.1/../../../../pic32mx/lib\libc.a(strcspn.o)

.mdebug.abi32%z167
                0x00000000        0x0
 .mdebug.abi32  0x00000000        0x0 c:/program files (x86)/microchip/mplabc32/v2.02/bin/../lib/gcc/pic32mx/4.5.1/../../../../pic32mx/lib\libc.a(_fputc_simple.o)

.bss%z168       0x00000000        0x0
 .bss           0x00000000        0x0 c:/program files (x86)/microchip/mplabc32/v2.02/bin/../lib/gcc/pic32mx/4.5.1/../../../../pic32mx/lib\libc.a(_fputc_simple.o)

.data%z169      0x00000000        0x0
 .data          0x00000000        0x0 c:/program files (x86)/microchip/mplabc32/v2.02/bin/../lib/gcc/pic32mx/4.5.1/../../../../pic32mx/lib\libc.a(_fputc_simple.o)

.mdebug.abi32%z170
                0x00000000        0x0
 .mdebug.abi32  0x00000000        0x0 c:/program files (x86)/microchip/mplabc32/v2.02/bin/../lib/gcc/pic32mx/4.5.1/../../../../pic32mx/lib\libc.a(_iob.o)

.bss%z171       0x00000000        0x0
 .bss           0x00000000        0x0 c:/program files (x86)/microchip/mplabc32/v2.02/bin/../lib/gcc/pic32mx/4.5.1/../../../../pic32mx/lib\libc.a(default-nmi-handler.o)

.data%z172      0x00000000        0x0
 .data          0x00000000        0x0 c:/program files (x86)/microchip/mplabc32/v2.02/bin/../lib/gcc/pic32mx/4.5.1/../../../../pic32mx/lib\libc.a(default-nmi-handler.o)

.mdebug.abi32%z173
                0x00000000        0x0
 .mdebug.abi32  0x00000000        0x0 c:/program files (x86)/microchip/mplabc32/v2.02/bin/../lib/gcc/pic32mx/4.5.1/../../../../pic32mx/lib\libc.a(default-on-bootstrap.o)

.bss%z174       0x00000000        0x0
 .bss           0x00000000        0x0 c:/program files (x86)/microchip/mplabc32/v2.02/bin/../lib/gcc/pic32mx/4.5.1/../../../../pic32mx/lib\libc.a(default-on-bootstrap.o)

.data%z175      0x00000000        0x0
 .data          0x00000000        0x0 c:/program files (x86)/microchip/mplabc32/v2.02/bin/../lib/gcc/pic32mx/4.5.1/../../../../pic32mx/lib\libc.a(default-on-bootstrap.o)

.mdebug.abi32%z176
                0x00000000        0x0
 .mdebug.abi32  0x00000000        0x0 c:/program files (x86)/microchip/mplabc32/v2.02/bin/../lib/gcc/pic32mx/4.5.1/../../../../pic32mx/lib\libc.a(default-on-reset.o)

.bss%z177       0x00000000        0x0
 .bss           0x00000000        0x0 c:/program files (x86)/microchip/mplabc32/v2.02/bin/../lib/gcc/pic32mx/4.5.1/../../../../pic32mx/lib\libc.a(default-on-reset.o)

.data%z178      0x00000000        0x0
 .data          0x00000000        0x0 c:/program files (x86)/microchip/mplabc32/v2.02/bin/../lib/gcc/pic32mx/4.5.1/../../../../pic32mx/lib\libc.a(default-on-reset.o)

.mdebug.abi32%z179
                0x00000000        0x0
 .mdebug.abi32  0x00000000        0x0 c:/program files (x86)/microchip/mplabc32/v2.02/bin/../lib/gcc/pic32mx/4.5.1/../../../../pic32mx/lib\libc.a(default-bootstrap-exception-handler.o)

.bss%z180       0x00000000        0x0
 .bss           0x00000000        0x0 c:/program files (x86)/microchip/mplabc32/v2.02/bin/../lib/gcc/pic32mx/4.5.1/../../../../pic32mx/lib\libc.a(default-bootstrap-exception-handler.o)

.data%z181      0x00000000        0x0
 .data          0x00000000        0x0 c:/program files (x86)/microchip/mplabc32/v2.02/bin/../lib/gcc/pic32mx/4.5.1/../../../../pic32mx/lib\libc.a(default-bootstrap-exception-handler.o)

.mdebug.abi32%z182
                0x00000000        0x0
 .mdebug.abi32  0x00000000        0x0 c:/program files (x86)/microchip/mplabc32/v2.02/bin/../lib/gcc/pic32mx/4.5.1/../../../../pic32mx/lib\libc.a(sscanf_cdfFnopuxX.eo)

.bss%z183       0x00000000        0x0
 .bss           0x00000000        0x0 c:/program files (x86)/microchip/mplabc32/v2.02/bin/../lib/gcc/pic32mx/4.5.1/../../../../pic32mx/lib\libc.a(sscanf_cdfFnopuxX.eo)

.data%z184      0x00000000        0x0
 .data          0x00000000        0x0 c:/program files (x86)/microchip/mplabc32/v2.02/bin/../lib/gcc/pic32mx/4.5.1/../../../../pic32mx/lib\libc.a(sscanf_cdfFnopuxX.eo)

.mdebug.abi32%z185
                0x00000000        0x0
 .mdebug.abi32  0x00000000        0x0 c:/program files (x86)/microchip/mplabc32/v2.02/bin/../lib/gcc/pic32mx/4.5.1/../../../../pic32mx/lib\libc.a(sprintf_cdnopsuxX.eo)

.bss%z186       0x00000000        0x0
 .bss           0x00000000        0x0 c:/program files (x86)/microchip/mplabc32/v2.02/bin/../lib/gcc/pic32mx/4.5.1/../../../../pic32mx/lib\libc.a(sprintf_cdnopsuxX.eo)

.data%z187      0x00000000        0x0
 .data          0x00000000        0x0 c:/program files (x86)/microchip/mplabc32/v2.02/bin/../lib/gcc/pic32mx/4.5.1/../../../../pic32mx/lib\libc.a(sprintf_cdnopsuxX.eo)

.mdebug.abi32%z188
                0x00000000        0x0
 .mdebug.abi32  0x00000000        0x0 c:/program files (x86)/microchip/mplabc32/v2.02/bin/../lib/gcc/pic32mx/4.5.1/../../../../pic32mx/lib\libc.a(printf_cdnopsuxX.eo)

.bss%z189       0x00000000        0x0
 .bss           0x00000000        0x0 c:/program files (x86)/microchip/mplabc32/v2.02/bin/../lib/gcc/pic32mx/4.5.1/../../../../pic32mx/lib\libc.a(printf_cdnopsuxX.eo)

.data%z190      0x00000000        0x0
 .data          0x00000000        0x0 c:/program files (x86)/microchip/mplabc32/v2.02/bin/../lib/gcc/pic32mx/4.5.1/../../../../pic32mx/lib\libc.a(printf_cdnopsuxX.eo)

.mdebug.abi32%z191
                0x00000000        0x0
 .mdebug.abi32  0x00000000        0x0 c:/program files (x86)/microchip/mplabc32/v2.02/bin/../lib/gcc/pic32mx/4.5.1/../../../../pic32mx/lib\libc.a(strtok.o)

.data%z192      0x00000000        0x0
 .data          0x00000000        0x0 c:/program files (x86)/microchip/mplabc32/v2.02/bin/../lib/gcc/pic32mx/4.5.1/../../../../pic32mx/lib\libc.a(strtok.o)

.mdebug.abi32%z193
                0x00000000        0x0
 .mdebug.abi32  0x00000000        0x0 c:/program files (x86)/microchip/mplabc32/v2.02/bin/../lib/gcc/pic32mx/4.5.1/../../../../pic32mx/lib\libc.a(strstr.o)

.bss%z194       0x00000000        0x0
 .bss           0x00000000        0x0 c:/program files (x86)/microchip/mplabc32/v2.02/bin/../lib/gcc/pic32mx/4.5.1/../../../../pic32mx/lib\libc.a(strstr.o)

.data%z195      0x00000000        0x0
 .data          0x00000000        0x0 c:/program files (x86)/microchip/mplabc32/v2.02/bin/../lib/gcc/pic32mx/4.5.1/../../../../pic32mx/lib\libc.a(strstr.o)

.mdebug.abi32%z196
                0x00000000        0x0
 .mdebug.abi32  0x00000000        0x0 c:/program files (x86)/microchip/mplabc32/v2.02/bin/../lib/gcc/pic32mx/4.5.1/../../../../pic32mx/lib\libc.a(strrchr.o)

.bss%z197       0x00000000        0x0
 .bss           0x00000000        0x0 c:/program files (x86)/microchip/mplabc32/v2.02/bin/../lib/gcc/pic32mx/4.5.1/../../../../pic32mx/lib\libc.a(strrchr.o)

.data%z198      0x00000000        0x0
 .data          0x00000000        0x0 c:/program files (x86)/microchip/mplabc32/v2.02/bin/../lib/gcc/pic32mx/4.5.1/../../../../pic32mx/lib\libc.a(strrchr.o)

.mdebug.abi32%z199
                0x00000000        0x0
 .mdebug.abi32  0x00000000        0x0 c:/program files (x86)/microchip/mplabc32/v2.02/bin/../lib/gcc/pic32mx/4.5.1/../../../../pic32mx/lib\libc.a(strncpy.o)

.bss%z200       0x00000000        0x0
 .bss           0x00000000        0x0 c:/program files (x86)/microchip/mplabc32/v2.02/bin/../lib/gcc/pic32mx/4.5.1/../../../../pic32mx/lib\libc.a(strncpy.o)

.data%z201      0x00000000        0x0
 .data          0x00000000        0x0 c:/program files (x86)/microchip/mplabc32/v2.02/bin/../lib/gcc/pic32mx/4.5.1/../../../../pic32mx/lib\libc.a(strncpy.o)

.mdebug.abi32%z202
                0x00000000        0x0
 .mdebug.abi32  0x00000000        0x0 c:/program files (x86)/microchip/mplabc32/v2.02/bin/../lib/gcc/pic32mx/4.5.1/../../../../pic32mx/lib\libc.a(strncmp.o)

.bss%z203       0x00000000        0x0
 .bss           0x00000000        0x0 c:/program files (x86)/microchip/mplabc32/v2.02/bin/../lib/gcc/pic32mx/4.5.1/../../../../pic32mx/lib\libc.a(strncmp.o)

.data%z204      0x00000000        0x0
 .data          0x00000000        0x0 c:/program files (x86)/microchip/mplabc32/v2.02/bin/../lib/gcc/pic32mx/4.5.1/../../../../pic32mx/lib\libc.a(strncmp.o)

.mdebug.abi32%z205
                0x00000000        0x0
 .mdebug.abi32  0x00000000        0x0 c:/program files (x86)/microchip/mplabc32/v2.02/bin/../lib/gcc/pic32mx/4.5.1/../../../../pic32mx/lib\libc.a(strchr.o)

.bss%z206       0x00000000        0x0
 .bss           0x00000000        0x0 c:/program files (x86)/microchip/mplabc32/v2.02/bin/../lib/gcc/pic32mx/4.5.1/../../../../pic32mx/lib\libc.a(strchr.o)

.data%z207      0x00000000        0x0
 .data          0x00000000        0x0 c:/program files (x86)/microchip/mplabc32/v2.02/bin/../lib/gcc/pic32mx/4.5.1/../../../../pic32mx/lib\libc.a(strchr.o)

.mdebug.abi32%z208
                0x00000000        0x0
 .mdebug.abi32  0x00000000        0x0 c:/program files (x86)/microchip/mplabc32/v2.02/bin/../lib/gcc/pic32mx/4.5.1/../../../../pic32mx/lib\libc.a(strcat.o)

.bss%z209       0x00000000        0x0
 .bss           0x00000000        0x0 c:/program files (x86)/microchip/mplabc32/v2.02/bin/../lib/gcc/pic32mx/4.5.1/../../../../pic32mx/lib\libc.a(strcat.o)

.data%z210      0x00000000        0x0
 .data          0x00000000        0x0 c:/program files (x86)/microchip/mplabc32/v2.02/bin/../lib/gcc/pic32mx/4.5.1/../../../../pic32mx/lib\libc.a(strcat.o)

.mdebug.abi32%z211
                0x00000000        0x0
 .mdebug.abi32  0x00000000        0x0 c:/program files (x86)/microchip/mplabc32/v2.02/bin/../lib/gcc/pic32mx/4.5.1/../../../../pic32mx/lib\libc.a(puts.o)

.bss%z212       0x00000000        0x0
 .bss           0x00000000        0x0 c:/program files (x86)/microchip/mplabc32/v2.02/bin/../lib/gcc/pic32mx/4.5.1/../../../../pic32mx/lib\libc.a(puts.o)

.data%z213      0x00000000        0x0
 .data          0x00000000        0x0 c:/program files (x86)/microchip/mplabc32/v2.02/bin/../lib/gcc/pic32mx/4.5.1/../../../../pic32mx/lib\libc.a(puts.o)

.mdebug.abi32%z214
                0x00000000        0x0
 .mdebug.abi32  0x00000000        0x0 c:/program files (x86)/microchip/mplabc32/v2.02/bin/../lib/gcc/pic32mx/4.5.1/../../../../pic32mx/lib\libc.a(mktime.o)

.bss%z215       0x00000000        0x0
 .bss           0x00000000        0x0 c:/program files (x86)/microchip/mplabc32/v2.02/bin/../lib/gcc/pic32mx/4.5.1/../../../../pic32mx/lib\libc.a(mktime.o)

.data%z216      0x00000000        0x0
 .data          0x00000000        0x0 c:/program files (x86)/microchip/mplabc32/v2.02/bin/../lib/gcc/pic32mx/4.5.1/../../../../pic32mx/lib\libc.a(mktime.o)

.mdebug.abi32%z217
                0x00000000        0x0
 .mdebug.abi32  0x00000000        0x0 c:/program files (x86)/microchip/mplabc32/v2.02/bin/../lib/gcc/pic32mx/4.5.1/../../../../pic32mx/lib\libc.a(ctype.o)

.bss%z218       0x00000000        0x0
 .bss           0x00000000        0x0 c:/program files (x86)/microchip/mplabc32/v2.02/bin/../lib/gcc/pic32mx/4.5.1/../../../../pic32mx/lib\libc.a(ctype.o)

.data%z219      0x00000000        0x0
 .data          0x00000000        0x0 c:/program files (x86)/microchip/mplabc32/v2.02/bin/../lib/gcc/pic32mx/4.5.1/../../../../pic32mx/lib\libc.a(ctype.o)

.mdebug.abi32%z220
                0x00000000        0x0
 .mdebug.abi32  0x00000000        0x0 c:/program files (x86)/microchip/mplabc32/v2.02/bin/../lib/gcc/pic32mx/4.5.1/../../../../pic32mx/lib\libc.a(ctime.o)

.data%z221      0x00000000        0x0
 .data          0x00000000        0x0 c:/program files (x86)/microchip/mplabc32/v2.02/bin/../lib/gcc/pic32mx/4.5.1/../../../../pic32mx/lib\libc.a(ctime.o)

.mdebug.abi32%z222
                0x00000000        0x0
 .mdebug.abi32  0x00000000        0x0 c:/program files (x86)/microchip/mplabc32/v2.02/bin/../lib/gcc/pic32mx/4.5.1/../../../../pic32mx/lib\libc.a(atol.o)

.bss%z223       0x00000000        0x0
 .bss           0x00000000        0x0 c:/program files (x86)/microchip/mplabc32/v2.02/bin/../lib/gcc/pic32mx/4.5.1/../../../../pic32mx/lib\libc.a(atol.o)

.data%z224      0x00000000        0x0
 .data          0x00000000        0x0 c:/program files (x86)/microchip/mplabc32/v2.02/bin/../lib/gcc/pic32mx/4.5.1/../../../../pic32mx/lib\libc.a(atol.o)

.mdebug.abi32%z225
                0x00000000        0x0
 .mdebug.abi32  0x00000000        0x0 c:/program files (x86)/microchip/mplabc32/v2.02/bin/../lib/gcc/pic32mx/4.5.1/../../../../pic32mx/lib\libc.a(atoi.o)

.bss%z226       0x00000000        0x0
 .bss           0x00000000        0x0 c:/program files (x86)/microchip/mplabc32/v2.02/bin/../lib/gcc/pic32mx/4.5.1/../../../../pic32mx/lib\libc.a(atoi.o)

.data%z227      0x00000000        0x0
 .data          0x00000000        0x0 c:/program files (x86)/microchip/mplabc32/v2.02/bin/../lib/gcc/pic32mx/4.5.1/../../../../pic32mx/lib\libc.a(atoi.o)

.bss%z228       0x00000000        0x0
 .bss           0x00000000        0x0 c:/program files (x86)/microchip/mplabc32/v2.02/bin/../lib/gcc/pic32mx/4.5.1/../../../../pic32mx/lib\libc.a(general-exception.o)

.data%z229      0x00000000        0x0
 .data          0x00000000        0x0 c:/program files (x86)/microchip/mplabc32/v2.02/bin/../lib/gcc/pic32mx/4.5.1/../../../../pic32mx/lib\libc.a(general-exception.o)

.bss%z230       0x00000000        0x0
 .bss           0x00000000        0x0 c:/program files (x86)/microchip/mplabc32/v2.02/bin/../lib/gcc/pic32mx/4.5.1/../../../../pic32mx/lib\libc.a(strlen.o)

.data%z231      0x00000000        0x0
 .data          0x00000000        0x0 c:/program files (x86)/microchip/mplabc32/v2.02/bin/../lib/gcc/pic32mx/4.5.1/../../../../pic32mx/lib\libc.a(strlen.o)

.bss%z232       0x00000000        0x0
 .bss           0x00000000        0x0 c:/program files (x86)/microchip/mplabc32/v2.02/bin/../lib/gcc/pic32mx/4.5.1/../../../../pic32mx/lib\libc.a(strcpy.o)

.data%z233      0x00000000        0x0
 .data          0x00000000        0x0 c:/program files (x86)/microchip/mplabc32/v2.02/bin/../lib/gcc/pic32mx/4.5.1/../../../../pic32mx/lib\libc.a(strcpy.o)

.bss%z234       0x00000000        0x0
 .bss           0x00000000        0x0 c:/program files (x86)/microchip/mplabc32/v2.02/bin/../lib/gcc/pic32mx/4.5.1/../../../../pic32mx/lib\libc.a(strcmp.o)

.data%z235      0x00000000        0x0
 .data          0x00000000        0x0 c:/program files (x86)/microchip/mplabc32/v2.02/bin/../lib/gcc/pic32mx/4.5.1/../../../../pic32mx/lib\libc.a(strcmp.o)

.bss%z236       0x00000000        0x0
 .bss           0x00000000        0x0 c:/program files (x86)/microchip/mplabc32/v2.02/bin/../lib/gcc/pic32mx/4.5.1/../../../../pic32mx/lib\libc.a(memset.o)

.data%z237      0x00000000        0x0
 .data          0x00000000        0x0 c:/program files (x86)/microchip/mplabc32/v2.02/bin/../lib/gcc/pic32mx/4.5.1/../../../../pic32mx/lib\libc.a(memset.o)

.bss%z238       0x00000000        0x0
 .bss           0x00000000        0x0 c:/program files (x86)/microchip/mplabc32/v2.02/bin/../lib/gcc/pic32mx/4.5.1/../../../../pic32mx/lib\libc.a(memcpy.o)

.data%z239      0x00000000        0x0
 .data          0x00000000        0x0 c:/program files (x86)/microchip/mplabc32/v2.02/bin/../lib/gcc/pic32mx/4.5.1/../../../../pic32mx/lib\libc.a(memcpy.o)

.bss%z240       0x00000000        0x0
 .bss           0x00000000        0x0 c:/program files (x86)/microchip/mplabc32/v2.02/bin/../lib/gcc/pic32mx/4.5.1/../../../../pic32mx/lib\libc.a(memcmp.o)

.data%z241      0x00000000        0x0
 .data          0x00000000        0x0 c:/program files (x86)/microchip/mplabc32/v2.02/bin/../lib/gcc/pic32mx/4.5.1/../../../../pic32mx/lib\libc.a(memcmp.o)

.mdebug.abi32%z242
                0x00000000        0x0
 .mdebug.abi32  0x00000000        0x0 c:/program files (x86)/microchip/mplabc32/v2.02/bin/../lib/gcc/pic32mx/4.5.1\libgcc.a(floatunsisf.o)

.bss%z243       0x00000000        0x0
 .bss           0x00000000        0x0 c:/program files (x86)/microchip/mplabc32/v2.02/bin/../lib/gcc/pic32mx/4.5.1\libgcc.a(floatunsisf.o)

.data%z244      0x00000000        0x0
 .data          0x00000000        0x0 c:/program files (x86)/microchip/mplabc32/v2.02/bin/../lib/gcc/pic32mx/4.5.1\libgcc.a(floatunsisf.o)

.mdebug.abi32%z245
                0x00000000        0x0
 .mdebug.abi32  0x00000000        0x0 c:/program files (x86)/microchip/mplabc32/v2.02/bin/../lib/gcc/pic32mx/4.5.1\libgcc.a(_umoddi3.o)

.bss%z246       0x00000000        0x0
 .bss           0x00000000        0x0 c:/program files (x86)/microchip/mplabc32/v2.02/bin/../lib/gcc/pic32mx/4.5.1\libgcc.a(_umoddi3.o)

.data%z247      0x00000000        0x0
 .data          0x00000000        0x0 c:/program files (x86)/microchip/mplabc32/v2.02/bin/../lib/gcc/pic32mx/4.5.1\libgcc.a(_umoddi3.o)

.mdebug.abi32%z248
                0x00000000        0x0
 .mdebug.abi32  0x00000000        0x0 c:/program files (x86)/microchip/mplabc32/v2.02/bin/../lib/gcc/pic32mx/4.5.1\libgcc.a(_udivdi3.o)

.bss%z249       0x00000000        0x0
 .bss           0x00000000        0x0 c:/program files (x86)/microchip/mplabc32/v2.02/bin/../lib/gcc/pic32mx/4.5.1\libgcc.a(_udivdi3.o)

.data%z250      0x00000000        0x0
 .data          0x00000000        0x0 c:/program files (x86)/microchip/mplabc32/v2.02/bin/../lib/gcc/pic32mx/4.5.1\libgcc.a(_udivdi3.o)

.mdebug.abi32%z251
                0x00000000        0x0
 .mdebug.abi32  0x00000000        0x0 obj-tmp\Assert.o

.bss%z252       0x00000000        0x0
 .bss           0x00000000        0x0 obj-tmp\Assert.o

.data%z253      0x00000000        0x0
 .data          0x00000000        0x0 obj-tmp\Assert.o

.mdebug.abi32%z254
                0x00000000        0x0
 .mdebug.abi32  0x00000000        0x0 obj-tmp\app_UCM.o

.bss%z255       0x00000000        0x0
 .bss           0x00000000        0x0 obj-tmp\app_UCM.o

.data%z256      0x00000000        0x0
 .data          0x00000000        0x0 obj-tmp\app_UCM.o

.mdebug.abi32%z257
                0x00000000        0x0
 .mdebug.abi32  0x00000000        0x0 obj-tmp\EPRI_UARTLayer.o

.bss%z258       0x00000000        0x0
 .bss           0x00000000        0x0 obj-tmp\EPRI_UARTLayer.o

.mdebug.abi32%z259
                0x00000000        0x0
 .mdebug.abi32  0x00000000        0x0 obj-tmp\TimeMonitor.o

.bss%z260       0x00000000        0x0
 .bss           0x00000000        0x0 obj-tmp\TimeMonitor.o

.data%z261      0x00000000        0x0
 .data          0x00000000        0x0 obj-tmp\TimeMonitor.o

.mdebug.abi32%z262
                0x00000000        0x0
 .mdebug.abi32  0x00000000        0x0 obj-tmp\UARTiMain.o

.bss%z263       0x00000000        0x0
 .bss           0x00000000        0x0 obj-tmp\UARTiMain.o

.data%z264      0x00000000        0x0
 .data          0x00000000        0x0 obj-tmp\UARTiMain.o

.mdebug.abi32%z265
                0x00000000        0x0
 .mdebug.abi32  0x00000000        0x0 obj-tmp\INTiMain.o

.bss%z266       0x00000000        0x0
 .bss           0x00000000        0x0 obj-tmp\INTiMain.o

.data%z267      0x00000000        0x0
 .data          0x00000000        0x0 obj-tmp\INTiMain.o

.mdebug.abi32%z268
                0x00000000        0x0
 .mdebug.abi32  0x00000000        0x0 obj-tmp\OpenADRClient.o

.mdebug.abi32%z269
                0x00000000        0x0
 .mdebug.abi32  0x00000000        0x0 obj-tmp\i2c_master.o

.bss%z270       0x00000000        0x0
 .bss           0x00000000        0x0 obj-tmp\i2c_master.o

.data%z271      0x00000000        0x0
 .data          0x00000000        0x0 obj-tmp\i2c_master.o

.mdebug.abi32%z272
                0x00000000        0x0
 .mdebug.abi32  0x00000000        0x0 obj-tmp\DHCPs.o

.bss%z273       0x00000000        0x0
 .bss           0x00000000        0x0 obj-tmp\DHCPs.o

.data%z274      0x00000000        0x0
 .data          0x00000000        0x0 obj-tmp\DHCPs.o

.mdebug.abi32%z275
                0x00000000        0x0
 .mdebug.abi32  0x00000000        0x0 obj-tmp\DHCP.o

.data%z276      0x00000000        0x0
 .data          0x00000000        0x0 obj-tmp\DHCP.o

.mdebug.abi32%z277
                0x00000000        0x0
 .mdebug.abi32  0x00000000        0x0 obj-tmp\WFParamMsg_24G.o

.bss%z278       0x00000000        0x0
 .bss           0x00000000        0x0 obj-tmp\WFParamMsg_24G.o

.data%z279      0x00000000        0x0
 .data          0x00000000        0x0 obj-tmp\WFParamMsg_24G.o

.mdebug.abi32%z280
                0x00000000        0x0
 .mdebug.abi32  0x00000000        0x0 obj-tmp\WFMgmtMsg_24G.o

.bss%z281       0x00000000        0x0
 .bss           0x00000000        0x0 obj-tmp\WFMgmtMsg_24G.o

.data%z282      0x00000000        0x0
 .data          0x00000000        0x0 obj-tmp\WFMgmtMsg_24G.o

.mdebug.abi32%z283
                0x00000000        0x0
 .mdebug.abi32  0x00000000        0x0 obj-tmp\WFMac_24G.o

.bss%z284       0x00000000        0x0
 .bss           0x00000000        0x0 obj-tmp\WFMac_24G.o

.data%z285      0x00000000        0x0
 .data          0x00000000        0x0 obj-tmp\WFMac_24G.o

.mdebug.abi32%z286
                0x00000000        0x0
 .mdebug.abi32  0x00000000        0x0 obj-tmp\WFDriverRaw_24G.o

.bss%z287       0x00000000        0x0
 .bss           0x00000000        0x0 obj-tmp\WFDriverRaw_24G.o

.data%z288      0x00000000        0x0
 .data          0x00000000        0x0 obj-tmp\WFDriverRaw_24G.o

.mdebug.abi32%z289
                0x00000000        0x0
 .mdebug.abi32  0x00000000        0x0 obj-tmp\WFDriverCom_24G.o

.bss%z290       0x00000000        0x0
 .bss           0x00000000        0x0 obj-tmp\WFDriverCom_24G.o

.data%z291      0x00000000        0x0
 .data          0x00000000        0x0 obj-tmp\WFDriverCom_24G.o

.mdebug.abi32%z292
                0x00000000        0x0
 .mdebug.abi32  0x00000000        0x0 obj-tmp\WF_Spi.o

.bss%z293       0x00000000        0x0
 .bss           0x00000000        0x0 obj-tmp\WF_Spi.o

.data%z294      0x00000000        0x0
 .data          0x00000000        0x0 obj-tmp\WF_Spi.o

.mdebug.abi32%z295
                0x00000000        0x0
 .mdebug.abi32  0x00000000        0x0 obj-tmp\WFTxPower.o

.bss%z296       0x00000000        0x0
 .bss           0x00000000        0x0 obj-tmp\WFTxPower.o

.data%z297      0x00000000        0x0
 .data          0x00000000        0x0 obj-tmp\WFTxPower.o

.mdebug.abi32%z298
                0x00000000        0x0
 .mdebug.abi32  0x00000000        0x0 obj-tmp\WFScan.o

.bss%z299       0x00000000        0x0
 .bss           0x00000000        0x0 obj-tmp\WFScan.o

.data%z300      0x00000000        0x0
 .data          0x00000000        0x0 obj-tmp\WFScan.o

.mdebug.abi32%z301
                0x00000000        0x0
 .mdebug.abi32  0x00000000        0x0 obj-tmp\WFPowerSave.o

.bss%z302       0x00000000        0x0
 .bss           0x00000000        0x0 obj-tmp\WFPowerSave.o

.data%z303      0x00000000        0x0
 .data          0x00000000        0x0 obj-tmp\WFPowerSave.o

.mdebug.abi32%z304
                0x00000000        0x0
 .mdebug.abi32  0x00000000        0x0 obj-tmp\WFInit.o

.bss%z305       0x00000000        0x0
 .bss           0x00000000        0x0 obj-tmp\WFInit.o

.data%z306      0x00000000        0x0
 .data          0x00000000        0x0 obj-tmp\WFInit.o

.mdebug.abi32%z307
                0x00000000        0x0
 .mdebug.abi32  0x00000000        0x0 obj-tmp\WFEventHandler.o

.bss%z308       0x00000000        0x0
 .bss           0x00000000        0x0 obj-tmp\WFEventHandler.o

.data%z309      0x00000000        0x0
 .data          0x00000000        0x0 obj-tmp\WFEventHandler.o

.mdebug.abi32%z310
                0x00000000        0x0
 .mdebug.abi32  0x00000000        0x0 obj-tmp\WFEasyConfig.o

.bss%z311       0x00000000        0x0
 .bss           0x00000000        0x0 obj-tmp\WFEasyConfig.o

.data%z312      0x00000000        0x0
 .data          0x00000000        0x0 obj-tmp\WFEasyConfig.o

.mdebug.abi32%z313
                0x00000000        0x0
 .mdebug.abi32  0x00000000        0x0 obj-tmp\WFDebugStrings.o

.bss%z314       0x00000000        0x0
 .bss           0x00000000        0x0 obj-tmp\WFDebugStrings.o

.mdebug.abi32%z315
                0x00000000        0x0
 .mdebug.abi32  0x00000000        0x0 obj-tmp\WFDataTxRx.o

.bss%z316       0x00000000        0x0
 .bss           0x00000000        0x0 obj-tmp\WFDataTxRx.o

.data%z317      0x00000000        0x0
 .data          0x00000000        0x0 obj-tmp\WFDataTxRx.o

.mdebug.abi32%z318
                0x00000000        0x0
 .mdebug.abi32  0x00000000        0x0 obj-tmp\WFConsoleMsgs.o

.bss%z319       0x00000000        0x0
 .bss           0x00000000        0x0 obj-tmp\WFConsoleMsgs.o

.data%z320      0x00000000        0x0
 .data          0x00000000        0x0 obj-tmp\WFConsoleMsgs.o

.mdebug.abi32%z321
                0x00000000        0x0
 .mdebug.abi32  0x00000000        0x0 obj-tmp\WFConsoleMsgHandler.o

.bss%z322       0x00000000        0x0
 .bss           0x00000000        0x0 obj-tmp\WFConsoleMsgHandler.o

.data%z323      0x00000000        0x0
 .data          0x00000000        0x0 obj-tmp\WFConsoleMsgHandler.o

.mdebug.abi32%z324
                0x00000000        0x0
 .mdebug.abi32  0x00000000        0x0 obj-tmp\WFConsoleIwpriv.o

.bss%z325       0x00000000        0x0
 .bss           0x00000000        0x0 obj-tmp\WFConsoleIwpriv.o

.data%z326      0x00000000        0x0
 .data          0x00000000        0x0 obj-tmp\WFConsoleIwpriv.o

.mdebug.abi32%z327
                0x00000000        0x0
 .mdebug.abi32  0x00000000        0x0 obj-tmp\WFConsoleIwconfig.o

.bss%z328       0x00000000        0x0
 .bss           0x00000000        0x0 obj-tmp\WFConsoleIwconfig.o

.data%z329      0x00000000        0x0
 .data          0x00000000        0x0 obj-tmp\WFConsoleIwconfig.o

.mdebug.abi32%z330
                0x00000000        0x0
 .mdebug.abi32  0x00000000        0x0 obj-tmp\WFConsoleIfconfig.o

.bss%z331       0x00000000        0x0
 .bss           0x00000000        0x0 obj-tmp\WFConsoleIfconfig.o

.data%z332      0x00000000        0x0
 .data          0x00000000        0x0 obj-tmp\WFConsoleIfconfig.o

.mdebug.abi32%z333
                0x00000000        0x0
 .mdebug.abi32  0x00000000        0x0 obj-tmp\WFConsole.o

.bss%z334       0x00000000        0x0
 .bss           0x00000000        0x0 obj-tmp\WFConsole.o

.data%z335      0x00000000        0x0
 .data          0x00000000        0x0 obj-tmp\WFConsole.o

.mdebug.abi32%z336
                0x00000000        0x0
 .mdebug.abi32  0x00000000        0x0 obj-tmp\WFConnectionProfile.o

.bss%z337       0x00000000        0x0
 .bss           0x00000000        0x0 obj-tmp\WFConnectionProfile.o

.data%z338      0x00000000        0x0
 .data          0x00000000        0x0 obj-tmp\WFConnectionProfile.o

.mdebug.abi32%z339
                0x00000000        0x0
 .mdebug.abi32  0x00000000        0x0 obj-tmp\WFConnectionManager.o

.bss%z340       0x00000000        0x0
 .bss           0x00000000        0x0 obj-tmp\WFConnectionManager.o

.data%z341      0x00000000        0x0
 .data          0x00000000        0x0 obj-tmp\WFConnectionManager.o

.mdebug.abi32%z342
                0x00000000        0x0
 .mdebug.abi32  0x00000000        0x0 obj-tmp\WFConnectionAlgorithm.o

.bss%z343       0x00000000        0x0
 .bss           0x00000000        0x0 obj-tmp\WFConnectionAlgorithm.o

.data%z344      0x00000000        0x0
 .data          0x00000000        0x0 obj-tmp\WFConnectionAlgorithm.o

.mdebug.abi32%z345
                0x00000000        0x0
 .mdebug.abi32  0x00000000        0x0 obj-tmp\WF_pbkdf2.o

.bss%z346       0x00000000        0x0
 .bss           0x00000000        0x0 obj-tmp\WF_pbkdf2.o

.data%z347      0x00000000        0x0
 .data          0x00000000        0x0 obj-tmp\WF_pbkdf2.o

.mdebug.abi32%z348
                0x00000000        0x0
 .mdebug.abi32  0x00000000        0x0 obj-tmp\WF_Eint.o

.bss%z349       0x00000000        0x0
 .bss           0x00000000        0x0 obj-tmp\WF_Eint.o

.data%z350      0x00000000        0x0
 .data          0x00000000        0x0 obj-tmp\WF_Eint.o

.mdebug.abi32%z351
                0x00000000        0x0
 .mdebug.abi32  0x00000000        0x0 obj-tmp\ZeroconfMulticastDNS.o

.data%z352      0x00000000        0x0
 .data          0x00000000        0x0 obj-tmp\ZeroconfMulticastDNS.o

.mdebug.abi32%z353
                0x00000000        0x0
 .mdebug.abi32  0x00000000        0x0 obj-tmp\ZeroconfLinkLocal.o

.bss%z354       0x00000000        0x0
 .bss           0x00000000        0x0 obj-tmp\ZeroconfLinkLocal.o

.data%z355      0x00000000        0x0
 .data          0x00000000        0x0 obj-tmp\ZeroconfLinkLocal.o

.mdebug.abi32%z356
                0x00000000        0x0
 .mdebug.abi32  0x00000000        0x0 obj-tmp\ZeroconfHelper.o

.bss%z357       0x00000000        0x0
 .bss           0x00000000        0x0 obj-tmp\ZeroconfHelper.o

.data%z358      0x00000000        0x0
 .data          0x00000000        0x0 obj-tmp\ZeroconfHelper.o

.mdebug.abi32%z359
                0x00000000        0x0
 .mdebug.abi32  0x00000000        0x0 obj-tmp\UDPPerformanceTest.o

.bss%z360       0x00000000        0x0
 .bss           0x00000000        0x0 obj-tmp\UDPPerformanceTest.o

.data%z361      0x00000000        0x0
 .data          0x00000000        0x0 obj-tmp\UDPPerformanceTest.o

.mdebug.abi32%z362
                0x00000000        0x0
 .mdebug.abi32  0x00000000        0x0 obj-tmp\UDP.o

.bss%z363       0x00000000        0x0
 .bss           0x00000000        0x0 obj-tmp\UDP.o

.data%z364      0x00000000        0x0
 .data          0x00000000        0x0 obj-tmp\UDP.o

.mdebug.abi32%z365
                0x00000000        0x0
 .mdebug.abi32  0x00000000        0x0 obj-tmp\UART2TCPBridge.o

.bss%z366       0x00000000        0x0
 .bss           0x00000000        0x0 obj-tmp\UART2TCPBridge.o

.data%z367      0x00000000        0x0
 .data          0x00000000        0x0 obj-tmp\UART2TCPBridge.o

.mdebug.abi32%z368
                0x00000000        0x0
 .mdebug.abi32  0x00000000        0x0 obj-tmp\Tick.o

.bss%z369       0x00000000        0x0
 .bss           0x00000000        0x0 obj-tmp\Tick.o

.data%z370      0x00000000        0x0
 .data          0x00000000        0x0 obj-tmp\Tick.o

.mdebug.abi32%z371
                0x00000000        0x0
 .mdebug.abi32  0x00000000        0x0 obj-tmp\TFTPc.o

.bss%z372       0x00000000        0x0
 .bss           0x00000000        0x0 obj-tmp\TFTPc.o

.data%z373      0x00000000        0x0
 .data          0x00000000        0x0 obj-tmp\TFTPc.o

.mdebug.abi32%z374
                0x00000000        0x0
 .mdebug.abi32  0x00000000        0x0 obj-tmp\Telnet.o

.bss%z375       0x00000000        0x0
 .bss           0x00000000        0x0 obj-tmp\Telnet.o

.data%z376      0x00000000        0x0
 .data          0x00000000        0x0 obj-tmp\Telnet.o

.mdebug.abi32%z377
                0x00000000        0x0
 .mdebug.abi32  0x00000000        0x0 obj-tmp\TCPPerformanceTest.o

.bss%z378       0x00000000        0x0
 .bss           0x00000000        0x0 obj-tmp\TCPPerformanceTest.o

.data%z379      0x00000000        0x0
 .data          0x00000000        0x0 obj-tmp\TCPPerformanceTest.o

.mdebug.abi32%z380
                0x00000000        0x0
 .mdebug.abi32  0x00000000        0x0 obj-tmp\TCP.o

.data%z381      0x00000000        0x0
 .data          0x00000000        0x0 obj-tmp\TCP.o

.mdebug.abi32%z382
                0x00000000        0x0
 .mdebug.abi32  0x00000000        0x0 obj-tmp\StackTsk.o

.bss%z383       0x00000000        0x0
 .bss           0x00000000        0x0 obj-tmp\StackTsk.o

.data%z384      0x00000000        0x0
 .data          0x00000000        0x0 obj-tmp\StackTsk.o

.mdebug.abi32%z385
                0x00000000        0x0
 .mdebug.abi32  0x00000000        0x0 obj-tmp\SSL.o

.bss%z386       0x00000000        0x0
 .bss           0x00000000        0x0 obj-tmp\SSL.o

.data%z387      0x00000000        0x0
 .data          0x00000000        0x0 obj-tmp\SSL.o

.mdebug.abi32%z388
                0x00000000        0x0
 .mdebug.abi32  0x00000000        0x0 obj-tmp\SPIRAM.o

.bss%z389       0x00000000        0x0
 .bss           0x00000000        0x0 obj-tmp\SPIRAM.o

.data%z390      0x00000000        0x0
 .data          0x00000000        0x0 obj-tmp\SPIRAM.o

.mdebug.abi32%z391
                0x00000000        0x0
 .mdebug.abi32  0x00000000        0x0 obj-tmp\SPIFlash.o

.bss%z392       0x00000000        0x0
 .bss           0x00000000        0x0 obj-tmp\SPIFlash.o

.data%z393      0x00000000        0x0
 .data          0x00000000        0x0 obj-tmp\SPIFlash.o

.mdebug.abi32%z394
                0x00000000        0x0
 .mdebug.abi32  0x00000000        0x0 obj-tmp\SPIEEPROM.o

.bss%z395       0x00000000        0x0
 .bss           0x00000000        0x0 obj-tmp\SPIEEPROM.o

.data%z396      0x00000000        0x0
 .data          0x00000000        0x0 obj-tmp\SPIEEPROM.o

.mdebug.abi32%z397
                0x00000000        0x0
 .mdebug.abi32  0x00000000        0x0 obj-tmp\SNTP.o

.bss%z398       0x00000000        0x0
 .bss           0x00000000        0x0 obj-tmp\SNTP.o

.data%z399      0x00000000        0x0
 .data          0x00000000        0x0 obj-tmp\SNTP.o

.mdebug.abi32%z400
                0x00000000        0x0
 .mdebug.abi32  0x00000000        0x0 obj-tmp\SNMPv3USM.o

.bss%z401       0x00000000        0x0
 .bss           0x00000000        0x0 obj-tmp\SNMPv3USM.o

.data%z402      0x00000000        0x0
 .data          0x00000000        0x0 obj-tmp\SNMPv3USM.o

.mdebug.abi32%z403
                0x00000000        0x0
 .mdebug.abi32  0x00000000        0x0 obj-tmp\SNMPv3.o

.bss%z404       0x00000000        0x0
 .bss           0x00000000        0x0 obj-tmp\SNMPv3.o

.data%z405      0x00000000        0x0
 .data          0x00000000        0x0 obj-tmp\SNMPv3.o

.mdebug.abi32%z406
                0x00000000        0x0
 .mdebug.abi32  0x00000000        0x0 obj-tmp\SNMP.o

.bss%z407       0x00000000        0x0
 .bss           0x00000000        0x0 obj-tmp\SNMP.o

.data%z408      0x00000000        0x0
 .data          0x00000000        0x0 obj-tmp\SNMP.o

.mdebug.abi32%z409
                0x00000000        0x0
 .mdebug.abi32  0x00000000        0x0 obj-tmp\SMTP.o

.bss%z410       0x00000000        0x0
 .bss           0x00000000        0x0 obj-tmp\SMTP.o

.data%z411      0x00000000        0x0
 .data          0x00000000        0x0 obj-tmp\SMTP.o

.mdebug.abi32%z412
                0x00000000        0x0
 .mdebug.abi32  0x00000000        0x0 obj-tmp\RSA.o

.bss%z413       0x00000000        0x0
 .bss           0x00000000        0x0 obj-tmp\RSA.o

.data%z414      0x00000000        0x0
 .data          0x00000000        0x0 obj-tmp\RSA.o

.mdebug.abi32%z415
                0x00000000        0x0
 .mdebug.abi32  0x00000000        0x0 obj-tmp\Reboot.o

.bss%z416       0x00000000        0x0
 .bss           0x00000000        0x0 obj-tmp\Reboot.o

.data%z417      0x00000000        0x0
 .data          0x00000000        0x0 obj-tmp\Reboot.o

.mdebug.abi32%z418
                0x00000000        0x0
 .mdebug.abi32  0x00000000        0x0 obj-tmp\Random.o

.bss%z419       0x00000000        0x0
 .bss           0x00000000        0x0 obj-tmp\Random.o

.data%z420      0x00000000        0x0
 .data          0x00000000        0x0 obj-tmp\Random.o

.mdebug.abi32%z421
                0x00000000        0x0
 .mdebug.abi32  0x00000000        0x0 obj-tmp\NBNS.o

.bss%z422       0x00000000        0x0
 .bss           0x00000000        0x0 obj-tmp\NBNS.o

.data%z423      0x00000000        0x0
 .data          0x00000000        0x0 obj-tmp\NBNS.o

.mdebug.abi32%z424
                0x00000000        0x0
 .mdebug.abi32  0x00000000        0x0 obj-tmp\MPFS2.o

.data%z425      0x00000000        0x0
 .data          0x00000000        0x0 obj-tmp\MPFS2.o

.mdebug.abi32%z426
                0x00000000        0x0
 .mdebug.abi32  0x00000000        0x0 obj-tmp\LCDBlocking.o

.bss%z427       0x00000000        0x0
 .bss           0x00000000        0x0 obj-tmp\LCDBlocking.o

.data%z428      0x00000000        0x0
 .data          0x00000000        0x0 obj-tmp\LCDBlocking.o

.mdebug.abi32%z429
                0x00000000        0x0
 .mdebug.abi32  0x00000000        0x0 obj-tmp\IP.o

.bss%z430       0x00000000        0x0
 .bss           0x00000000        0x0 obj-tmp\IP.o

.data%z431      0x00000000        0x0
 .data          0x00000000        0x0 obj-tmp\IP.o

.mdebug.abi32%z432
                0x00000000        0x0
 .mdebug.abi32  0x00000000        0x0 obj-tmp\ICMP.o

.bss%z433       0x00000000        0x0
 .bss           0x00000000        0x0 obj-tmp\ICMP.o

.data%z434      0x00000000        0x0
 .data          0x00000000        0x0 obj-tmp\ICMP.o

.mdebug.abi32%z435
                0x00000000        0x0
 .mdebug.abi32  0x00000000        0x0 obj-tmp\HTTP2.o

.bss%z436       0x00000000        0x0
 .bss           0x00000000        0x0 obj-tmp\HTTP2.o

.data%z437      0x00000000        0x0
 .data          0x00000000        0x0 obj-tmp\HTTP2.o

.mdebug.abi32%z438
                0x00000000        0x0
 .mdebug.abi32  0x00000000        0x0 obj-tmp\Helpers.o

.bss%z439       0x00000000        0x0
 .bss           0x00000000        0x0 obj-tmp\Helpers.o

.data%z440      0x00000000        0x0
 .data          0x00000000        0x0 obj-tmp\Helpers.o

.mdebug.abi32%z441
                0x00000000        0x0
 .mdebug.abi32  0x00000000        0x0 obj-tmp\Hashes.o

.bss%z442       0x00000000        0x0
 .bss           0x00000000        0x0 obj-tmp\Hashes.o

.data%z443      0x00000000        0x0
 .data          0x00000000        0x0 obj-tmp\Hashes.o

.mdebug.abi32%z444
                0x00000000        0x0
 .mdebug.abi32  0x00000000        0x0 obj-tmp\FTP.o

.bss%z445       0x00000000        0x0
 .bss           0x00000000        0x0 obj-tmp\FTP.o

.data%z446      0x00000000        0x0
 .data          0x00000000        0x0 obj-tmp\FTP.o

.mdebug.abi32%z447
                0x00000000        0x0
 .mdebug.abi32  0x00000000        0x0 obj-tmp\FileSystem.o

.bss%z448       0x00000000        0x0
 .bss           0x00000000        0x0 obj-tmp\FileSystem.o

.data%z449      0x00000000        0x0
 .data          0x00000000        0x0 obj-tmp\FileSystem.o

.mdebug.abi32%z450
                0x00000000        0x0
 .mdebug.abi32  0x00000000        0x0 obj-tmp\DynDNS.o

.bss%z451       0x00000000        0x0
 .bss           0x00000000        0x0 obj-tmp\DynDNS.o

.data%z452      0x00000000        0x0
 .data          0x00000000        0x0 obj-tmp\DynDNS.o

.mdebug.abi32%z453
                0x00000000        0x0
 .mdebug.abi32  0x00000000        0x0 obj-tmp\DNSs.o

.data%z454      0x00000000        0x0
 .data          0x00000000        0x0 obj-tmp\DNSs.o

.mdebug.abi32%z455
                0x00000000        0x0
 .mdebug.abi32  0x00000000        0x0 obj-tmp\DNS.o

.data%z456      0x00000000        0x0
 .data          0x00000000        0x0 obj-tmp\DNS.o

.mdebug.abi32%z457
                0x00000000        0x0
 .mdebug.abi32  0x00000000        0x0 obj-tmp\Delay.o

.bss%z458       0x00000000        0x0
 .bss           0x00000000        0x0 obj-tmp\Delay.o

.data%z459      0x00000000        0x0
 .data          0x00000000        0x0 obj-tmp\Delay.o

.bss%z460       0x00000000        0x0
 .bss           0x00000000        0x0 obj-tmp\BigInt_helper_PIC32.o

.data%z461      0x00000000        0x0
 .data          0x00000000        0x0 obj-tmp\BigInt_helper_PIC32.o

.mdebug.abi32%z462
                0x00000000        0x0
 .mdebug.abi32  0x00000000        0x0 obj-tmp\BigInt.o

.bss%z463       0x00000000        0x0
 .bss           0x00000000        0x0 obj-tmp\BigInt.o

.data%z464      0x00000000        0x0
 .data          0x00000000        0x0 obj-tmp\BigInt.o

.mdebug.abi32%z465
                0x00000000        0x0
 .mdebug.abi32  0x00000000        0x0 obj-tmp\BerkeleyAPI.o

.bss%z466       0x00000000        0x0
 .bss           0x00000000        0x0 obj-tmp\BerkeleyAPI.o

.data%z467      0x00000000        0x0
 .data          0x00000000        0x0 obj-tmp\BerkeleyAPI.o

.mdebug.abi32%z468
                0x00000000        0x0
 .mdebug.abi32  0x00000000        0x0 obj-tmp\AutoIP.o

.bss%z469       0x00000000        0x0
 .bss           0x00000000        0x0 obj-tmp\AutoIP.o

.data%z470      0x00000000        0x0
 .data          0x00000000        0x0 obj-tmp\AutoIP.o

.mdebug.abi32%z471
                0x00000000        0x0
 .mdebug.abi32  0x00000000        0x0 obj-tmp\ARP.o

.data%z472      0x00000000        0x0
 .data          0x00000000        0x0 obj-tmp\ARP.o

.mdebug.abi32%z473
                0x00000000        0x0
 .mdebug.abi32  0x00000000        0x0 obj-tmp\ARCFOUR.o

.bss%z474       0x00000000        0x0
 .bss           0x00000000        0x0 obj-tmp\ARCFOUR.o

.data%z475      0x00000000        0x0
 .data          0x00000000        0x0 obj-tmp\ARCFOUR.o

.mdebug.abi32%z476
                0x00000000        0x0
 .mdebug.abi32  0x00000000        0x0 obj-tmp\Announce.o

.bss%z477       0x00000000        0x0
 .bss           0x00000000        0x0 obj-tmp\Announce.o

.data%z478      0x00000000        0x0
 .data          0x00000000        0x0 obj-tmp\Announce.o

.mdebug.abi32%z479
                0x00000000        0x0
 .mdebug.abi32  0x00000000        0x0 obj-tmp\WifiGDemoMPFSImg.o

.bss%z480       0x00000000        0x0
 .bss           0x00000000        0x0 obj-tmp\WifiGDemoMPFSImg.o

.data%z481      0x00000000        0x0
 .data          0x00000000        0x0 obj-tmp\WifiGDemoMPFSImg.o

.mdebug.abi32%z482
                0x00000000        0x0
 .mdebug.abi32  0x00000000        0x0 obj-tmp\WF_Config.o

.bss%z483       0x00000000        0x0
 .bss           0x00000000        0x0 obj-tmp\WF_Config.o

.data%z484      0x00000000        0x0
 .data          0x00000000        0x0 obj-tmp\WF_Config.o

.mdebug.abi32%z485
                0x00000000        0x0
 .mdebug.abi32  0x00000000        0x0 obj-tmp\CustomHTTPApp.o

.data%z486      0x00000000        0x0
 .data          0x00000000        0x0 obj-tmp\CustomHTTPApp.o

.mdebug.abi32%z487
                0x00000000        0x0
 .mdebug.abi32  0x00000000        0x0 obj-tmp\Main.o

.bss%z488       0x00000000        0x0
 .bss           0x00000000        0x0 obj-tmp\Main.o

.data%z489      0x00000000        0x0
 .data          0x00000000        0x0 obj-tmp\Main.o

.bss%z490       0x00000000        0x0
 .bss           0x00000000        0x0 c:/program files (x86)/microchip/mplabc32/v2.02/bin/../lib/gcc/pic32mx/4.5.1/../../../../pic32mx/lib/crt0.o

.data%z491      0x00000000        0x0
 .data          0x00000000        0x0 c:/program files (x86)/microchip/mplabc32/v2.02/bin/../lib/gcc/pic32mx/4.5.1/../../../../pic32mx/lib/crt0.o

.rodata         0x9d000068     0x7088
 .rodata        0x9d000068     0x7088 obj-tmp\WifiGDemoMPFSImg.o
                0x9d000068                MPFS_Start

.text           0x9d0070f0    0x10eb4
 .text          0x9d0070f0     0x4624 obj-tmp\TCP.o
                0x9d007ccc                TCPInit
                0x9d007e3c                TCPOpen
                0x9d008144                TCPWasReset
                0x9d0081b0                TCPIsConnected
                0x9d0081f0                TCPDisconnect
                0x9d0083f8                TCPClose
                0x9d008444                TCPGetRemoteInfo
                0x9d0084a0                TCPFlush
                0x9d008500                TCPIsPutReady
                0x9d0085b8                TCPPut
                0x9d008794                TCPPutArray
                0x9d008a10                TCPPutString
                0x9d008a58                TCPGetTxFIFOFull
                0x9d008ac0                TCPIsGetReady
                0x9d008b44                TCPDiscard
                0x9d008bac                TCPGet
                0x9d008d24                TCPGetArray
                0x9d008f3c                TCPGetRxFIFOFree
                0x9d008fa0                TCPPeekArray
                0x9d00912c                TCPPeek
                0x9d009158                TCPFindArrayEx
                0x9d0094f4                TCPFindEx
                0x9d009534                TCPTick
                0x9d009f84                TCPProcess
                0x9d00b3c4                TCPAdjustFIFOSize
 .text          0x9d00b714     0x4550 obj-tmp\OpenADRClient.o
                0x9d00b714                MCI_One_Second_Callback
                0x9d00b85c                InitOpenADRComm
                0x9d00b978                HandleTSMOpen
                0x9d00ba30                HandleTSMSocketObtained
                0x9d00bb0c                HandleTSMDone
                0x9d00bb74                ResetHeaderData
                0x9d00bb84                FormatEventStateConfirmXML
                0x9d00c22c                OpenADRWriteConfirmSocket
                0x9d00c35c                OpenADRWriteFeedBackSocket
                0x9d00cdcc                OpenADRWriteOptOutSocket
                0x9d00d730                OpenADRParsePOSTResponse
                0x9d00d754                OpenADRParseFeedBackResponse
                0x9d00d778                OpenADRParseOptOutResponse
                0x9d00d79c                ManageOpenADRQueue
                0x9d00dffc                MovePastNameSpace
                0x9d00e058                TransmitCommGoodPacket
                0x9d00e084                TransmitCommBadPacket
                0x9d00e0b0                RFC882time
                0x9d00e2b8                HandleTSMProcessResponse
                0x9d00e70c                ISO8601time
                0x9d00e888                StringToInt
                0x9d00e900                StringToLongLong
                0x9d00e9c8                TagAndLongLongVal
                0x9d00ea2c                TagAndIntVal
                0x9d00ea5c                TagAndString
                0x9d00eb48                HandleEventStatesXML
                0x9d00f108                HandleListOfEventStateXML
                0x9d00f1bc                OpenADRParseGETResponse
                0x9d00f384                HandleTSMParseResponse
                0x9d00f47c                Base64Encode
                0x9d00f5dc                OpenADRWriteGetSocket
                0x9d00f76c                HandleTSMWriteSocket
                0x9d00f860                OpenADRClient
 .text          0x9d00fc64     0x22a8 obj-tmp\ZeroconfMulticastDNS.o
                0x9d010da4                mDNSSDFillResRecords
                0x9d011104                mDNSServiceUpdate
                0x9d0111a8                mDNSServiceDeRegister
                0x9d01127c                mDNSServiceRegister
                0x9d0113c8                mDNSAnnounce
                0x9d0113f8                mDNSFillHostRecord
                0x9d011460                mDNSHostRegister
                0x9d011508                mDNSInitialize
                0x9d011590                mDNSProcessInternal
                0x9d011cf0                mDNSProcess
                0x9d011dd8                mDNSMulticastFilterRegister
                0x9d011e14                mDNSDumpInfo
 .text          0x9d011f0c     0x1bd0 obj-tmp\HTTP2.o
                0x9d0121fc                HTTPPrint
                0x9d012400                HTTPPrint_
                0x9d012434                HTTPInit
                0x9d012504                HTTPURLDecode
                0x9d01261c                HTTPServer
                0x9d0137d8                HTTPGetArg
                0x9d013874                HTTPReadPostName
                0x9d0138cc                HTTPReadPostValue
                0x9d013980                HTTPIncFile
 .text          0x9d013adc     0x1b40 obj-tmp\WF_pbkdf2.o
                0x9d014dcc                sha1_vector
                0x9d014f78                hmac_sha1_vector
                0x9d015124                sha1_t_prf
                0x9d015298                sha1_prf
                0x9d0153e0                hmac_sha1
                0x9d015418                pbkdf2_sha1
                0x9d015600                sha1_transform
 .text          0x9d01561c     0x18fc obj-tmp\CustomHTTPApp.o
                0x9d01561c                HTTPExecuteGet
                0x9d015868                HTTPExecutePost
                0x9d01608c                HTTPPrint_btn
                0x9d0160f0                HTTPPrint_led
                0x9d01617c                HTTPPrint_ipaddr
                0x9d0161e0                HTTPPrint_scan
                0x9d016224                HTTPPrint_fwver
                0x9d016288                HTTPPrint_ssid
                0x9d0162c8                HTTPPrint_bssCount
                0x9d016308                HTTPPrint_valid
                0x9d016348                HTTPPrint_name
                0x9d016420                HTTPPrint_privacy
                0x9d0164a0                HTTPPrint_curPrivacy
                0x9d016700                HTTPPrint_wlan
                0x9d016958                HTTPPrint_strength
                0x9d0169fc                HTTPPrint_nextSSID
                0x9d016a34                HTTPPrint_prevSSID
                0x9d016a6c                HTTPPrint_prevWLAN
                0x9d016b78                HTTPPrint_nextWLAN
                0x9d016c50                HTTPPrint_Demoversion
                0x9d016ca0                HTTPPrint_aplist
 .text          0x9d016f18     0x108c obj-tmp\DHCP.o
                0x9d017754                DHCPInit
                0x9d0177dc                DHCPDisable
                0x9d017820                DHCPEnable
                0x9d017858                DHCPIsEnabled
                0x9d017868                DHCPIsBound
                0x9d017878                DHCPStateChanged
                0x9d0178ac                DHCPIsServerDetected
                0x9d0178bc                DHCPTempIPAddr
                0x9d0178d8                DHCPTask

.rodata         0x9d017fa4      0xef4
 .rodata        0x9d017fa4      0xef4 obj-tmp\WFDebugStrings.o

.text           0x9d018e98     0x3f8c
 .text          0x9d018e98      0xd74 obj-tmp\DHCPs.o
                0x9d01905c                DHCPServerTask
                0x9d019bbc                DHCPServer_Disable
                0x9d019bf4                DHCPServer_Enable
 .text          0x9d019c0c      0xd04 obj-tmp\WFMac_24G.o
                0x9d019d4c                GetReadPtrRawWindow
                0x9d019d54                RetrieveBinaryKey
                0x9d019dbc                WFGetTCBSize
                0x9d019dc4                MACInit
                0x9d019de8                RawInit
                0x9d019e44                MACIsLinked
                0x9d019e60                MACProcess
                0x9d019fa0                MACIsTxReady
                0x9d019fcc                RawGetMgmtRxBuffer
                0x9d019ff8                MACDiscardRx
                0x9d01a024                MACGetFreeRxSize
                0x9d01a050                MACGetHeader
                0x9d01a1d4                MACFlush
                0x9d01a214                MACSetReadPtrInRx
                0x9d01a238                MACSetWritePtr
                0x9d01a268                MACSetReadPtr
                0x9d01a298                MACMemCopyAsync
                0x9d01a5d8                MACIsMemCopyDone
                0x9d01a5e0                MACGet
                0x9d01a618                MACGetArray
                0x9d01a6a8                MACPut
                0x9d01a6e0                MACPutArray
                0x9d01a724                MACPutGeneralHeader
                0x9d01a7bc                MACPutHeader
                0x9d01a85c                MACPowerDown
                0x9d01a864                MACPowerUp
                0x9d01a86c                CalcIPBufferChecksum
                0x9d01a8b8                MACCalcRxChecksum
 .text          0x9d01a910      0xcbc obj-tmp\MPFS2.o
                0x9d01a910                MPFSClose
                0x9d01a94c                MPFSGet
                0x9d01aa2c                MPFSGetArray
                0x9d01abbc                MPFSOpenID
                0x9d01ac9c                MPFSOpen
                0x9d01aecc                MPFSInit
                0x9d01af70                MPFSGetLong
                0x9d01af98                MPFSGetTimestamp
                0x9d01b00c                MPFSGetMicrotime
                0x9d01b080                MPFSGetFlags
                0x9d01b0f4                MPFSGetSize
                0x9d01b168                MPFSGetBytesRem
                0x9d01b1c4                MPFSGetStartAddr
                0x9d01b238                MPFSGetEndAddr
                0x9d01b2b8                MPFSSeek
                0x9d01b4a8                MPFSGetFilename
                0x9d01b564                MPFSGetPosition
                0x9d01b5a8                MPFSGetID
 .text          0x9d01b5cc      0xc6c obj-tmp\SPIFlash.o
                0x9d01b6d8                SPIFlashInit
                0x9d01b960                SPIFlashReadArray
                0x9d01bb2c                SPIFlashBeginWrite
                0x9d01bb34                SPIFlashEraseSector
                0x9d01bcd0                SPIFlashWrite
                0x9d01bed0                SPIFlashWriteArray
 .text          0x9d01c238      0xbec obj-tmp\EPRI_UARTLayer.o
                0x9d01c238                Message_Timeout_Callback
                0x9d01c298                UART2_ISR
                0x9d01c38c                EPRI_UART_write
                0x9d01c408                MCI_IsSending
                0x9d01c414                DL_Ack
                0x9d01c434                DL_Nak
                0x9d01c454                App_Ack
                0x9d01c470                ChecksumDecode
                0x9d01c504                MakeChecksum
                0x9d01c60c                MCISendAsync
                0x9d01c6f0                SendQueryOpState
                0x9d01c730                SendTimeSync
                0x9d01c784                MCISend
                0x9d01c890                rxMessageHandler
                0x9d01cb08                MCI_Wait_Callback
                0x9d01cbd4                MCI_Sync_Callback
                0x9d01cda8                rxbuffer_initialize
                0x9d01cdcc                EPRI_UART_init

.dinit          0x9d01ce24      0xbe4
 .dinit         0x9d01ce24      0xbe4 data_init

.text._vfprintf_cdnopsuxX
                0x9d01da08      0xae4
 .text._vfprintf_cdnopsuxX
                0x9d01da08      0xae4 c:/program files (x86)/microchip/mplabc32/v2.02/bin/../lib/gcc/pic32mx/4.5.1/../../../../pic32mx/lib\libc.a(doprnt_cdnopsuxX.eo)
                0x9d01da08                _vfprintf_s
                0x9d01da08                _vfprintf_0
                0x9d01da08                _vfprintf_cdnopuxX
                0x9d01da08                _vfprintf_cdnopsuxX

.text           0x9d01e4ec     0x14c8
 .text          0x9d01e4ec      0xa74 obj-tmp\Main.o
                0x9d01e4ec                _mon_putc
                0x9d01e524                _general_exception_handler
                0x9d01e534                DisplayIPValue
                0x9d01e588                SaveAppConfig
                0x9d01e5e4                RestoreWifiConfig
                0x9d01e620                main
 .text          0x9d01ef60      0xa54 obj-tmp\ZeroconfLinkLocal.o
                0x9d01ef78                zcll_rand
                0x9d01ef94                ARPAction
                0x9d01efb0                FindARPPktType
                0x9d01eff4                ZeroconfARPPktNotify
                0x9d01f124                ZeroconfLLInitialize
                0x9d01f16c                ZeroconfLLProcess

.text._vfscanf_cdfFnopuxX
                0x9d01f9b4      0x9ec
 .text._vfscanf_cdfFnopuxX
                0x9d01f9b4      0x9ec c:/program files (x86)/microchip/mplabc32/v2.02/bin/../lib/gcc/pic32mx/4.5.1/../../../../pic32mx/lib\libc.a(doscan_cdfFnopuxX.eo)
                0x9d01f9b4                _vfscanf_cdfFnopuxX

.text           0x9d0203a0     0x38c0
 .text          0x9d0203a0      0x9e8 obj-tmp\WFDriverCom_24G.o
                0x9d0203a0                WiFiTask
                0x9d0204a4                SignalDHCPSuccessful
                0x9d0204b4                SetDhcpProgressState
                0x9d0204ec                SignalWiFiConnectionChanged
                0x9d0204fc                Read8BitWFRegister
                0x9d02053c                Write8BitWFRegister
                0x9d0205e8                Read16BitWFRegister
                0x9d020638                Write16BitWFRegister
                0x9d020820                WFProcess
                0x9d0209b0                WriteWFArray
                0x9d020a14                ReadWFArray
                0x9d020a88                WFEintHandler
                0x9d020b64                ReenablePowerSaveMode
                0x9d020b70                WFHardwareInit
 .text          0x9d020d88      0x9d8 obj-tmp\DNS.o
                0x9d020f18                DNSBeginUsage
                0x9d020f44                DNSEndUsage
                0x9d020f90                DNSResolve
                0x9d021004                DNSIsResolved
 .text          0x9d021760      0x9a4 obj-tmp\UDP.o
                0x9d021760                UDPOpenEx
                0x9d0218c8                UDPTask
                0x9d021aa8                UDPIsOpened
                0x9d021ad4                UDPClose
                0x9d021b10                UDPInit
                0x9d021b5c                UDPSetTxBuffer
                0x9d021b88                UDPSetRxBuffer
                0x9d021bb8                UDPIsPutReady
                0x9d021c18                UDPPut
                0x9d021c6c                UDPPutArray
                0x9d021cd4                UDPPutString
                0x9d021d08                UDPFlush
                0x9d021db4                UDPIsGetReady
                0x9d021e10                UDPGet
                0x9d021e70                UDPGetArray
                0x9d021ed8                UDPDiscard
                0x9d021f24                UDPProcess
 .text          0x9d022104      0x990 obj-tmp\WFConnectionAlgorithm.o
                0x9d0221ec                WF_CASetElementsN
                0x9d022260                WF_CAGetElements
                0x9d0222e4                WF_CASetScanType
                0x9d02230c                WF_CAGetScanType
                0x9d022334                WF_CASetMinChannelTime
                0x9d02236c                WF_CAGetMinChannelTime
                0x9d0223b4                WF_CASetMaxChannelTime
                0x9d0223ec                WF_CAGetMaxChannelTime
                0x9d022434                WF_CASetProbeDelay
                0x9d02246c                WF_CAGetProbeDelay
                0x9d0224b4                WF_CASetScanCount
                0x9d0224dc                WF_CAGetScanCount
                0x9d022504                WF_CASetRssi
                0x9d02252c                WF_CAGetRssi
                0x9d022554                WF_CASetConnectionProfileList
                0x9d022574                WF_CAGetConnectionProfileList
                0x9d022594                WF_CASetListRetryCount
                0x9d0225bc                WF_CAGetListRetryCount
                0x9d0225e4                WF_CASetEventNotificationAction
                0x9d022600                WF_CASetBeaconTimeoutAction
                0x9d022628                WF_CAGetBeaconTimeoutAction
                0x9d022650                WF_CASetDeauthAction
                0x9d022678                WF_CAGetDeauthAction
                0x9d0226a0                WF_CASetChannelList
                0x9d0226c8                WF_CAGetChannelList
                0x9d02273c                WF_CASetListenInterval
                0x9d022774                WF_CASetDtimInterval
                0x9d0227ac                WF_CAGetListenInterval
                0x9d0227f4                WF_CASetBeaconPeriod
                0x9d02282c                WF_CAGetBeaconPeriod
                0x9d022874                WF_CAGetDtimInterval
                0x9d0228bc                WF_CASetBeaconTimeout
                0x9d0228e4                WF_CAGetBeaconTimeout
                0x9d02290c                GetEventNotificationMask
                0x9d022914                WF_CAGetEventNotificationAction
                0x9d02293c                WF_CASetElements
                0x9d022a68                WF_DisableModuleConnectionManager
 .text          0x9d022a94      0x8ec c:/program files (x86)/microchip/mplabc32/v2.02/bin/../lib/gcc/pic32mx/4.5.1/../../../../pic32mx/lib\libm.a(fp32.o)
                0x9d022a94                __subsf3
                0x9d022a94                fpsub
                0x9d022a9c                fpadd
                0x9d022a9c                __addsf3
                0x9d022d08                fpmul
                0x9d022d08                __mulsf3
                0x9d022ec0                fpdiv
                0x9d022ec0                __divsf3
                0x9d0230ec                litofp
                0x9d0230ec                sitofp
                0x9d0230ec                __floatsisf
                0x9d023148                uitofp
                0x9d023148                ultofp
                0x9d023194                fptosi
                0x9d023194                fptoli
                0x9d023194                __fixsfsi
                0x9d02320c                __fixunssfsi
                0x9d02320c                fptoul
                0x9d02320c                fptoui
                0x9d023280                __eqsf2
                0x9d023280                __nesf2
                0x9d023280                __lesf2
                0x9d023280                __ltsf2
                0x9d023280                fpcmp
                0x9d023280                __gtsf2
                0x9d023280                __gesf2
                0x9d023314                fpfabs
                0x9d023314                fabsf
                0x9d023324                __negsf2
                0x9d023334                fpnan
                0x9d023334                nanf
 .text          0x9d023380      0x8e0 obj-tmp\Helpers.o
                0x9d023380                LFSRRand
                0x9d0233c0                LFSRSeedRand
                0x9d02340c                GenerateRandomDWORD
                0x9d0235f8                StringToIPAddress
                0x9d0237e0                uitoa
                0x9d023868                hexatob
                0x9d0238d8                btohexa_high
                0x9d0238f4                btohexa_low
                0x9d023910                stricmppgm2ram
                0x9d0239b4                swaps
                0x9d0239c8                swapl
                0x9d023a08                CalcIPChecksum
                0x9d023a84                strupr
                0x9d023acc                FormatNetBIOSName
                0x9d023b54                strnchr
                0x9d023b8c                strncpy_m

.rodata         0x9d023c60      0xf9c
 .rodata        0x9d023c60      0x7d4 c:/program files (x86)/microchip/mplabc32/v2.02/bin/../lib/gcc/pic32mx/4.5.1/../../../../pic32mx/lib\libmchp_peripheral_32MX575F256L.a(int_tbl_lib.o)
                0x9d023c60                __IntSrcTbl
                0x9d02417c                __IntVectorTbl
 .rodata        0x9d024434      0x7c8 obj-tmp\OpenADRClient.o

.text._vfscanf_cdnopuxX
                0x9d024bfc      0x778
 .text._vfscanf_cdnopuxX
                0x9d024bfc      0x778 c:/program files (x86)/microchip/mplabc32/v2.02/bin/../lib/gcc/pic32mx/4.5.1/../../../../pic32mx/lib\libc.a(doscan_cdnopuxX.eo)
                0x9d024bfc                _vfscanf_cdnopuxX

.text           0x9d025374     0x2a08
 .text          0x9d025374      0x774 obj-tmp\WFDebugStrings.o
                0x9d025374                WF_OutputConnectionContext
                0x9d02545c                WF_OutputConnectionDebugMsg
                0x9d025808                WF_OutputConnectionInfo
                0x9d0259dc                ValidateConfig
                0x9d0259e4                WF_AssertionFailed
                0x9d025a78                WF_DisplayModuleAssertInfo
 .text          0x9d025ae8      0x758 obj-tmp\WFDriverRaw_24G.o
                0x9d025c7c                RawCalculateChecksum
                0x9d025cb4                AllocateMgmtTxBuffer
                0x9d025d04                DeallocateMgmtRxBuffer
                0x9d025d2c                AllocateDataTxBuffer
                0x9d025db0                SendRAWManagementFrame
                0x9d025dd8                DeallocateDataRxBuffer
                0x9d025e20                RawMountRxBuffer
                0x9d025e80                RawToRawCopy
                0x9d025ee8                PushRawWindow
                0x9d025f10                PopRawWindow
                0x9d025f38                ScratchMount
                0x9d025f80                ScratchUnmount
                0x9d025fa8                RawSetIndex
                0x9d026074                RawGetIndex
                0x9d0260a0                RawGetByte
                0x9d0260f0                RawRead
                0x9d026144                RawSetByte
                0x9d026194                RawWrite
                0x9d0261e8                SendRAWDataFrame
 .text          0x9d026240      0x71c obj-tmp\WFParamMsg_24G.o
                0x9d026240                WF_MulticastGetConfig
                0x9d0262f8                SendSetParamMsg
                0x9d026348                WF_EnableSWMultiCastFilter
                0x9d026374                WF_SetMultiCastFilter
                0x9d026438                WF_SetPSK
                0x9d02645c                WF_YieldPassphrase2Host
                0x9d026488                WF_SetRtsThreshold
                0x9d0264e0                WF_SetRegionalDomain
                0x9d026508                WF_SetTxDataConfirm
                0x9d026530                WF_MulticastSetConfig
                0x9d026640                WF_SetMacAddress
                0x9d026664                WFEnableBroadcastProbeResponse
                0x9d026690                WF_SetTxMode
                0x9d0266b8                WF_SetLinkDownThreshold
                0x9d0266e0                WFEnableDebugPrint
                0x9d026708                WFEnableMRF24WB0MMode
                0x9d026734                SendGetParamMsg
                0x9d0267a0                WF_GetMacStats
                0x9d026810                WF_GetRtsThreshold
                0x9d026854                WF_GetRegionalDomain
                0x9d026878                WF_GetTxDataConfirm
                0x9d02689c                WF_GetMacAddress
                0x9d0268c0                WF_GetDeviceInfo
                0x9d026938                WF_GetTxMode
 .text          0x9d02695c      0x70c obj-tmp\WFConnectionProfile.o
                0x9d026a34                WF_CPCreate
                0x9d026a94                WF_CPDelete
                0x9d026adc                WF_CPGetIds
                0x9d026b34                WF_CPSetElements
                0x9d026b8c                WF_CPGetElements
                0x9d026bbc                WF_CPSetSsidType
                0x9d026be8                WF_CPGetSsidType
                0x9d026c18                WF_CPSetSsid
                0x9d026c78                WF_CPGetSsid
                0x9d026cf0                WF_CPSetBssid
                0x9d026d18                WF_CPGetBssid
                0x9d026d48                WF_CPSetNetworkType
                0x9d026d74                WF_CPGetNetworkType
                0x9d026da4                WF_CPSetWepKeyType
                0x9d026dd0                WF_CPGetWepKeyType
                0x9d026e00                WF_CPGetWPSCredentials
                0x9d026e30                WF_CPUpdatePMK
                0x9d026e58                WF_CPSetSecurity
                0x9d026ee8                WF_CPGetSecurity
                0x9d026fb0                WF_CPSetDefaultWepKeyIndex
                0x9d026fdc                WF_CPGetDefaultWepKeyIndex
                0x9d02700c                WF_CPSetAdHocBehavior
                0x9d027038                WF_CPGetAdHocBehavior
 .text          0x9d027068      0x6d0 obj-tmp\WFEasyConfig.o
                0x9d027068                WFEasyConfigInit
                0x9d0270a4                WFEasyConfigMgr
                0x9d027434                WFInitScan
                0x9d027444                WFStartScan
                0x9d027494                WFRetrieveScanResult
                0x9d0274e8                WFScanEventHandler
                0x9d027504                WFDisplayScanMgr
 .text          0x9d027738      0x644 obj-tmp\ARP.o
                0x9d027738                ARPRegisterCallbacks
                0x9d027798                ARPDeRegisterCallbacks
                0x9d0277d4                ARPProcessRxPkt
                0x9d0278ac                ARPInit
                0x9d0278dc                ARPIsResolved
                0x9d027960                SwapARPPacket
                0x9d027a54                ARPResolve
                0x9d027b50                ARPSendPkt
                0x9d027bec                ARPProcess

.rodata         0x9d027d7c      0x520
 .rodata        0x9d027d7c      0x520 obj-tmp\HTTP2.o

.text           0x9d02829c      0x954
 .text          0x9d02829c      0x4c4 obj-tmp\i2c_master.o
                0x9d02829c                I2CSendByteJK
                0x9d02830c                InitI2C
                0x9d02839c                StartTransfer
                0x9d028424                TransmitOneByte
                0x9d0284b8                StopTransfer
                0x9d0284ec                WriteI2CByte
                0x9d0285b8                ReadI2C
 .text          0x9d028760      0x490 obj-tmp\WF_Config.o
                0x9d028760                WF_Connect
                0x9d028a30                WF_ProcessEvent

.text.__divdf3  0x9d028bf0      0x48c
 .text.__divdf3
                0x9d028bf0      0x48c c:/program files (x86)/microchip/mplabc32/v2.02/bin/../lib/gcc/pic32mx/4.5.1/../../../../pic32mx/lib\libe.a(_divdf3.o)
                0x9d028bf0                __divdf3

.text.__adddf3  0x9d02907c      0x484
 .text.__adddf3
                0x9d02907c      0x484 c:/program files (x86)/microchip/mplabc32/v2.02/bin/../lib/gcc/pic32mx/4.5.1/../../../../pic32mx/lib\libe.a(_adddf3.o)
                0x9d02907c                __adddf3

.text           0x9d029500      0x8b4
 .text          0x9d029500      0x46c c:/program files (x86)/microchip/mplabc32/v2.02/bin/../lib/gcc/pic32mx/4.5.1\libgcc.a(_umoddi3.o)
                0x9d029500                __umoddi3
 .text          0x9d02996c      0x448 c:/program files (x86)/microchip/mplabc32/v2.02/bin/../lib/gcc/pic32mx/4.5.1\libgcc.a(_udivdi3.o)
                0x9d02996c                __udivdi3

.text.__muldf3  0x9d029db4      0x418
 .text.__muldf3
                0x9d029db4      0x418 c:/program files (x86)/microchip/mplabc32/v2.02/bin/../lib/gcc/pic32mx/4.5.1/../../../../pic32mx/lib\libe.a(_muldf3.o)
                0x9d029db4                __muldf3

.text           0x9d02a1cc      0x3f4
 .text          0x9d02a1cc      0x3f4 obj-tmp\NBNS.o
                0x9d02a1cc                NBNSTask

.text.__strtod  0x9d02a5c0      0x3f0
 .text.__strtod
                0x9d02a5c0      0x3f0 c:/program files (x86)/microchip/mplabc32/v2.02/bin/../lib/gcc/pic32mx/4.5.1/../../../../pic32mx/lib\libe.a(_strtod.o)
                0x9d02a5c0                __strtod

.text           0x9d02a9b0      0x3e0
 .text          0x9d02a9b0      0x3e0 obj-tmp\TimeMonitor.o
                0x9d02a9b0                TimeMonitorInit
                0x9d02aa48                TimeMonitorEnableInterrupt
                0x9d02aa64                TimeMonitorDisableInterrupt
                0x9d02aa7c                TimeMonitorCancelI
                0x9d02aac8                T2InterruptServiceRoutine
                0x9d02acc4                TimeMonitorChangeTimeI
                0x9d02ad1c                TimeMonitorRegisterI

.rodata         0x9d02ad90      0x3b8
 .rodata        0x9d02ad90      0x3b8 obj-tmp\CustomHTTPApp.o
                0x9d02b140                HTML_UP_ARROW
                0x9d02b144                HTML_DOWN_ARROW

.text           0x9d02b148      0x714
 .text          0x9d02b148      0x394 obj-tmp\DNSs.o
                0x9d02b148                DNSServerTask
 .text          0x9d02b4dc      0x380 obj-tmp\StackTsk.o
                0x9d02b4dc                StackInit
                0x9d02b590                StackTask
                0x9d02b7f8                StackApplications
                0x9d02b83c                RenewDhcp

.text.__strtof  0x9d02b85c      0x35c
 .text.__strtof
                0x9d02b85c      0x35c c:/program files (x86)/microchip/mplabc32/v2.02/bin/../lib/gcc/pic32mx/4.5.1/../../../../pic32mx/lib\libe.a(_strtof.o)
                0x9d02b85c                __strtof

.text           0x9d02bbb8      0x95c
 .text          0x9d02bbb8      0x33c obj-tmp\WFMgmtMsg_24G.o
                0x9d02bbb8                SendMgmtMsg
                0x9d02bc94                SignalMgmtConfirmReceivedEvent
                0x9d02bca4                WaitForMgmtResponse
                0x9d02be08                WaitForMgmtResponseAndReadData
                0x9d02bec0                WFSetFuncState
 .text          0x9d02bef4      0x320 obj-tmp\WFEventHandler.o
                0x9d02bf00                WFProcessMgmtIndicateMsg
 .text          0x9d02c214      0x300 obj-tmp\INTiMain.o
                0x9d02c214                INTiRegisterUART2RxCallbackFunction
                0x9d02c21c                INTiRegisterSPI3CallbackFunction
                0x9d02c224                UART2InterruptServiceRoutine
                0x9d02c344                SPI3InterruptServiceRoutine
                0x9d02c49c                SPI3DisableInterrupts
                0x9d02c4c8                SPI3EnableInterrupts

.text.asctime   0x9d02c514      0x2f0
 .text.asctime  0x9d02c514      0x2f0 c:/program files (x86)/microchip/mplabc32/v2.02/bin/../lib/gcc/pic32mx/4.5.1/../../../../pic32mx/lib\libc.a(ctime.o)
                0x9d02c514                asctime

.text           0x9d02c804      0x584
 .text          0x9d02c804      0x2c8 obj-tmp\Announce.o
                0x9d02c804                AnnounceIP
                0x9d02c914                DiscoveryTask
 .text          0x9d02cacc      0x2bc obj-tmp\WFConnectionManager.o
                0x9d02cacc                WF_CMConnect
                0x9d02cb18                WFisConnected
                0x9d02cb20                SetLogicalConnectionState
                0x9d02cb28                WF_CMGetConnectionState
                0x9d02cbcc                WF_CMCheckConnectionState
                0x9d02cc40                WF_CMDisconnect
                0x9d02ccb4                WF_CMGetConnectContext
                0x9d02ccd8                WF_ConvPassphrase2Key

.text.gmtime    0x9d02cd88      0x2ac
 .text.gmtime   0x9d02cd88      0x2ac c:/program files (x86)/microchip/mplabc32/v2.02/bin/../lib/gcc/pic32mx/4.5.1/../../../../pic32mx/lib\libc.a(ctime.o)
                0x9d02cd88                gmtime

.text           0x9d02d034      0xdc0
 .text          0x9d02d034      0x2a0 c:/program files (x86)/microchip/mplabc32/v2.02/bin/../lib/gcc/pic32mx/4.5.1/../../../../pic32mx/lib\libm.a(fpsqrt32.o)
                0x9d02d034                fpexsqrt
                0x9d02d12c                fpsqrt
                0x9d02d12c                __mchp_sqrtf
 .text          0x9d02d2d4      0x288 obj-tmp\IP.o
                0x9d02d318                IPGetHeader
                0x9d02d470                IPPutHeader
                0x9d02d538                IPSetRxBuffer
 .text          0x9d02d55c      0x248 obj-tmp\Tick.o
                0x9d02d5dc                TickInit
                0x9d02d644                TickGet
                0x9d02d684                TickGetDiv256
                0x9d02d6c4                TickGetDiv64K
                0x9d02d704                TickConvertToMilliseconds
                0x9d02d734                _T1Interrupt
 .text          0x9d02d7a4      0x248 obj-tmp\WFPowerSave.o
                0x9d02d7e8                WFConfigureLowPowerMode
                0x9d02d850                isSleepNeeded
                0x9d02d858                ClearSleepNeeded
                0x9d02d860                SetSleepNeeded
                0x9d02d86c                SetAppPowerSaveMode
                0x9d02d874                GetAppPowerSaveMode
                0x9d02d87c                WF_GetPowerSaveState
                0x9d02d888                WFisPsPollEnabled
                0x9d02d89c                WFIsPsPollActive
                0x9d02d8a4                EnsureWFisAwake
                0x9d02d8f0                WF_HibernateEnable
                0x9d02d91c                SetPowerSaveState
                0x9d02d924                WF_PsPollDisable
                0x9d02d968                WF_PsPollEnable
 .text          0x9d02d9ec      0x228 obj-tmp\WF_Eint.o
                0x9d02d9ec                WF_EintIsDisabled
                0x9d02da00                WF_EintIsPending
                0x9d02da2c                _WFInterrupt
                0x9d02db60                WF_EintEnable
                0x9d02db90                WF_EintDisable
                0x9d02dba4                WF_EintInit
 .text          0x9d02dc14      0x1e0 obj-tmp\UARTiMain.o
                0x9d02dc14                putsUART4
                0x9d02dc60                UARTiConfigure
                0x9d02dcdc                UARTiDisable
                0x9d02dcf8                UARTiWriteString
                0x9d02dda0                UARTiWriteBinaryData

.text.__ldexp   0x9d02ddf4      0x1d4
 .text.__ldexp  0x9d02ddf4      0x1d4 c:/program files (x86)/microchip/mplabc32/v2.02/bin/../lib/gcc/pic32mx/4.5.1/../../../../pic32mx/lib\libe.a(_ldexp.o)
                0x9d02ddf4                __ldexp

.rodata         0x9d02dfc8      0x1bc
 .rodata        0x9d02dfc8      0x1bc obj-tmp\WFConsoleMsgs.o
                0x9d02dfc8                helpCmd
                0x9d02dfd0                helpHelp
                0x9d02dfe4                getwfverCmd
                0x9d02dff0                getwfverHelp
                0x9d02e00c                resetCmd
                0x9d02e014                resetHelp
                0x9d02e024                clsCmd
                0x9d02e028                clsHelp
                0x9d02e038                wpsPinCmd
                0x9d02e040                wpsPinHelp
                0x9d02e094                wpsPushButtonCmd
                0x9d02e09c                wpsPushButtonHelp
                0x9d02e0d0                wpsCredCmd
                0x9d02e0d8                wpsCredHelp
                0x9d02e0f0                seeDocHelp
                0x9d02e104                pingCmd
                0x9d02e10c                pingHelp
                0x9d02e120                g_consoleCmd
                0x9d02e180                g_numCmds

.text           0x9d02e184      0x618
 .text          0x9d02e184      0x1a8 obj-tmp\WF_Spi.o
                0x9d02e184                WF_SpiInit
                0x9d02e1e0                WF_SpiEnableChipSelect
                0x9d02e1f8                WF_SpiDisableChipSelect
                0x9d02e220                WFSpiTxRx
 .text          0x9d02e32c      0x1a0 c:/program files (x86)/microchip/mplabc32/v2.02/bin/../lib/gcc/pic32mx/4.5.1/../../../../pic32mx/lib\libc.a(strcpy.o)
                0x9d02e32c                strcpy
 .text          0x9d02e4cc      0x168 c:/program files (x86)/microchip/mplabc32/v2.02/bin/../lib/gcc/pic32mx/4.5.1/../../../../pic32mx/lib\libc.a(memcpy.o)
                0x9d02e4cc                memcpy
 .text          0x9d02e634      0x168 c:/program files (x86)/microchip/mplabc32/v2.02/bin/../lib/gcc/pic32mx/4.5.1/../../../../pic32mx/lib\libc.a(strlen.o)
                0x9d02e634                strlen

.text._filbuf   0x9d02e79c      0x168
 .text._filbuf  0x9d02e79c      0x168 c:/program files (x86)/microchip/mplabc32/v2.02/bin/../lib/gcc/pic32mx/4.5.1/../../../../pic32mx/lib\libc.a(filbuf.o)
                0x9d02e79c                _filbuf

.text.mktime    0x9d02e904      0x150
 .text.mktime   0x9d02e904      0x150 c:/program files (x86)/microchip/mplabc32/v2.02/bin/../lib/gcc/pic32mx/4.5.1/../../../../pic32mx/lib\libc.a(mktime.o)
                0x9d02e904                mktime

.text           0x9d02ea54      0x140
 .text          0x9d02ea54      0x140 obj-tmp\WFConsoleMsgs.o
                0x9d02ea54                HexToBin
                0x9d02ea9c                ConvertASCIIHexToBinary

.text.fputc     0x9d02eb94      0x140
 .text.fputc    0x9d02eb94      0x140 c:/program files (x86)/microchip/mplabc32/v2.02/bin/../lib/gcc/pic32mx/4.5.1/../../../../pic32mx/lib\libc.a(_fputc_simple.o)
                0x9d02eb94                fputc

.text.read      0x9d02ecd4      0x140
 .text.read     0x9d02ecd4      0x140 c:/program files (x86)/microchip/mplabc32/v2.02/bin/../lib/gcc/pic32mx/4.5.1/../../../../pic32mx/lib\libc.a(read.o)
                0x9d02ecd4                read

.text._flsbuf   0x9d02ee14      0x12c
 .text._flsbuf  0x9d02ee14      0x12c c:/program files (x86)/microchip/mplabc32/v2.02/bin/../lib/gcc/pic32mx/4.5.1/../../../../pic32mx/lib\libc.a(_flsbuf_simple.o)
                0x9d02ee14                _flsbuf

.text           0x9d02ef40      0x230
 .text          0x9d02ef40      0x120 c:/program files (x86)/microchip/mplabc32/v2.02/bin/../lib/gcc/pic32mx/4.5.1/../../../../pic32mx/lib\libc.a(strcmp.o)
                0x9d02ef40                strcmp
 .text          0x9d02f060      0x110 obj-tmp\WFScan.o
                0x9d02f060                WF_Scan
                0x9d02f0e4                WF_ScanGetResult

.rodata         0x9d02f170      0x10c
 .rodata        0x9d02f170      0x10c obj-tmp\WFMgmtMsg_24G.o

.text.fgetc     0x9d02f27c      0x108
 .text.fgetc    0x9d02f27c      0x108 c:/program files (x86)/microchip/mplabc32/v2.02/bin/../lib/gcc/pic32mx/4.5.1/../../../../pic32mx/lib\libc.a(fgetc.o)
                0x9d02f27c                fgetc

.rodata         0x9d02f384      0x104
 .rodata        0x9d02f384      0x104 c:/program files (x86)/microchip/mplabc32/v2.02/bin/../lib/gcc/pic32mx/4.5.1/../../../../pic32mx/lib\libc.a(ctype.o)
                0x9d02f384                _ctype

.text.__ldexpf  0x9d02f488      0x104
 .text.__ldexpf
                0x9d02f488      0x104 c:/program files (x86)/microchip/mplabc32/v2.02/bin/../lib/gcc/pic32mx/4.5.1/../../../../pic32mx/lib\libe.a(_ldexpf.o)
                0x9d02f488                __ldexpf

.text           0x9d02f58c      0x100
 .text          0x9d02f58c      0x100 obj-tmp\ICMP.o
                0x9d02f58c                ICMPProcess

.text.strtok    0x9d02f68c       0xf0
 .text.strtok   0x9d02f68c       0xf0 c:/program files (x86)/microchip/mplabc32/v2.02/bin/../lib/gcc/pic32mx/4.5.1/../../../../pic32mx/lib\libc.a(strtok.o)
                0x9d02f68c                strtok

.text.ymd_to_scalar
                0x9d02f77c       0xec
 .text.ymd_to_scalar
                0x9d02f77c       0xec c:/program files (x86)/microchip/mplabc32/v2.02/bin/../lib/gcc/pic32mx/4.5.1/../../../../pic32mx/lib\libc.a(mktime.o)

.text           0x9d02f868       0xe8
 .text          0x9d02f868       0xe8 obj-tmp\Reboot.o
                0x9d02f868                RebootTask

.rodata         0x9d02f950       0xe8
 .rodata        0x9d02f950       0xe8 obj-tmp\ZeroconfMulticastDNS.o

.text           0x9d02fa38      0x1a0
 .text          0x9d02fa38       0xd0 obj-tmp\WFConsoleMsgHandler.o
                0x9d02fa38                convertAsciiToHexInPlace
 .text          0x9d02fb08       0xd0 obj-tmp\WFTxPower.o
                0x9d02fb08                WF_TxPowerGetMax
                0x9d02fb40                WF_TxPowerGetFactoryMax
                0x9d02fb78                WF_TxPowerSetMax

.text.general_exception
                0x9d02fbd8       0xd0
 .text.general_exception
                0x9d02fbd8       0xd0 c:/program files (x86)/microchip/mplabc32/v2.02/bin/../lib/gcc/pic32mx/4.5.1/../../../../pic32mx/lib\libc.a(general-exception.o)
                0x9d02fbd8                _general_exception_context

.rodata         0x9d02fca8      0x198
 .rodata        0x9d02fca8       0xd0 c:/program files (x86)/microchip/mplabc32/v2.02/bin/../lib/gcc/pic32mx/4.5.1/../../../../pic32mx/lib\libc.a(doprnt_cdnopsuxX.eo)
 .rodata        0x9d02fd78       0xc8 obj-tmp\i2c_master.o

.text           0x9d02fe40       0xb4
 .text          0x9d02fe40       0xb4 obj-tmp\WFInit.o
                0x9d02fe40                WF_Init

.rodata         0x9d02fef4       0xb0
 .rodata        0x9d02fef4       0xb0 obj-tmp\WF_Config.o

.text           0x9d02ffa4       0xa8
 .text          0x9d02ffa4       0xa8 c:/program files (x86)/microchip/mplabc32/v2.02/bin/../lib/gcc/pic32mx/4.5.1/../../../../pic32mx/lib\libc.a(memset.o)
                0x9d02ffa4                memset

.text.atoi      0x9d03004c       0xa4
 .text.atoi     0x9d03004c       0xa4 c:/program files (x86)/microchip/mplabc32/v2.02/bin/../lib/gcc/pic32mx/4.5.1/../../../../pic32mx/lib\libc.a(atoi.o)
                0x9d03004c                atoi

.text.atol      0x9d0300f0       0xa4
 .text.atol     0x9d0300f0       0xa4 c:/program files (x86)/microchip/mplabc32/v2.02/bin/../lib/gcc/pic32mx/4.5.1/../../../../pic32mx/lib\libc.a(atol.o)
                0x9d0300f0                atol

.text.strstr    0x9d030194       0xa4
 .text.strstr   0x9d030194       0xa4 c:/program files (x86)/microchip/mplabc32/v2.02/bin/../lib/gcc/pic32mx/4.5.1/../../../../pic32mx/lib\libc.a(strstr.o)
                0x9d030194                strstr

.text           0x9d030238      0x1c4
 .text          0x9d030238       0x98 obj-tmp\Delay.o
                0x9d030238                Delay10us
                0x9d030280                DelayMs
 .text          0x9d0302d0       0x98 c:/program files (x86)/microchip/mplabc32/v2.02/bin/../lib/gcc/pic32mx/4.5.1/../../../../pic32mx/lib\libc.a(memcmp.o)
                0x9d0302d0                memcmp
 .text          0x9d030368       0x94 obj-tmp\Assert.o
                0x9d030368                Assert
                0x9d0303dc                AssertInt

.text.fflush    0x9d0303fc       0x94
 .text.fflush   0x9d0303fc       0x94 c:/program files (x86)/microchip/mplabc32/v2.02/bin/../lib/gcc/pic32mx/4.5.1/../../../../pic32mx/lib\libc.a(fflush.o)
                0x9d0303fc                fflush

.text.__floatsidf
                0x9d030490       0x94
 .text.__floatsidf
                0x9d030490       0x94 c:/program files (x86)/microchip/mplabc32/v2.02/bin/../lib/gcc/pic32mx/4.5.1/../../../../pic32mx/lib\libe.a(_floatsidf.o)
                0x9d030490                __floatsidf

.rodata         0x9d030524       0x90
 .rodata        0x9d030524       0x90 obj-tmp\Main.o

.text           0x9d0305b4       0x88
 .text          0x9d0305b4       0x88 obj-tmp\ZeroconfHelper.o
                0x9d0305b4                zgzc_wait_for

.text.write     0x9d03063c       0x88
 .text.write    0x9d03063c       0x88 c:/program files (x86)/microchip/mplabc32/v2.02/bin/../lib/gcc/pic32mx/4.5.1/../../../../pic32mx/lib\libc.a(write.o)
                0x9d03063c                write

.text.range     0x9d0306c4      0x108
 .text.range    0x9d0306c4       0x84 c:/program files (x86)/microchip/mplabc32/v2.02/bin/../lib/gcc/pic32mx/4.5.1/../../../../pic32mx/lib\libc.a(doscan_cdfFnopuxX.eo)
 .text.range    0x9d030748       0x84 c:/program files (x86)/microchip/mplabc32/v2.02/bin/../lib/gcc/pic32mx/4.5.1/../../../../pic32mx/lib\libc.a(doscan_cdnopuxX.eo)

.text.UARTEnable
                0x9d0307cc       0x80
 .text.UARTEnable
                0x9d0307cc       0x80 c:/program files (x86)/microchip/mplabc32/v2.02/bin/../lib/gcc/pic32mx/4.5.1/../../../../pic32mx/lib\libmchp_peripheral_32MX575F256L.a(uart_lib.o)
                0x9d0307cc                UARTEnable

.text.ungetc    0x9d03084c       0x7c
 .text.ungetc   0x9d03084c       0x7c c:/program files (x86)/microchip/mplabc32/v2.02/bin/../lib/gcc/pic32mx/4.5.1/../../../../pic32mx/lib\libc.a(ungetc.o)
                0x9d03084c                ungetc

.text.fputs     0x9d0308c8       0x78
 .text.fputs    0x9d0308c8       0x78 c:/program files (x86)/microchip/mplabc32/v2.02/bin/../lib/gcc/pic32mx/4.5.1/../../../../pic32mx/lib\libc.a(puts.o)
                0x9d0308c8                fputs

.text.SoftReset
                0x9d030940       0x78
 .text.SoftReset
                0x9d030940       0x78 c:/program files (x86)/microchip/mplabc32/v2.02/bin/../lib/gcc/pic32mx/4.5.1/../../../../pic32mx/lib\libmchp_peripheral_32MX575F256L.a(soft_reset_lib.o)
                0x9d030940                SoftReset

.text.IdleI2C2  0x9d0309b8       0x74
 .text.IdleI2C2
                0x9d0309b8       0x74 c:/program files (x86)/microchip/mplabc32/v2.02/bin/../lib/gcc/pic32mx/4.5.1/../../../../pic32mx/lib\libmchp_peripheral_32MX575F256L.a(idle_i2c2_lib_legacy.o)
                0x9d0309b8                IdleI2C2

.text.strncmp   0x9d030a2c       0x70
 .text.strncmp  0x9d030a2c       0x70 c:/program files (x86)/microchip/mplabc32/v2.02/bin/../lib/gcc/pic32mx/4.5.1/../../../../pic32mx/lib\libc.a(strncmp.o)
                0x9d030a2c                strncmp

.text.strcspn   0x9d030a9c       0x6c
 .text.strcspn  0x9d030a9c       0x6c c:/program files (x86)/microchip/mplabc32/v2.02/bin/../lib/gcc/pic32mx/4.5.1/../../../../pic32mx/lib\libc.a(strcspn.o)
                0x9d030a9c                strcspn

.text.strspn    0x9d030b08       0x6c
 .text.strspn   0x9d030b08       0x6c c:/program files (x86)/microchip/mplabc32/v2.02/bin/../lib/gcc/pic32mx/4.5.1/../../../../pic32mx/lib\libc.a(strspn.o)
                0x9d030b08                strspn

.text._sprintf_cdnopsuxX
                0x9d030b74       0x68
 .text._sprintf_cdnopsuxX
                0x9d030b74       0x68 c:/program files (x86)/microchip/mplabc32/v2.02/bin/../lib/gcc/pic32mx/4.5.1/../../../../pic32mx/lib\libc.a(sprintf_cdnopsuxX.eo)
                0x9d030b74                _sprintf_cdnopuxX
                0x9d030b74                _sprintf_cdnopsuxX

.text.strncpy   0x9d030bdc       0x64
 .text.strncpy  0x9d030bdc       0x64 c:/program files (x86)/microchip/mplabc32/v2.02/bin/../lib/gcc/pic32mx/4.5.1/../../../../pic32mx/lib\libc.a(strncpy.o)
                0x9d030bdc                strncpy

.text.wspace    0x9d030c40       0xc0
 .text.wspace   0x9d030c40       0x60 c:/program files (x86)/microchip/mplabc32/v2.02/bin/../lib/gcc/pic32mx/4.5.1/../../../../pic32mx/lib\libc.a(doscan_cdfFnopuxX.eo)
 .text.wspace   0x9d030ca0       0x60 c:/program files (x86)/microchip/mplabc32/v2.02/bin/../lib/gcc/pic32mx/4.5.1/../../../../pic32mx/lib\libc.a(doscan_cdnopuxX.eo)

.text._sscanf_cdfFnopuxX
                0x9d030d00       0x5c
 .text._sscanf_cdfFnopuxX
                0x9d030d00       0x5c c:/program files (x86)/microchip/mplabc32/v2.02/bin/../lib/gcc/pic32mx/4.5.1/../../../../pic32mx/lib\libc.a(sscanf_cdfFnopuxX.eo)
                0x9d030d00                _sscanf_cdfFnopuxX
                0x9d030d00                _sscanf_cdnopuxX

.text.UARTSetDataRate
                0x9d030d5c       0x5c
 .text.UARTSetDataRate
                0x9d030d5c       0x5c c:/program files (x86)/microchip/mplabc32/v2.02/bin/../lib/gcc/pic32mx/4.5.1/../../../../pic32mx/lib\libmchp_peripheral_32MX575F256L.a(uart_lib.o)
                0x9d030d5c                UARTSetDataRate

.text.INTEnable
                0x9d030db8       0x58
 .text.INTEnable
                0x9d030db8       0x58 c:/program files (x86)/microchip/mplabc32/v2.02/bin/../lib/gcc/pic32mx/4.5.1/../../../../pic32mx/lib\libmchp_peripheral_32MX575F256L.a(int_tbl_lib.o)
                0x9d030db8                INTEnable

.rodata         0x9d030e10       0x54
 .rodata        0x9d030e10       0x54 obj-tmp\WFEasyConfig.o

.text.I2CBusIsIdle
                0x9d030e64       0x54
 .text.I2CBusIsIdle
                0x9d030e64       0x54 c:/program files (x86)/microchip/mplabc32/v2.02/bin/../lib/gcc/pic32mx/4.5.1/../../../../pic32mx/lib\libmchp_peripheral_32MX575F256L.a(I2CBusIsIdle.o)
                0x9d030e64                I2CBusIsIdle

.rodata         0x9d030eb8       0x4c
 .rodata        0x9d030eb8       0x4c obj-tmp\WFDriverRaw_24G.o
                0x9d030eb8                g_RawAccessOutOfBoundsMask

.text           0x9d030f04       0x4c
 .text          0x9d030f04       0x4c c:/program files (x86)/microchip/mplabc32/v2.02/bin/../lib/gcc/pic32mx/4.5.1\libgcc.a(floatunsisf.o)
                0x9d030f04                __floatunsisf

.rodata         0x9d030f50       0x4c
 .rodata        0x9d030f50       0x4c c:/program files (x86)/microchip/mplabc32/v2.02/bin/../lib/gcc/pic32mx/4.5.1/../../../../pic32mx/lib\libc.a(ctime.o)

.text.strrchr   0x9d030f9c       0x4c
 .text.strrchr  0x9d030f9c       0x4c c:/program files (x86)/microchip/mplabc32/v2.02/bin/../lib/gcc/pic32mx/4.5.1/../../../../pic32mx/lib\libc.a(strrchr.o)
                0x9d030f9c                strrchr

.text.sqrtf     0x9d030fe8       0x4c
 .text.sqrtf    0x9d030fe8       0x4c c:/program files (x86)/microchip/mplabc32/v2.02/bin/../lib/gcc/pic32mx/4.5.1/../../../../pic32mx/lib\libm.a(w_sqrtf.o)
                0x9d030fe8                sqrtf

.text.putsUART1
                0x9d031034       0x4c
 .text.putsUART1
                0x9d031034       0x4c c:/program files (x86)/microchip/mplabc32/v2.02/bin/../lib/gcc/pic32mx/4.5.1/../../../../pic32mx/lib\libmchp_peripheral_32MX575F256L.a(puts_uartx_lib_legacy.o)
                0x9d031034                putsUART1

.text.putsUART2
                0x9d031080       0x4c
 .text.putsUART2
                0x9d031080       0x4c c:/program files (x86)/microchip/mplabc32/v2.02/bin/../lib/gcc/pic32mx/4.5.1/../../../../pic32mx/lib\libmchp_peripheral_32MX575F256L.a(puts_uartx_lib_legacy.o)
                0x9d031080                putsUART2

.text.I2CSetFrequency
                0x9d0310cc       0x48
 .text.I2CSetFrequency
                0x9d0310cc       0x48 c:/program files (x86)/microchip/mplabc32/v2.02/bin/../lib/gcc/pic32mx/4.5.1/../../../../pic32mx/lib\libmchp_peripheral_32MX575F256L.a(I2CSetFrequency.o)
                0x9d0310cc                I2CSetFrequency

.text.puts      0x9d031114       0x44
 .text.puts     0x9d031114       0x44 c:/program files (x86)/microchip/mplabc32/v2.02/bin/../lib/gcc/pic32mx/4.5.1/../../../../pic32mx/lib\libc.a(puts.o)
                0x9d031114                puts

.text.I2CGetStatus
                0x9d031158       0x44
 .text.I2CGetStatus
                0x9d031158       0x44 c:/program files (x86)/microchip/mplabc32/v2.02/bin/../lib/gcc/pic32mx/4.5.1/../../../../pic32mx/lib\libmchp_peripheral_32MX575F256L.a(I2CGetStatus.o)
                0x9d031158                I2CGetStatus

.text           0x9d03119c       0x88
 .text          0x9d03119c       0x44 c:/program files (x86)/microchip/mplabc32/v2.02/bin/../lib/gcc/pic32mx/4.5.1\libgcc.a(_lshrdi3.o)
                0x9d03119c                __lshrdi3
 .text          0x9d0311e0       0x44 c:/program files (x86)/microchip/mplabc32/v2.02/bin/../lib/gcc/pic32mx/4.5.1\libgcc.a(_ashldi3.o)
                0x9d0311e0                __ashldi3

.text._printf_cdnopsuxX
                0x9d031224       0x40
 .text._printf_cdnopsuxX
                0x9d031224       0x40 c:/program files (x86)/microchip/mplabc32/v2.02/bin/../lib/gcc/pic32mx/4.5.1/../../../../pic32mx/lib\libc.a(printf_cdnopsuxX.eo)
                0x9d031224                _printf_cdnopsuxX
                0x9d031224                _printf_cdnopuxX
                0x9d031224                _printf_s
                0x9d031224                _printf_0

.text.UARTGetDataRate
                0x9d031264       0x40
 .text.UARTGetDataRate
                0x9d031264       0x40 c:/program files (x86)/microchip/mplabc32/v2.02/bin/../lib/gcc/pic32mx/4.5.1/../../../../pic32mx/lib\libmchp_peripheral_32MX575F256L.a(uart_lib.o)
                0x9d031264                UARTGetDataRate

.rodata         0x9d0312a4       0x3c
 .rodata        0x9d0312a4       0x3c obj-tmp\WFMac_24G.o

.text.localtime
                0x9d0312e0       0x3c
 .text.localtime
                0x9d0312e0       0x3c c:/program files (x86)/microchip/mplabc32/v2.02/bin/../lib/gcc/pic32mx/4.5.1/../../../../pic32mx/lib\libc.a(ctime.o)
                0x9d0312e0                localtime

.text.INTSetVectorPriority
                0x9d03131c       0x3c
 .text.INTSetVectorPriority
                0x9d03131c       0x3c c:/program files (x86)/microchip/mplabc32/v2.02/bin/../lib/gcc/pic32mx/4.5.1/../../../../pic32mx/lib\libmchp_peripheral_32MX575F256L.a(int_tbl_lib.o)
                0x9d03131c                INTSetVectorPriority

.text.INTSetVectorSubPriority
                0x9d031358       0x3c
 .text.INTSetVectorSubPriority
                0x9d031358       0x3c c:/program files (x86)/microchip/mplabc32/v2.02/bin/../lib/gcc/pic32mx/4.5.1/../../../../pic32mx/lib\libmchp_peripheral_32MX575F256L.a(int_tbl_lib.o)
                0x9d031358                INTSetVectorSubPriority

.text.UARTConfigure
                0x9d031394       0x3c
 .text.UARTConfigure
                0x9d031394       0x3c c:/program files (x86)/microchip/mplabc32/v2.02/bin/../lib/gcc/pic32mx/4.5.1/../../../../pic32mx/lib\libmchp_peripheral_32MX575F256L.a(uart_lib.o)
                0x9d031394                UARTConfigure

.text.UARTSetAddress
                0x9d0313d0       0x3c
 .text.UARTSetAddress
                0x9d0313d0       0x3c c:/program files (x86)/microchip/mplabc32/v2.02/bin/../lib/gcc/pic32mx/4.5.1/../../../../pic32mx/lib\libmchp_peripheral_32MX575F256L.a(uart_lib.o)
                0x9d0313d0                UARTSetAddress

.text.strcat    0x9d03140c       0x38
 .text.strcat   0x9d03140c       0x38 c:/program files (x86)/microchip/mplabc32/v2.02/bin/../lib/gcc/pic32mx/4.5.1/../../../../pic32mx/lib\libc.a(strcat.o)
                0x9d03140c                strcat

.text.UARTWatchForAddress
                0x9d031444       0x38
 .text.UARTWatchForAddress
                0x9d031444       0x38 c:/program files (x86)/microchip/mplabc32/v2.02/bin/../lib/gcc/pic32mx/4.5.1/../../../../pic32mx/lib\libmchp_peripheral_32MX575F256L.a(uart_lib.o)
                0x9d031444                UARTWatchForAddress

.text.I2CReceiverEnable
                0x9d03147c       0x38
 .text.I2CReceiverEnable
                0x9d03147c       0x38 c:/program files (x86)/microchip/mplabc32/v2.02/bin/../lib/gcc/pic32mx/4.5.1/../../../../pic32mx/lib\libmchp_peripheral_32MX575F256L.a(I2CReceiverEnable.o)
                0x9d03147c                I2CReceiverEnable

.text.INTEnableSystemMultiVectoredInt
                0x9d0314b4       0x34
 .text.INTEnableSystemMultiVectoredInt
                0x9d0314b4       0x34 c:/program files (x86)/microchip/mplabc32/v2.02/bin/../lib/gcc/pic32mx/4.5.1/../../../../pic32mx/lib\libmchp_peripheral_32MX575F256L.a(int_enable_mv_int_lib.o)
                0x9d0314b4                INTEnableSystemMultiVectoredInt

.text.I2CStart  0x9d0314e8       0x34
 .text.I2CStart
                0x9d0314e8       0x34 c:/program files (x86)/microchip/mplabc32/v2.02/bin/../lib/gcc/pic32mx/4.5.1/../../../../pic32mx/lib\libmchp_peripheral_32MX575F256L.a(I2CStart.o)
                0x9d0314e8                I2CStart

.rodata         0x9d03151c       0x30
 .rodata        0x9d03151c       0x30 obj-tmp\Assert.o

.text.INTGetVectorPriority
                0x9d03154c       0x30
 .text.INTGetVectorPriority
                0x9d03154c       0x30 c:/program files (x86)/microchip/mplabc32/v2.02/bin/../lib/gcc/pic32mx/4.5.1/../../../../pic32mx/lib\libmchp_peripheral_32MX575F256L.a(int_tbl_lib.o)
                0x9d03154c                INTGetVectorPriority

.text.INTGetVectorSubPriority
                0x9d03157c       0x30
 .text.INTGetVectorSubPriority
                0x9d03157c       0x30 c:/program files (x86)/microchip/mplabc32/v2.02/bin/../lib/gcc/pic32mx/4.5.1/../../../../pic32mx/lib\libmchp_peripheral_32MX575F256L.a(int_tbl_lib.o)
                0x9d03157c                INTGetVectorSubPriority

.text.I2CRepeatStart
                0x9d0315ac       0x30
 .text.I2CRepeatStart
                0x9d0315ac       0x30 c:/program files (x86)/microchip/mplabc32/v2.02/bin/../lib/gcc/pic32mx/4.5.1/../../../../pic32mx/lib\libmchp_peripheral_32MX575F256L.a(I2CRepeatStart.o)
                0x9d0315ac                I2CRepeatStart

.text.INTClearFlag
                0x9d0315dc       0x2c
 .text.INTClearFlag
                0x9d0315dc       0x2c c:/program files (x86)/microchip/mplabc32/v2.02/bin/../lib/gcc/pic32mx/4.5.1/../../../../pic32mx/lib\libmchp_peripheral_32MX575F256L.a(int_tbl_lib.o)
                0x9d0315dc                INTClearFlag

.text.INTSetFlag
                0x9d031608       0x2c
 .text.INTSetFlag
                0x9d031608       0x2c c:/program files (x86)/microchip/mplabc32/v2.02/bin/../lib/gcc/pic32mx/4.5.1/../../../../pic32mx/lib\libmchp_peripheral_32MX575F256L.a(int_tbl_lib.o)
                0x9d031608                INTSetFlag

.text.INTGetFlag
                0x9d031634       0x2c
 .text.INTGetFlag
                0x9d031634       0x2c c:/program files (x86)/microchip/mplabc32/v2.02/bin/../lib/gcc/pic32mx/4.5.1/../../../../pic32mx/lib\libmchp_peripheral_32MX575F256L.a(int_tbl_lib.o)
                0x9d031634                INTGetFlag

.text.INTGetEnable
                0x9d031660       0x2c
 .text.INTGetEnable
                0x9d031660       0x2c c:/program files (x86)/microchip/mplabc32/v2.02/bin/../lib/gcc/pic32mx/4.5.1/../../../../pic32mx/lib\libmchp_peripheral_32MX575F256L.a(int_tbl_lib.o)
                0x9d031660                INTGetEnable

.text.strchr    0x9d03168c       0x28
 .text.strchr   0x9d03168c       0x28 c:/program files (x86)/microchip/mplabc32/v2.02/bin/../lib/gcc/pic32mx/4.5.1/../../../../pic32mx/lib\libc.a(strchr.o)
                0x9d03168c                strchr

.text.UARTSetFifoMode
                0x9d0316b4       0x28
 .text.UARTSetFifoMode
                0x9d0316b4       0x28 c:/program files (x86)/microchip/mplabc32/v2.02/bin/../lib/gcc/pic32mx/4.5.1/../../../../pic32mx/lib\libmchp_peripheral_32MX575F256L.a(uart_lib.o)
                0x9d0316b4                UARTSetFifoMode

.text.UARTSetLineControl
                0x9d0316dc       0x28
 .text.UARTSetLineControl
                0x9d0316dc       0x28 c:/program files (x86)/microchip/mplabc32/v2.02/bin/../lib/gcc/pic32mx/4.5.1/../../../../pic32mx/lib\libmchp_peripheral_32MX575F256L.a(uart_lib.o)
                0x9d0316dc                UARTSetLineControl

.text.I2CEnable
                0x9d031704       0x28
 .text.I2CEnable
                0x9d031704       0x28 c:/program files (x86)/microchip/mplabc32/v2.02/bin/../lib/gcc/pic32mx/4.5.1/../../../../pic32mx/lib\libmchp_peripheral_32MX575F256L.a(I2CEnable.o)
                0x9d031704                I2CEnable

.text           0x9d03172c       0x24
 .text          0x9d03172c       0x24 obj-tmp\app_UCM.o
                0x9d03172c                AppTaskInit
                0x9d031748                AppTaskLoop

.text.tolower   0x9d031750       0x24
 .text.tolower  0x9d031750       0x24 c:/program files (x86)/microchip/mplabc32/v2.02/bin/../lib/gcc/pic32mx/4.5.1/../../../../pic32mx/lib\libc.a(ctypef.o)
                0x9d031750                tolower

.text.toupper   0x9d031774       0x24
 .text.toupper  0x9d031774       0x24 c:/program files (x86)/microchip/mplabc32/v2.02/bin/../lib/gcc/pic32mx/4.5.1/../../../../pic32mx/lib\libc.a(ctypef.o)
                0x9d031774                toupper

.text.I2CByteWasAcknowledged
                0x9d031798       0x24
 .text.I2CByteWasAcknowledged
                0x9d031798       0x24 c:/program files (x86)/microchip/mplabc32/v2.02/bin/../lib/gcc/pic32mx/4.5.1/../../../../pic32mx/lib\libmchp_peripheral_32MX575F256L.a(I2CByteWasAcknowledged.o)
                0x9d031798                I2CByteWasAcknowledged

.text.I2CStop   0x9d0317bc       0x24
 .text.I2CStop  0x9d0317bc       0x24 c:/program files (x86)/microchip/mplabc32/v2.02/bin/../lib/gcc/pic32mx/4.5.1/../../../../pic32mx/lib\libmchp_peripheral_32MX575F256L.a(I2CStop.o)
                0x9d0317bc                I2CStop

.text.I2CTransmissionHasCompleted
                0x9d0317e0       0x24
 .text.I2CTransmissionHasCompleted
                0x9d0317e0       0x24 c:/program files (x86)/microchip/mplabc32/v2.02/bin/../lib/gcc/pic32mx/4.5.1/../../../../pic32mx/lib\libmchp_peripheral_32MX575F256L.a(I2CTransmissionHasCompleted.o)
                0x9d0317e0                I2CTransmissionHasCompleted

.text.I2CTransmitterIsReady
                0x9d031804       0x24
 .text.I2CTransmitterIsReady
                0x9d031804       0x24 c:/program files (x86)/microchip/mplabc32/v2.02/bin/../lib/gcc/pic32mx/4.5.1/../../../../pic32mx/lib\libmchp_peripheral_32MX575F256L.a(I2CTransmitterIsReady.o)
                0x9d031804                I2CTransmitterIsReady

.rodata         0x9d031828       0x40
 .rodata        0x9d031828       0x20 obj-tmp\ARP.o
 .rodata        0x9d031848       0x20 obj-tmp\TimeMonitor.o

.text.ctime     0x9d031868       0x20
 .text.ctime    0x9d031868       0x20 c:/program files (x86)/microchip/mplabc32/v2.02/bin/../lib/gcc/pic32mx/4.5.1/../../../../pic32mx/lib\libc.a(ctime.o)
                0x9d031868                ctime

.text.I2CGetByte
                0x9d031888       0x20
 .text.I2CGetByte
                0x9d031888       0x20 c:/program files (x86)/microchip/mplabc32/v2.02/bin/../lib/gcc/pic32mx/4.5.1/../../../../pic32mx/lib\libmchp_peripheral_32MX575F256L.a(I2CGetByte.o)
                0x9d031888                I2CGetByte

.text.I2CReceivedDataIsAvailable
                0x9d0318a8       0x20
 .text.I2CReceivedDataIsAvailable
                0x9d0318a8       0x20 c:/program files (x86)/microchip/mplabc32/v2.02/bin/../lib/gcc/pic32mx/4.5.1/../../../../pic32mx/lib\libmchp_peripheral_32MX575F256L.a(I2CReceivedDataIsAvailable.o)
                0x9d0318a8                I2CReceivedDataIsAvailable

.rodata         0x9d0318c8       0x38
 .rodata        0x9d0318c8       0x1c obj-tmp\Announce.o
 .rodata        0x9d0318e4       0x1c obj-tmp\DHCP.o

.text.strtof    0x9d031900       0x1c
 .text.strtof   0x9d031900       0x1c c:/program files (x86)/microchip/mplabc32/v2.02/bin/../lib/gcc/pic32mx/4.5.1/../../../../pic32mx/lib\libc.a(strtof.o)
                0x9d031900                strtof

.text.strtodf   0x9d03191c       0x1c
 .text.strtodf  0x9d03191c       0x1c c:/program files (x86)/microchip/mplabc32/v2.02/bin/../lib/gcc/pic32mx/4.5.1/../../../../pic32mx/lib\libc.a(strtof.o)
                0x9d03191c                strtodf

.text.strtod    0x9d031938       0x1c
 .text.strtod   0x9d031938       0x1c c:/program files (x86)/microchip/mplabc32/v2.02/bin/../lib/gcc/pic32mx/4.5.1/../../../../pic32mx/lib\libc.a(strtod.o)
                0x9d031938                strtod

.text._dstrtod  0x9d031954       0x1c
 .text._dstrtod
                0x9d031954       0x1c c:/program files (x86)/microchip/mplabc32/v2.02/bin/../lib/gcc/pic32mx/4.5.1/../../../../pic32mx/lib\libc.a(strtod.o)
                0x9d031954                _dstrtod

.text.INTRestoreInterrupts
                0x9d031970       0x1c
 .text.INTRestoreInterrupts
                0x9d031970       0x1c c:/program files (x86)/microchip/mplabc32/v2.02/bin/../lib/gcc/pic32mx/4.5.1/../../../../pic32mx/lib\libmchp_peripheral_32MX575F256L.a(int_restore_interrupts_lib.o)
                0x9d031970                INTRestoreInterrupts

.text           0x9d03198c       0x18
 .text          0x9d03198c       0x18 c:/program files (x86)/microchip/mplabc32/v2.02/bin/../lib/gcc/pic32mx/4.5.1/../../../../pic32mx/lib\libc.a(default-nmi-handler.o)
                0x9d03198c                _nmi_handler

.text.isalnum   0x9d0319a4       0x18
 .text.isalnum  0x9d0319a4       0x18 c:/program files (x86)/microchip/mplabc32/v2.02/bin/../lib/gcc/pic32mx/4.5.1/../../../../pic32mx/lib\libc.a(ctypef.o)
                0x9d0319a4                isalnum

.text.isalpha   0x9d0319bc       0x18
 .text.isalpha  0x9d0319bc       0x18 c:/program files (x86)/microchip/mplabc32/v2.02/bin/../lib/gcc/pic32mx/4.5.1/../../../../pic32mx/lib\libc.a(ctypef.o)
                0x9d0319bc                isalpha

.text.iscntrl   0x9d0319d4       0x18
 .text.iscntrl  0x9d0319d4       0x18 c:/program files (x86)/microchip/mplabc32/v2.02/bin/../lib/gcc/pic32mx/4.5.1/../../../../pic32mx/lib\libc.a(ctypef.o)
                0x9d0319d4                iscntrl

.text.isdigit   0x9d0319ec       0x18
 .text.isdigit  0x9d0319ec       0x18 c:/program files (x86)/microchip/mplabc32/v2.02/bin/../lib/gcc/pic32mx/4.5.1/../../../../pic32mx/lib\libc.a(ctypef.o)
                0x9d0319ec                isdigit

.text.isgraph   0x9d031a04       0x18
 .text.isgraph  0x9d031a04       0x18 c:/program files (x86)/microchip/mplabc32/v2.02/bin/../lib/gcc/pic32mx/4.5.1/../../../../pic32mx/lib\libc.a(ctypef.o)
                0x9d031a04                isgraph

.text.islower   0x9d031a1c       0x18
 .text.islower  0x9d031a1c       0x18 c:/program files (x86)/microchip/mplabc32/v2.02/bin/../lib/gcc/pic32mx/4.5.1/../../../../pic32mx/lib\libc.a(ctypef.o)
                0x9d031a1c                islower

.text.isprint   0x9d031a34       0x18
 .text.isprint  0x9d031a34       0x18 c:/program files (x86)/microchip/mplabc32/v2.02/bin/../lib/gcc/pic32mx/4.5.1/../../../../pic32mx/lib\libc.a(ctypef.o)
                0x9d031a34                isprint

.text.ispunct   0x9d031a4c       0x18
 .text.ispunct  0x9d031a4c       0x18 c:/program files (x86)/microchip/mplabc32/v2.02/bin/../lib/gcc/pic32mx/4.5.1/../../../../pic32mx/lib\libc.a(ctypef.o)
                0x9d031a4c                ispunct

.text.isspace   0x9d031a64       0x18
 .text.isspace  0x9d031a64       0x18 c:/program files (x86)/microchip/mplabc32/v2.02/bin/../lib/gcc/pic32mx/4.5.1/../../../../pic32mx/lib\libc.a(ctypef.o)
                0x9d031a64                isspace

.text.isupper   0x9d031a7c       0x18
 .text.isupper  0x9d031a7c       0x18 c:/program files (x86)/microchip/mplabc32/v2.02/bin/../lib/gcc/pic32mx/4.5.1/../../../../pic32mx/lib\libc.a(ctypef.o)
                0x9d031a7c                isupper

.text.isxdigit  0x9d031a94       0x18
 .text.isxdigit
                0x9d031a94       0x18 c:/program files (x86)/microchip/mplabc32/v2.02/bin/../lib/gcc/pic32mx/4.5.1/../../../../pic32mx/lib\libc.a(ctypef.o)
                0x9d031a94                isxdigit

.text.CheKseg0CacheOff
                0x9d031aac       0x18
 .text.CheKseg0CacheOff
                0x9d031aac       0x18 c:/program files (x86)/microchip/mplabc32/v2.02/bin/../lib/gcc/pic32mx/4.5.1/../../../../pic32mx/lib\libmchp_peripheral_32MX575F256L.a(pcache.o)
                0x9d031aac                CheKseg0CacheOff

.text.CheKseg0CacheOn
                0x9d031ac4       0x18
 .text.CheKseg0CacheOn
                0x9d031ac4       0x18 c:/program files (x86)/microchip/mplabc32/v2.02/bin/../lib/gcc/pic32mx/4.5.1/../../../../pic32mx/lib\libmchp_peripheral_32MX575F256L.a(pcache.o)
                0x9d031ac4                CheKseg0CacheOn

.rodata         0x9d031adc       0x40
 .rodata        0x9d031adc       0x18 c:/program files (x86)/microchip/mplabc32/v2.02/bin/../lib/gcc/pic32mx/4.5.1/../../../../pic32mx/lib\libmchp_peripheral_32MX575F256L.a(uart_lib.o)
                0x9d031adc                uartReg
 .rodata        0x9d031af4       0x14 obj-tmp\TCP.o
                0x9d031af4                TCPSocketInitializer
 .rodata        0x9d031b08       0x14 c:/program files (x86)/microchip/mplabc32/v2.02/bin/../lib/gcc/pic32mx/4.5.1/../../../../pic32mx/lib\libmchp_peripheral_32MX575F256L.a(I2CPrivate.o)
                0x9d031b08                i2cBase

.text           0x9d031b1c       0x10
 .text          0x9d031b1c       0x10 c:/program files (x86)/microchip/mplabc32/v2.02/bin/../lib/gcc/pic32mx/4.5.1/../../../../pic32mx/lib/crt0.o
                0x9d031b24                __crt0_exit

.rodata         0x9d031b30       0x20
 .rodata        0x9d031b30       0x10 c:/program files (x86)/microchip/mplabc32/v2.02/bin/../lib/gcc/pic32mx/4.5.1/../../../../pic32mx/lib\libe.a(_strtod.o)
 .rodata        0x9d031b40       0x10 c:/program files (x86)/microchip/mplabc32/v2.02/bin/../lib/gcc/pic32mx/4.5.1/../../../../pic32mx/lib\libe.a(_divdf3.o)

.text.__negdf2  0x9d031b50       0x10
 .text.__negdf2
                0x9d031b50       0x10 c:/program files (x86)/microchip/mplabc32/v2.02/bin/../lib/gcc/pic32mx/4.5.1/../../../../pic32mx/lib\libe.a(_negdf2.o)
                0x9d031b50                __negdf2

.text._bootstrap_exception_handler
                0x9d031b60        0xc
 .text._bootstrap_exception_handler
                0x9d031b60        0xc c:/program files (x86)/microchip/mplabc32/v2.02/bin/../lib/gcc/pic32mx/4.5.1/../../../../pic32mx/lib\libc.a(default-bootstrap-exception-handler.o)
                0x9d031b60                _bootstrap_exception_handler

.text.__subdf3  0x9d031b6c        0xc
 .text.__subdf3
                0x9d031b6c        0xc c:/program files (x86)/microchip/mplabc32/v2.02/bin/../lib/gcc/pic32mx/4.5.1/../../../../pic32mx/lib\libe.a(_adddf3.o)
                0x9d031b6c                __subdf3

.rodata         0x9d031b78       0x20
 .rodata        0x9d031b78        0x8 obj-tmp\DNSs.o
 .rodata        0x9d031b80        0x8 obj-tmp\MPFS2.o
 .rodata        0x9d031b88        0x8 obj-tmp\WF_pbkdf2.o
 .rodata        0x9d031b90        0x8 obj-tmp\WFInit.o

.text._on_reset
                0x9d031b98        0x8
 .text._on_reset
                0x9d031b98        0x8 c:/program files (x86)/microchip/mplabc32/v2.02/bin/../lib/gcc/pic32mx/4.5.1/../../../../pic32mx/lib\libc.a(default-on-reset.o)
                0x9d031b98                _on_reset

.text._on_bootstrap
                0x9d031ba0        0x8
 .text._on_bootstrap
                0x9d031ba0        0x8 c:/program files (x86)/microchip/mplabc32/v2.02/bin/../lib/gcc/pic32mx/4.5.1/../../../../pic32mx/lib\libc.a(default-on-bootstrap.o)
                0x9d031ba0                _on_bootstrap

.text.isascii   0x9d031ba8        0x8
 .text.isascii  0x9d031ba8        0x8 c:/program files (x86)/microchip/mplabc32/v2.02/bin/../lib/gcc/pic32mx/4.5.1/../../../../pic32mx/lib\libc.a(ctypef.o)
                0x9d031ba8                isascii

.text.toascii   0x9d031bb0        0x8
 .text.toascii  0x9d031bb0        0x8 c:/program files (x86)/microchip/mplabc32/v2.02/bin/../lib/gcc/pic32mx/4.5.1/../../../../pic32mx/lib\libc.a(ctypef.o)
                0x9d031bb0                toascii

.text._tolower  0x9d031bb8        0x8
 .text._tolower
                0x9d031bb8        0x8 c:/program files (x86)/microchip/mplabc32/v2.02/bin/../lib/gcc/pic32mx/4.5.1/../../../../pic32mx/lib\libc.a(ctypef.o)
                0x9d031bb8                _tolower

.text._toupper  0x9d031bc0        0x8
 .text._toupper
                0x9d031bc0        0x8 c:/program files (x86)/microchip/mplabc32/v2.02/bin/../lib/gcc/pic32mx/4.5.1/../../../../pic32mx/lib\libc.a(ctypef.o)
                0x9d031bc0                _toupper

.rodata         0x9d031bc8       0x10
 .rodata        0x9d031bc8        0x8 c:/program files (x86)/microchip/mplabc32/v2.02/bin/../lib/gcc/pic32mx/4.5.1/../../../../pic32mx/lib\libe.a(_muldf3.o)
 .rodata        0x9d031bd0        0x8 c:/program files (x86)/microchip/mplabc32/v2.02/bin/../lib/gcc/pic32mx/4.5.1/../../../../pic32mx/lib\libe.a(_adddf3.o)

.text.INTDisableInterrupts
                0x9d031bd8        0x8
 .text.INTDisableInterrupts
                0x9d031bd8        0x8 c:/program files (x86)/microchip/mplabc32/v2.02/bin/../lib/gcc/pic32mx/4.5.1/../../../../pic32mx/lib\libmchp_peripheral_32MX575F256L.a(int_disable_interrupts_lib.o)
                0x9d031bd8                INTDisableInterrupts

.text.INTEnableInterrupts
                0x9d031be0        0x8
 .text.INTEnableInterrupts
                0x9d031be0        0x8 c:/program files (x86)/microchip/mplabc32/v2.02/bin/../lib/gcc/pic32mx/4.5.1/../../../../pic32mx/lib\libmchp_peripheral_32MX575F256L.a(int_enable_interrupts_lib.o)
                0x9d031be0                INTEnableInterrupts

.rodata         0x9d031b2c        0x4
 .rodata        0x9d031b2c        0x4 obj-tmp\WFConsoleMsgHandler.o

.text%z492      0x00000000        0x0
 .text          0x00000000        0x0 c:/program files (x86)/microchip/mplabc32/v2.02/bin/../lib/gcc/pic32mx/4.5.1/../../../../pic32mx/lib/./proc/32MX575F256L\processor.o

.text%z493      0x00000000        0x0
 .text          0x00000000        0x0 c:/program files (x86)/microchip/mplabc32/v2.02/bin/../lib/gcc/pic32mx/4.5.1/../../../../pic32mx/lib\libc.a(errno.o)

.text%z494      0x00000000        0x0
 .text          0x00000000        0x0 c:/program files (x86)/microchip/mplabc32/v2.02/bin/../lib/gcc/pic32mx/4.5.1/../../../../pic32mx/lib\libmchp_peripheral_32MX575F256L.a(int_enable_interrupts_lib.o)

.text%z495      0x00000000        0x0
 .text          0x00000000        0x0 c:/program files (x86)/microchip/mplabc32/v2.02/bin/../lib/gcc/pic32mx/4.5.1/../../../../pic32mx/lib\libmchp_peripheral_32MX575F256L.a(I2CTransmitterIsReady.o)

.text%z496      0x00000000        0x0
 .text          0x00000000        0x0 c:/program files (x86)/microchip/mplabc32/v2.02/bin/../lib/gcc/pic32mx/4.5.1/../../../../pic32mx/lib\libmchp_peripheral_32MX575F256L.a(I2CTransmissionHasCompleted.o)

.text%z497      0x00000000        0x0
 .text          0x00000000        0x0 c:/program files (x86)/microchip/mplabc32/v2.02/bin/../lib/gcc/pic32mx/4.5.1/../../../../pic32mx/lib\libmchp_peripheral_32MX575F256L.a(I2CStop.o)

.text%z498      0x00000000        0x0
 .text          0x00000000        0x0 c:/program files (x86)/microchip/mplabc32/v2.02/bin/../lib/gcc/pic32mx/4.5.1/../../../../pic32mx/lib\libmchp_peripheral_32MX575F256L.a(I2CStart.o)

.text%z499      0x00000000        0x0
 .text          0x00000000        0x0 c:/program files (x86)/microchip/mplabc32/v2.02/bin/../lib/gcc/pic32mx/4.5.1/../../../../pic32mx/lib\libmchp_peripheral_32MX575F256L.a(I2CSetFrequency.o)

.text%z500      0x00000000        0x0
 .text          0x00000000        0x0 c:/program files (x86)/microchip/mplabc32/v2.02/bin/../lib/gcc/pic32mx/4.5.1/../../../../pic32mx/lib\libmchp_peripheral_32MX575F256L.a(I2CRepeatStart.o)

.text%z501      0x00000000        0x0
 .text          0x00000000        0x0 c:/program files (x86)/microchip/mplabc32/v2.02/bin/../lib/gcc/pic32mx/4.5.1/../../../../pic32mx/lib\libmchp_peripheral_32MX575F256L.a(I2CReceiverEnable.o)

.text%z502      0x00000000        0x0
 .text          0x00000000        0x0 c:/program files (x86)/microchip/mplabc32/v2.02/bin/../lib/gcc/pic32mx/4.5.1/../../../../pic32mx/lib\libmchp_peripheral_32MX575F256L.a(I2CReceivedDataIsAvailable.o)

.text%z503      0x00000000        0x0
 .text          0x00000000        0x0 c:/program files (x86)/microchip/mplabc32/v2.02/bin/../lib/gcc/pic32mx/4.5.1/../../../../pic32mx/lib\libmchp_peripheral_32MX575F256L.a(I2CGetStatus.o)

.text%z504      0x00000000        0x0
 .text          0x00000000        0x0 c:/program files (x86)/microchip/mplabc32/v2.02/bin/../lib/gcc/pic32mx/4.5.1/../../../../pic32mx/lib\libmchp_peripheral_32MX575F256L.a(I2CGetByte.o)

.text%z505      0x00000000        0x0
 .text          0x00000000        0x0 c:/program files (x86)/microchip/mplabc32/v2.02/bin/../lib/gcc/pic32mx/4.5.1/../../../../pic32mx/lib\libmchp_peripheral_32MX575F256L.a(I2CEnable.o)

.text%z506      0x00000000        0x0
 .text          0x00000000        0x0 c:/program files (x86)/microchip/mplabc32/v2.02/bin/../lib/gcc/pic32mx/4.5.1/../../../../pic32mx/lib\libmchp_peripheral_32MX575F256L.a(I2CByteWasAcknowledged.o)

.text%z507      0x00000000        0x0
 .text          0x00000000        0x0 c:/program files (x86)/microchip/mplabc32/v2.02/bin/../lib/gcc/pic32mx/4.5.1/../../../../pic32mx/lib\libmchp_peripheral_32MX575F256L.a(I2CBusIsIdle.o)

.text%z508      0x00000000        0x0
 .text          0x00000000        0x0 c:/program files (x86)/microchip/mplabc32/v2.02/bin/../lib/gcc/pic32mx/4.5.1/../../../../pic32mx/lib\libmchp_peripheral_32MX575F256L.a(I2CPrivate.o)

.text%z509      0x00000000        0x0
 .text          0x00000000        0x0 c:/program files (x86)/microchip/mplabc32/v2.02/bin/../lib/gcc/pic32mx/4.5.1/../../../../pic32mx/lib\libmchp_peripheral_32MX575F256L.a(idle_i2c2_lib_legacy.o)

.text%z510      0x00000000        0x0
 .text          0x00000000        0x0 c:/program files (x86)/microchip/mplabc32/v2.02/bin/../lib/gcc/pic32mx/4.5.1/../../../../pic32mx/lib\libmchp_peripheral_32MX575F256L.a(puts_uartx_lib_legacy.o)

.text%z511      0x00000000        0x0
 .text          0x00000000        0x0 c:/program files (x86)/microchip/mplabc32/v2.02/bin/../lib/gcc/pic32mx/4.5.1/../../../../pic32mx/lib\libmchp_peripheral_32MX575F256L.a(uart_lib.o)

.text%z512      0x00000000        0x0
 .text          0x00000000        0x0 c:/program files (x86)/microchip/mplabc32/v2.02/bin/../lib/gcc/pic32mx/4.5.1/../../../../pic32mx/lib\libmchp_peripheral_32MX575F256L.a(int_tbl_lib.o)

.text%z513      0x00000000        0x0
 .text          0x00000000        0x0 c:/program files (x86)/microchip/mplabc32/v2.02/bin/../lib/gcc/pic32mx/4.5.1/../../../../pic32mx/lib\libmchp_peripheral_32MX575F256L.a(int_enable_mv_int_lib.o)

.text%z514      0x00000000        0x0
 .text          0x00000000        0x0 c:/program files (x86)/microchip/mplabc32/v2.02/bin/../lib/gcc/pic32mx/4.5.1/../../../../pic32mx/lib\libmchp_peripheral_32MX575F256L.a(int_restore_interrupts_lib.o)

.text%z515      0x00000000        0x0
 .text          0x00000000        0x0 c:/program files (x86)/microchip/mplabc32/v2.02/bin/../lib/gcc/pic32mx/4.5.1/../../../../pic32mx/lib\libmchp_peripheral_32MX575F256L.a(int_disable_interrupts_lib.o)

.text%z516      0x00000000        0x0
 .text          0x00000000        0x0 c:/program files (x86)/microchip/mplabc32/v2.02/bin/../lib/gcc/pic32mx/4.5.1/../../../../pic32mx/lib\libmchp_peripheral_32MX575F256L.a(pcache.o)

.text%z517      0x00000000        0x0
 .text          0x00000000        0x0 c:/program files (x86)/microchip/mplabc32/v2.02/bin/../lib/gcc/pic32mx/4.5.1/../../../../pic32mx/lib\libmchp_peripheral_32MX575F256L.a(soft_reset_lib.o)

.text%z518      0x00000000        0x0
 .text          0x00000000        0x0 c:/program files (x86)/microchip/mplabc32/v2.02/bin/../lib/gcc/pic32mx/4.5.1/../../../../pic32mx/lib\libe.a(_ldexpf.o)

.text%z519      0x00000000        0x0
 .text          0x00000000        0x0 c:/program files (x86)/microchip/mplabc32/v2.02/bin/../lib/gcc/pic32mx/4.5.1/../../../../pic32mx/lib\libe.a(_ldexp.o)

.text%z520      0x00000000        0x0
 .text          0x00000000        0x0 c:/program files (x86)/microchip/mplabc32/v2.02/bin/../lib/gcc/pic32mx/4.5.1/../../../../pic32mx/lib\libe.a(_floatsidf.o)

.text%z521      0x00000000        0x0
 .text          0x00000000        0x0 c:/program files (x86)/microchip/mplabc32/v2.02/bin/../lib/gcc/pic32mx/4.5.1/../../../../pic32mx/lib\libe.a(_adddf3.o)

.text%z522      0x00000000        0x0
 .text          0x00000000        0x0 c:/program files (x86)/microchip/mplabc32/v2.02/bin/../lib/gcc/pic32mx/4.5.1/../../../../pic32mx/lib\libe.a(_negdf2.o)

.text%z523      0x00000000        0x0
 .text          0x00000000        0x0 c:/program files (x86)/microchip/mplabc32/v2.02/bin/../lib/gcc/pic32mx/4.5.1/../../../../pic32mx/lib\libe.a(_muldf3.o)

.text%z524      0x00000000        0x0
 .text          0x00000000        0x0 c:/program files (x86)/microchip/mplabc32/v2.02/bin/../lib/gcc/pic32mx/4.5.1/../../../../pic32mx/lib\libe.a(_divdf3.o)

.text%z525      0x00000000        0x0
 .text          0x00000000        0x0 c:/program files (x86)/microchip/mplabc32/v2.02/bin/../lib/gcc/pic32mx/4.5.1/../../../../pic32mx/lib\libe.a(_strtof.o)

.text%z526      0x00000000        0x0
 .text          0x00000000        0x0 c:/program files (x86)/microchip/mplabc32/v2.02/bin/../lib/gcc/pic32mx/4.5.1/../../../../pic32mx/lib\libe.a(_strtod.o)

.text%z527      0x00000000        0x0
 .text          0x00000000        0x0 c:/program files (x86)/microchip/mplabc32/v2.02/bin/../lib/gcc/pic32mx/4.5.1/../../../../pic32mx/lib\libm.a(s_lib_ver.o)

.text%z528      0x00000000        0x0
 .text          0x00000000        0x0 c:/program files (x86)/microchip/mplabc32/v2.02/bin/../lib/gcc/pic32mx/4.5.1/../../../../pic32mx/lib\libm.a(w_sqrtf.o)

.text%z529      0x00000000        0x0
 .text          0x00000000        0x0 c:/program files (x86)/microchip/mplabc32/v2.02/bin/../lib/gcc/pic32mx/4.5.1/../../../../pic32mx/lib\libc.a(c32_uart.o)

.text%z530      0x00000000        0x0
 .text          0x00000000        0x0 c:/program files (x86)/microchip/mplabc32/v2.02/bin/../lib/gcc/pic32mx/4.5.1/../../../../pic32mx/lib\libc.a(read.o)

.text%z531      0x00000000        0x0
 .text          0x00000000        0x0 c:/program files (x86)/microchip/mplabc32/v2.02/bin/../lib/gcc/pic32mx/4.5.1/../../../../pic32mx/lib\libc.a(fflush.o)

.text%z532      0x00000000        0x0
 .text          0x00000000        0x0 c:/program files (x86)/microchip/mplabc32/v2.02/bin/../lib/gcc/pic32mx/4.5.1/../../../../pic32mx/lib\libc.a(filbuf.o)

.text%z533      0x00000000        0x0
 .text          0x00000000        0x0 c:/program files (x86)/microchip/mplabc32/v2.02/bin/../lib/gcc/pic32mx/4.5.1/../../../../pic32mx/lib\libc.a(ungetc.o)

.text%z534      0x00000000        0x0
 .text          0x00000000        0x0 c:/program files (x86)/microchip/mplabc32/v2.02/bin/../lib/gcc/pic32mx/4.5.1/../../../../pic32mx/lib\libc.a(strtod.o)

.text%z535      0x00000000        0x0
 .text          0x00000000        0x0 c:/program files (x86)/microchip/mplabc32/v2.02/bin/../lib/gcc/pic32mx/4.5.1/../../../../pic32mx/lib\libc.a(strtof.o)

.text%z536      0x00000000        0x0
 .text          0x00000000        0x0 c:/program files (x86)/microchip/mplabc32/v2.02/bin/../lib/gcc/pic32mx/4.5.1/../../../../pic32mx/lib\libc.a(ctypef.o)

.text%z537      0x00000000        0x0
 .text          0x00000000        0x0 c:/program files (x86)/microchip/mplabc32/v2.02/bin/../lib/gcc/pic32mx/4.5.1/../../../../pic32mx/lib\libc.a(fgetc.o)

.text%z538      0x00000000        0x0
 .text          0x00000000        0x0 c:/program files (x86)/microchip/mplabc32/v2.02/bin/../lib/gcc/pic32mx/4.5.1/../../../../pic32mx/lib\libc.a(_flsbuf_simple.o)

.text%z539      0x00000000        0x0
 .text          0x00000000        0x0 c:/program files (x86)/microchip/mplabc32/v2.02/bin/../lib/gcc/pic32mx/4.5.1/../../../../pic32mx/lib\libc.a(write.o)

.text%z540      0x00000000        0x0
 .text          0x00000000        0x0 c:/program files (x86)/microchip/mplabc32/v2.02/bin/../lib/gcc/pic32mx/4.5.1/../../../../pic32mx/lib\libc.a(doscan_cdnopuxX.eo)

.text%z541      0x00000000        0x0
 .text          0x00000000        0x0 c:/program files (x86)/microchip/mplabc32/v2.02/bin/../lib/gcc/pic32mx/4.5.1/../../../../pic32mx/lib\libc.a(doscan_cdfFnopuxX.eo)

.text%z542      0x00000000        0x0
 .text          0x00000000        0x0 c:/program files (x86)/microchip/mplabc32/v2.02/bin/../lib/gcc/pic32mx/4.5.1/../../../../pic32mx/lib\libc.a(doprnt_cdnopsuxX.eo)

.text%z543      0x00000000        0x0
 .text          0x00000000        0x0 c:/program files (x86)/microchip/mplabc32/v2.02/bin/../lib/gcc/pic32mx/4.5.1/../../../../pic32mx/lib\libc.a(strspn.o)

.text%z544      0x00000000        0x0
 .text          0x00000000        0x0 c:/program files (x86)/microchip/mplabc32/v2.02/bin/../lib/gcc/pic32mx/4.5.1/../../../../pic32mx/lib\libc.a(strcspn.o)

.text%z545      0x00000000        0x0
 .text          0x00000000        0x0 c:/program files (x86)/microchip/mplabc32/v2.02/bin/../lib/gcc/pic32mx/4.5.1/../../../../pic32mx/lib\libc.a(_fputc_simple.o)

.text%z546      0x00000000        0x0
 .text          0x00000000        0x0 c:/program files (x86)/microchip/mplabc32/v2.02/bin/../lib/gcc/pic32mx/4.5.1/../../../../pic32mx/lib\libc.a(_iob.o)

.text%z547      0x00000000        0x0
 .text          0x00000000        0x0 c:/program files (x86)/microchip/mplabc32/v2.02/bin/../lib/gcc/pic32mx/4.5.1/../../../../pic32mx/lib\libc.a(default-on-bootstrap.o)

.text%z548      0x00000000        0x0
 .text          0x00000000        0x0 c:/program files (x86)/microchip/mplabc32/v2.02/bin/../lib/gcc/pic32mx/4.5.1/../../../../pic32mx/lib\libc.a(default-on-reset.o)

.text%z549      0x00000000        0x0
 .text          0x00000000        0x0 c:/program files (x86)/microchip/mplabc32/v2.02/bin/../lib/gcc/pic32mx/4.5.1/../../../../pic32mx/lib\libc.a(default-bootstrap-exception-handler.o)

.text%z550      0x00000000        0x0
 .text          0x00000000        0x0 c:/program files (x86)/microchip/mplabc32/v2.02/bin/../lib/gcc/pic32mx/4.5.1/../../../../pic32mx/lib\libc.a(sscanf_cdfFnopuxX.eo)

.text%z551      0x00000000        0x0
 .text          0x00000000        0x0 c:/program files (x86)/microchip/mplabc32/v2.02/bin/../lib/gcc/pic32mx/4.5.1/../../../../pic32mx/lib\libc.a(sprintf_cdnopsuxX.eo)

.text%z552      0x00000000        0x0
 .text          0x00000000        0x0 c:/program files (x86)/microchip/mplabc32/v2.02/bin/../lib/gcc/pic32mx/4.5.1/../../../../pic32mx/lib\libc.a(printf_cdnopsuxX.eo)

.text%z553      0x00000000        0x0
 .text          0x00000000        0x0 c:/program files (x86)/microchip/mplabc32/v2.02/bin/../lib/gcc/pic32mx/4.5.1/../../../../pic32mx/lib\libc.a(strtok.o)

.text%z554      0x00000000        0x0
 .text          0x00000000        0x0 c:/program files (x86)/microchip/mplabc32/v2.02/bin/../lib/gcc/pic32mx/4.5.1/../../../../pic32mx/lib\libc.a(strstr.o)

.text%z555      0x00000000        0x0
 .text          0x00000000        0x0 c:/program files (x86)/microchip/mplabc32/v2.02/bin/../lib/gcc/pic32mx/4.5.1/../../../../pic32mx/lib\libc.a(strrchr.o)

.text%z556      0x00000000        0x0
 .text          0x00000000        0x0 c:/program files (x86)/microchip/mplabc32/v2.02/bin/../lib/gcc/pic32mx/4.5.1/../../../../pic32mx/lib\libc.a(strncpy.o)

.text%z557      0x00000000        0x0
 .text          0x00000000        0x0 c:/program files (x86)/microchip/mplabc32/v2.02/bin/../lib/gcc/pic32mx/4.5.1/../../../../pic32mx/lib\libc.a(strncmp.o)

.text%z558      0x00000000        0x0
 .text          0x00000000        0x0 c:/program files (x86)/microchip/mplabc32/v2.02/bin/../lib/gcc/pic32mx/4.5.1/../../../../pic32mx/lib\libc.a(strchr.o)

.text%z559      0x00000000        0x0
 .text          0x00000000        0x0 c:/program files (x86)/microchip/mplabc32/v2.02/bin/../lib/gcc/pic32mx/4.5.1/../../../../pic32mx/lib\libc.a(strcat.o)

.text%z560      0x00000000        0x0
 .text          0x00000000        0x0 c:/program files (x86)/microchip/mplabc32/v2.02/bin/../lib/gcc/pic32mx/4.5.1/../../../../pic32mx/lib\libc.a(puts.o)

.text%z561      0x00000000        0x0
 .text          0x00000000        0x0 c:/program files (x86)/microchip/mplabc32/v2.02/bin/../lib/gcc/pic32mx/4.5.1/../../../../pic32mx/lib\libc.a(mktime.o)

.text%z562      0x00000000        0x0
 .text          0x00000000        0x0 c:/program files (x86)/microchip/mplabc32/v2.02/bin/../lib/gcc/pic32mx/4.5.1/../../../../pic32mx/lib\libc.a(ctype.o)

.text%z563      0x00000000        0x0
 .text          0x00000000        0x0 c:/program files (x86)/microchip/mplabc32/v2.02/bin/../lib/gcc/pic32mx/4.5.1/../../../../pic32mx/lib\libc.a(ctime.o)

.text%z564      0x00000000        0x0
 .text          0x00000000        0x0 c:/program files (x86)/microchip/mplabc32/v2.02/bin/../lib/gcc/pic32mx/4.5.1/../../../../pic32mx/lib\libc.a(atol.o)

.text%z565      0x00000000        0x0
 .text          0x00000000        0x0 c:/program files (x86)/microchip/mplabc32/v2.02/bin/../lib/gcc/pic32mx/4.5.1/../../../../pic32mx/lib\libc.a(atoi.o)

.text%z566      0x00000000        0x0
 .text          0x00000000        0x0 c:/program files (x86)/microchip/mplabc32/v2.02/bin/../lib/gcc/pic32mx/4.5.1/../../../../pic32mx/lib\libc.a(general-exception.o)

.text%z567      0x00000000        0x0
 .text          0x00000000        0x0 obj-tmp\WFDataTxRx.o

.text%z568      0x00000000        0x0
 .text          0x00000000        0x0 obj-tmp\WFConsoleIwpriv.o

.text%z569      0x00000000        0x0
 .text          0x00000000        0x0 obj-tmp\WFConsoleIwconfig.o

.text%z570      0x00000000        0x0
 .text          0x00000000        0x0 obj-tmp\WFConsoleIfconfig.o

.text%z571      0x00000000        0x0
 .text          0x00000000        0x0 obj-tmp\WFConsole.o

.rodata         0x9d031be8        0x1
 .rodata        0x9d031be8        0x1 obj-tmp\ZeroconfLinkLocal.o
                0x9d031be8                g_zcll_dhcp_client

.text%z572      0x00000000        0x0
 .text          0x00000000        0x0 obj-tmp\UDPPerformanceTest.o

.text%z573      0x00000000        0x0
 .text          0x00000000        0x0 obj-tmp\UART2TCPBridge.o

.text%z574      0x00000000        0x0
 .text          0x00000000        0x0 obj-tmp\TFTPc.o

.text%z575      0x00000000        0x0
 .text          0x00000000        0x0 obj-tmp\Telnet.o

.text%z576      0x00000000        0x0
 .text          0x00000000        0x0 obj-tmp\TCPPerformanceTest.o

.text%z577      0x00000000        0x0
 .text          0x00000000        0x0 obj-tmp\SSL.o

.text%z578      0x00000000        0x0
 .text          0x00000000        0x0 obj-tmp\SPIRAM.o

.text%z579      0x00000000        0x0
 .text          0x00000000        0x0 obj-tmp\SPIEEPROM.o

.text%z580      0x00000000        0x0
 .text          0x00000000        0x0 obj-tmp\SNTP.o

.text%z581      0x00000000        0x0
 .text          0x00000000        0x0 obj-tmp\SNMPv3USM.o

.text%z582      0x00000000        0x0
 .text          0x00000000        0x0 obj-tmp\SNMPv3.o

.text%z583      0x00000000        0x0
 .text          0x00000000        0x0 obj-tmp\SNMP.o

.text%z584      0x00000000        0x0
 .text          0x00000000        0x0 obj-tmp\SMTP.o

.text%z585      0x00000000        0x0
 .text          0x00000000        0x0 obj-tmp\RSA.o

.text%z586      0x00000000        0x0
 .text          0x00000000        0x0 obj-tmp\Random.o

.text%z587      0x00000000        0x0
 .text          0x00000000        0x0 obj-tmp\LCDBlocking.o

.text%z588      0x00000000        0x0
 .text          0x00000000        0x0 obj-tmp\Hashes.o

.text%z589      0x00000000        0x0
 .text          0x00000000        0x0 obj-tmp\FTP.o

.text%z590      0x00000000        0x0
 .text          0x00000000        0x0 obj-tmp\FileSystem.o

.text%z591      0x00000000        0x0
 .text          0x00000000        0x0 obj-tmp\DynDNS.o

.text%z592      0x00000000        0x0
 .text          0x00000000        0x0 obj-tmp\BigInt_helper_PIC32.o

.text%z593      0x00000000        0x0
 .text          0x00000000        0x0 obj-tmp\BigInt.o

.text%z594      0x00000000        0x0
 .text          0x00000000        0x0 obj-tmp\BerkeleyAPI.o

.text%z595      0x00000000        0x0
 .text          0x00000000        0x0 obj-tmp\AutoIP.o

.text%z596      0x00000000        0x0
 .text          0x00000000        0x0 obj-tmp\ARCFOUR.o

.text%z597      0x00000000        0x0
 .text          0x00000000        0x0 obj-tmp\WifiGDemoMPFSImg.o
