Archive member included because of file (symbol)

C:\Projects\Intwine\Aztec\Power.a(ADE7753.o)
                              obj-tmp\Power.o (COR_Read7753)
c:/program files (x86)/microchip/mplabc32/v2.02/bin/../lib/gcc/pic32mx/4.5.1\libgcc.a(_udivdi3.o)
                              obj-tmp\Tick.o (__udivdi3)
c:/program files (x86)/microchip/mplabc32/v2.02/bin/../lib/gcc/pic32mx/4.5.1\libgcc.a(_umoddi3.o)
                              obj-tmp\DHCP.o (__umoddi3)
c:/program files (x86)/microchip/mplabc32/v2.02/bin/../lib/gcc/pic32mx/4.5.1/../../../../pic32mx/lib\libc.a(memcmp.o)
                              obj-tmp\CustomHTTPApp.o (memcmp)
c:/program files (x86)/microchip/mplabc32/v2.02/bin/../lib/gcc/pic32mx/4.5.1/../../../../pic32mx/lib\libc.a(memcpy.o)
                              obj-tmp\CustomHTTPApp.o (memcpy)
c:/program files (x86)/microchip/mplabc32/v2.02/bin/../lib/gcc/pic32mx/4.5.1/../../../../pic32mx/lib\libc.a(memset.o)
                              obj-tmp\Main.o (memset)
c:/program files (x86)/microchip/mplabc32/v2.02/bin/../lib/gcc/pic32mx/4.5.1/../../../../pic32mx/lib\libc.a(strcmp.o)
                              obj-tmp\CustomHTTPApp.o (strcmp)
c:/program files (x86)/microchip/mplabc32/v2.02/bin/../lib/gcc/pic32mx/4.5.1/../../../../pic32mx/lib\libc.a(strcpy.o)
                              obj-tmp\CustomHTTPApp.o (strcpy)
c:/program files (x86)/microchip/mplabc32/v2.02/bin/../lib/gcc/pic32mx/4.5.1/../../../../pic32mx/lib\libc.a(strlen.o)
                              obj-tmp\CustomHTTPApp.o (strlen)
c:/program files (x86)/microchip/mplabc32/v2.02/bin/../lib/gcc/pic32mx/4.5.1/../../../../pic32mx/lib\libc.a(general-exception.o)
                              c:/program files (x86)/microchip/mplabc32/v2.02/bin/../lib/gcc/pic32mx/4.5.1/../../../../pic32mx/lib/crt0.o (_general_exception_context)
c:/program files (x86)/microchip/mplabc32/v2.02/bin/../lib/gcc/pic32mx/4.5.1/../../../../pic32mx/lib\libc.a(atol.o)
                              obj-tmp\HTTP2.o (atol)
c:/program files (x86)/microchip/mplabc32/v2.02/bin/../lib/gcc/pic32mx/4.5.1/../../../../pic32mx/lib\libc.a(ctype.o)
                              obj-tmp\WFConsoleMsgs.o (_ctype)
c:/program files (x86)/microchip/mplabc32/v2.02/bin/../lib/gcc/pic32mx/4.5.1/../../../../pic32mx/lib\libc.a(puts.o)
                              obj-tmp\Main.o (puts)
c:/program files (x86)/microchip/mplabc32/v2.02/bin/../lib/gcc/pic32mx/4.5.1/../../../../pic32mx/lib\libc.a(strcat.o)
                              obj-tmp\ADE7753.o (strcat)
c:/program files (x86)/microchip/mplabc32/v2.02/bin/../lib/gcc/pic32mx/4.5.1/../../../../pic32mx/lib\libc.a(strncpy.o)
                              obj-tmp\Helpers.o (strncpy)
c:/program files (x86)/microchip/mplabc32/v2.02/bin/../lib/gcc/pic32mx/4.5.1/../../../../pic32mx/lib\libc.a(strrchr.o)
                              obj-tmp\Assert.o (strrchr)
c:/program files (x86)/microchip/mplabc32/v2.02/bin/../lib/gcc/pic32mx/4.5.1/../../../../pic32mx/lib\libc.a(printf_cdnopsuxX.eo)
                              obj-tmp\Assert.o (_printf_cdnopsuxX)
c:/program files (x86)/microchip/mplabc32/v2.02/bin/../lib/gcc/pic32mx/4.5.1/../../../../pic32mx/lib\libc.a(printf_cdnopuxX.eo)
                              obj-tmp\Main.o (_printf_cdnopuxX)
c:/program files (x86)/microchip/mplabc32/v2.02/bin/../lib/gcc/pic32mx/4.5.1/../../../../pic32mx/lib\libc.a(printf_s.eo)
                              obj-tmp\CustomHTTPApp.o (_printf_s)
c:/program files (x86)/microchip/mplabc32/v2.02/bin/../lib/gcc/pic32mx/4.5.1/../../../../pic32mx/lib\libc.a(sprintf_cdnopsuxX.eo)
                              obj-tmp\WF_Config.o (_sprintf_cdnopsuxX)
c:/program files (x86)/microchip/mplabc32/v2.02/bin/../lib/gcc/pic32mx/4.5.1/../../../../pic32mx/lib\libc.a(sprintf_cdnopuxX.eo)
                              obj-tmp\CustomHTTPApp.o (_sprintf_cdnopuxX)
c:/program files (x86)/microchip/mplabc32/v2.02/bin/../lib/gcc/pic32mx/4.5.1/../../../../pic32mx/lib\libc.a(sscanf_cdnopuxX.eo)
                              obj-tmp\ADE7753.o (_sscanf_cdnopuxX)
c:/program files (x86)/microchip/mplabc32/v2.02/bin/../lib/gcc/pic32mx/4.5.1/../../../../pic32mx/lib\libc.a(default-bootstrap-exception-handler.o)
                              c:/program files (x86)/microchip/mplabc32/v2.02/bin/../lib/gcc/pic32mx/4.5.1/../../../../pic32mx/lib/crt0.o (_bootstrap_exception_handler)
c:/program files (x86)/microchip/mplabc32/v2.02/bin/../lib/gcc/pic32mx/4.5.1/../../../../pic32mx/lib\libc.a(default-on-reset.o)
                              c:/program files (x86)/microchip/mplabc32/v2.02/bin/../lib/gcc/pic32mx/4.5.1/../../../../pic32mx/lib/crt0.o (_on_reset)
c:/program files (x86)/microchip/mplabc32/v2.02/bin/../lib/gcc/pic32mx/4.5.1/../../../../pic32mx/lib\libc.a(default-on-bootstrap.o)
                              c:/program files (x86)/microchip/mplabc32/v2.02/bin/../lib/gcc/pic32mx/4.5.1/../../../../pic32mx/lib/crt0.o (_on_bootstrap)
c:/program files (x86)/microchip/mplabc32/v2.02/bin/../lib/gcc/pic32mx/4.5.1/../../../../pic32mx/lib\libc.a(default-nmi-handler.o)
                              c:/program files (x86)/microchip/mplabc32/v2.02/bin/../lib/gcc/pic32mx/4.5.1/../../../../pic32mx/lib/crt0.o (_nmi_handler)
c:/program files (x86)/microchip/mplabc32/v2.02/bin/../lib/gcc/pic32mx/4.5.1/../../../../pic32mx/lib\libc.a(_iob.o)
                              c:/program files (x86)/microchip/mplabc32/v2.02/bin/../lib/gcc/pic32mx/4.5.1/../../../../pic32mx/lib\libc.a(puts.o) (_iob)
c:/program files (x86)/microchip/mplabc32/v2.02/bin/../lib/gcc/pic32mx/4.5.1/../../../../pic32mx/lib\libc.a(_fputc_simple.o)
                              c:/program files (x86)/microchip/mplabc32/v2.02/bin/../lib/gcc/pic32mx/4.5.1/../../../../pic32mx/lib\libc.a(puts.o) (fputc)
c:/program files (x86)/microchip/mplabc32/v2.02/bin/../lib/gcc/pic32mx/4.5.1/../../../../pic32mx/lib\libc.a(doprnt_cdnopsuxX.eo)
                              c:/program files (x86)/microchip/mplabc32/v2.02/bin/../lib/gcc/pic32mx/4.5.1/../../../../pic32mx/lib\libc.a(printf_cdnopsuxX.eo) (_vfprintf_cdnopsuxX)
c:/program files (x86)/microchip/mplabc32/v2.02/bin/../lib/gcc/pic32mx/4.5.1/../../../../pic32mx/lib\libc.a(doprnt_cdnopuxX.eo)
                              c:/program files (x86)/microchip/mplabc32/v2.02/bin/../lib/gcc/pic32mx/4.5.1/../../../../pic32mx/lib\libc.a(printf_cdnopuxX.eo) (_vfprintf_cdnopuxX)
c:/program files (x86)/microchip/mplabc32/v2.02/bin/../lib/gcc/pic32mx/4.5.1/../../../../pic32mx/lib\libc.a(doprnt_s.eo)
                              c:/program files (x86)/microchip/mplabc32/v2.02/bin/../lib/gcc/pic32mx/4.5.1/../../../../pic32mx/lib\libc.a(printf_s.eo) (_vfprintf_s)
c:/program files (x86)/microchip/mplabc32/v2.02/bin/../lib/gcc/pic32mx/4.5.1/../../../../pic32mx/lib\libc.a(doscan_cdnopuxX.eo)
                              c:/program files (x86)/microchip/mplabc32/v2.02/bin/../lib/gcc/pic32mx/4.5.1/../../../../pic32mx/lib\libc.a(sscanf_cdnopuxX.eo) (_vfscanf_cdnopuxX)
c:/program files (x86)/microchip/mplabc32/v2.02/bin/../lib/gcc/pic32mx/4.5.1/../../../../pic32mx/lib\libc.a(write.o)
                              c:/program files (x86)/microchip/mplabc32/v2.02/bin/../lib/gcc/pic32mx/4.5.1/../../../../pic32mx/lib\libc.a(_fputc_simple.o) (write)
c:/program files (x86)/microchip/mplabc32/v2.02/bin/../lib/gcc/pic32mx/4.5.1/../../../../pic32mx/lib\libc.a(_flsbuf_simple.o)
                              c:/program files (x86)/microchip/mplabc32/v2.02/bin/../lib/gcc/pic32mx/4.5.1/../../../../pic32mx/lib\libc.a(_fputc_simple.o) (_flsbuf)
c:/program files (x86)/microchip/mplabc32/v2.02/bin/../lib/gcc/pic32mx/4.5.1/../../../../pic32mx/lib\libc.a(fgetc.o)
                              c:/program files (x86)/microchip/mplabc32/v2.02/bin/../lib/gcc/pic32mx/4.5.1/../../../../pic32mx/lib\libc.a(doscan_cdnopuxX.eo) (fgetc)
c:/program files (x86)/microchip/mplabc32/v2.02/bin/../lib/gcc/pic32mx/4.5.1/../../../../pic32mx/lib\libc.a(atoi.o)
                              c:/program files (x86)/microchip/mplabc32/v2.02/bin/../lib/gcc/pic32mx/4.5.1/../../../../pic32mx/lib\libc.a(doscan_cdnopuxX.eo) (atoi)
c:/program files (x86)/microchip/mplabc32/v2.02/bin/../lib/gcc/pic32mx/4.5.1/../../../../pic32mx/lib\libc.a(ctypef.o)
                              c:/program files (x86)/microchip/mplabc32/v2.02/bin/../lib/gcc/pic32mx/4.5.1/../../../../pic32mx/lib\libc.a(doscan_cdnopuxX.eo) (tolower)
c:/program files (x86)/microchip/mplabc32/v2.02/bin/../lib/gcc/pic32mx/4.5.1/../../../../pic32mx/lib\libc.a(ungetc.o)
                              c:/program files (x86)/microchip/mplabc32/v2.02/bin/../lib/gcc/pic32mx/4.5.1/../../../../pic32mx/lib\libc.a(doscan_cdnopuxX.eo) (ungetc)
c:/program files (x86)/microchip/mplabc32/v2.02/bin/../lib/gcc/pic32mx/4.5.1/../../../../pic32mx/lib\libc.a(filbuf.o)
                              c:/program files (x86)/microchip/mplabc32/v2.02/bin/../lib/gcc/pic32mx/4.5.1/../../../../pic32mx/lib\libc.a(fgetc.o) (_filbuf)
c:/program files (x86)/microchip/mplabc32/v2.02/bin/../lib/gcc/pic32mx/4.5.1/../../../../pic32mx/lib\libc.a(fflush.o)
                              c:/program files (x86)/microchip/mplabc32/v2.02/bin/../lib/gcc/pic32mx/4.5.1/../../../../pic32mx/lib\libc.a(filbuf.o) (fflush)
c:/program files (x86)/microchip/mplabc32/v2.02/bin/../lib/gcc/pic32mx/4.5.1/../../../../pic32mx/lib\libc.a(read.o)
                              c:/program files (x86)/microchip/mplabc32/v2.02/bin/../lib/gcc/pic32mx/4.5.1/../../../../pic32mx/lib\libc.a(filbuf.o) (read)
c:/program files (x86)/microchip/mplabc32/v2.02/bin/../lib/gcc/pic32mx/4.5.1/../../../../pic32mx/lib\libc.a(c32_uart.o)
                              c:/program files (x86)/microchip/mplabc32/v2.02/bin/../lib/gcc/pic32mx/4.5.1/../../../../pic32mx/lib\libc.a(read.o) (__C32_UART)
c:/program files (x86)/microchip/mplabc32/v2.02/bin/../lib/gcc/pic32mx/4.5.1/../../../../pic32mx/lib\libmchp_peripheral_32MX575F256L.a(soft_reset_lib.o)
                              obj-tmp\Reboot.o (SoftReset)
c:/program files (x86)/microchip/mplabc32/v2.02/bin/../lib/gcc/pic32mx/4.5.1/../../../../pic32mx/lib\libmchp_peripheral_32MX575F256L.a(pcache.o)
                              obj-tmp\Main.o (CheKseg0CacheOn)
c:/program files (x86)/microchip/mplabc32/v2.02/bin/../lib/gcc/pic32mx/4.5.1/../../../../pic32mx/lib\libmchp_peripheral_32MX575F256L.a(int_disable_interrupts_lib.o)
                              obj-tmp\Main.o (INTDisableInterrupts)
c:/program files (x86)/microchip/mplabc32/v2.02/bin/../lib/gcc/pic32mx/4.5.1/../../../../pic32mx/lib\libmchp_peripheral_32MX575F256L.a(int_restore_interrupts_lib.o)
                              obj-tmp\Main.o (INTRestoreInterrupts)
c:/program files (x86)/microchip/mplabc32/v2.02/bin/../lib/gcc/pic32mx/4.5.1/../../../../pic32mx/lib\libmchp_peripheral_32MX575F256L.a(int_enable_mv_int_lib.o)
                              obj-tmp\Main.o (INTEnableSystemMultiVectoredInt)
c:/program files (x86)/microchip/mplabc32/v2.02/bin/../lib/gcc/pic32mx/4.5.1/../../../../pic32mx/lib\libmchp_peripheral_32MX575F256L.a(int_tbl_lib.o)
                              obj-tmp\INTiMain.o (INTClearFlag)
c:/program files (x86)/microchip/mplabc32/v2.02/bin/../lib/gcc/pic32mx/4.5.1/../../../../pic32mx/lib\libmchp_peripheral_32MX575F256L.a(spi_chn_getc_lib.o)
                              C:\Projects\Intwine\Aztec\Power.a(ADE7753.o) (SpiChnGetC)
c:/program files (x86)/microchip/mplabc32/v2.02/bin/../lib/gcc/pic32mx/4.5.1/../../../../pic32mx/lib\libmchp_peripheral_32MX575F256L.a(spi_chn_putc_lib.o)
                              C:\Projects\Intwine\Aztec\Power.a(ADE7753.o) (SpiChnPutC)
c:/program files (x86)/microchip/mplabc32/v2.02/bin/../lib/gcc/pic32mx/4.5.1/../../../../pic32mx/lib\libmchp_peripheral_32MX575F256L.a(spi_chn_change_mode_lib.o)
                              C:\Projects\Intwine\Aztec\Power.a(ADE7753.o) (SpiChnChangeMode)
c:/program files (x86)/microchip/mplabc32/v2.02/bin/../lib/gcc/pic32mx/4.5.1/../../../../pic32mx/lib\libmchp_peripheral_32MX575F256L.a(spi_io_tbl_libp.o)
                              c:/program files (x86)/microchip/mplabc32/v2.02/bin/../lib/gcc/pic32mx/4.5.1/../../../../pic32mx/lib\libmchp_peripheral_32MX575F256L.a(spi_chn_change_mode_lib.o) (_SpiIoTbl)
c:/program files (x86)/microchip/mplabc32/v2.02/bin/../lib/gcc/pic32mx/4.5.1/../../../../pic32mx/lib\libmchp_peripheral_32MX575F256L.a(spi_map_tbl_libp.o)
                              c:/program files (x86)/microchip/mplabc32/v2.02/bin/../lib/gcc/pic32mx/4.5.1/../../../../pic32mx/lib\libmchp_peripheral_32MX575F256L.a(spi_chn_getc_lib.o) (_SpiMapTbl)
c:/program files (x86)/microchip/mplabc32/v2.02/bin/../lib/gcc/pic32mx/4.5.1/../../../../pic32mx/lib\libmchp_peripheral_32MX575F256L.a(port_set_pins_digital_in_lib.o)
                              c:/program files (x86)/microchip/mplabc32/v2.02/bin/../lib/gcc/pic32mx/4.5.1/../../../../pic32mx/lib\libmchp_peripheral_32MX575F256L.a(spi_chn_change_mode_lib.o) (PORTSetPinsDigitalIn)
c:/program files (x86)/microchip/mplabc32/v2.02/bin/../lib/gcc/pic32mx/4.5.1/../../../../pic32mx/lib\libmchp_peripheral_32MX575F256L.a(port_set_pins_digital_out_lib.o)
                              c:/program files (x86)/microchip/mplabc32/v2.02/bin/../lib/gcc/pic32mx/4.5.1/../../../../pic32mx/lib\libmchp_peripheral_32MX575F256L.a(spi_chn_change_mode_lib.o) (PORTSetPinsDigitalOut)
c:/program files (x86)/microchip/mplabc32/v2.02/bin/../lib/gcc/pic32mx/4.5.1/../../../../pic32mx/lib\libmchp_peripheral_32MX575F256L.a(_ports_tbl_libp.o)
                              c:/program files (x86)/microchip/mplabc32/v2.02/bin/../lib/gcc/pic32mx/4.5.1/../../../../pic32mx/lib\libmchp_peripheral_32MX575F256L.a(port_set_pins_digital_in_lib.o) (PortRegTbl)
c:/program files (x86)/microchip/mplabc32/v2.02/bin/../lib/gcc/pic32mx/4.5.1/../../../../pic32mx/lib\libmchp_peripheral_32MX575F256L.a(uart_lib.o)
                              obj-tmp\UARTiMain.o (UARTEnable)
c:/program files (x86)/microchip/mplabc32/v2.02/bin/../lib/gcc/pic32mx/4.5.1/../../../../pic32mx/lib\libmchp_peripheral_32MX575F256L.a(puts_uartx_lib_legacy.o)
                              obj-tmp\Main.o (putsUART2)
c:/program files (x86)/microchip/mplabc32/v2.02/bin/../lib/gcc/pic32mx/4.5.1/../../../../pic32mx/lib\libmchp_peripheral_32MX575F256L.a(idle_i2c2_lib_legacy.o)
                              obj-tmp\i2c_master.o (IdleI2C2)
c:/program files (x86)/microchip/mplabc32/v2.02/bin/../lib/gcc/pic32mx/4.5.1/../../../../pic32mx/lib\libmchp_peripheral_32MX575F256L.a(I2CPrivate.o)
                              obj-tmp\i2c_master.o (i2cBase)
c:/program files (x86)/microchip/mplabc32/v2.02/bin/../lib/gcc/pic32mx/4.5.1/../../../../pic32mx/lib\libmchp_peripheral_32MX575F256L.a(I2CBusIsIdle.o)
                              obj-tmp\i2c_master.o (I2CBusIsIdle)
c:/program files (x86)/microchip/mplabc32/v2.02/bin/../lib/gcc/pic32mx/4.5.1/../../../../pic32mx/lib\libmchp_peripheral_32MX575F256L.a(I2CByteWasAcknowledged.o)
                              obj-tmp\i2c_master.o (I2CByteWasAcknowledged)
c:/program files (x86)/microchip/mplabc32/v2.02/bin/../lib/gcc/pic32mx/4.5.1/../../../../pic32mx/lib\libmchp_peripheral_32MX575F256L.a(I2CEnable.o)
                              obj-tmp\i2c_master.o (I2CEnable)
c:/program files (x86)/microchip/mplabc32/v2.02/bin/../lib/gcc/pic32mx/4.5.1/../../../../pic32mx/lib\libmchp_peripheral_32MX575F256L.a(I2CGetByte.o)
                              obj-tmp\i2c_master.o (I2CGetByte)
c:/program files (x86)/microchip/mplabc32/v2.02/bin/../lib/gcc/pic32mx/4.5.1/../../../../pic32mx/lib\libmchp_peripheral_32MX575F256L.a(I2CGetStatus.o)
                              obj-tmp\i2c_master.o (I2CGetStatus)
c:/program files (x86)/microchip/mplabc32/v2.02/bin/../lib/gcc/pic32mx/4.5.1/../../../../pic32mx/lib\libmchp_peripheral_32MX575F256L.a(I2CReceivedDataIsAvailable.o)
                              obj-tmp\i2c_master.o (I2CReceivedDataIsAvailable)
c:/program files (x86)/microchip/mplabc32/v2.02/bin/../lib/gcc/pic32mx/4.5.1/../../../../pic32mx/lib\libmchp_peripheral_32MX575F256L.a(I2CReceiverEnable.o)
                              obj-tmp\i2c_master.o (I2CReceiverEnable)
c:/program files (x86)/microchip/mplabc32/v2.02/bin/../lib/gcc/pic32mx/4.5.1/../../../../pic32mx/lib\libmchp_peripheral_32MX575F256L.a(I2CRepeatStart.o)
                              obj-tmp\i2c_master.o (I2CRepeatStart)
c:/program files (x86)/microchip/mplabc32/v2.02/bin/../lib/gcc/pic32mx/4.5.1/../../../../pic32mx/lib\libmchp_peripheral_32MX575F256L.a(I2CSetFrequency.o)
                              obj-tmp\i2c_master.o (I2CSetFrequency)
c:/program files (x86)/microchip/mplabc32/v2.02/bin/../lib/gcc/pic32mx/4.5.1/../../../../pic32mx/lib\libmchp_peripheral_32MX575F256L.a(I2CStart.o)
                              obj-tmp\i2c_master.o (I2CStart)
c:/program files (x86)/microchip/mplabc32/v2.02/bin/../lib/gcc/pic32mx/4.5.1/../../../../pic32mx/lib\libmchp_peripheral_32MX575F256L.a(I2CStop.o)
                              obj-tmp\i2c_master.o (I2CStop)
c:/program files (x86)/microchip/mplabc32/v2.02/bin/../lib/gcc/pic32mx/4.5.1/../../../../pic32mx/lib\libmchp_peripheral_32MX575F256L.a(I2CTransmissionHasCompleted.o)
                              obj-tmp\i2c_master.o (I2CTransmissionHasCompleted)
c:/program files (x86)/microchip/mplabc32/v2.02/bin/../lib/gcc/pic32mx/4.5.1/../../../../pic32mx/lib\libmchp_peripheral_32MX575F256L.a(I2CTransmitterIsReady.o)
                              obj-tmp\i2c_master.o (I2CTransmitterIsReady)
c:/program files (x86)/microchip/mplabc32/v2.02/bin/../lib/gcc/pic32mx/4.5.1/../../../../pic32mx/lib\libmchp_peripheral_32MX575F256L.a(int_enable_interrupts_lib.o)
                              c:/program files (x86)/microchip/mplabc32/v2.02/bin/../lib/gcc/pic32mx/4.5.1/../../../../pic32mx/lib\libmchp_peripheral_32MX575F256L.a(int_enable_mv_int_lib.o) (INTEnableInterrupts)

Allocating common symbols
Common symbol       size              file

RawWindowState      0x2               obj-tmp\WFDriverRaw_24G.o
activeUDPSocket     0x1               obj-tmp\UDP.o
curHTTP             0x8c              obj-tmp\HTTP2.o
lostlink_flag       0x4               obj-tmp\app_ICO_ICL.o
preScanResult       0xb54             obj-tmp\WFEasyConfig.o
UDPTxCount          0x2               obj-tmp\UDP.o
curHTTPID           0x1               obj-tmp\HTTP2.o
tmCallbackFunctionI
                    0x18              obj-tmp\TimeMonitor.o
g_ScanCtx           0x6               obj-tmp\WFEasyConfig.o
RawMoveState        0x8               obj-tmp\WFDriverCom_24G.o
WF_hibernate        0x2               obj-tmp\WFMac_24G.o
tmTickDownTimeI     0x18              obj-tmp\TimeMonitor.o
g_rxDtim            0x4               obj-tmp\WFPowerSave.o
flag                0x1               obj-tmp\Power.o
UDPSocketInfo       0xe0              obj-tmp\UDP.o
remoteNode          0xa               obj-tmp\StackTsk.o
UDPRxCount          0x2               obj-tmp\UDP.o
g_easyConfigCtx     0x94              obj-tmp\WFEasyConfig.o
httpStubs           0x10              obj-tmp\HTTP2.o
DhcpIpPool          0x78              obj-tmp\DHCPs.o
AppConfig           0x9a              obj-tmp\Main.o
g_rxBufferLength    0x2               obj-tmp\WFMac_24G.o

Microchip PIC32 Memory-Usage Report

kseg0 Program-Memory Usage
section                    address  length [bytes]      (dec)  Description
-------                 ----------  -------------------------  -----------
.rodata                 0x9d000008         0x7088       28808  Read-only const 
.text                   0x9d007090         0xe374       58228  App's exec code 
.rodata                 0x9d015404          0xef4        3828  Read-only const 
.text                   0x9d0162f8         0x33a0       13216  App's exec code 
.dinit                  0x9d019698          0xb80        2944   
.text._vfprintf_cdnopsu 0x9d01a218          0xae4        2788   
.text                   0x9d01acfc         0x449c       17564  App's exec code 
.rodata                 0x9d01f198          0x7d4        2004  Read-only const 
.text._vfscanf_cdnopuxX 0x9d01f96c          0x778        1912   
.text                   0x9d0200e4         0x30a4       12452  App's exec code 
.rodata                 0x9d023188          0x520        1312  Read-only const 
.text                   0x9d0236a8         0x1a80        6784  App's exec code 
.rodata                 0x9d025128          0x400        1024  Read-only const 
.text                   0x9d025528          0x3f4        1012  App's exec code 
.rodata                 0x9d02591c          0x3b8         952  Read-only const 
.text                   0x9d025cd4         0x2240        8768  App's exec code 
.rodata                 0x9d027f14          0x1bc         444  Read-only const 
.text                   0x9d0280d0          0x348         840  App's exec code 
.text.SpiChnChangeMode  0x9d028418          0x18c         396   
.text                   0x9d0285a4          0x2d0         720  App's exec code 
.text._filbuf           0x9d028874          0x168         360   
.text                   0x9d0289dc          0x530        1328  App's exec code 
.text.fputc             0x9d028f0c          0x140         320   
.text.read              0x9d02904c          0x140         320   
.text._flsbuf           0x9d02918c          0x12c         300   
.text                   0x9d0292b8          0x230         560  App's exec code 
.rodata                 0x9d0294e8          0x10c         268  Read-only const 
.text.fgetc             0x9d0295f4          0x108         264   
.rodata                 0x9d0296fc          0x104         260  Read-only const 
.text                   0x9d029800          0x2dc         732  App's exec code 
.rodata                 0x9d029adc           0xe8         232  Read-only const 
.text                   0x9d029bc4          0x280         640  App's exec code 
.text.general_exception 0x9d029e44           0xd0         208   
.rodata                 0x9d029f14            0x4           4  Read-only const 
.rodata                 0x9d029f18          0x198         408  Read-only const 
.text                   0x9d02a0b0           0xb4         180  App's exec code 
.rodata                 0x9d02a164           0xb0         176  Read-only const 
.text                   0x9d02a214           0xa8         168  App's exec code 
.text.atol              0x9d02a2bc           0xa4         164   
.text.atoi              0x9d02a360           0xa4         164   
.rodata                 0x9d02a404           0xa0         160  Read-only const 
.text                   0x9d02a4a4          0x130         304  App's exec code 
.rodata                 0x9d02a5d4           0x98         152  Read-only const 
.text                   0x9d02a66c          0x12c         300  App's exec code 
.text.fflush            0x9d02a798           0x94         148   
.rodata                 0x9d02a82c           0x90         144  Read-only const 
.text                   0x9d02a8bc           0x88         136  App's exec code 
.text.write             0x9d02a944           0x88         136   
.text.range             0x9d02a9cc           0x84         132   
.text.UARTEnable        0x9d02aa50           0x80         128   
.text.ungetc            0x9d02aad0           0x7c         124   
.text.fputs             0x9d02ab4c           0x78         120   
.text.SoftReset         0x9d02abc4           0x78         120   
.text.IdleI2C2          0x9d02ac3c           0x74         116   
.text                   0x9d02acb0           0x68         104  App's exec code 
.text._sprintf_cdnopsux 0x9d02ad18           0x68         104   
.text.strncpy           0x9d02ad80           0x64         100   
.text.wspace            0x9d02ade4           0x60          96   
.text.SpiChnGetC        0x9d02ae44           0x60          96   
.text.SpiChnPutC        0x9d02aea4           0x60          96   
.text._sscanf_cdnopuxX  0x9d02af04           0x5c          92   
.text.UARTSetDataRate   0x9d02af60           0x5c          92   
.text.INTEnable         0x9d02afbc           0x58          88   
.rodata                 0x9d02b014           0xa8         168  Read-only const 
.text.I2CBusIsIdle      0x9d02b0bc           0x54          84   
.rodata                 0x9d02b110           0x4c          76  Read-only const 
.text.strrchr           0x9d02b15c           0x4c          76   
.text.putsUART1         0x9d02b1a8           0x4c          76   
.text.putsUART2         0x9d02b1f4           0x4c          76   
.text.I2CSetFrequency   0x9d02b240           0x48          72   
.text.puts              0x9d02b288           0x44          68   
.text.I2CGetStatus      0x9d02b2cc           0x44          68   
.text._printf_cdnopsuxX 0x9d02b310           0x40          64   
.text.PORTSetPinsDigita 0x9d02b350           0x40          64   
.text.PORTSetPinsDigita 0x9d02b390           0x40          64   
.text.UARTGetDataRate   0x9d02b3d0           0x40          64   
.rodata                 0x9d02b410           0x3c          60  Read-only const 
.text.INTSetVectorPrior 0x9d02b44c           0x3c          60   
.text.INTSetVectorSubPr 0x9d02b488           0x3c          60   
.text._SpiWaitBusy.clon 0x9d02b4c4           0x3c          60   
.text.UARTConfigure     0x9d02b500           0x3c          60   
.text.UARTSetAddress    0x9d02b53c           0x3c          60   
.text.strcat            0x9d02b578           0x38          56   
.text.UARTWatchForAddre 0x9d02b5b0           0x38          56   
.text.I2CReceiverEnable 0x9d02b5e8           0x38          56   
.text.INTEnableSystemMu 0x9d02b620           0x34          52   
.text.I2CStart          0x9d02b654           0x34          52   
.rodata                 0x9d02b688           0x30          48  Read-only const 
.text.INTGetVectorPrior 0x9d02b6b8           0x30          48   
.text.INTGetVectorSubPr 0x9d02b6e8           0x30          48   
.text.I2CRepeatStart    0x9d02b718           0x30          48   
.text.INTClearFlag      0x9d02b748           0x2c          44   
.text.INTSetFlag        0x9d02b774           0x2c          44   
.text.INTGetFlag        0x9d02b7a0           0x2c          44   
.text.INTGetEnable      0x9d02b7cc           0x2c          44   
.text.UARTSetFifoMode   0x9d02b7f8           0x28          40   
.text.UARTSetLineContro 0x9d02b820           0x28          40   
.text.I2CEnable         0x9d02b848           0x28          40   
.text.tolower           0x9d02b870           0x24          36   
.text.toupper           0x9d02b894           0x24          36   
.text.I2CByteWasAcknowl 0x9d02b8b8           0x24          36   
.text.I2CStop           0x9d02b8dc           0x24          36   
.text.I2CTransmissionHa 0x9d02b900           0x24          36   
.text.I2CTransmitterIsR 0x9d02b924           0x24          36   
.rodata                 0x9d02b948           0x40          64  Read-only const 
.text.SpiChnReadC       0x9d02b988           0x20          32   
.text.SpiChnWriteC      0x9d02b9a8           0x20          32   
.text.I2CGetByte        0x9d02b9c8           0x20          32   
.text.I2CReceivedDataIs 0x9d02b9e8           0x20          32   
.rodata                 0x9d02ba08           0x38          56  Read-only const 
.text.INTRestoreInterru 0x9d02ba40           0x1c          28   
.text.SpiChnBuffer      0x9d02ba5c           0x1c          28   
.rodata                 0x9d02ba78           0x18          24  Read-only const 
.text                   0x9d02ba90           0x18          24  App's exec code 
.text.isalnum           0x9d02baa8           0x18          24   
.text.isalpha           0x9d02bac0           0x18          24   
.text.iscntrl           0x9d02bad8           0x18          24   
.text.isdigit           0x9d02baf0           0x18          24   
.text.isgraph           0x9d02bb08           0x18          24   
.text.islower           0x9d02bb20           0x18          24   
.text.isprint           0x9d02bb38           0x18          24   
.text.ispunct           0x9d02bb50           0x18          24   
.text.isspace           0x9d02bb68           0x18          24   
.text.isupper           0x9d02bb80           0x18          24   
.text.isxdigit          0x9d02bb98           0x18          24   
.text.CheKseg0CacheOff  0x9d02bbb0           0x18          24   
.text.CheKseg0CacheOn   0x9d02bbc8           0x18          24   
.rodata                 0x9d02bbe0           0x54          84  Read-only const 
.text                   0x9d02bc34           0x10          16  App's exec code 
.rodata                 0x9d02bc44           0x10          16  Read-only const 
.text._bootstrap_except 0x9d02bc54            0xc          12   
.rodata                 0x9d02bc60           0x20          32  Read-only const 
.text._on_reset         0x9d02bc80            0x8           8   
.text._on_bootstrap     0x9d02bc88            0x8           8   
.text.isascii           0x9d02bc90            0x8           8   
.text.toascii           0x9d02bc98            0x8           8   
.text._tolower          0x9d02bca0            0x8           8   
.text._toupper          0x9d02bca8            0x8           8   
.text.INTDisableInterru 0x9d02bcb0            0x8           8   
.text.INTEnableInterrup 0x9d02bcb8            0x8           8   
.rodata                 0x9d02bcc0            0x1           1  Read-only const 
      Total kseg0_program_mem used  :     0x2bcb9      179385  68.4% of 0x40000

kseg0 Boot-Memory Usage
section                    address  length [bytes]      (dec)  Description
-------                 ----------  -------------------------  -----------
         Total kseg0_boot_mem used  :           0           0  <1% of 0x970

Exception-Memory Usage 
section                    address  length [bytes]      (dec)  Description
-------                 ----------  -------------------------  -----------
.app_excpt              0x9fc01180           0x10          16  General-Exception 
.vector_4               0x9fc01280            0x8           8  Interrupt Vector 4 
.vector_15              0x9fc013e0            0x8           8  Interrupt Vector 15 
.vector_24              0x9fc01500            0x8           8  Interrupt Vector 24 
.vector_32              0x9fc01600            0x8           8  Interrupt Vector 32 
.vector_51              0x9fc01860            0x8           8  Interrupt Vector 51 
          Total exception_mem used  :        0x38          56  1.4% of 0x1000

kseg1 Boot-Memory Usage
section                    address  length [bytes]      (dec)  Description
-------                 ----------  -------------------------  -----------
.reset                  0xbfc00000          0x1f4         500  Reset handler 
.bev_excpt              0xbfc00380           0x10          16  BEV-Exception 
         Total kseg1_boot_mem used  :       0x204         516  44.2% of 0x490
        --------------------------------------------------------------------------
         Total Program Memory used  :     0x2bef5      179957  66.7% of 0x41e00
        --------------------------------------------------------------------------


kseg1 Data-Memory Usage
section                    address  length [bytes]      (dec)  Description
-------                 ----------  -------------------------  -----------
.eh_frame               0xa0000200           0x3c          60   
.sdata                  0xa000023c           0x70         112  Small init data 
.sbss                   0xa00002ac          0x239         569  Small uninit data 
.bss                    0xa00004e8          0xeb4        3764  Uninitialized data 
.pbss                   0xa00004fe            0x2           2   
.bss                    0xa00013b4          0x360         864  Uninitialized data 
.data                   0xa0001714          0x3a8         936  Initialized data 
.bss                    0xa0001abc          0x104         260  Uninitialized data 
.data                   0xa0001bc0          0x120         288  Initialized data 
.bss                    0xa0001ce0           0xf0         240  Uninitialized data 
.bss.eeprom_data_temp   0xa0001dd0           0x50          80   
.bss                    0xa0001e20          0x124         292  Uninitialized data 
.pbss                   0xa0001f44            0x4           4   
.bss                    0xa0001f48            0x4           4  Uninitialized data 
.pbss                   0xa0001f4c            0x2           2   
         Total kseg1_data_mem used  :      0x1d35        7477  11.4% of 0x10000
        --------------------------------------------------------------------------
            Total Data Memory used  :      0x1d35        7477  11.4% of 0x10000
        --------------------------------------------------------------------------


Dynamic Data-Memory Reservation
section                    address  length [bytes]      (dec)  Description
-------                 ----------  -------------------------  -----------
heap                    0xa0001f50              0           0  Reserved for heap 
stack                   0xa0001f68         0xe088       57480  Reserved for stack 

        --------------------------------------------------------------------------

Discarded input sections

 .reginfo       0x00000000       0x18 c:/program files (x86)/microchip/mplabc32/v2.02/bin/../lib/gcc/pic32mx/4.5.1/../../../../pic32mx/lib/crt0.o
 .pdr           0x00000000       0xa0 c:/program files (x86)/microchip/mplabc32/v2.02/bin/../lib/gcc/pic32mx/4.5.1/../../../../pic32mx/lib/crt0.o
 .reginfo       0x00000000       0x18 obj-tmp\Main.o
 .pdr           0x00000000       0xc0 obj-tmp\Main.o
 .reginfo       0x00000000       0x18 obj-tmp\CustomHTTPApp.o
 .pdr           0x00000000      0x2a0 obj-tmp\CustomHTTPApp.o
 .reginfo       0x00000000       0x18 obj-tmp\WF_Config.o
 .pdr           0x00000000       0x40 obj-tmp\WF_Config.o
 .reginfo       0x00000000       0x18 obj-tmp\WifiGDemoMPFSImg.o
 .pdr           0x00000000        0x0 obj-tmp\WifiGDemoMPFSImg.o
 .reginfo       0x00000000       0x18 obj-tmp\Announce.o
 .pdr           0x00000000       0x40 obj-tmp\Announce.o
 .reginfo       0x00000000       0x18 obj-tmp\ARCFOUR.o
 .pdr           0x00000000        0x0 obj-tmp\ARCFOUR.o
 .reginfo       0x00000000       0x18 obj-tmp\ARP.o
 .pdr           0x00000000      0x140 obj-tmp\ARP.o
 .reginfo       0x00000000       0x18 obj-tmp\AutoIP.o
 .pdr           0x00000000        0x0 obj-tmp\AutoIP.o
 .reginfo       0x00000000       0x18 obj-tmp\BerkeleyAPI.o
 .pdr           0x00000000        0x0 obj-tmp\BerkeleyAPI.o
 .reginfo       0x00000000       0x18 obj-tmp\BigInt.o
 .pdr           0x00000000        0x0 obj-tmp\BigInt.o
 .reginfo       0x00000000       0x18 obj-tmp\BigInt_helper_PIC32.o
 .pdr           0x00000000        0x0 obj-tmp\BigInt_helper_PIC32.o
 .reginfo       0x00000000       0x18 obj-tmp\Delay.o
 .pdr           0x00000000       0x40 obj-tmp\Delay.o
 .reginfo       0x00000000       0x18 obj-tmp\DNS.o
 .pdr           0x00000000       0xc0 obj-tmp\DNS.o
 .reginfo       0x00000000       0x18 obj-tmp\DNSs.o
 .pdr           0x00000000       0x20 obj-tmp\DNSs.o
 .reginfo       0x00000000       0x18 obj-tmp\DynDNS.o
 .pdr           0x00000000        0x0 obj-tmp\DynDNS.o
 .reginfo       0x00000000       0x18 obj-tmp\FileSystem.o
 .pdr           0x00000000        0x0 obj-tmp\FileSystem.o
 .reginfo       0x00000000       0x18 obj-tmp\FTP.o
 .pdr           0x00000000        0x0 obj-tmp\FTP.o
 .reginfo       0x00000000       0x18 obj-tmp\Hashes.o
 .pdr           0x00000000        0x0 obj-tmp\Hashes.o
 .reginfo       0x00000000       0x18 obj-tmp\Helpers.o
 .pdr           0x00000000      0x200 obj-tmp\Helpers.o
 .reginfo       0x00000000       0x18 obj-tmp\HTTP2.o
 .pdr           0x00000000      0x160 obj-tmp\HTTP2.o
 .reginfo       0x00000000       0x18 obj-tmp\ICMP.o
 .pdr           0x00000000       0x20 obj-tmp\ICMP.o
 .reginfo       0x00000000       0x18 obj-tmp\IP.o
 .pdr           0x00000000       0x80 obj-tmp\IP.o
 .reginfo       0x00000000       0x18 obj-tmp\LCDBlocking.o
 .pdr           0x00000000        0x0 obj-tmp\LCDBlocking.o
 .reginfo       0x00000000       0x18 obj-tmp\MPFS2.o
 .pdr           0x00000000      0x260 obj-tmp\MPFS2.o
 .reginfo       0x00000000       0x18 obj-tmp\NBNS.o
 .pdr           0x00000000       0x20 obj-tmp\NBNS.o
 .reginfo       0x00000000       0x18 obj-tmp\Random.o
 .pdr           0x00000000        0x0 obj-tmp\Random.o
 .reginfo       0x00000000       0x18 obj-tmp\Reboot.o
 .pdr           0x00000000       0x20 obj-tmp\Reboot.o
 .reginfo       0x00000000       0x18 obj-tmp\RSA.o
 .pdr           0x00000000        0x0 obj-tmp\RSA.o
 .reginfo       0x00000000       0x18 obj-tmp\SMTP.o
 .pdr           0x00000000        0x0 obj-tmp\SMTP.o
 .reginfo       0x00000000       0x18 obj-tmp\SNMP.o
 .pdr           0x00000000        0x0 obj-tmp\SNMP.o
 .reginfo       0x00000000       0x18 obj-tmp\SNMPv3.o
 .pdr           0x00000000        0x0 obj-tmp\SNMPv3.o
 .reginfo       0x00000000       0x18 obj-tmp\SNMPv3USM.o
 .pdr           0x00000000        0x0 obj-tmp\SNMPv3USM.o
 .reginfo       0x00000000       0x18 obj-tmp\SNTP.o
 .pdr           0x00000000        0x0 obj-tmp\SNTP.o
 .reginfo       0x00000000       0x18 obj-tmp\SPIEEPROM.o
 .pdr           0x00000000        0x0 obj-tmp\SPIEEPROM.o
 .reginfo       0x00000000       0x18 obj-tmp\SPIFlash.o
 .pdr           0x00000000      0x100 obj-tmp\SPIFlash.o
 .reginfo       0x00000000       0x18 obj-tmp\SPIRAM.o
 .pdr           0x00000000        0x0 obj-tmp\SPIRAM.o
 .reginfo       0x00000000       0x18 obj-tmp\SSL.o
 .pdr           0x00000000        0x0 obj-tmp\SSL.o
 .reginfo       0x00000000       0x18 obj-tmp\StackTsk.o
 .pdr           0x00000000       0x80 obj-tmp\StackTsk.o
 .reginfo       0x00000000       0x18 obj-tmp\TCP.o
 .pdr           0x00000000      0x3e0 obj-tmp\TCP.o
 .reginfo       0x00000000       0x18 obj-tmp\TCPPerformanceTest.o
 .pdr           0x00000000        0x0 obj-tmp\TCPPerformanceTest.o
 .reginfo       0x00000000       0x18 obj-tmp\Telnet.o
 .pdr           0x00000000        0x0 obj-tmp\Telnet.o
 .reginfo       0x00000000       0x18 obj-tmp\TFTPc.o
 .pdr           0x00000000        0x0 obj-tmp\TFTPc.o
 .reginfo       0x00000000       0x18 obj-tmp\Tick.o
 .pdr           0x00000000      0x100 obj-tmp\Tick.o
 .reginfo       0x00000000       0x18 obj-tmp\UART.o
 .pdr           0x00000000       0x20 obj-tmp\UART.o
 .reginfo       0x00000000       0x18 obj-tmp\UART2TCPBridge.o
 .pdr           0x00000000        0x0 obj-tmp\UART2TCPBridge.o
 .reginfo       0x00000000       0x18 obj-tmp\UDP.o
 .pdr           0x00000000      0x220 obj-tmp\UDP.o
 .reginfo       0x00000000       0x18 obj-tmp\UDPPerformanceTest.o
 .pdr           0x00000000        0x0 obj-tmp\UDPPerformanceTest.o
 .reginfo       0x00000000       0x18 obj-tmp\ZeroconfHelper.o
 .pdr           0x00000000       0x20 obj-tmp\ZeroconfHelper.o
 .reginfo       0x00000000       0x18 obj-tmp\ZeroconfLinkLocal.o
 .pdr           0x00000000       0xe0 obj-tmp\ZeroconfLinkLocal.o
 .reginfo       0x00000000       0x18 obj-tmp\ZeroconfMulticastDNS.o
 .pdr           0x00000000      0x280 obj-tmp\ZeroconfMulticastDNS.o
 .reginfo       0x00000000       0x18 obj-tmp\WF_Eint.o
 .pdr           0x00000000       0xe0 obj-tmp\WF_Eint.o
 .reginfo       0x00000000       0x18 obj-tmp\WF_pbkdf2.o
 .pdr           0x00000000      0x120 obj-tmp\WF_pbkdf2.o
 .reginfo       0x00000000       0x18 obj-tmp\WFConnectionAlgorithm.o
 .pdr           0x00000000      0x500 obj-tmp\WFConnectionAlgorithm.o
 .reginfo       0x00000000       0x18 obj-tmp\WFConnectionManager.o
 .pdr           0x00000000      0x100 obj-tmp\WFConnectionManager.o
 .reginfo       0x00000000       0x18 obj-tmp\WFConnectionProfile.o
 .pdr           0x00000000      0x320 obj-tmp\WFConnectionProfile.o
 .reginfo       0x00000000       0x18 obj-tmp\WFConsole.o
 .pdr           0x00000000        0x0 obj-tmp\WFConsole.o
 .reginfo       0x00000000       0x18 obj-tmp\WFConsoleIfconfig.o
 .pdr           0x00000000        0x0 obj-tmp\WFConsoleIfconfig.o
 .reginfo       0x00000000       0x18 obj-tmp\WFConsoleIwconfig.o
 .pdr           0x00000000        0x0 obj-tmp\WFConsoleIwconfig.o
 .reginfo       0x00000000       0x18 obj-tmp\WFConsoleIwpriv.o
 .pdr           0x00000000        0x0 obj-tmp\WFConsoleIwpriv.o
 .reginfo       0x00000000       0x18 obj-tmp\WFConsoleMsgHandler.o
 .pdr           0x00000000       0x20 obj-tmp\WFConsoleMsgHandler.o
 .reginfo       0x00000000       0x18 obj-tmp\WFConsoleMsgs.o
 .pdr           0x00000000       0x40 obj-tmp\WFConsoleMsgs.o
 .reginfo       0x00000000       0x18 obj-tmp\WFDataTxRx.o
 .pdr           0x00000000        0x0 obj-tmp\WFDataTxRx.o
 .reginfo       0x00000000       0x18 obj-tmp\WFDebugStrings.o
 .pdr           0x00000000       0xc0 obj-tmp\WFDebugStrings.o
 .reginfo       0x00000000       0x18 obj-tmp\WFEasyConfig.o
 .pdr           0x00000000       0xe0 obj-tmp\WFEasyConfig.o
 .reginfo       0x00000000       0x18 obj-tmp\WFEventHandler.o
 .pdr           0x00000000       0x40 obj-tmp\WFEventHandler.o
 .reginfo       0x00000000       0x18 obj-tmp\WFInit.o
 .pdr           0x00000000       0x20 obj-tmp\WFInit.o
 .reginfo       0x00000000       0x18 obj-tmp\WFPowerSave.o
 .pdr           0x00000000      0x1e0 obj-tmp\WFPowerSave.o
 .reginfo       0x00000000       0x18 obj-tmp\WFScan.o
 .pdr           0x00000000       0x40 obj-tmp\WFScan.o
 .reginfo       0x00000000       0x18 obj-tmp\WFTxPower.o
 .pdr           0x00000000       0x60 obj-tmp\WFTxPower.o
 .reginfo       0x00000000       0x18 obj-tmp\WF_Spi.o
 .pdr           0x00000000       0x80 obj-tmp\WF_Spi.o
 .reginfo       0x00000000       0x18 obj-tmp\WFDriverCom_24G.o
 .pdr           0x00000000      0x220 obj-tmp\WFDriverCom_24G.o
 .reginfo       0x00000000       0x18 obj-tmp\WFDriverRaw_24G.o
 .pdr           0x00000000      0x280 obj-tmp\WFDriverRaw_24G.o
 .reginfo       0x00000000       0x18 obj-tmp\WFMac_24G.o
 .pdr           0x00000000      0x3a0 obj-tmp\WFMac_24G.o
 .reginfo       0x00000000       0x18 obj-tmp\WFMgmtMsg_24G.o
 .pdr           0x00000000       0xa0 obj-tmp\WFMgmtMsg_24G.o
 .reginfo       0x00000000       0x18 obj-tmp\WFParamMsg_24G.o
 .pdr           0x00000000      0x300 obj-tmp\WFParamMsg_24G.o
 .reginfo       0x00000000       0x18 obj-tmp\DHCP.o
 .pdr           0x00000000      0x160 obj-tmp\DHCP.o
 .reginfo       0x00000000       0x18 obj-tmp\DHCPs.o
 .pdr           0x00000000      0x100 obj-tmp\DHCPs.o
 .reginfo       0x00000000       0x18 obj-tmp\i2c_master.o
 .pdr           0x00000000       0xe0 obj-tmp\i2c_master.o
 .reginfo       0x00000000       0x18 obj-tmp\INTiMain.o
 .pdr           0x00000000      0x160 obj-tmp\INTiMain.o
 .reginfo       0x00000000       0x18 obj-tmp\UARTiMain.o
 .pdr           0x00000000       0x40 obj-tmp\UARTiMain.o
 .reginfo       0x00000000       0x18 obj-tmp\Assert.o
 .pdr           0x00000000       0x40 obj-tmp\Assert.o
 .reginfo       0x00000000       0x18 obj-tmp\Device_ICO_ICL.o
 .pdr           0x00000000       0x60 obj-tmp\Device_ICO_ICL.o
 .reginfo       0x00000000       0x18 obj-tmp\DeviceState.o
 .pdr           0x00000000       0x60 obj-tmp\DeviceState.o
 .reginfo       0x00000000       0x18 obj-tmp\app_ICO_ICL.o
 .pdr           0x00000000       0x40 obj-tmp\app_ICO_ICL.o
 .reginfo       0x00000000       0x18 obj-tmp\TimeMonitor.o
 .pdr           0x00000000       0xe0 obj-tmp\TimeMonitor.o
 .reginfo       0x00000000       0x18 obj-tmp\icoPowerMeasurement.o
 .pdr           0x00000000       0xa0 obj-tmp\icoPowerMeasurement.o
 .reginfo       0x00000000       0x18 obj-tmp\icoUserButton.o
 .pdr           0x00000000       0x40 obj-tmp\icoUserButton.o
 .reginfo       0x00000000       0x18 obj-tmp\ADE7753.o
 .pdr           0x00000000      0x100 obj-tmp\ADE7753.o
 .reginfo       0x00000000       0x18 obj-tmp\spi.o
 .pdr           0x00000000       0xc0 obj-tmp\spi.o
 .reginfo       0x00000000       0x18 obj-tmp\Power.o
 .pdr           0x00000000       0xa0 obj-tmp\Power.o
 .reginfo       0x00000000       0x18 C:\Projects\Intwine\Aztec\Power.a(ADE7753.o)
 .pdr           0x00000000      0x200 C:\Projects\Intwine\Aztec\Power.a(ADE7753.o)
 .reginfo       0x00000000       0x18 c:/program files (x86)/microchip/mplabc32/v2.02/bin/../lib/gcc/pic32mx/4.5.1\libgcc.a(_udivdi3.o)
 .pdr           0x00000000       0x20 c:/program files (x86)/microchip/mplabc32/v2.02/bin/../lib/gcc/pic32mx/4.5.1\libgcc.a(_udivdi3.o)
 .reginfo       0x00000000       0x18 c:/program files (x86)/microchip/mplabc32/v2.02/bin/../lib/gcc/pic32mx/4.5.1\libgcc.a(_umoddi3.o)
 .pdr           0x00000000       0x20 c:/program files (x86)/microchip/mplabc32/v2.02/bin/../lib/gcc/pic32mx/4.5.1\libgcc.a(_umoddi3.o)
 .reginfo       0x00000000       0x18 c:/program files (x86)/microchip/mplabc32/v2.02/bin/../lib/gcc/pic32mx/4.5.1/../../../../pic32mx/lib\libc.a(memcmp.o)
 .pdr           0x00000000       0x20 c:/program files (x86)/microchip/mplabc32/v2.02/bin/../lib/gcc/pic32mx/4.5.1/../../../../pic32mx/lib\libc.a(memcmp.o)
 .reginfo       0x00000000       0x18 c:/program files (x86)/microchip/mplabc32/v2.02/bin/../lib/gcc/pic32mx/4.5.1/../../../../pic32mx/lib\libc.a(memcpy.o)
 .pdr           0x00000000       0x20 c:/program files (x86)/microchip/mplabc32/v2.02/bin/../lib/gcc/pic32mx/4.5.1/../../../../pic32mx/lib\libc.a(memcpy.o)
 .reginfo       0x00000000       0x18 c:/program files (x86)/microchip/mplabc32/v2.02/bin/../lib/gcc/pic32mx/4.5.1/../../../../pic32mx/lib\libc.a(memset.o)
 .pdr           0x00000000       0x20 c:/program files (x86)/microchip/mplabc32/v2.02/bin/../lib/gcc/pic32mx/4.5.1/../../../../pic32mx/lib\libc.a(memset.o)
 .reginfo       0x00000000       0x18 c:/program files (x86)/microchip/mplabc32/v2.02/bin/../lib/gcc/pic32mx/4.5.1/../../../../pic32mx/lib\libc.a(strcmp.o)
 .pdr           0x00000000       0x20 c:/program files (x86)/microchip/mplabc32/v2.02/bin/../lib/gcc/pic32mx/4.5.1/../../../../pic32mx/lib\libc.a(strcmp.o)
 .reginfo       0x00000000       0x18 c:/program files (x86)/microchip/mplabc32/v2.02/bin/../lib/gcc/pic32mx/4.5.1/../../../../pic32mx/lib\libc.a(strcpy.o)
 .pdr           0x00000000       0x20 c:/program files (x86)/microchip/mplabc32/v2.02/bin/../lib/gcc/pic32mx/4.5.1/../../../../pic32mx/lib\libc.a(strcpy.o)
 .reginfo       0x00000000       0x18 c:/program files (x86)/microchip/mplabc32/v2.02/bin/../lib/gcc/pic32mx/4.5.1/../../../../pic32mx/lib\libc.a(strlen.o)
 .pdr           0x00000000       0x20 c:/program files (x86)/microchip/mplabc32/v2.02/bin/../lib/gcc/pic32mx/4.5.1/../../../../pic32mx/lib\libc.a(strlen.o)
 .reginfo       0x00000000       0x18 c:/program files (x86)/microchip/mplabc32/v2.02/bin/../lib/gcc/pic32mx/4.5.1/../../../../pic32mx/lib\libc.a(general-exception.o)
 .pdr           0x00000000       0x20 c:/program files (x86)/microchip/mplabc32/v2.02/bin/../lib/gcc/pic32mx/4.5.1/../../../../pic32mx/lib\libc.a(general-exception.o)
 .reginfo       0x00000000       0x18 c:/program files (x86)/microchip/mplabc32/v2.02/bin/../lib/gcc/pic32mx/4.5.1/../../../../pic32mx/lib\libc.a(atol.o)
 .pdr           0x00000000       0x20 c:/program files (x86)/microchip/mplabc32/v2.02/bin/../lib/gcc/pic32mx/4.5.1/../../../../pic32mx/lib\libc.a(atol.o)
 .reginfo       0x00000000       0x18 c:/program files (x86)/microchip/mplabc32/v2.02/bin/../lib/gcc/pic32mx/4.5.1/../../../../pic32mx/lib\libc.a(ctype.o)
 .pdr           0x00000000        0x0 c:/program files (x86)/microchip/mplabc32/v2.02/bin/../lib/gcc/pic32mx/4.5.1/../../../../pic32mx/lib\libc.a(ctype.o)
 .reginfo       0x00000000       0x18 c:/program files (x86)/microchip/mplabc32/v2.02/bin/../lib/gcc/pic32mx/4.5.1/../../../../pic32mx/lib\libc.a(puts.o)
 .pdr           0x00000000       0x40 c:/program files (x86)/microchip/mplabc32/v2.02/bin/../lib/gcc/pic32mx/4.5.1/../../../../pic32mx/lib\libc.a(puts.o)
 .reginfo       0x00000000       0x18 c:/program files (x86)/microchip/mplabc32/v2.02/bin/../lib/gcc/pic32mx/4.5.1/../../../../pic32mx/lib\libc.a(strcat.o)
 .pdr           0x00000000       0x20 c:/program files (x86)/microchip/mplabc32/v2.02/bin/../lib/gcc/pic32mx/4.5.1/../../../../pic32mx/lib\libc.a(strcat.o)
 .reginfo       0x00000000       0x18 c:/program files (x86)/microchip/mplabc32/v2.02/bin/../lib/gcc/pic32mx/4.5.1/../../../../pic32mx/lib\libc.a(strncpy.o)
 .pdr           0x00000000       0x20 c:/program files (x86)/microchip/mplabc32/v2.02/bin/../lib/gcc/pic32mx/4.5.1/../../../../pic32mx/lib\libc.a(strncpy.o)
 .reginfo       0x00000000       0x18 c:/program files (x86)/microchip/mplabc32/v2.02/bin/../lib/gcc/pic32mx/4.5.1/../../../../pic32mx/lib\libc.a(strrchr.o)
 .pdr           0x00000000       0x20 c:/program files (x86)/microchip/mplabc32/v2.02/bin/../lib/gcc/pic32mx/4.5.1/../../../../pic32mx/lib\libc.a(strrchr.o)
 .reginfo       0x00000000       0x18 c:/program files (x86)/microchip/mplabc32/v2.02/bin/../lib/gcc/pic32mx/4.5.1/../../../../pic32mx/lib\libc.a(printf_cdnopsuxX.eo)
 .pdr           0x00000000       0x20 c:/program files (x86)/microchip/mplabc32/v2.02/bin/../lib/gcc/pic32mx/4.5.1/../../../../pic32mx/lib\libc.a(printf_cdnopsuxX.eo)
 .reginfo       0x00000000       0x18 c:/program files (x86)/microchip/mplabc32/v2.02/bin/../lib/gcc/pic32mx/4.5.1/../../../../pic32mx/lib\libc.a(sprintf_cdnopsuxX.eo)
 .pdr           0x00000000       0x20 c:/program files (x86)/microchip/mplabc32/v2.02/bin/../lib/gcc/pic32mx/4.5.1/../../../../pic32mx/lib\libc.a(sprintf_cdnopsuxX.eo)
 .reginfo       0x00000000       0x18 c:/program files (x86)/microchip/mplabc32/v2.02/bin/../lib/gcc/pic32mx/4.5.1/../../../../pic32mx/lib\libc.a(sscanf_cdnopuxX.eo)
 .pdr           0x00000000       0x20 c:/program files (x86)/microchip/mplabc32/v2.02/bin/../lib/gcc/pic32mx/4.5.1/../../../../pic32mx/lib\libc.a(sscanf_cdnopuxX.eo)
 .reginfo       0x00000000       0x18 c:/program files (x86)/microchip/mplabc32/v2.02/bin/../lib/gcc/pic32mx/4.5.1/../../../../pic32mx/lib\libc.a(default-bootstrap-exception-handler.o)
 .pdr           0x00000000       0x20 c:/program files (x86)/microchip/mplabc32/v2.02/bin/../lib/gcc/pic32mx/4.5.1/../../../../pic32mx/lib\libc.a(default-bootstrap-exception-handler.o)
 .reginfo       0x00000000       0x18 c:/program files (x86)/microchip/mplabc32/v2.02/bin/../lib/gcc/pic32mx/4.5.1/../../../../pic32mx/lib\libc.a(default-on-reset.o)
 .pdr           0x00000000       0x20 c:/program files (x86)/microchip/mplabc32/v2.02/bin/../lib/gcc/pic32mx/4.5.1/../../../../pic32mx/lib\libc.a(default-on-reset.o)
 .reginfo       0x00000000       0x18 c:/program files (x86)/microchip/mplabc32/v2.02/bin/../lib/gcc/pic32mx/4.5.1/../../../../pic32mx/lib\libc.a(default-on-bootstrap.o)
 .pdr           0x00000000       0x20 c:/program files (x86)/microchip/mplabc32/v2.02/bin/../lib/gcc/pic32mx/4.5.1/../../../../pic32mx/lib\libc.a(default-on-bootstrap.o)
 .reginfo       0x00000000       0x18 c:/program files (x86)/microchip/mplabc32/v2.02/bin/../lib/gcc/pic32mx/4.5.1/../../../../pic32mx/lib\libc.a(default-nmi-handler.o)
 .pdr           0x00000000       0x20 c:/program files (x86)/microchip/mplabc32/v2.02/bin/../lib/gcc/pic32mx/4.5.1/../../../../pic32mx/lib\libc.a(default-nmi-handler.o)
 .reginfo       0x00000000       0x18 c:/program files (x86)/microchip/mplabc32/v2.02/bin/../lib/gcc/pic32mx/4.5.1/../../../../pic32mx/lib\libc.a(_iob.o)
 .pdr           0x00000000        0x0 c:/program files (x86)/microchip/mplabc32/v2.02/bin/../lib/gcc/pic32mx/4.5.1/../../../../pic32mx/lib\libc.a(_iob.o)
 .reginfo       0x00000000       0x18 c:/program files (x86)/microchip/mplabc32/v2.02/bin/../lib/gcc/pic32mx/4.5.1/../../../../pic32mx/lib\libc.a(_fputc_simple.o)
 .pdr           0x00000000       0x20 c:/program files (x86)/microchip/mplabc32/v2.02/bin/../lib/gcc/pic32mx/4.5.1/../../../../pic32mx/lib\libc.a(_fputc_simple.o)
 .reginfo       0x00000000       0x18 c:/program files (x86)/microchip/mplabc32/v2.02/bin/../lib/gcc/pic32mx/4.5.1/../../../../pic32mx/lib\libc.a(doprnt_cdnopsuxX.eo)
 .pdr           0x00000000       0x20 c:/program files (x86)/microchip/mplabc32/v2.02/bin/../lib/gcc/pic32mx/4.5.1/../../../../pic32mx/lib\libc.a(doprnt_cdnopsuxX.eo)
 .reginfo       0x00000000       0x18 c:/program files (x86)/microchip/mplabc32/v2.02/bin/../lib/gcc/pic32mx/4.5.1/../../../../pic32mx/lib\libc.a(doscan_cdnopuxX.eo)
 .pdr           0x00000000       0x60 c:/program files (x86)/microchip/mplabc32/v2.02/bin/../lib/gcc/pic32mx/4.5.1/../../../../pic32mx/lib\libc.a(doscan_cdnopuxX.eo)
 .reginfo       0x00000000       0x18 c:/program files (x86)/microchip/mplabc32/v2.02/bin/../lib/gcc/pic32mx/4.5.1/../../../../pic32mx/lib\libc.a(write.o)
 .pdr           0x00000000       0x20 c:/program files (x86)/microchip/mplabc32/v2.02/bin/../lib/gcc/pic32mx/4.5.1/../../../../pic32mx/lib\libc.a(write.o)
 .reginfo       0x00000000       0x18 c:/program files (x86)/microchip/mplabc32/v2.02/bin/../lib/gcc/pic32mx/4.5.1/../../../../pic32mx/lib\libc.a(_flsbuf_simple.o)
 .pdr           0x00000000       0x20 c:/program files (x86)/microchip/mplabc32/v2.02/bin/../lib/gcc/pic32mx/4.5.1/../../../../pic32mx/lib\libc.a(_flsbuf_simple.o)
 .reginfo       0x00000000       0x18 c:/program files (x86)/microchip/mplabc32/v2.02/bin/../lib/gcc/pic32mx/4.5.1/../../../../pic32mx/lib\libc.a(fgetc.o)
 .pdr           0x00000000       0x20 c:/program files (x86)/microchip/mplabc32/v2.02/bin/../lib/gcc/pic32mx/4.5.1/../../../../pic32mx/lib\libc.a(fgetc.o)
 .reginfo       0x00000000       0x18 c:/program files (x86)/microchip/mplabc32/v2.02/bin/../lib/gcc/pic32mx/4.5.1/../../../../pic32mx/lib\libc.a(atoi.o)
 .pdr           0x00000000       0x20 c:/program files (x86)/microchip/mplabc32/v2.02/bin/../lib/gcc/pic32mx/4.5.1/../../../../pic32mx/lib\libc.a(atoi.o)
 .reginfo       0x00000000       0x18 c:/program files (x86)/microchip/mplabc32/v2.02/bin/../lib/gcc/pic32mx/4.5.1/../../../../pic32mx/lib\libc.a(ctypef.o)
 .pdr           0x00000000      0x220 c:/program files (x86)/microchip/mplabc32/v2.02/bin/../lib/gcc/pic32mx/4.5.1/../../../../pic32mx/lib\libc.a(ctypef.o)
 .reginfo       0x00000000       0x18 c:/program files (x86)/microchip/mplabc32/v2.02/bin/../lib/gcc/pic32mx/4.5.1/../../../../pic32mx/lib\libc.a(ungetc.o)
 .pdr           0x00000000       0x20 c:/program files (x86)/microchip/mplabc32/v2.02/bin/../lib/gcc/pic32mx/4.5.1/../../../../pic32mx/lib\libc.a(ungetc.o)
 .reginfo       0x00000000       0x18 c:/program files (x86)/microchip/mplabc32/v2.02/bin/../lib/gcc/pic32mx/4.5.1/../../../../pic32mx/lib\libc.a(filbuf.o)
 .pdr           0x00000000       0x20 c:/program files (x86)/microchip/mplabc32/v2.02/bin/../lib/gcc/pic32mx/4.5.1/../../../../pic32mx/lib\libc.a(filbuf.o)
 .reginfo       0x00000000       0x18 c:/program files (x86)/microchip/mplabc32/v2.02/bin/../lib/gcc/pic32mx/4.5.1/../../../../pic32mx/lib\libc.a(fflush.o)
 .pdr           0x00000000       0x20 c:/program files (x86)/microchip/mplabc32/v2.02/bin/../lib/gcc/pic32mx/4.5.1/../../../../pic32mx/lib\libc.a(fflush.o)
 .reginfo       0x00000000       0x18 c:/program files (x86)/microchip/mplabc32/v2.02/bin/../lib/gcc/pic32mx/4.5.1/../../../../pic32mx/lib\libc.a(read.o)
 .pdr           0x00000000       0x20 c:/program files (x86)/microchip/mplabc32/v2.02/bin/../lib/gcc/pic32mx/4.5.1/../../../../pic32mx/lib\libc.a(read.o)
 .reginfo       0x00000000       0x18 c:/program files (x86)/microchip/mplabc32/v2.02/bin/../lib/gcc/pic32mx/4.5.1/../../../../pic32mx/lib\libc.a(c32_uart.o)
 .pdr           0x00000000        0x0 c:/program files (x86)/microchip/mplabc32/v2.02/bin/../lib/gcc/pic32mx/4.5.1/../../../../pic32mx/lib\libc.a(c32_uart.o)
 .reginfo       0x00000000       0x18 c:/program files (x86)/microchip/mplabc32/v2.02/bin/../lib/gcc/pic32mx/4.5.1/../../../../pic32mx/lib\libmchp_peripheral_32MX575F256L.a(soft_reset_lib.o)
 .pdr           0x00000000       0x20 c:/program files (x86)/microchip/mplabc32/v2.02/bin/../lib/gcc/pic32mx/4.5.1/../../../../pic32mx/lib\libmchp_peripheral_32MX575F256L.a(soft_reset_lib.o)
 .reginfo       0x00000000       0x18 c:/program files (x86)/microchip/mplabc32/v2.02/bin/../lib/gcc/pic32mx/4.5.1/../../../../pic32mx/lib\libmchp_peripheral_32MX575F256L.a(pcache.o)
 .pdr           0x00000000       0x40 c:/program files (x86)/microchip/mplabc32/v2.02/bin/../lib/gcc/pic32mx/4.5.1/../../../../pic32mx/lib\libmchp_peripheral_32MX575F256L.a(pcache.o)
 .reginfo       0x00000000       0x18 c:/program files (x86)/microchip/mplabc32/v2.02/bin/../lib/gcc/pic32mx/4.5.1/../../../../pic32mx/lib\libmchp_peripheral_32MX575F256L.a(int_disable_interrupts_lib.o)
 .pdr           0x00000000       0x20 c:/program files (x86)/microchip/mplabc32/v2.02/bin/../lib/gcc/pic32mx/4.5.1/../../../../pic32mx/lib\libmchp_peripheral_32MX575F256L.a(int_disable_interrupts_lib.o)
 .reginfo       0x00000000       0x18 c:/program files (x86)/microchip/mplabc32/v2.02/bin/../lib/gcc/pic32mx/4.5.1/../../../../pic32mx/lib\libmchp_peripheral_32MX575F256L.a(int_restore_interrupts_lib.o)
 .pdr           0x00000000       0x20 c:/program files (x86)/microchip/mplabc32/v2.02/bin/../lib/gcc/pic32mx/4.5.1/../../../../pic32mx/lib\libmchp_peripheral_32MX575F256L.a(int_restore_interrupts_lib.o)
 .reginfo       0x00000000       0x18 c:/program files (x86)/microchip/mplabc32/v2.02/bin/../lib/gcc/pic32mx/4.5.1/../../../../pic32mx/lib\libmchp_peripheral_32MX575F256L.a(int_enable_mv_int_lib.o)
 .pdr           0x00000000       0x20 c:/program files (x86)/microchip/mplabc32/v2.02/bin/../lib/gcc/pic32mx/4.5.1/../../../../pic32mx/lib\libmchp_peripheral_32MX575F256L.a(int_enable_mv_int_lib.o)
 .reginfo       0x00000000       0x18 c:/program files (x86)/microchip/mplabc32/v2.02/bin/../lib/gcc/pic32mx/4.5.1/../../../../pic32mx/lib\libmchp_peripheral_32MX575F256L.a(int_tbl_lib.o)
 .pdr           0x00000000      0x120 c:/program files (x86)/microchip/mplabc32/v2.02/bin/../lib/gcc/pic32mx/4.5.1/../../../../pic32mx/lib\libmchp_peripheral_32MX575F256L.a(int_tbl_lib.o)
 .reginfo       0x00000000       0x18 c:/program files (x86)/microchip/mplabc32/v2.02/bin/../lib/gcc/pic32mx/4.5.1/../../../../pic32mx/lib\libmchp_peripheral_32MX575F256L.a(spi_chn_getc_lib.o)
 .pdr           0x00000000       0x40 c:/program files (x86)/microchip/mplabc32/v2.02/bin/../lib/gcc/pic32mx/4.5.1/../../../../pic32mx/lib\libmchp_peripheral_32MX575F256L.a(spi_chn_getc_lib.o)
 .reginfo       0x00000000       0x18 c:/program files (x86)/microchip/mplabc32/v2.02/bin/../lib/gcc/pic32mx/4.5.1/../../../../pic32mx/lib\libmchp_peripheral_32MX575F256L.a(spi_chn_putc_lib.o)
 .pdr           0x00000000       0x60 c:/program files (x86)/microchip/mplabc32/v2.02/bin/../lib/gcc/pic32mx/4.5.1/../../../../pic32mx/lib\libmchp_peripheral_32MX575F256L.a(spi_chn_putc_lib.o)
 .reginfo       0x00000000       0x18 c:/program files (x86)/microchip/mplabc32/v2.02/bin/../lib/gcc/pic32mx/4.5.1/../../../../pic32mx/lib\libmchp_peripheral_32MX575F256L.a(spi_chn_change_mode_lib.o)
 .pdr           0x00000000       0x40 c:/program files (x86)/microchip/mplabc32/v2.02/bin/../lib/gcc/pic32mx/4.5.1/../../../../pic32mx/lib\libmchp_peripheral_32MX575F256L.a(spi_chn_change_mode_lib.o)
 .reginfo       0x00000000       0x18 c:/program files (x86)/microchip/mplabc32/v2.02/bin/../lib/gcc/pic32mx/4.5.1/../../../../pic32mx/lib\libmchp_peripheral_32MX575F256L.a(spi_io_tbl_libp.o)
 .pdr           0x00000000        0x0 c:/program files (x86)/microchip/mplabc32/v2.02/bin/../lib/gcc/pic32mx/4.5.1/../../../../pic32mx/lib\libmchp_peripheral_32MX575F256L.a(spi_io_tbl_libp.o)
 .reginfo       0x00000000       0x18 c:/program files (x86)/microchip/mplabc32/v2.02/bin/../lib/gcc/pic32mx/4.5.1/../../../../pic32mx/lib\libmchp_peripheral_32MX575F256L.a(spi_map_tbl_libp.o)
 .pdr           0x00000000        0x0 c:/program files (x86)/microchip/mplabc32/v2.02/bin/../lib/gcc/pic32mx/4.5.1/../../../../pic32mx/lib\libmchp_peripheral_32MX575F256L.a(spi_map_tbl_libp.o)
 .reginfo       0x00000000       0x18 c:/program files (x86)/microchip/mplabc32/v2.02/bin/../lib/gcc/pic32mx/4.5.1/../../../../pic32mx/lib\libmchp_peripheral_32MX575F256L.a(port_set_pins_digital_in_lib.o)
 .pdr           0x00000000       0x20 c:/program files (x86)/microchip/mplabc32/v2.02/bin/../lib/gcc/pic32mx/4.5.1/../../../../pic32mx/lib\libmchp_peripheral_32MX575F256L.a(port_set_pins_digital_in_lib.o)
 .reginfo       0x00000000       0x18 c:/program files (x86)/microchip/mplabc32/v2.02/bin/../lib/gcc/pic32mx/4.5.1/../../../../pic32mx/lib\libmchp_peripheral_32MX575F256L.a(port_set_pins_digital_out_lib.o)
 .pdr           0x00000000       0x20 c:/program files (x86)/microchip/mplabc32/v2.02/bin/../lib/gcc/pic32mx/4.5.1/../../../../pic32mx/lib\libmchp_peripheral_32MX575F256L.a(port_set_pins_digital_out_lib.o)
 .reginfo       0x00000000       0x18 c:/program files (x86)/microchip/mplabc32/v2.02/bin/../lib/gcc/pic32mx/4.5.1/../../../../pic32mx/lib\libmchp_peripheral_32MX575F256L.a(_ports_tbl_libp.o)
 .pdr           0x00000000        0x0 c:/program files (x86)/microchip/mplabc32/v2.02/bin/../lib/gcc/pic32mx/4.5.1/../../../../pic32mx/lib\libmchp_peripheral_32MX575F256L.a(_ports_tbl_libp.o)
 .reginfo       0x00000000       0x18 c:/program files (x86)/microchip/mplabc32/v2.02/bin/../lib/gcc/pic32mx/4.5.1/../../../../pic32mx/lib\libmchp_peripheral_32MX575F256L.a(uart_lib.o)
 .pdr           0x00000000      0x100 c:/program files (x86)/microchip/mplabc32/v2.02/bin/../lib/gcc/pic32mx/4.5.1/../../../../pic32mx/lib\libmchp_peripheral_32MX575F256L.a(uart_lib.o)
 .reginfo       0x00000000       0x18 c:/program files (x86)/microchip/mplabc32/v2.02/bin/../lib/gcc/pic32mx/4.5.1/../../../../pic32mx/lib\libmchp_peripheral_32MX575F256L.a(puts_uartx_lib_legacy.o)
 .pdr           0x00000000       0x40 c:/program files (x86)/microchip/mplabc32/v2.02/bin/../lib/gcc/pic32mx/4.5.1/../../../../pic32mx/lib\libmchp_peripheral_32MX575F256L.a(puts_uartx_lib_legacy.o)
 .reginfo       0x00000000       0x18 c:/program files (x86)/microchip/mplabc32/v2.02/bin/../lib/gcc/pic32mx/4.5.1/../../../../pic32mx/lib\libmchp_peripheral_32MX575F256L.a(idle_i2c2_lib_legacy.o)
 .pdr           0x00000000       0x20 c:/program files (x86)/microchip/mplabc32/v2.02/bin/../lib/gcc/pic32mx/4.5.1/../../../../pic32mx/lib\libmchp_peripheral_32MX575F256L.a(idle_i2c2_lib_legacy.o)
 .reginfo       0x00000000       0x18 c:/program files (x86)/microchip/mplabc32/v2.02/bin/../lib/gcc/pic32mx/4.5.1/../../../../pic32mx/lib\libmchp_peripheral_32MX575F256L.a(I2CPrivate.o)
 .pdr           0x00000000        0x0 c:/program files (x86)/microchip/mplabc32/v2.02/bin/../lib/gcc/pic32mx/4.5.1/../../../../pic32mx/lib\libmchp_peripheral_32MX575F256L.a(I2CPrivate.o)
 .reginfo       0x00000000       0x18 c:/program files (x86)/microchip/mplabc32/v2.02/bin/../lib/gcc/pic32mx/4.5.1/../../../../pic32mx/lib\libmchp_peripheral_32MX575F256L.a(I2CBusIsIdle.o)
 .pdr           0x00000000       0x20 c:/program files (x86)/microchip/mplabc32/v2.02/bin/../lib/gcc/pic32mx/4.5.1/../../../../pic32mx/lib\libmchp_peripheral_32MX575F256L.a(I2CBusIsIdle.o)
 .reginfo       0x00000000       0x18 c:/program files (x86)/microchip/mplabc32/v2.02/bin/../lib/gcc/pic32mx/4.5.1/../../../../pic32mx/lib\libmchp_peripheral_32MX575F256L.a(I2CByteWasAcknowledged.o)
 .pdr           0x00000000       0x20 c:/program files (x86)/microchip/mplabc32/v2.02/bin/../lib/gcc/pic32mx/4.5.1/../../../../pic32mx/lib\libmchp_peripheral_32MX575F256L.a(I2CByteWasAcknowledged.o)
 .reginfo       0x00000000       0x18 c:/program files (x86)/microchip/mplabc32/v2.02/bin/../lib/gcc/pic32mx/4.5.1/../../../../pic32mx/lib\libmchp_peripheral_32MX575F256L.a(I2CEnable.o)
 .pdr           0x00000000       0x20 c:/program files (x86)/microchip/mplabc32/v2.02/bin/../lib/gcc/pic32mx/4.5.1/../../../../pic32mx/lib\libmchp_peripheral_32MX575F256L.a(I2CEnable.o)
 .reginfo       0x00000000       0x18 c:/program files (x86)/microchip/mplabc32/v2.02/bin/../lib/gcc/pic32mx/4.5.1/../../../../pic32mx/lib\libmchp_peripheral_32MX575F256L.a(I2CGetByte.o)
 .pdr           0x00000000       0x20 c:/program files (x86)/microchip/mplabc32/v2.02/bin/../lib/gcc/pic32mx/4.5.1/../../../../pic32mx/lib\libmchp_peripheral_32MX575F256L.a(I2CGetByte.o)
 .reginfo       0x00000000       0x18 c:/program files (x86)/microchip/mplabc32/v2.02/bin/../lib/gcc/pic32mx/4.5.1/../../../../pic32mx/lib\libmchp_peripheral_32MX575F256L.a(I2CGetStatus.o)
 .pdr           0x00000000       0x20 c:/program files (x86)/microchip/mplabc32/v2.02/bin/../lib/gcc/pic32mx/4.5.1/../../../../pic32mx/lib\libmchp_peripheral_32MX575F256L.a(I2CGetStatus.o)
 .reginfo       0x00000000       0x18 c:/program files (x86)/microchip/mplabc32/v2.02/bin/../lib/gcc/pic32mx/4.5.1/../../../../pic32mx/lib\libmchp_peripheral_32MX575F256L.a(I2CReceivedDataIsAvailable.o)
 .pdr           0x00000000       0x20 c:/program files (x86)/microchip/mplabc32/v2.02/bin/../lib/gcc/pic32mx/4.5.1/../../../../pic32mx/lib\libmchp_peripheral_32MX575F256L.a(I2CReceivedDataIsAvailable.o)
 .reginfo       0x00000000       0x18 c:/program files (x86)/microchip/mplabc32/v2.02/bin/../lib/gcc/pic32mx/4.5.1/../../../../pic32mx/lib\libmchp_peripheral_32MX575F256L.a(I2CReceiverEnable.o)
 .pdr           0x00000000       0x20 c:/program files (x86)/microchip/mplabc32/v2.02/bin/../lib/gcc/pic32mx/4.5.1/../../../../pic32mx/lib\libmchp_peripheral_32MX575F256L.a(I2CReceiverEnable.o)
 .reginfo       0x00000000       0x18 c:/program files (x86)/microchip/mplabc32/v2.02/bin/../lib/gcc/pic32mx/4.5.1/../../../../pic32mx/lib\libmchp_peripheral_32MX575F256L.a(I2CRepeatStart.o)
 .pdr           0x00000000       0x20 c:/program files (x86)/microchip/mplabc32/v2.02/bin/../lib/gcc/pic32mx/4.5.1/../../../../pic32mx/lib\libmchp_peripheral_32MX575F256L.a(I2CRepeatStart.o)
 .reginfo       0x00000000       0x18 c:/program files (x86)/microchip/mplabc32/v2.02/bin/../lib/gcc/pic32mx/4.5.1/../../../../pic32mx/lib\libmchp_peripheral_32MX575F256L.a(I2CSetFrequency.o)
 .pdr           0x00000000       0x20 c:/program files (x86)/microchip/mplabc32/v2.02/bin/../lib/gcc/pic32mx/4.5.1/../../../../pic32mx/lib\libmchp_peripheral_32MX575F256L.a(I2CSetFrequency.o)
 .reginfo       0x00000000       0x18 c:/program files (x86)/microchip/mplabc32/v2.02/bin/../lib/gcc/pic32mx/4.5.1/../../../../pic32mx/lib\libmchp_peripheral_32MX575F256L.a(I2CStart.o)
 .pdr           0x00000000       0x20 c:/program files (x86)/microchip/mplabc32/v2.02/bin/../lib/gcc/pic32mx/4.5.1/../../../../pic32mx/lib\libmchp_peripheral_32MX575F256L.a(I2CStart.o)
 .reginfo       0x00000000       0x18 c:/program files (x86)/microchip/mplabc32/v2.02/bin/../lib/gcc/pic32mx/4.5.1/../../../../pic32mx/lib\libmchp_peripheral_32MX575F256L.a(I2CStop.o)
 .pdr           0x00000000       0x20 c:/program files (x86)/microchip/mplabc32/v2.02/bin/../lib/gcc/pic32mx/4.5.1/../../../../pic32mx/lib\libmchp_peripheral_32MX575F256L.a(I2CStop.o)
 .reginfo       0x00000000       0x18 c:/program files (x86)/microchip/mplabc32/v2.02/bin/../lib/gcc/pic32mx/4.5.1/../../../../pic32mx/lib\libmchp_peripheral_32MX575F256L.a(I2CTransmissionHasCompleted.o)
 .pdr           0x00000000       0x20 c:/program files (x86)/microchip/mplabc32/v2.02/bin/../lib/gcc/pic32mx/4.5.1/../../../../pic32mx/lib\libmchp_peripheral_32MX575F256L.a(I2CTransmissionHasCompleted.o)
 .reginfo       0x00000000       0x18 c:/program files (x86)/microchip/mplabc32/v2.02/bin/../lib/gcc/pic32mx/4.5.1/../../../../pic32mx/lib\libmchp_peripheral_32MX575F256L.a(I2CTransmitterIsReady.o)
 .pdr           0x00000000       0x20 c:/program files (x86)/microchip/mplabc32/v2.02/bin/../lib/gcc/pic32mx/4.5.1/../../../../pic32mx/lib\libmchp_peripheral_32MX575F256L.a(I2CTransmitterIsReady.o)
 .reginfo       0x00000000       0x18 c:/program files (x86)/microchip/mplabc32/v2.02/bin/../lib/gcc/pic32mx/4.5.1/../../../../pic32mx/lib\libmchp_peripheral_32MX575F256L.a(int_enable_interrupts_lib.o)
 .pdr           0x00000000       0x20 c:/program files (x86)/microchip/mplabc32/v2.02/bin/../lib/gcc/pic32mx/4.5.1/../../../../pic32mx/lib\libmchp_peripheral_32MX575F256L.a(int_enable_interrupts_lib.o)
 .reginfo       0x00000000       0x18 c:/program files (x86)/microchip/mplabc32/v2.02/bin/../lib/gcc/pic32mx/4.5.1/../../../../pic32mx/lib/./proc/32MX575F256L\processor.o
 .pdr           0x00000000        0x0 c:/program files (x86)/microchip/mplabc32/v2.02/bin/../lib/gcc/pic32mx/4.5.1/../../../../pic32mx/lib/./proc/32MX575F256L\processor.o

Memory Configuration

Name             Origin             Length             Attributes
kseg0_program_mem 0x9d000000         0x00040000         xr
kseg0_boot_mem   0x9fc00490         0x00000970
exception_mem    0x9fc01000         0x00001000
kseg1_boot_mem   0xbfc00000         0x00000490
debug_exec_mem   0xbfc02000         0x00000ff0
config3          0xbfc02ff0         0x00000004
config2          0xbfc02ff4         0x00000004
config1          0xbfc02ff8         0x00000004
config0          0xbfc02ffc         0x00000004
kseg1_data_mem   0xa0000000         0x00010000         w !x
sfrs             0xbf800000         0x00100000
configsfrs       0xbfc02ff0         0x00000010
*default*        0x00000000         0xffffffff

Linker script and memory map

LOAD c:/program files (x86)/microchip/mplabc32/v2.02/bin/../lib/gcc/pic32mx/4.5.1/../../../../pic32mx/lib/crt0.o
                0x00000001                _DEBUGGER = 0x1
LOAD obj-tmp\Main.o
LOAD obj-tmp\CustomHTTPApp.o
LOAD obj-tmp\WF_Config.o
LOAD obj-tmp\WifiGDemoMPFSImg.o
LOAD obj-tmp\Announce.o
LOAD obj-tmp\ARCFOUR.o
LOAD obj-tmp\ARP.o
LOAD obj-tmp\AutoIP.o
LOAD obj-tmp\BerkeleyAPI.o
LOAD obj-tmp\BigInt.o
LOAD obj-tmp\BigInt_helper_PIC32.o
LOAD obj-tmp\Delay.o
LOAD obj-tmp\DNS.o
LOAD obj-tmp\DNSs.o
LOAD obj-tmp\DynDNS.o
LOAD obj-tmp\FileSystem.o
LOAD obj-tmp\FTP.o
LOAD obj-tmp\Hashes.o
LOAD obj-tmp\Helpers.o
LOAD obj-tmp\HTTP2.o
LOAD obj-tmp\ICMP.o
LOAD obj-tmp\IP.o
LOAD obj-tmp\LCDBlocking.o
LOAD obj-tmp\MPFS2.o
LOAD obj-tmp\NBNS.o
LOAD obj-tmp\Random.o
LOAD obj-tmp\Reboot.o
LOAD obj-tmp\RSA.o
LOAD obj-tmp\SMTP.o
LOAD obj-tmp\SNMP.o
LOAD obj-tmp\SNMPv3.o
LOAD obj-tmp\SNMPv3USM.o
LOAD obj-tmp\SNTP.o
LOAD obj-tmp\SPIEEPROM.o
LOAD obj-tmp\SPIFlash.o
LOAD obj-tmp\SPIRAM.o
LOAD obj-tmp\SSL.o
LOAD obj-tmp\StackTsk.o
LOAD obj-tmp\TCP.o
LOAD obj-tmp\TCPPerformanceTest.o
LOAD obj-tmp\Telnet.o
LOAD obj-tmp\TFTPc.o
LOAD obj-tmp\Tick.o
LOAD obj-tmp\UART.o
LOAD obj-tmp\UART2TCPBridge.o
LOAD obj-tmp\UDP.o
LOAD obj-tmp\UDPPerformanceTest.o
LOAD obj-tmp\ZeroconfHelper.o
LOAD obj-tmp\ZeroconfLinkLocal.o
LOAD obj-tmp\ZeroconfMulticastDNS.o
LOAD obj-tmp\WF_Eint.o
LOAD obj-tmp\WF_pbkdf2.o
LOAD obj-tmp\WFConnectionAlgorithm.o
LOAD obj-tmp\WFConnectionManager.o
LOAD obj-tmp\WFConnectionProfile.o
LOAD obj-tmp\WFConsole.o
LOAD obj-tmp\WFConsoleIfconfig.o
LOAD obj-tmp\WFConsoleIwconfig.o
LOAD obj-tmp\WFConsoleIwpriv.o
LOAD obj-tmp\WFConsoleMsgHandler.o
LOAD obj-tmp\WFConsoleMsgs.o
LOAD obj-tmp\WFDataTxRx.o
LOAD obj-tmp\WFDebugStrings.o
LOAD obj-tmp\WFEasyConfig.o
LOAD obj-tmp\WFEventHandler.o
LOAD obj-tmp\WFInit.o
LOAD obj-tmp\WFPowerSave.o
LOAD obj-tmp\WFScan.o
LOAD obj-tmp\WFTxPower.o
LOAD obj-tmp\WF_Spi.o
LOAD obj-tmp\WFDriverCom_24G.o
LOAD obj-tmp\WFDriverRaw_24G.o
LOAD obj-tmp\WFMac_24G.o
LOAD obj-tmp\WFMgmtMsg_24G.o
LOAD obj-tmp\WFParamMsg_24G.o
LOAD obj-tmp\DHCP.o
LOAD obj-tmp\DHCPs.o
LOAD obj-tmp\i2c_master.o
LOAD obj-tmp\INTiMain.o
LOAD obj-tmp\UARTiMain.o
LOAD obj-tmp\Assert.o
LOAD obj-tmp\Device_ICO_ICL.o
LOAD obj-tmp\DeviceState.o
LOAD obj-tmp\app_ICO_ICL.o
LOAD obj-tmp\TimeMonitor.o
LOAD obj-tmp\icoPowerMeasurement.o
LOAD obj-tmp\icoUserButton.o
LOAD obj-tmp\ADE7753.o
LOAD obj-tmp\spi.o
LOAD obj-tmp\Power.o
LOAD C:\Projects\Intwine\Aztec\Power.a
                0x00000001                __MPLAB_BUILD = 0x1
                0x00000001                __MPLAB_DEBUG = 0x1
                0x00000001                __MPLAB_DEBUGGER_ICD3 = 0x1
                0x00000001                __ICD2RAM = 0x1
LOAD c:/program files (x86)/microchip/mplabc32/v2.02/bin/../lib/gcc/pic32mx/4.5.1\libgcc.a
START GROUP
LOAD c:/program files (x86)/microchip/mplabc32/v2.02/bin/../lib/gcc/pic32mx/4.5.1/../../../../pic32mx/lib\libdebug.a
LOAD c:/program files (x86)/microchip/mplabc32/v2.02/bin/../lib/gcc/pic32mx/4.5.1/../../../../pic32mx/lib\libc.a
LOAD c:/program files (x86)/microchip/mplabc32/v2.02/bin/../lib/gcc/pic32mx/4.5.1/../../../../pic32mx/lib\libm.a
LOAD c:/program files (x86)/microchip/mplabc32/v2.02/bin/../lib/gcc/pic32mx/4.5.1/../../../../pic32mx/lib\libe.a
LOAD c:/program files (x86)/microchip/mplabc32/v2.02/bin/../lib/gcc/pic32mx/4.5.1/../../../../pic32mx/lib\libdsp.a
LOAD c:/program files (x86)/microchip/mplabc32/v2.02/bin/../lib/gcc/pic32mx/4.5.1/../../../../pic32mx/lib\libmchp_peripheral.a
LOAD c:/program files (x86)/microchip/mplabc32/v2.02/bin/../lib/gcc/pic32mx/4.5.1/../../../../pic32mx/lib\libmchp_peripheral_32MX575F256L.a
END GROUP
LOAD c:/program files (x86)/microchip/mplabc32/v2.02/bin/../lib/gcc/pic32mx/4.5.1\libgcc.a
                0x00000400                PROVIDE (_min_stack_size, 0x400)
                0x00000000                PROVIDE (_min_heap_size, 0x0)
LOAD c:/program files (x86)/microchip/mplabc32/v2.02/bin/../lib/gcc/pic32mx/4.5.1/../../../../pic32mx/lib/./proc/32MX575F256L\processor.o
                0x00000001                PROVIDE (_vector_spacing, 0x1)
                0x9fc01000                _ebase_address = 0x9fc01000
                0xbfc00000                _RESET_ADDR = 0xbfc00000
                0xbfc00380                _BEV_EXCPT_ADDR = 0xbfc00380
                0xbfc00480                _DBG_EXCPT_ADDR = 0xbfc00480
                0xbfc02000                _DBG_CODE_ADDR = 0xbfc02000
                0x00000ff0                _DBG_CODE_SIZE = 0xff0
                0x9fc01180                _GEN_EXCPT_ADDR = (_ebase_address + 0x180)

.config_BFC02FF0
 *(.config_BFC02FF0)

.config_BFC02FF4
                0xbfc02ff4        0x4
 *(.config_BFC02FF4)
 .config_BFC02FF4
                0xbfc02ff4        0x4 obj-tmp\Main.o

.config_BFC02FF8
                0xbfc02ff8        0x4
 *(.config_BFC02FF8)
 .config_BFC02FF8
                0xbfc02ff8        0x4 obj-tmp\Main.o

.config_BFC02FFC
                0xbfc02ffc        0x4
 *(.config_BFC02FFC)
 .config_BFC02FFC
                0xbfc02ffc        0x4 obj-tmp\Main.o
                0xbfc02000                PROVIDE (_DBG_CODE_ADDR, 0xbfc02000)
                0x00000ff0                PROVIDE (_DBG_CODE_SIZE, 0xff0)

.reset          0xbfc00000      0x1f4
 *(.reset)
 .reset         0xbfc00000       0x10 c:/program files (x86)/microchip/mplabc32/v2.02/bin/../lib/gcc/pic32mx/4.5.1/../../../../pic32mx/lib/crt0.o
                0xbfc00000                _reset
 *(.reset.startup)
 .reset.startup
                0xbfc00010      0x1e4 c:/program files (x86)/microchip/mplabc32/v2.02/bin/../lib/gcc/pic32mx/4.5.1/../../../../pic32mx/lib/crt0.o

.bev_excpt      0xbfc00380       0x10
 *(.bev_handler)
 .bev_handler   0xbfc00380       0x10 c:/program files (x86)/microchip/mplabc32/v2.02/bin/../lib/gcc/pic32mx/4.5.1/../../../../pic32mx/lib/crt0.o

.dbg_excpt      0xbfc00480        0x8
                0xbfc00480                . = (. + DEFINED (_DEBUGGER)?0x8:0x0)
 *fill*         0xbfc00480        0x8 00

.dbg_code       0xbfc02000      0xff0
                0xbfc02000                . = (. + DEFINED (_DEBUGGER)?_DBG_CODE_SIZE:0x0)
 *fill*         0xbfc02000      0xff0 00

.app_excpt      0x9fc01180       0x10
 *(.gen_handler)
 .gen_handler   0x9fc01180       0x10 c:/program files (x86)/microchip/mplabc32/v2.02/bin/../lib/gcc/pic32mx/4.5.1/../../../../pic32mx/lib/crt0.o

.vector_0       0x9fc01200        0x0
 *(.vector_0)
                0x00000001                ASSERT (((_vector_spacing == 0x0) || (SIZEOF (.vector_0) <= (_vector_spacing << 0x5))), function at exception vector 0 too large)

.vector_1       0x9fc01220        0x0
 *(.vector_1)
                0x00000001                ASSERT (((_vector_spacing == 0x0) || (SIZEOF (.vector_1) <= (_vector_spacing << 0x5))), function at exception vector 1 too large)

.vector_2       0x9fc01240        0x0
 *(.vector_2)
                0x00000001                ASSERT (((_vector_spacing == 0x0) || (SIZEOF (.vector_2) <= (_vector_spacing << 0x5))), function at exception vector 2 too large)

.vector_3       0x9fc01260        0x0
 *(.vector_3)
                0x00000001                ASSERT (((_vector_spacing == 0x0) || (SIZEOF (.vector_3) <= (_vector_spacing << 0x5))), function at exception vector 3 too large)

.vector_4       0x9fc01280        0x8
 *(.vector_4)
 .vector_4      0x9fc01280        0x8 obj-tmp\Tick.o
                0x00000001                ASSERT (((_vector_spacing == 0x0) || (SIZEOF (.vector_4) <= (_vector_spacing << 0x5))), function at exception vector 4 too large)

.vector_5       0x9fc012a0        0x0
 *(.vector_5)
                0x00000001                ASSERT (((_vector_spacing == 0x0) || (SIZEOF (.vector_5) <= (_vector_spacing << 0x5))), function at exception vector 5 too large)

.vector_6       0x9fc012c0        0x0
 *(.vector_6)
                0x00000001                ASSERT (((_vector_spacing == 0x0) || (SIZEOF (.vector_6) <= (_vector_spacing << 0x5))), function at exception vector 6 too large)

.vector_7       0x9fc012e0        0x0
 *(.vector_7)
                0x00000001                ASSERT (((_vector_spacing == 0x0) || (SIZEOF (.vector_7) <= (_vector_spacing << 0x5))), function at exception vector 7 too large)

.vector_8       0x9fc01300        0x0
 *(.vector_8)
                0x00000001                ASSERT (((_vector_spacing == 0x0) || (SIZEOF (.vector_8) <= (_vector_spacing << 0x5))), function at exception vector 8 too large)

.vector_9       0x9fc01320        0x0
 *(.vector_9)
                0x00000001                ASSERT (((_vector_spacing == 0x0) || (SIZEOF (.vector_9) <= (_vector_spacing << 0x5))), function at exception vector 9 too large)

.vector_10      0x9fc01340        0x0
 *(.vector_10)
                0x00000001                ASSERT (((_vector_spacing == 0x0) || (SIZEOF (.vector_10) <= (_vector_spacing << 0x5))), function at exception vector 10 too large)

.vector_11      0x9fc01360        0x0
 *(.vector_11)
                0x00000001                ASSERT (((_vector_spacing == 0x0) || (SIZEOF (.vector_11) <= (_vector_spacing << 0x5))), function at exception vector 11 too large)

.vector_12      0x9fc01380        0x0
 *(.vector_12)
                0x00000001                ASSERT (((_vector_spacing == 0x0) || (SIZEOF (.vector_12) <= (_vector_spacing << 0x5))), function at exception vector 12 too large)

.vector_13      0x9fc013a0        0x0
 *(.vector_13)
                0x00000001                ASSERT (((_vector_spacing == 0x0) || (SIZEOF (.vector_13) <= (_vector_spacing << 0x5))), function at exception vector 13 too large)

.vector_14      0x9fc013c0        0x0
 *(.vector_14)
                0x00000001                ASSERT (((_vector_spacing == 0x0) || (SIZEOF (.vector_14) <= (_vector_spacing << 0x5))), function at exception vector 14 too large)

.vector_15      0x9fc013e0        0x8
 *(.vector_15)
 .vector_15     0x9fc013e0        0x8 obj-tmp\WF_Eint.o
                0x00000001                ASSERT (((_vector_spacing == 0x0) || (SIZEOF (.vector_15) <= (_vector_spacing << 0x5))), function at exception vector 15 too large)

.vector_16      0x9fc01400        0x0
 *(.vector_16)
                0x00000001                ASSERT (((_vector_spacing == 0x0) || (SIZEOF (.vector_16) <= (_vector_spacing << 0x5))), function at exception vector 16 too large)

.vector_17      0x9fc01420        0x0
 *(.vector_17)
                0x00000001                ASSERT (((_vector_spacing == 0x0) || (SIZEOF (.vector_17) <= (_vector_spacing << 0x5))), function at exception vector 17 too large)

.vector_18      0x9fc01440        0x0
 *(.vector_18)
                0x00000001                ASSERT (((_vector_spacing == 0x0) || (SIZEOF (.vector_18) <= (_vector_spacing << 0x5))), function at exception vector 18 too large)

.vector_19      0x9fc01460        0x0
 *(.vector_19)
                0x00000001                ASSERT (((_vector_spacing == 0x0) || (SIZEOF (.vector_19) <= (_vector_spacing << 0x5))), function at exception vector 19 too large)

.vector_20      0x9fc01480        0x0
 *(.vector_20)
                0x00000001                ASSERT (((_vector_spacing == 0x0) || (SIZEOF (.vector_20) <= (_vector_spacing << 0x5))), function at exception vector 20 too large)

.vector_21      0x9fc014a0        0x0
 *(.vector_21)
                0x00000001                ASSERT (((_vector_spacing == 0x0) || (SIZEOF (.vector_21) <= (_vector_spacing << 0x5))), function at exception vector 21 too large)

.vector_22      0x9fc014c0        0x0
 *(.vector_22)
                0x00000001                ASSERT (((_vector_spacing == 0x0) || (SIZEOF (.vector_22) <= (_vector_spacing << 0x5))), function at exception vector 22 too large)

.vector_23      0x9fc014e0        0x0
 *(.vector_23)
                0x00000001                ASSERT (((_vector_spacing == 0x0) || (SIZEOF (.vector_23) <= (_vector_spacing << 0x5))), function at exception vector 23 too large)

.vector_24      0x9fc01500        0x8
 *(.vector_24)
 .vector_24     0x9fc01500        0x8 obj-tmp\INTiMain.o
                0x00000001                ASSERT (((_vector_spacing == 0x0) || (SIZEOF (.vector_24) <= (_vector_spacing << 0x5))), function at exception vector 24 too large)

.vector_25      0x9fc01520        0x0
 *(.vector_25)
                0x00000001                ASSERT (((_vector_spacing == 0x0) || (SIZEOF (.vector_25) <= (_vector_spacing << 0x5))), function at exception vector 25 too large)

.vector_26      0x9fc01540        0x0
 *(.vector_26)
                0x00000001                ASSERT (((_vector_spacing == 0x0) || (SIZEOF (.vector_26) <= (_vector_spacing << 0x5))), function at exception vector 26 too large)

.vector_27      0x9fc01560        0x0
 *(.vector_27)
                0x00000001                ASSERT (((_vector_spacing == 0x0) || (SIZEOF (.vector_27) <= (_vector_spacing << 0x5))), function at exception vector 27 too large)

.vector_28      0x9fc01580        0x0
 *(.vector_28)
                0x00000001                ASSERT (((_vector_spacing == 0x0) || (SIZEOF (.vector_28) <= (_vector_spacing << 0x5))), function at exception vector 28 too large)

.vector_29      0x9fc015a0        0x0
 *(.vector_29)
                0x00000001                ASSERT (((_vector_spacing == 0x0) || (SIZEOF (.vector_29) <= (_vector_spacing << 0x5))), function at exception vector 29 too large)

.vector_30      0x9fc015c0        0x0
 *(.vector_30)
                0x00000001                ASSERT (((_vector_spacing == 0x0) || (SIZEOF (.vector_30) <= (_vector_spacing << 0x5))), function at exception vector 30 too large)

.vector_31      0x9fc015e0        0x0
 *(.vector_31)
                0x00000001                ASSERT (((_vector_spacing == 0x0) || (SIZEOF (.vector_31) <= (_vector_spacing << 0x5))), function at exception vector 31 too large)

.vector_32      0x9fc01600        0x8
 *(.vector_32)
 .vector_32     0x9fc01600        0x8 obj-tmp\INTiMain.o
                0x00000001                ASSERT (((_vector_spacing == 0x0) || (SIZEOF (.vector_32) <= (_vector_spacing << 0x5))), function at exception vector 32 too large)

.vector_33      0x9fc01620        0x0
 *(.vector_33)
                0x00000001                ASSERT (((_vector_spacing == 0x0) || (SIZEOF (.vector_33) <= (_vector_spacing << 0x5))), function at exception vector 33 too large)

.vector_34      0x9fc01640        0x0
 *(.vector_34)
                0x00000001                ASSERT (((_vector_spacing == 0x0) || (SIZEOF (.vector_34) <= (_vector_spacing << 0x5))), function at exception vector 34 too large)

.vector_35      0x9fc01660        0x0
 *(.vector_35)
                0x00000001                ASSERT (((_vector_spacing == 0x0) || (SIZEOF (.vector_35) <= (_vector_spacing << 0x5))), function at exception vector 35 too large)

.vector_36      0x9fc01680        0x0
 *(.vector_36)
                0x00000001                ASSERT (((_vector_spacing == 0x0) || (SIZEOF (.vector_36) <= (_vector_spacing << 0x5))), function at exception vector 36 too large)

.vector_37      0x9fc016a0        0x0
 *(.vector_37)
                0x00000001                ASSERT (((_vector_spacing == 0x0) || (SIZEOF (.vector_37) <= (_vector_spacing << 0x5))), function at exception vector 37 too large)

.vector_38      0x9fc016c0        0x0
 *(.vector_38)
                0x00000001                ASSERT (((_vector_spacing == 0x0) || (SIZEOF (.vector_38) <= (_vector_spacing << 0x5))), function at exception vector 38 too large)

.vector_39      0x9fc016e0        0x0
 *(.vector_39)
                0x00000001                ASSERT (((_vector_spacing == 0x0) || (SIZEOF (.vector_39) <= (_vector_spacing << 0x5))), function at exception vector 39 too large)

.vector_40      0x9fc01700        0x0
 *(.vector_40)
                0x00000001                ASSERT (((_vector_spacing == 0x0) || (SIZEOF (.vector_40) <= (_vector_spacing << 0x5))), function at exception vector 40 too large)

.vector_41      0x9fc01720        0x0
 *(.vector_41)
                0x00000001                ASSERT (((_vector_spacing == 0x0) || (SIZEOF (.vector_41) <= (_vector_spacing << 0x5))), function at exception vector 41 too large)

.vector_42      0x9fc01740        0x0
 *(.vector_42)
                0x00000001                ASSERT (((_vector_spacing == 0x0) || (SIZEOF (.vector_42) <= (_vector_spacing << 0x5))), function at exception vector 42 too large)

.vector_43      0x9fc01760        0x0
 *(.vector_43)
                0x00000001                ASSERT (((_vector_spacing == 0x0) || (SIZEOF (.vector_43) <= (_vector_spacing << 0x5))), function at exception vector 43 too large)

.vector_44      0x9fc01780        0x0
 *(.vector_44)
                0x00000001                ASSERT (((_vector_spacing == 0x0) || (SIZEOF (.vector_44) <= (_vector_spacing << 0x5))), function at exception vector 44 too large)

.vector_45      0x9fc017a0        0x0
 *(.vector_45)
                0x00000001                ASSERT (((_vector_spacing == 0x0) || (SIZEOF (.vector_45) <= (_vector_spacing << 0x5))), function at exception vector 45 too large)

.vector_46      0x9fc017c0        0x0
 *(.vector_46)
                0x00000001                ASSERT (((_vector_spacing == 0x0) || (SIZEOF (.vector_46) <= (_vector_spacing << 0x5))), function at exception vector 46 too large)

.vector_47      0x9fc017e0        0x0
 *(.vector_47)
                0x00000001                ASSERT (((_vector_spacing == 0x0) || (SIZEOF (.vector_47) <= (_vector_spacing << 0x5))), function at exception vector 47 too large)

.vector_48      0x9fc01800        0x0
 *(.vector_48)
                0x00000001                ASSERT (((_vector_spacing == 0x0) || (SIZEOF (.vector_48) <= (_vector_spacing << 0x5))), function at exception vector 48 too large)

.vector_49      0x9fc01820        0x0
 *(.vector_49)
                0x00000001                ASSERT (((_vector_spacing == 0x0) || (SIZEOF (.vector_49) <= (_vector_spacing << 0x5))), function at exception vector 49 too large)

.vector_50      0x9fc01840        0x0
 *(.vector_50)
                0x00000001                ASSERT (((_vector_spacing == 0x0) || (SIZEOF (.vector_50) <= (_vector_spacing << 0x5))), function at exception vector 50 too large)

.vector_51      0x9fc01860        0x8
 *(.vector_51)
 .vector_51     0x9fc01860        0x8 obj-tmp\INTiMain.o
                0x00000001                ASSERT (((_vector_spacing == 0x0) || (SIZEOF (.vector_51) <= (_vector_spacing << 0x5))), function at exception vector 51 too large)

.vector_52      0x9fc01880        0x0
 *(.vector_52)
                0x00000001                ASSERT (((_vector_spacing == 0x0) || (SIZEOF (.vector_52) <= (_vector_spacing << 0x5))), function at exception vector 52 too large)

.vector_53      0x9fc018a0        0x0
 *(.vector_53)
                0x00000001                ASSERT (((_vector_spacing == 0x0) || (SIZEOF (.vector_53) <= (_vector_spacing << 0x5))), function at exception vector 53 too large)

.vector_54      0x9fc018c0        0x0
 *(.vector_54)
                0x00000001                ASSERT (((_vector_spacing == 0x0) || (SIZEOF (.vector_54) <= (_vector_spacing << 0x5))), function at exception vector 54 too large)

.vector_55      0x9fc018e0        0x0
 *(.vector_55)
                0x00000001                ASSERT (((_vector_spacing == 0x0) || (SIZEOF (.vector_55) <= (_vector_spacing << 0x5))), function at exception vector 55 too large)

.vector_56      0x9fc01900        0x0
 *(.vector_56)
                0x00000001                ASSERT (((_vector_spacing == 0x0) || (SIZEOF (.vector_56) <= (_vector_spacing << 0x5))), function at exception vector 56 too large)

.vector_57      0x9fc01920        0x0
 *(.vector_57)
                0x00000001                ASSERT (((_vector_spacing == 0x0) || (SIZEOF (.vector_57) <= (_vector_spacing << 0x5))), function at exception vector 57 too large)

.vector_58      0x9fc01940        0x0
 *(.vector_58)
                0x00000001                ASSERT (((_vector_spacing == 0x0) || (SIZEOF (.vector_58) <= (_vector_spacing << 0x5))), function at exception vector 58 too large)

.vector_59      0x9fc01960        0x0
 *(.vector_59)
                0x00000001                ASSERT (((_vector_spacing == 0x0) || (SIZEOF (.vector_59) <= (_vector_spacing << 0x5))), function at exception vector 59 too large)

.vector_60      0x9fc01980        0x0
 *(.vector_60)
                0x00000001                ASSERT (((_vector_spacing == 0x0) || (SIZEOF (.vector_60) <= (_vector_spacing << 0x5))), function at exception vector 60 too large)

.vector_61      0x9fc019a0        0x0
 *(.vector_61)
                0x00000001                ASSERT (((_vector_spacing == 0x0) || (SIZEOF (.vector_61) <= (_vector_spacing << 0x5))), function at exception vector 61 too large)

.vector_62      0x9fc019c0        0x0
 *(.vector_62)
                0x00000001                ASSERT (((_vector_spacing == 0x0) || (SIZEOF (.vector_62) <= (_vector_spacing << 0x5))), function at exception vector 62 too large)

.vector_63      0x9fc019e0        0x0
 *(.vector_63)
                0x00000001                ASSERT (((_vector_spacing == 0x0) || (SIZEOF (.vector_63) <= (_vector_spacing << 0x5))), function at exception vector 63 too large)

.startup
 *(.startup)

.text
 *(.stub .gnu.linkonce.t.*)
 *(.text.*personality*)
 *(.mips16.fn.*)
 *(.mips16.call.*)
 *(.gnu.warning)

.rodata         0x9d000000        0x0
 *(.rodata.* .gnu.linkonce.r.*)
 *(.rodata1)
                0x9d000000                . = ALIGN (0x4)

.sdata2         0x9fc00490        0x0
 *(.sdata2 .sdata2.* .gnu.linkonce.s2.*)
                0x9fc00490                . = ALIGN (0x4)

.sbss2          0x9fc00490        0x0
 *(.sbss2 .sbss2.* .gnu.linkonce.sb2.*)
                0x9fc00490                . = ALIGN (0x4)

.eh_frame_hdr
 *(.eh_frame_hdr)

.eh_frame
 *(.eh_frame)

.dbg_data       0xa0000000      0x200
                0xa0000000                . = (. + DEFINED (_DEBUGGER)?0x200:0x0)
 *fill*         0xa0000000      0x200 00

.persist        0xa0000200        0x0
                0xa0000200                _persist_begin = .
 *(.persist .persist.*)
                0xa0000200                . = ALIGN (0x4)
                0xa0000200                _persist_end = .

.eh_frame       0xa0000200       0x3c
 *(.eh_frame)
 .eh_frame      0xa0000200       0x28 c:/program files (x86)/microchip/mplabc32/v2.02/bin/../lib/gcc/pic32mx/4.5.1\libgcc.a(_udivdi3.o)
 .eh_frame      0xa0000228       0x14 c:/program files (x86)/microchip/mplabc32/v2.02/bin/../lib/gcc/pic32mx/4.5.1\libgcc.a(_umoddi3.o)
                                 0x28 (size before relaxing)
                0xa000023c                . = .
                0xa0008230                _gp = (ALIGN (0x10) + 0x7ff0)

.got
 *(.got.plt)
 *(.got)

.sdata          0xa000023c       0x70
                0xa000023c                _sdata_begin = .
 *(.sdata .sdata.* .gnu.linkonce.s.*)
 .sdata         0xa000023c        0x1 obj-tmp\Main.o
                0xa000023c                g_prescan_waiting
 *fill*         0xa000023d        0x3 00
 .sdata         0xa0000240        0x4 obj-tmp\CustomHTTPApp.o
 .sdata         0xa0000244        0x8 obj-tmp\DNS.o
 .sdata         0xa000024c        0x1 obj-tmp\DNSs.o
 *fill*         0xa000024d        0x3 00
 .sdata         0xa0000250        0x4 obj-tmp\Helpers.o
 .sdata         0xa0000254        0x1 obj-tmp\Reboot.o
 .sdata         0xa0000255        0x2 obj-tmp\TCP.o
 .sdata         0xa0000257        0x2 obj-tmp\UDP.o
 .sdata         0xa0000259        0x1 obj-tmp\ZeroconfHelper.o
                0xa0000259                zeroconf_dbg_level
 *fill*         0xa000025a        0x2 00
 .sdata         0xa000025c        0x8 obj-tmp\ZeroconfLinkLocal.o
 .sdata         0xa0000264        0x8 obj-tmp\ZeroconfMulticastDNS.o
                0xa0000264                CONST_STR_local
                0xa0000268                mDNS_socket
 .sdata         0xa000026c        0x1 obj-tmp\WFConnectionAlgorithm.o
 .sdata         0xa000026d        0x1 obj-tmp\WFPowerSave.o
 *fill*         0xa000026e        0x2 00
 .sdata         0xa0000270        0xc obj-tmp\DHCPs.o
                0xa0000270                bDHCPServerEnabled
 .sdata         0xa000027c        0x8 obj-tmp\TimeMonitor.o
                0xa000027c                tmMillisecondsPerTick
 .sdata         0xa0000284        0x4 obj-tmp\ADE7753.o
                0xa0000284                spi_channel
 .sdata         0xa0000288        0x4 obj-tmp\spi.o
                0xa0000288                spi_channel_in_use
 .sdata.register_data
                0xa000028c        0x4 C:\Projects\Intwine\Aztec\Power.a(ADE7753.o)
                0xa000028c                register_data
 .sdata.PowerData
                0xa0000290        0x4 C:\Projects\Intwine\Aztec\Power.a(ADE7753.o)
                0xa0000290                PowerData
 .sdata.GAIN_SETTING
                0xa0000294        0x1 C:\Projects\Intwine\Aztec\Power.a(ADE7753.o)
                0xa0000294                GAIN_SETTING
 *fill*         0xa0000295        0x3 00
 .sdata.power_data
                0xa0000298        0x4 C:\Projects\Intwine\Aztec\Power.a(ADE7753.o)
                0xa0000298                power_data
 .sdata.aenergy_nums
                0xa000029c        0x4 C:\Projects\Intwine\Aztec\Power.a(ADE7753.o)
                0xa000029c                aenergy_nums
 .sdata.aenergy_data
                0xa00002a0        0x4 C:\Projects\Intwine\Aztec\Power.a(ADE7753.o)
                0xa00002a0                aenergy_data
 .sdata         0xa00002a4        0x4 c:/program files (x86)/microchip/mplabc32/v2.02/bin/../lib/gcc/pic32mx/4.5.1/../../../../pic32mx/lib\libc.a(_iob.o)
                0xa00002a4                _Files
 .sdata         0xa00002a8        0x4 c:/program files (x86)/microchip/mplabc32/v2.02/bin/../lib/gcc/pic32mx/4.5.1/../../../../pic32mx/lib\libc.a(c32_uart.o)
                0xa00002a8                __C32_UART
                0xa00002ac                _sdata_end = .

.lit8
 *(.lit8)

.lit4
 *(.lit4)
                0xa00002ac                . = ALIGN (0x4)
                0xa00002ac                _data_end = .
                0xa00002ac                _bss_begin = .

.sbss           0xa00002ac      0x239
                0xa00002ac                _sbss_begin = .
 *(.dynsbss)
 *(.sbss .sbss.* .gnu.linkonce.sb.*)
 .sbss          0xa00002ac       0x10 obj-tmp\Main.o
                0xa00002ac                g_scan_done
 .sbss          0xa00002bc        0xc obj-tmp\CustomHTTPApp.o
 .sbss          0xa00002c8        0x8 obj-tmp\Announce.o
 .sbss          0xa00002d0        0x4 obj-tmp\ARP.o
 .sbss          0xa00002d4       0x14 obj-tmp\DNS.o
 .sbss          0xa00002e8        0x1 obj-tmp\DNSs.o
 *fill*         0xa00002e9        0x1 00
 .sbss          0xa00002ea        0x4 obj-tmp\IP.o
 *fill*         0xa00002ee        0x2 00
 .sbss          0xa00002f0        0x8 obj-tmp\MPFS2.o
 .sbss          0xa00002f8        0x8 obj-tmp\NBNS.o
 .sbss          0xa0000300        0x8 obj-tmp\SPIFlash.o
 .sbss          0xa0000308       0x10 obj-tmp\StackTsk.o
                0xa0000308                g_DhcpRenew
                0xa000030c                g_DhcpRetryTimer
 *fill*         0xa0000318        0x0 00
 .sbss          0xa0000318       0x10 obj-tmp\Tick.o
 .sbss          0xa0000328        0x8 obj-tmp\UDP.o
 .sbss          0xa0000330       0x34 obj-tmp\ZeroconfLinkLocal.o
                0xa0000330                zcll_state
                0xa0000334                zcll_dhcp_substate
 .sbss          0xa0000364        0x8 obj-tmp\ZeroconfMulticastDNS.o
                0xa0000364                mDNS_responder_state
 .sbss          0xa000036c        0x4 obj-tmp\WFConnectionManager.o
 .sbss          0xa0000370        0xc obj-tmp\WFPowerSave.o
 .sbss          0xa000037c        0x1 obj-tmp\WF_Spi.o
 *fill*         0xa000037d        0x3 00
 .sbss          0xa0000380       0x28 obj-tmp\WFDriverCom_24G.o
                0xa0000380                g_DhcpSuccessful
                0xa0000384                g_WiFiConnectionChanged
                0xa0000388                g_WiFiConnection
                0xa000038c                g_dhcpInProgress
 .sbss          0xa00003a8        0x8 obj-tmp\WFDriverRaw_24G.o
                0xa00003a8                g_HostRAWDataPacketReceived
                0xa00003ac                g_RawIndexPastEnd
 .sbss          0xa00003b0       0x14 obj-tmp\WFMac_24G.o
 .sbss          0xa00003c4        0xc obj-tmp\WFMgmtMsg_24G.o
                0xa00003c4                g_WaitingForMgmtResponse
 .sbss          0xa00003d0        0x4 obj-tmp\DHCP.o
                0xa00003d0                DHCPClientInitializedOnce
 .sbss          0xa00003d4        0xc obj-tmp\DHCPs.o
 .sbss          0xa00003e0        0xc obj-tmp\INTiMain.o
                0xa00003e0                UART5RxCallbackFunction
                0xa00003e4                UART2RxCallbackFunction
                0xa00003e8                SPI3RxCallbackFunction
 .sbss          0xa00003ec       0x10 obj-tmp\app_ICO_ICL.o
                0xa00003ec                MainSysTickTimer
                0xa00003f0                MainSystemUNIXTime
                0xa00003f4                AppTickTimer
 .sbss          0xa00003fc        0x8 obj-tmp\TimeMonitor.o
                0xa00003fc                tmTimeMonitorClock
                0xa0000400                tmTickDownTimeIndex0
 .sbss          0xa0000404       0x28 obj-tmp\icoPowerMeasurement.o
 .sbss          0xa000042c        0xc obj-tmp\icoUserButton.o
 .sbss          0xa0000438        0x4 obj-tmp\spi.o
 .sbss          0xa000043c        0xc obj-tmp\Power.o
                0xa000043c                iPowerInitialized
                0xa0000440                dwSampledPower
                0xa0000444                dwSampledEnergy
 .sbss.checksum_cali_result
                0xa0000448        0x1 C:\Projects\Intwine\Aztec\Power.a(ADE7753.o)
                0xa0000448                checksum_cali_result
 *fill*         0xa0000449        0x3 00
 .sbss.cf_den_current
                0xa000044c        0x4 C:\Projects\Intwine\Aztec\Power.a(ADE7753.o)
                0xa000044c                cf_den_current
 .sbss.capture_timer
                0xa0000450        0x4 C:\Projects\Intwine\Aztec\Power.a(ADE7753.o)
                0xa0000450                capture_timer
 .sbss.capture_timer_l
                0xa0000454        0x4 C:\Projects\Intwine\Aztec\Power.a(ADE7753.o)
                0xa0000454                capture_timer_l
 .sbss.capture_timer_sp
                0xa0000458        0x4 C:\Projects\Intwine\Aztec\Power.a(ADE7753.o)
                0xa0000458                capture_timer_sp
 .sbss.capture_num
                0xa000045c        0x4 C:\Projects\Intwine\Aztec\Power.a(ADE7753.o)
                0xa000045c                capture_num
 .sbss.capture_num_l
                0xa0000460        0x4 C:\Projects\Intwine\Aztec\Power.a(ADE7753.o)
                0xa0000460                capture_num_l
 .sbss.capture_num_sp
                0xa0000464        0x4 C:\Projects\Intwine\Aztec\Power.a(ADE7753.o)
                0xa0000464                capture_num_sp
 .sbss.chann1_measure_range
                0xa0000468        0x1 C:\Projects\Intwine\Aztec\Power.a(ADE7753.o)
                0xa0000468                chann1_measure_range
 .sbss.chann1_gain
                0xa0000469        0x1 C:\Projects\Intwine\Aztec\Power.a(ADE7753.o)
                0xa0000469                chann1_gain
 *fill*         0xa000046a        0x2 00
 .sbss.chann1_full_scale
                0xa000046c        0x4 C:\Projects\Intwine\Aztec\Power.a(ADE7753.o)
                0xa000046c                chann1_full_scale
 .sbss.chann1_full_bit
                0xa0000470        0x1 C:\Projects\Intwine\Aztec\Power.a(ADE7753.o)
                0xa0000470                chann1_full_bit
 .sbss.chann2_gain
                0xa0000471        0x1 C:\Projects\Intwine\Aztec\Power.a(ADE7753.o)
                0xa0000471                chann2_gain
 *fill*         0xa0000472        0x2 00
 .sbss.num_per_wh
                0xa0000474        0x4 C:\Projects\Intwine\Aztec\Power.a(ADE7753.o)
                0xa0000474                num_per_wh
 .sbss.current_status
                0xa0000478        0x4 C:\Projects\Intwine\Aztec\Power.a(ADE7753.o)
                0xa0000478                current_status
 .sbss.chang_gain_cutdown
                0xa000047c        0x1 C:\Projects\Intwine\Aztec\Power.a(ADE7753.o)
                0xa000047c                chang_gain_cutdown
 *fill*         0xa000047d        0x3 00
 .sbss.Flash_ID
                0xa0000480        0x4 C:\Projects\Intwine\Aztec\Power.a(ADE7753.o)
                0xa0000480                Flash_ID
 .sbss.check_address
                0xa0000484        0x4 C:\Projects\Intwine\Aztec\Power.a(ADE7753.o)
                0xa0000484                check_address
 .sbss.check_cnt
                0xa0000488        0x4 C:\Projects\Intwine\Aztec\Power.a(ADE7753.o)
                0xa0000488                check_cnt
 .sbss.check_data
                0xa000048c        0x4 C:\Projects\Intwine\Aztec\Power.a(ADE7753.o)
                0xa000048c                check_data
 .sbss.power_sign_neg
                0xa0000490        0x1 C:\Projects\Intwine\Aztec\Power.a(ADE7753.o)
                0xa0000490                power_sign_neg
 .sbss.enable_write
                0xa0000491        0x1 C:\Projects\Intwine\Aztec\Power.a(ADE7753.o)
                0xa0000491                enable_write
 *fill*         0xa0000492        0x2 00
 .sbss.checksum_cali_data
                0xa0000494        0x4 C:\Projects\Intwine\Aztec\Power.a(ADE7753.o)
                0xa0000494                checksum_cali_data
 .sbss.one_second_f
                0xa0000498        0x1 C:\Projects\Intwine\Aztec\Power.a(ADE7753.o)
                0xa0000498                one_second_f
 .sbss.energy_time_s
                0xa0000499        0x1 C:\Projects\Intwine\Aztec\Power.a(ADE7753.o)
                0xa0000499                energy_time_s
 *fill*         0xa000049a        0x2 00
 .sbss.power_regsdata
                0xa000049c        0x4 C:\Projects\Intwine\Aztec\Power.a(ADE7753.o)
                0xa000049c                power_regsdata
 .sbss.powerdata
                0xa00004a0        0x4 C:\Projects\Intwine\Aztec\Power.a(ADE7753.o)
                0xa00004a0                powerdata
 .sbss.mul_result_3
                0xa00004a4        0x1 C:\Projects\Intwine\Aztec\Power.a(ADE7753.o)
                0xa00004a4                mul_result_3
 .sbss.mul_result_2
                0xa00004a5        0x1 C:\Projects\Intwine\Aztec\Power.a(ADE7753.o)
                0xa00004a5                mul_result_2
 .sbss.mul_result_1
                0xa00004a6        0x1 C:\Projects\Intwine\Aztec\Power.a(ADE7753.o)
                0xa00004a6                mul_result_1
 .sbss.mul_result_0
                0xa00004a7        0x1 C:\Projects\Intwine\Aztec\Power.a(ADE7753.o)
                0xa00004a7                mul_result_0
 .sbss.div_3    0xa00004a8        0x1 C:\Projects\Intwine\Aztec\Power.a(ADE7753.o)
                0xa00004a8                div_3
 .sbss.div_2    0xa00004a9        0x1 C:\Projects\Intwine\Aztec\Power.a(ADE7753.o)
                0xa00004a9                div_2
 .sbss.div_1    0xa00004aa        0x1 C:\Projects\Intwine\Aztec\Power.a(ADE7753.o)
                0xa00004aa                div_1
 .sbss.div_0    0xa00004ab        0x1 C:\Projects\Intwine\Aztec\Power.a(ADE7753.o)
                0xa00004ab                div_0
 .sbss.quotient_1
                0xa00004ac        0x1 C:\Projects\Intwine\Aztec\Power.a(ADE7753.o)
                0xa00004ac                quotient_1
 .sbss.quotient_0
                0xa00004ad        0x1 C:\Projects\Intwine\Aztec\Power.a(ADE7753.o)
                0xa00004ad                quotient_0
 .sbss.residue_3
                0xa00004ae        0x1 C:\Projects\Intwine\Aztec\Power.a(ADE7753.o)
                0xa00004ae                residue_3
 .sbss.residue_2
                0xa00004af        0x1 C:\Projects\Intwine\Aztec\Power.a(ADE7753.o)
                0xa00004af                residue_2
 .sbss.residue_1
                0xa00004b0        0x1 C:\Projects\Intwine\Aztec\Power.a(ADE7753.o)
                0xa00004b0                residue_1
 .sbss.residue_0
                0xa00004b1        0x1 C:\Projects\Intwine\Aztec\Power.a(ADE7753.o)
                0xa00004b1                residue_0
 .sbss.div_bits
                0xa00004b2        0x1 C:\Projects\Intwine\Aztec\Power.a(ADE7753.o)
                0xa00004b2                div_bits
 *fill*         0xa00004b3        0x1 00
 .sbss.cali_data_temp
                0xa00004b4        0x4 C:\Projects\Intwine\Aztec\Power.a(ADE7753.o)
                0xa00004b4                cali_data_temp
 .sbss.energy_temp
                0xa00004b8        0x4 C:\Projects\Intwine\Aztec\Power.a(ADE7753.o)
                0xa00004b8                energy_temp
 .sbss          0xa00004bc        0x1 c:/program files (x86)/microchip/mplabc32/v2.02/bin/../lib/gcc/pic32mx/4.5.1/../../../../pic32mx/lib\libc.a(_iob.o)
                0xa00004bc                _outdone
 *(.scommon)
 .scommon       0xa00004bd        0x1 obj-tmp\HTTP2.o
                0xa00004bd                curHTTPID
 .scommon       0xa00004be        0x6 obj-tmp\UDP.o
                0xa00004be                activeUDPSocket
                0xa00004c0                UDPTxCount
                0xa00004c2                UDPRxCount
 .scommon       0xa00004c4        0x6 obj-tmp\WFEasyConfig.o
                0xa00004c4                g_ScanCtx
 *fill*         0xa00004ca        0x2 00
 .scommon       0xa00004cc        0x4 obj-tmp\WFPowerSave.o
                0xa00004cc                g_rxDtim
 .scommon       0xa00004d0        0x8 obj-tmp\WFDriverCom_24G.o
                0xa00004d0                RawMoveState
 .scommon       0xa00004d8        0x2 obj-tmp\WFDriverRaw_24G.o
                0xa00004d8                RawWindowState
 *fill*         0xa00004da        0x2 00
 .scommon       0xa00004dc        0x4 obj-tmp\WFMac_24G.o
                0xa00004dc                WF_hibernate
                0xa00004de                g_rxBufferLength
 .scommon       0xa00004e0        0x4 obj-tmp\app_ICO_ICL.o
                0xa00004e0                lostlink_flag
 .scommon       0xa00004e4        0x1 obj-tmp\Power.o
                0xa00004e4                flag
                0xa00004e5                _sbss_end = .

.bss            0xa00004e8      0xeb4
 *(.dynbss)
 *(COMMON)
 COMMON         0xa00004e8       0x9a obj-tmp\Main.o
                0xa00004e8                AppConfig
 *fill*         0xa0000582        0x2 00
 COMMON         0xa0000584       0x9c obj-tmp\HTTP2.o
                0xa0000584                curHTTP
                0xa0000610                httpStubs
 COMMON         0xa0000620        0xa obj-tmp\StackTsk.o
                0xa0000620                remoteNode
 *fill*         0xa000062a        0x2 00
 COMMON         0xa000062c       0xe0 obj-tmp\UDP.o
                0xa000062c                UDPSocketInfo
 COMMON         0xa000070c      0xbe8 obj-tmp\WFEasyConfig.o
                0xa000070c                preScanResult
                0xa0001260                g_easyConfigCtx
 COMMON         0xa00012f4       0x78 obj-tmp\DHCPs.o
                0xa00012f4                DhcpIpPool
 COMMON         0xa000136c       0x30 obj-tmp\TimeMonitor.o
                0xa000136c                tmCallbackFunctionI
                0xa0001384                tmTickDownTimeI
                0xa000139c                . = ALIGN (0x4)
                0xa000139c                . = ALIGN (0x4)
                0xa000139c                _end = .
                0xa000139c                _bss_end = .
                0x00010000                _bmxdudba_address = 0x10000
                0x00010000                _bmxdupba_address = 0x10000

/DISCARD/
 *(.pdr)
 *(.reginfo)
 *(.rel.dyn)
 *(.note.GNU-stack)
 *(.note.GNU-stack)
 *(.gnu_debuglink)
 *(.gnu.lto_*)
 *(.discard)

.stab
 *(.stab)

.stabstr
 *(.stabstr)

.stab.excl
 *(.stab.excl)

.stab.exclstr
 *(.stab.exclstr)

.stab.index
 *(.stab.index)

.stab.indexstr
 *(.stab.indexstr)

.comment        0x00000000      0x335
 *(.comment)
 .comment       0x00000000       0x51 obj-tmp\Main.o
                                 0x52 (size before relaxing)
 .comment       0x00000000       0x52 obj-tmp\CustomHTTPApp.o
 .comment       0x00000000       0x52 obj-tmp\WF_Config.o
 .comment       0x00000000       0x52 obj-tmp\WifiGDemoMPFSImg.o
 .comment       0x00000000       0x52 obj-tmp\Announce.o
 .comment       0x00000000       0x52 obj-tmp\ARCFOUR.o
 .comment       0x00000000       0x52 obj-tmp\ARP.o
 .comment       0x00000000       0x52 obj-tmp\AutoIP.o
 .comment       0x00000000       0x52 obj-tmp\BerkeleyAPI.o
 .comment       0x00000000       0x52 obj-tmp\BigInt.o
 .comment       0x00000000       0x52 obj-tmp\Delay.o
 .comment       0x00000000       0x52 obj-tmp\DNS.o
 .comment       0x00000000       0x52 obj-tmp\DNSs.o
 .comment       0x00000000       0x52 obj-tmp\DynDNS.o
 .comment       0x00000000       0x52 obj-tmp\FileSystem.o
 .comment       0x00000000       0x52 obj-tmp\FTP.o
 .comment       0x00000000       0x52 obj-tmp\Hashes.o
 .comment       0x00000000       0x52 obj-tmp\Helpers.o
 .comment       0x00000000       0x52 obj-tmp\HTTP2.o
 .comment       0x00000000       0x52 obj-tmp\ICMP.o
 .comment       0x00000000       0x52 obj-tmp\IP.o
 .comment       0x00000000       0x52 obj-tmp\LCDBlocking.o
 .comment       0x00000000       0x52 obj-tmp\MPFS2.o
 .comment       0x00000000       0x52 obj-tmp\NBNS.o
 .comment       0x00000000       0x52 obj-tmp\Random.o
 .comment       0x00000000       0x52 obj-tmp\Reboot.o
 .comment       0x00000000       0x52 obj-tmp\RSA.o
 .comment       0x00000000       0x52 obj-tmp\SMTP.o
 .comment       0x00000000       0x52 obj-tmp\SNMP.o
 .comment       0x00000000       0x52 obj-tmp\SNMPv3.o
 .comment       0x00000000       0x52 obj-tmp\SNMPv3USM.o
 .comment       0x00000000       0x52 obj-tmp\SNTP.o
 .comment       0x00000000       0x52 obj-tmp\SPIEEPROM.o
 .comment       0x00000000       0x52 obj-tmp\SPIFlash.o
 .comment       0x00000000       0x52 obj-tmp\SPIRAM.o
 .comment       0x00000000       0x52 obj-tmp\SSL.o
 .comment       0x00000000       0x52 obj-tmp\StackTsk.o
 .comment       0x00000000       0x52 obj-tmp\TCP.o
 .comment       0x00000000       0x52 obj-tmp\TCPPerformanceTest.o
 .comment       0x00000000       0x52 obj-tmp\Telnet.o
 .comment       0x00000000       0x52 obj-tmp\TFTPc.o
 .comment       0x00000000       0x52 obj-tmp\Tick.o
 .comment       0x00000000       0x52 obj-tmp\UART.o
 .comment       0x00000000       0x52 obj-tmp\UART2TCPBridge.o
 .comment       0x00000000       0x52 obj-tmp\UDP.o
 .comment       0x00000000       0x52 obj-tmp\UDPPerformanceTest.o
 .comment       0x00000000       0x52 obj-tmp\ZeroconfHelper.o
 .comment       0x00000000       0x52 obj-tmp\ZeroconfLinkLocal.o
 .comment       0x00000000       0x52 obj-tmp\ZeroconfMulticastDNS.o
 .comment       0x00000000       0x52 obj-tmp\WF_Eint.o
 .comment       0x00000000       0x52 obj-tmp\WF_pbkdf2.o
 .comment       0x00000000       0x52 obj-tmp\WFConnectionAlgorithm.o
 .comment       0x00000000       0x52 obj-tmp\WFConnectionManager.o
 .comment       0x00000000       0x52 obj-tmp\WFConnectionProfile.o
 .comment       0x00000000       0x52 obj-tmp\WFConsole.o
 .comment       0x00000000       0x52 obj-tmp\WFConsoleIfconfig.o
 .comment       0x00000000       0x52 obj-tmp\WFConsoleIwconfig.o
 .comment       0x00000000       0x52 obj-tmp\WFConsoleIwpriv.o
 .comment       0x00000000       0x52 obj-tmp\WFConsoleMsgHandler.o
 .comment       0x00000000       0x52 obj-tmp\WFConsoleMsgs.o
 .comment       0x00000000       0x52 obj-tmp\WFDataTxRx.o
 .comment       0x00000000       0x52 obj-tmp\WFDebugStrings.o
 .comment       0x00000000       0x52 obj-tmp\WFEasyConfig.o
 .comment       0x00000000       0x52 obj-tmp\WFEventHandler.o
 .comment       0x00000000       0x52 obj-tmp\WFInit.o
 .comment       0x00000000       0x52 obj-tmp\WFPowerSave.o
 .comment       0x00000000       0x52 obj-tmp\WFScan.o
 .comment       0x00000000       0x52 obj-tmp\WFTxPower.o
 .comment       0x00000000       0x52 obj-tmp\WF_Spi.o
 .comment       0x00000000       0x52 obj-tmp\WFDriverCom_24G.o
 .comment       0x00000000       0x52 obj-tmp\WFDriverRaw_24G.o
 .comment       0x00000000       0x52 obj-tmp\WFMac_24G.o
 .comment       0x00000000       0x52 obj-tmp\WFMgmtMsg_24G.o
 .comment       0x00000000       0x52 obj-tmp\WFParamMsg_24G.o
 .comment       0x00000000       0x52 obj-tmp\DHCP.o
 .comment       0x00000000       0x52 obj-tmp\DHCPs.o
 .comment       0x00000000       0x52 obj-tmp\i2c_master.o
 .comment       0x00000000       0x52 obj-tmp\INTiMain.o
 .comment       0x00000000       0x52 obj-tmp\UARTiMain.o
 .comment       0x00000000       0x52 obj-tmp\Assert.o
 .comment       0x00000000       0x52 obj-tmp\Device_ICO_ICL.o
 .comment       0x00000000       0x52 obj-tmp\DeviceState.o
 .comment       0x00000000       0x52 obj-tmp\app_ICO_ICL.o
 .comment       0x00000000       0x52 obj-tmp\TimeMonitor.o
 .comment       0x00000000       0x52 obj-tmp\icoPowerMeasurement.o
 .comment       0x00000000       0x52 obj-tmp\icoUserButton.o
 .comment       0x00000000       0x52 obj-tmp\ADE7753.o
 .comment       0x00000000       0x52 obj-tmp\spi.o
 .comment       0x00000000       0x52 obj-tmp\Power.o
 .comment       0x00000051       0x4d C:\Projects\Intwine\Aztec\Power.a(ADE7753.o)
 .comment       0x00000000       0x52 c:/program files (x86)/microchip/mplabc32/v2.02/bin/../lib/gcc/pic32mx/4.5.1\libgcc.a(_udivdi3.o)
 .comment       0x00000000       0x52 c:/program files (x86)/microchip/mplabc32/v2.02/bin/../lib/gcc/pic32mx/4.5.1\libgcc.a(_umoddi3.o)
 .comment       0x0000009e       0x55 c:/program files (x86)/microchip/mplabc32/v2.02/bin/../lib/gcc/pic32mx/4.5.1/../../../../pic32mx/lib\libc.a(memcmp.o)
                                 0x56 (size before relaxing)
 .comment       0x000000f3       0x55 c:/program files (x86)/microchip/mplabc32/v2.02/bin/../lib/gcc/pic32mx/4.5.1/../../../../pic32mx/lib\libc.a(memset.o)
                                 0x56 (size before relaxing)
 .comment       0x00000148       0x55 c:/program files (x86)/microchip/mplabc32/v2.02/bin/../lib/gcc/pic32mx/4.5.1/../../../../pic32mx/lib\libc.a(strcmp.o)
                                 0x56 (size before relaxing)
 .comment       0x0000019d       0x55 c:/program files (x86)/microchip/mplabc32/v2.02/bin/../lib/gcc/pic32mx/4.5.1/../../../../pic32mx/lib\libc.a(strcpy.o)
                                 0x56 (size before relaxing)
 .comment       0x000001f2       0x55 c:/program files (x86)/microchip/mplabc32/v2.02/bin/../lib/gcc/pic32mx/4.5.1/../../../../pic32mx/lib\libc.a(strlen.o)
                                 0x56 (size before relaxing)
 .comment       0x00000000       0x52 c:/program files (x86)/microchip/mplabc32/v2.02/bin/../lib/gcc/pic32mx/4.5.1/../../../../pic32mx/lib\libc.a(atol.o)
 .comment       0x00000247       0x4e c:/program files (x86)/microchip/mplabc32/v2.02/bin/../lib/gcc/pic32mx/4.5.1/../../../../pic32mx/lib\libc.a(ctype.o)
                                 0xa0 (size before relaxing)
 .comment       0x00000000       0x52 c:/program files (x86)/microchip/mplabc32/v2.02/bin/../lib/gcc/pic32mx/4.5.1/../../../../pic32mx/lib\libc.a(puts.o)
 .comment       0x00000000       0x52 c:/program files (x86)/microchip/mplabc32/v2.02/bin/../lib/gcc/pic32mx/4.5.1/../../../../pic32mx/lib\libc.a(strcat.o)
 .comment       0x00000000       0x52 c:/program files (x86)/microchip/mplabc32/v2.02/bin/../lib/gcc/pic32mx/4.5.1/../../../../pic32mx/lib\libc.a(strncpy.o)
 .comment       0x00000000       0x52 c:/program files (x86)/microchip/mplabc32/v2.02/bin/../lib/gcc/pic32mx/4.5.1/../../../../pic32mx/lib\libc.a(strrchr.o)
 .comment       0x00000000       0x52 c:/program files (x86)/microchip/mplabc32/v2.02/bin/../lib/gcc/pic32mx/4.5.1/../../../../pic32mx/lib\libc.a(printf_cdnopsuxX.eo)
 .comment       0x00000000       0x52 c:/program files (x86)/microchip/mplabc32/v2.02/bin/../lib/gcc/pic32mx/4.5.1/../../../../pic32mx/lib\libc.a(sprintf_cdnopsuxX.eo)
 .comment       0x00000000       0x52 c:/program files (x86)/microchip/mplabc32/v2.02/bin/../lib/gcc/pic32mx/4.5.1/../../../../pic32mx/lib\libc.a(sscanf_cdnopuxX.eo)
 .comment       0x00000000       0x52 c:/program files (x86)/microchip/mplabc32/v2.02/bin/../lib/gcc/pic32mx/4.5.1/../../../../pic32mx/lib\libc.a(default-bootstrap-exception-handler.o)
 .comment       0x00000000       0x52 c:/program files (x86)/microchip/mplabc32/v2.02/bin/../lib/gcc/pic32mx/4.5.1/../../../../pic32mx/lib\libc.a(default-on-reset.o)
 .comment       0x00000000       0x52 c:/program files (x86)/microchip/mplabc32/v2.02/bin/../lib/gcc/pic32mx/4.5.1/../../../../pic32mx/lib\libc.a(default-on-bootstrap.o)
 .comment       0x00000000       0x52 c:/program files (x86)/microchip/mplabc32/v2.02/bin/../lib/gcc/pic32mx/4.5.1/../../../../pic32mx/lib\libc.a(_iob.o)
 .comment       0x00000000       0x52 c:/program files (x86)/microchip/mplabc32/v2.02/bin/../lib/gcc/pic32mx/4.5.1/../../../../pic32mx/lib\libc.a(_fputc_simple.o)
 .comment       0x00000000       0x52 c:/program files (x86)/microchip/mplabc32/v2.02/bin/../lib/gcc/pic32mx/4.5.1/../../../../pic32mx/lib\libc.a(doprnt_cdnopsuxX.eo)
 .comment       0x00000000       0x52 c:/program files (x86)/microchip/mplabc32/v2.02/bin/../lib/gcc/pic32mx/4.5.1/../../../../pic32mx/lib\libc.a(doscan_cdnopuxX.eo)
 .comment       0x00000000       0x52 c:/program files (x86)/microchip/mplabc32/v2.02/bin/../lib/gcc/pic32mx/4.5.1/../../../../pic32mx/lib\libc.a(write.o)
 .comment       0x00000000       0x52 c:/program files (x86)/microchip/mplabc32/v2.02/bin/../lib/gcc/pic32mx/4.5.1/../../../../pic32mx/lib\libc.a(_flsbuf_simple.o)
 .comment       0x00000000       0x52 c:/program files (x86)/microchip/mplabc32/v2.02/bin/../lib/gcc/pic32mx/4.5.1/../../../../pic32mx/lib\libc.a(fgetc.o)
 .comment       0x00000000       0x52 c:/program files (x86)/microchip/mplabc32/v2.02/bin/../lib/gcc/pic32mx/4.5.1/../../../../pic32mx/lib\libc.a(atoi.o)
 .comment       0x00000295       0x4f c:/program files (x86)/microchip/mplabc32/v2.02/bin/../lib/gcc/pic32mx/4.5.1/../../../../pic32mx/lib\libc.a(ctypef.o)
                                 0xa1 (size before relaxing)
 .comment       0x00000000       0x52 c:/program files (x86)/microchip/mplabc32/v2.02/bin/../lib/gcc/pic32mx/4.5.1/../../../../pic32mx/lib\libc.a(ungetc.o)
 .comment       0x00000000       0x52 c:/program files (x86)/microchip/mplabc32/v2.02/bin/../lib/gcc/pic32mx/4.5.1/../../../../pic32mx/lib\libc.a(filbuf.o)
 .comment       0x00000000       0x52 c:/program files (x86)/microchip/mplabc32/v2.02/bin/../lib/gcc/pic32mx/4.5.1/../../../../pic32mx/lib\libc.a(fflush.o)
 .comment       0x00000000       0x52 c:/program files (x86)/microchip/mplabc32/v2.02/bin/../lib/gcc/pic32mx/4.5.1/../../../../pic32mx/lib\libc.a(read.o)
 .comment       0x00000000       0x52 c:/program files (x86)/microchip/mplabc32/v2.02/bin/../lib/gcc/pic32mx/4.5.1/../../../../pic32mx/lib\libc.a(c32_uart.o)
 .comment       0x000002e4       0x51 c:/program files (x86)/microchip/mplabc32/v2.02/bin/../lib/gcc/pic32mx/4.5.1/../../../../pic32mx/lib\libmchp_peripheral_32MX575F256L.a(soft_reset_lib.o)
                                 0x52 (size before relaxing)
 .comment       0x00000000       0x52 c:/program files (x86)/microchip/mplabc32/v2.02/bin/../lib/gcc/pic32mx/4.5.1/../../../../pic32mx/lib\libmchp_peripheral_32MX575F256L.a(pcache.o)
 .comment       0x00000000       0x52 c:/program files (x86)/microchip/mplabc32/v2.02/bin/../lib/gcc/pic32mx/4.5.1/../../../../pic32mx/lib\libmchp_peripheral_32MX575F256L.a(int_disable_interrupts_lib.o)
 .comment       0x00000000       0x52 c:/program files (x86)/microchip/mplabc32/v2.02/bin/../lib/gcc/pic32mx/4.5.1/../../../../pic32mx/lib\libmchp_peripheral_32MX575F256L.a(int_restore_interrupts_lib.o)
 .comment       0x00000000       0x52 c:/program files (x86)/microchip/mplabc32/v2.02/bin/../lib/gcc/pic32mx/4.5.1/../../../../pic32mx/lib\libmchp_peripheral_32MX575F256L.a(int_enable_mv_int_lib.o)
 .comment       0x00000000       0x52 c:/program files (x86)/microchip/mplabc32/v2.02/bin/../lib/gcc/pic32mx/4.5.1/../../../../pic32mx/lib\libmchp_peripheral_32MX575F256L.a(int_tbl_lib.o)
 .comment       0x00000000       0x52 c:/program files (x86)/microchip/mplabc32/v2.02/bin/../lib/gcc/pic32mx/4.5.1/../../../../pic32mx/lib\libmchp_peripheral_32MX575F256L.a(spi_chn_getc_lib.o)
 .comment       0x00000000       0x52 c:/program files (x86)/microchip/mplabc32/v2.02/bin/../lib/gcc/pic32mx/4.5.1/../../../../pic32mx/lib\libmchp_peripheral_32MX575F256L.a(spi_chn_putc_lib.o)
 .comment       0x00000000       0x52 c:/program files (x86)/microchip/mplabc32/v2.02/bin/../lib/gcc/pic32mx/4.5.1/../../../../pic32mx/lib\libmchp_peripheral_32MX575F256L.a(spi_chn_change_mode_lib.o)
 .comment       0x00000000       0x52 c:/program files (x86)/microchip/mplabc32/v2.02/bin/../lib/gcc/pic32mx/4.5.1/../../../../pic32mx/lib\libmchp_peripheral_32MX575F256L.a(spi_io_tbl_libp.o)
 .comment       0x00000000       0x52 c:/program files (x86)/microchip/mplabc32/v2.02/bin/../lib/gcc/pic32mx/4.5.1/../../../../pic32mx/lib\libmchp_peripheral_32MX575F256L.a(spi_map_tbl_libp.o)
 .comment       0x00000000       0x52 c:/program files (x86)/microchip/mplabc32/v2.02/bin/../lib/gcc/pic32mx/4.5.1/../../../../pic32mx/lib\libmchp_peripheral_32MX575F256L.a(port_set_pins_digital_in_lib.o)
 .comment       0x00000000       0x52 c:/program files (x86)/microchip/mplabc32/v2.02/bin/../lib/gcc/pic32mx/4.5.1/../../../../pic32mx/lib\libmchp_peripheral_32MX575F256L.a(port_set_pins_digital_out_lib.o)
 .comment       0x00000000       0x52 c:/program files (x86)/microchip/mplabc32/v2.02/bin/../lib/gcc/pic32mx/4.5.1/../../../../pic32mx/lib\libmchp_peripheral_32MX575F256L.a(_ports_tbl_libp.o)
 .comment       0x00000000       0x52 c:/program files (x86)/microchip/mplabc32/v2.02/bin/../lib/gcc/pic32mx/4.5.1/../../../../pic32mx/lib\libmchp_peripheral_32MX575F256L.a(uart_lib.o)
 .comment       0x00000000       0x52 c:/program files (x86)/microchip/mplabc32/v2.02/bin/../lib/gcc/pic32mx/4.5.1/../../../../pic32mx/lib\libmchp_peripheral_32MX575F256L.a(puts_uartx_lib_legacy.o)
 .comment       0x00000000       0x52 c:/program files (x86)/microchip/mplabc32/v2.02/bin/../lib/gcc/pic32mx/4.5.1/../../../../pic32mx/lib\libmchp_peripheral_32MX575F256L.a(idle_i2c2_lib_legacy.o)
 .comment       0x00000000       0x52 c:/program files (x86)/microchip/mplabc32/v2.02/bin/../lib/gcc/pic32mx/4.5.1/../../../../pic32mx/lib\libmchp_peripheral_32MX575F256L.a(I2CPrivate.o)
 .comment       0x00000000       0x52 c:/program files (x86)/microchip/mplabc32/v2.02/bin/../lib/gcc/pic32mx/4.5.1/../../../../pic32mx/lib\libmchp_peripheral_32MX575F256L.a(I2CBusIsIdle.o)
 .comment       0x00000000       0x52 c:/program files (x86)/microchip/mplabc32/v2.02/bin/../lib/gcc/pic32mx/4.5.1/../../../../pic32mx/lib\libmchp_peripheral_32MX575F256L.a(I2CByteWasAcknowledged.o)
 .comment       0x00000000       0x52 c:/program files (x86)/microchip/mplabc32/v2.02/bin/../lib/gcc/pic32mx/4.5.1/../../../../pic32mx/lib\libmchp_peripheral_32MX575F256L.a(I2CEnable.o)
 .comment       0x00000000       0x52 c:/program files (x86)/microchip/mplabc32/v2.02/bin/../lib/gcc/pic32mx/4.5.1/../../../../pic32mx/lib\libmchp_peripheral_32MX575F256L.a(I2CGetByte.o)
 .comment       0x00000000       0x52 c:/program files (x86)/microchip/mplabc32/v2.02/bin/../lib/gcc/pic32mx/4.5.1/../../../../pic32mx/lib\libmchp_peripheral_32MX575F256L.a(I2CGetStatus.o)
 .comment       0x00000000       0x52 c:/program files (x86)/microchip/mplabc32/v2.02/bin/../lib/gcc/pic32mx/4.5.1/../../../../pic32mx/lib\libmchp_peripheral_32MX575F256L.a(I2CReceivedDataIsAvailable.o)
 .comment       0x00000000       0x52 c:/program files (x86)/microchip/mplabc32/v2.02/bin/../lib/gcc/pic32mx/4.5.1/../../../../pic32mx/lib\libmchp_peripheral_32MX575F256L.a(I2CReceiverEnable.o)
 .comment       0x00000000       0x52 c:/program files (x86)/microchip/mplabc32/v2.02/bin/../lib/gcc/pic32mx/4.5.1/../../../../pic32mx/lib\libmchp_peripheral_32MX575F256L.a(I2CRepeatStart.o)
 .comment       0x00000000       0x52 c:/program files (x86)/microchip/mplabc32/v2.02/bin/../lib/gcc/pic32mx/4.5.1/../../../../pic32mx/lib\libmchp_peripheral_32MX575F256L.a(I2CSetFrequency.o)
 .comment       0x00000000       0x52 c:/program files (x86)/microchip/mplabc32/v2.02/bin/../lib/gcc/pic32mx/4.5.1/../../../../pic32mx/lib\libmchp_peripheral_32MX575F256L.a(I2CStart.o)
 .comment       0x00000000       0x52 c:/program files (x86)/microchip/mplabc32/v2.02/bin/../lib/gcc/pic32mx/4.5.1/../../../../pic32mx/lib\libmchp_peripheral_32MX575F256L.a(I2CStop.o)
 .comment       0x00000000       0x52 c:/program files (x86)/microchip/mplabc32/v2.02/bin/../lib/gcc/pic32mx/4.5.1/../../../../pic32mx/lib\libmchp_peripheral_32MX575F256L.a(I2CTransmissionHasCompleted.o)
 .comment       0x00000000       0x52 c:/program files (x86)/microchip/mplabc32/v2.02/bin/../lib/gcc/pic32mx/4.5.1/../../../../pic32mx/lib\libmchp_peripheral_32MX575F256L.a(I2CTransmitterIsReady.o)
 .comment       0x00000000       0x52 c:/program files (x86)/microchip/mplabc32/v2.02/bin/../lib/gcc/pic32mx/4.5.1/../../../../pic32mx/lib\libmchp_peripheral_32MX575F256L.a(int_enable_interrupts_lib.o)

.debug
 *(.debug)

.line
 *(.line)

.debug_srcinfo
 *(.debug_srcinfo)

.debug_sfnames
 *(.debug_sfnames)

.debug_aranges  0x00000000      0xf60
 *(.debug_aranges)
 .debug_aranges
                0x00000000       0x20 obj-tmp\Main.o
 .debug_aranges
                0x00000020       0x20 obj-tmp\CustomHTTPApp.o
 .debug_aranges
                0x00000040       0x20 obj-tmp\WF_Config.o
 .debug_aranges
                0x00000060       0x20 obj-tmp\Announce.o
 .debug_aranges
                0x00000080       0x20 obj-tmp\ARP.o
 .debug_aranges
                0x000000a0       0x20 obj-tmp\Delay.o
 .debug_aranges
                0x000000c0       0x20 obj-tmp\DNS.o
 .debug_aranges
                0x000000e0       0x20 obj-tmp\DNSs.o
 .debug_aranges
                0x00000100       0x20 obj-tmp\Helpers.o
 .debug_aranges
                0x00000120       0x20 obj-tmp\HTTP2.o
 .debug_aranges
                0x00000140       0x20 obj-tmp\ICMP.o
 .debug_aranges
                0x00000160       0x20 obj-tmp\IP.o
 .debug_aranges
                0x00000180       0x20 obj-tmp\MPFS2.o
 .debug_aranges
                0x000001a0       0x20 obj-tmp\NBNS.o
 .debug_aranges
                0x000001c0       0x20 obj-tmp\Reboot.o
 .debug_aranges
                0x000001e0       0x20 obj-tmp\SPIFlash.o
 .debug_aranges
                0x00000200       0x20 obj-tmp\StackTsk.o
 .debug_aranges
                0x00000220       0x20 obj-tmp\TCP.o
 .debug_aranges
                0x00000240       0x20 obj-tmp\Tick.o
 .debug_aranges
                0x00000260       0x20 obj-tmp\UART.o
 .debug_aranges
                0x00000280       0x20 obj-tmp\UDP.o
 .debug_aranges
                0x000002a0       0x20 obj-tmp\ZeroconfHelper.o
 .debug_aranges
                0x000002c0       0x20 obj-tmp\ZeroconfLinkLocal.o
 .debug_aranges
                0x000002e0       0x20 obj-tmp\ZeroconfMulticastDNS.o
 .debug_aranges
                0x00000300       0x20 obj-tmp\WF_Eint.o
 .debug_aranges
                0x00000320       0x20 obj-tmp\WF_pbkdf2.o
 .debug_aranges
                0x00000340       0x20 obj-tmp\WFConnectionAlgorithm.o
 .debug_aranges
                0x00000360       0x20 obj-tmp\WFConnectionManager.o
 .debug_aranges
                0x00000380       0x20 obj-tmp\WFConnectionProfile.o
 .debug_aranges
                0x000003a0       0x20 obj-tmp\WFConsoleMsgHandler.o
 .debug_aranges
                0x000003c0       0x20 obj-tmp\WFConsoleMsgs.o
 .debug_aranges
                0x000003e0       0x20 obj-tmp\WFDebugStrings.o
 .debug_aranges
                0x00000400       0x20 obj-tmp\WFEasyConfig.o
 .debug_aranges
                0x00000420       0x20 obj-tmp\WFEventHandler.o
 .debug_aranges
                0x00000440       0x20 obj-tmp\WFInit.o
 .debug_aranges
                0x00000460       0x20 obj-tmp\WFPowerSave.o
 .debug_aranges
                0x00000480       0x20 obj-tmp\WFScan.o
 .debug_aranges
                0x000004a0       0x20 obj-tmp\WFTxPower.o
 .debug_aranges
                0x000004c0       0x20 obj-tmp\WF_Spi.o
 .debug_aranges
                0x000004e0       0x20 obj-tmp\WFDriverCom_24G.o
 .debug_aranges
                0x00000500       0x20 obj-tmp\WFDriverRaw_24G.o
 .debug_aranges
                0x00000520       0x20 obj-tmp\WFMac_24G.o
 .debug_aranges
                0x00000540       0x20 obj-tmp\WFMgmtMsg_24G.o
 .debug_aranges
                0x00000560       0x20 obj-tmp\WFParamMsg_24G.o
 .debug_aranges
                0x00000580       0x20 obj-tmp\DHCP.o
 .debug_aranges
                0x000005a0       0x20 obj-tmp\DHCPs.o
 .debug_aranges
                0x000005c0       0x20 obj-tmp\i2c_master.o
 .debug_aranges
                0x000005e0       0x20 obj-tmp\INTiMain.o
 .debug_aranges
                0x00000600       0x20 obj-tmp\UARTiMain.o
 .debug_aranges
                0x00000620       0x20 obj-tmp\Assert.o
 .debug_aranges
                0x00000640       0x20 obj-tmp\Device_ICO_ICL.o
 .debug_aranges
                0x00000660       0x20 obj-tmp\DeviceState.o
 .debug_aranges
                0x00000680       0x20 obj-tmp\app_ICO_ICL.o
 .debug_aranges
                0x000006a0       0x20 obj-tmp\TimeMonitor.o
 .debug_aranges
                0x000006c0       0x20 obj-tmp\icoPowerMeasurement.o
 .debug_aranges
                0x000006e0       0x20 obj-tmp\icoUserButton.o
 .debug_aranges
                0x00000700       0x20 obj-tmp\ADE7753.o
 .debug_aranges
                0x00000720       0x20 obj-tmp\spi.o
 .debug_aranges
                0x00000740       0x20 obj-tmp\Power.o
 .debug_aranges
                0x00000760       0x20 C:\Projects\Intwine\Aztec\Power.a(ADE7753.o)
 .debug_aranges
                0x00000780       0x20 c:/program files (x86)/microchip/mplabc32/v2.02/bin/../lib/gcc/pic32mx/4.5.1\libgcc.a(_udivdi3.o)
 .debug_aranges
                0x000007a0       0x20 c:/program files (x86)/microchip/mplabc32/v2.02/bin/../lib/gcc/pic32mx/4.5.1\libgcc.a(_umoddi3.o)
 .debug_aranges
                0x000007c0       0x20 c:/program files (x86)/microchip/mplabc32/v2.02/bin/../lib/gcc/pic32mx/4.5.1/../../../../pic32mx/lib\libc.a(atol.o)
 .debug_aranges
                0x000007e0       0x28 c:/program files (x86)/microchip/mplabc32/v2.02/bin/../lib/gcc/pic32mx/4.5.1/../../../../pic32mx/lib\libc.a(puts.o)
 .debug_aranges
                0x00000808       0x20 c:/program files (x86)/microchip/mplabc32/v2.02/bin/../lib/gcc/pic32mx/4.5.1/../../../../pic32mx/lib\libc.a(strcat.o)
 .debug_aranges
                0x00000828       0x20 c:/program files (x86)/microchip/mplabc32/v2.02/bin/../lib/gcc/pic32mx/4.5.1/../../../../pic32mx/lib\libc.a(strncpy.o)
 .debug_aranges
                0x00000848       0x20 c:/program files (x86)/microchip/mplabc32/v2.02/bin/../lib/gcc/pic32mx/4.5.1/../../../../pic32mx/lib\libc.a(strrchr.o)
 .debug_aranges
                0x00000868       0x20 c:/program files (x86)/microchip/mplabc32/v2.02/bin/../lib/gcc/pic32mx/4.5.1/../../../../pic32mx/lib\libc.a(printf_cdnopsuxX.eo)
 .debug_aranges
                0x00000888       0x20 c:/program files (x86)/microchip/mplabc32/v2.02/bin/../lib/gcc/pic32mx/4.5.1/../../../../pic32mx/lib\libc.a(sprintf_cdnopsuxX.eo)
 .debug_aranges
                0x000008a8       0x20 c:/program files (x86)/microchip/mplabc32/v2.02/bin/../lib/gcc/pic32mx/4.5.1/../../../../pic32mx/lib\libc.a(sscanf_cdnopuxX.eo)
 .debug_aranges
                0x000008c8       0x20 c:/program files (x86)/microchip/mplabc32/v2.02/bin/../lib/gcc/pic32mx/4.5.1/../../../../pic32mx/lib\libc.a(default-bootstrap-exception-handler.o)
 .debug_aranges
                0x000008e8       0x20 c:/program files (x86)/microchip/mplabc32/v2.02/bin/../lib/gcc/pic32mx/4.5.1/../../../../pic32mx/lib\libc.a(default-on-reset.o)
 .debug_aranges
                0x00000908       0x20 c:/program files (x86)/microchip/mplabc32/v2.02/bin/../lib/gcc/pic32mx/4.5.1/../../../../pic32mx/lib\libc.a(default-on-bootstrap.o)
 .debug_aranges
                0x00000928       0x20 c:/program files (x86)/microchip/mplabc32/v2.02/bin/../lib/gcc/pic32mx/4.5.1/../../../../pic32mx/lib\libc.a(_fputc_simple.o)
 .debug_aranges
                0x00000948       0x20 c:/program files (x86)/microchip/mplabc32/v2.02/bin/../lib/gcc/pic32mx/4.5.1/../../../../pic32mx/lib\libc.a(doprnt_cdnopsuxX.eo)
 .debug_aranges
                0x00000968       0x30 c:/program files (x86)/microchip/mplabc32/v2.02/bin/../lib/gcc/pic32mx/4.5.1/../../../../pic32mx/lib\libc.a(doscan_cdnopuxX.eo)
 .debug_aranges
                0x00000998       0x20 c:/program files (x86)/microchip/mplabc32/v2.02/bin/../lib/gcc/pic32mx/4.5.1/../../../../pic32mx/lib\libc.a(write.o)
 .debug_aranges
                0x000009b8       0x20 c:/program files (x86)/microchip/mplabc32/v2.02/bin/../lib/gcc/pic32mx/4.5.1/../../../../pic32mx/lib\libc.a(_flsbuf_simple.o)
 .debug_aranges
                0x000009d8       0x20 c:/program files (x86)/microchip/mplabc32/v2.02/bin/../lib/gcc/pic32mx/4.5.1/../../../../pic32mx/lib\libc.a(fgetc.o)
 .debug_aranges
                0x000009f8       0x20 c:/program files (x86)/microchip/mplabc32/v2.02/bin/../lib/gcc/pic32mx/4.5.1/../../../../pic32mx/lib\libc.a(atoi.o)
 .debug_aranges
                0x00000a18       0xa0 c:/program files (x86)/microchip/mplabc32/v2.02/bin/../lib/gcc/pic32mx/4.5.1/../../../../pic32mx/lib\libc.a(ctypef.o)
 .debug_aranges
                0x00000ab8       0x20 c:/program files (x86)/microchip/mplabc32/v2.02/bin/../lib/gcc/pic32mx/4.5.1/../../../../pic32mx/lib\libc.a(ungetc.o)
 .debug_aranges
                0x00000ad8       0x20 c:/program files (x86)/microchip/mplabc32/v2.02/bin/../lib/gcc/pic32mx/4.5.1/../../../../pic32mx/lib\libc.a(filbuf.o)
 .debug_aranges
                0x00000af8       0x20 c:/program files (x86)/microchip/mplabc32/v2.02/bin/../lib/gcc/pic32mx/4.5.1/../../../../pic32mx/lib\libc.a(fflush.o)
 .debug_aranges
                0x00000b18       0x20 c:/program files (x86)/microchip/mplabc32/v2.02/bin/../lib/gcc/pic32mx/4.5.1/../../../../pic32mx/lib\libc.a(read.o)
 .debug_aranges
                0x00000b38       0x20 c:/program files (x86)/microchip/mplabc32/v2.02/bin/../lib/gcc/pic32mx/4.5.1/../../../../pic32mx/lib\libmchp_peripheral_32MX575F256L.a(soft_reset_lib.o)
 .debug_aranges
                0x00000b58       0x28 c:/program files (x86)/microchip/mplabc32/v2.02/bin/../lib/gcc/pic32mx/4.5.1/../../../../pic32mx/lib\libmchp_peripheral_32MX575F256L.a(pcache.o)
 .debug_aranges
                0x00000b80       0x20 c:/program files (x86)/microchip/mplabc32/v2.02/bin/../lib/gcc/pic32mx/4.5.1/../../../../pic32mx/lib\libmchp_peripheral_32MX575F256L.a(int_disable_interrupts_lib.o)
 .debug_aranges
                0x00000ba0       0x20 c:/program files (x86)/microchip/mplabc32/v2.02/bin/../lib/gcc/pic32mx/4.5.1/../../../../pic32mx/lib\libmchp_peripheral_32MX575F256L.a(int_restore_interrupts_lib.o)
 .debug_aranges
                0x00000bc0       0x20 c:/program files (x86)/microchip/mplabc32/v2.02/bin/../lib/gcc/pic32mx/4.5.1/../../../../pic32mx/lib\libmchp_peripheral_32MX575F256L.a(int_enable_mv_int_lib.o)
 .debug_aranges
                0x00000be0       0x60 c:/program files (x86)/microchip/mplabc32/v2.02/bin/../lib/gcc/pic32mx/4.5.1/../../../../pic32mx/lib\libmchp_peripheral_32MX575F256L.a(int_tbl_lib.o)
 .debug_aranges
                0x00000c40       0x28 c:/program files (x86)/microchip/mplabc32/v2.02/bin/../lib/gcc/pic32mx/4.5.1/../../../../pic32mx/lib\libmchp_peripheral_32MX575F256L.a(spi_chn_getc_lib.o)
 .debug_aranges
                0x00000c68       0x30 c:/program files (x86)/microchip/mplabc32/v2.02/bin/../lib/gcc/pic32mx/4.5.1/../../../../pic32mx/lib\libmchp_peripheral_32MX575F256L.a(spi_chn_putc_lib.o)
 .debug_aranges
                0x00000c98       0x28 c:/program files (x86)/microchip/mplabc32/v2.02/bin/../lib/gcc/pic32mx/4.5.1/../../../../pic32mx/lib\libmchp_peripheral_32MX575F256L.a(spi_chn_change_mode_lib.o)
 .debug_aranges
                0x00000cc0       0x20 c:/program files (x86)/microchip/mplabc32/v2.02/bin/../lib/gcc/pic32mx/4.5.1/../../../../pic32mx/lib\libmchp_peripheral_32MX575F256L.a(port_set_pins_digital_in_lib.o)
 .debug_aranges
                0x00000ce0       0x20 c:/program files (x86)/microchip/mplabc32/v2.02/bin/../lib/gcc/pic32mx/4.5.1/../../../../pic32mx/lib\libmchp_peripheral_32MX575F256L.a(port_set_pins_digital_out_lib.o)
 .debug_aranges
                0x00000d00       0x58 c:/program files (x86)/microchip/mplabc32/v2.02/bin/../lib/gcc/pic32mx/4.5.1/../../../../pic32mx/lib\libmchp_peripheral_32MX575F256L.a(uart_lib.o)
 .debug_aranges
                0x00000d58       0x28 c:/program files (x86)/microchip/mplabc32/v2.02/bin/../lib/gcc/pic32mx/4.5.1/../../../../pic32mx/lib\libmchp_peripheral_32MX575F256L.a(puts_uartx_lib_legacy.o)
 .debug_aranges
                0x00000d80       0x20 c:/program files (x86)/microchip/mplabc32/v2.02/bin/../lib/gcc/pic32mx/4.5.1/../../../../pic32mx/lib\libmchp_peripheral_32MX575F256L.a(idle_i2c2_lib_legacy.o)
 .debug_aranges
                0x00000da0       0x20 c:/program files (x86)/microchip/mplabc32/v2.02/bin/../lib/gcc/pic32mx/4.5.1/../../../../pic32mx/lib\libmchp_peripheral_32MX575F256L.a(I2CBusIsIdle.o)
 .debug_aranges
                0x00000dc0       0x20 c:/program files (x86)/microchip/mplabc32/v2.02/bin/../lib/gcc/pic32mx/4.5.1/../../../../pic32mx/lib\libmchp_peripheral_32MX575F256L.a(I2CByteWasAcknowledged.o)
 .debug_aranges
                0x00000de0       0x20 c:/program files (x86)/microchip/mplabc32/v2.02/bin/../lib/gcc/pic32mx/4.5.1/../../../../pic32mx/lib\libmchp_peripheral_32MX575F256L.a(I2CEnable.o)
 .debug_aranges
                0x00000e00       0x20 c:/program files (x86)/microchip/mplabc32/v2.02/bin/../lib/gcc/pic32mx/4.5.1/../../../../pic32mx/lib\libmchp_peripheral_32MX575F256L.a(I2CGetByte.o)
 .debug_aranges
                0x00000e20       0x20 c:/program files (x86)/microchip/mplabc32/v2.02/bin/../lib/gcc/pic32mx/4.5.1/../../../../pic32mx/lib\libmchp_peripheral_32MX575F256L.a(I2CGetStatus.o)
 .debug_aranges
                0x00000e40       0x20 c:/program files (x86)/microchip/mplabc32/v2.02/bin/../lib/gcc/pic32mx/4.5.1/../../../../pic32mx/lib\libmchp_peripheral_32MX575F256L.a(I2CReceivedDataIsAvailable.o)
 .debug_aranges
                0x00000e60       0x20 c:/program files (x86)/microchip/mplabc32/v2.02/bin/../lib/gcc/pic32mx/4.5.1/../../../../pic32mx/lib\libmchp_peripheral_32MX575F256L.a(I2CReceiverEnable.o)
 .debug_aranges
                0x00000e80       0x20 c:/program files (x86)/microchip/mplabc32/v2.02/bin/../lib/gcc/pic32mx/4.5.1/../../../../pic32mx/lib\libmchp_peripheral_32MX575F256L.a(I2CRepeatStart.o)
 .debug_aranges
                0x00000ea0       0x20 c:/program files (x86)/microchip/mplabc32/v2.02/bin/../lib/gcc/pic32mx/4.5.1/../../../../pic32mx/lib\libmchp_peripheral_32MX575F256L.a(I2CSetFrequency.o)
 .debug_aranges
                0x00000ec0       0x20 c:/program files (x86)/microchip/mplabc32/v2.02/bin/../lib/gcc/pic32mx/4.5.1/../../../../pic32mx/lib\libmchp_peripheral_32MX575F256L.a(I2CStart.o)
 .debug_aranges
                0x00000ee0       0x20 c:/program files (x86)/microchip/mplabc32/v2.02/bin/../lib/gcc/pic32mx/4.5.1/../../../../pic32mx/lib\libmchp_peripheral_32MX575F256L.a(I2CStop.o)
 .debug_aranges
                0x00000f00       0x20 c:/program files (x86)/microchip/mplabc32/v2.02/bin/../lib/gcc/pic32mx/4.5.1/../../../../pic32mx/lib\libmchp_peripheral_32MX575F256L.a(I2CTransmissionHasCompleted.o)
 .debug_aranges
                0x00000f20       0x20 c:/program files (x86)/microchip/mplabc32/v2.02/bin/../lib/gcc/pic32mx/4.5.1/../../../../pic32mx/lib\libmchp_peripheral_32MX575F256L.a(I2CTransmitterIsReady.o)
 .debug_aranges
                0x00000f40       0x20 c:/program files (x86)/microchip/mplabc32/v2.02/bin/../lib/gcc/pic32mx/4.5.1/../../../../pic32mx/lib\libmchp_peripheral_32MX575F256L.a(int_enable_interrupts_lib.o)

.debug_pubnames
                0x00000000     0x3dc2
 *(.debug_pubnames)
 .debug_pubnames
                0x00000000       0xb7 obj-tmp\Main.o
 .debug_pubnames
                0x000000b7      0x1f4 obj-tmp\CustomHTTPApp.o
 .debug_pubnames
                0x000002ab       0x35 obj-tmp\WF_Config.o
 .debug_pubnames
                0x000002e0       0x21 obj-tmp\WifiGDemoMPFSImg.o
 .debug_pubnames
                0x00000301       0x33 obj-tmp\Announce.o
 .debug_pubnames
                0x00000334       0xb7 obj-tmp\ARP.o
 .debug_pubnames
                0x000003eb       0x2c obj-tmp\Delay.o
 .debug_pubnames
                0x00000417       0x55 obj-tmp\DNS.o
 .debug_pubnames
                0x0000046c       0x24 obj-tmp\DNSs.o
 .debug_pubnames
                0x00000490      0x10a obj-tmp\Helpers.o
 .debug_pubnames
                0x0000059a       0xcf obj-tmp\HTTP2.o
 .debug_pubnames
                0x00000669       0x22 obj-tmp\ICMP.o
 .debug_pubnames
                0x0000068b       0x44 obj-tmp\IP.o
 .debug_pubnames
                0x000006cf      0x140 obj-tmp\MPFS2.o
 .debug_pubnames
                0x0000080f       0x1f obj-tmp\NBNS.o
 .debug_pubnames
                0x0000082e       0x21 obj-tmp\Reboot.o
 .debug_pubnames
                0x0000084f       0x91 obj-tmp\SPIFlash.o
 .debug_pubnames
                0x000008e0       0x86 obj-tmp\StackTsk.o
 .debug_pubnames
                0x00000966      0x1ba obj-tmp\TCP.o
 .debug_pubnames
                0x00000b20       0x7e obj-tmp\Tick.o
 .debug_pubnames
                0x00000b9e       0x25 obj-tmp\UART.o
 .debug_pubnames
                0x00000bc3      0x155 obj-tmp\UDP.o
 .debug_pubnames
                0x00000d18       0x3b obj-tmp\ZeroconfHelper.o
 .debug_pubnames
                0x00000d53       0xc6 obj-tmp\ZeroconfLinkLocal.o
 .debug_pubnames
                0x00000e19      0x159 obj-tmp\ZeroconfMulticastDNS.o
 .debug_pubnames
                0x00000f72       0x83 obj-tmp\WF_Eint.o
 .debug_pubnames
                0x00000ff5       0x84 obj-tmp\WF_pbkdf2.o
 .debug_pubnames
                0x00001079      0x3d9 obj-tmp\WFConnectionAlgorithm.o
 .debug_pubnames
                0x00001452       0xd6 obj-tmp\WFConnectionManager.o
 .debug_pubnames
                0x00001528      0x204 obj-tmp\WFConnectionProfile.o
 .debug_pubnames
                0x0000172c       0x2f obj-tmp\WFConsoleMsgHandler.o
 .debug_pubnames
                0x0000175b      0x155 obj-tmp\WFConsoleMsgs.o
 .debug_pubnames
                0x000018b0      0x147 obj-tmp\WFDebugStrings.o
 .debug_pubnames
                0x000019f7       0xd3 obj-tmp\WFEasyConfig.o
 .debug_pubnames
                0x00001aca       0x2f obj-tmp\WFEventHandler.o
 .debug_pubnames
                0x00001af9       0x1e obj-tmp\WFInit.o
 .debug_pubnames
                0x00001b17      0x153 obj-tmp\WFPowerSave.o
 .debug_pubnames
                0x00001c6a       0x33 obj-tmp\WFScan.o
 .debug_pubnames
                0x00001c9d       0x58 obj-tmp\WFTxPower.o
 .debug_pubnames
                0x00001cf5       0x66 obj-tmp\WF_Spi.o
 .debug_pubnames
                0x00001d5b      0x1ab obj-tmp\WFDriverCom_24G.o
 .debug_pubnames
                0x00001f06      0x1ef obj-tmp\WFDriverRaw_24G.o
 .debug_pubnames
                0x000020f5      0x22c obj-tmp\WFMac_24G.o
 .debug_pubnames
                0x00002321       0xb0 obj-tmp\WFMgmtMsg_24G.o
 .debug_pubnames
                0x000023d1      0x245 obj-tmp\WFParamMsg_24G.o
 .debug_pubnames
                0x00002616       0xcc obj-tmp\DHCP.o
 .debug_pubnames
                0x000026e2       0x78 obj-tmp\DHCPs.o
 .debug_pubnames
                0x0000275a       0x84 obj-tmp\i2c_master.o
 .debug_pubnames
                0x000027de      0x16f obj-tmp\INTiMain.o
 .debug_pubnames
                0x0000294d       0x36 obj-tmp\UARTiMain.o
 .debug_pubnames
                0x00002983       0x2b obj-tmp\Assert.o
 .debug_pubnames
                0x000029ae       0x5c obj-tmp\Device_ICO_ICL.o
 .debug_pubnames
                0x00002a0a       0x5b obj-tmp\DeviceState.o
 .debug_pubnames
                0x00002a65       0x81 obj-tmp\app_ICO_ICL.o
 .debug_pubnames
                0x00002ae6      0x12a obj-tmp\TimeMonitor.o
 .debug_pubnames
                0x00002c10       0x94 obj-tmp\icoPowerMeasurement.o
 .debug_pubnames
                0x00002ca4       0x38 obj-tmp\icoUserButton.o
 .debug_pubnames
                0x00002cdc       0xe7 obj-tmp\ADE7753.o
 .debug_pubnames
                0x00002dc3       0x91 obj-tmp\spi.o
 .debug_pubnames
                0x00002e54       0xe8 obj-tmp\Power.o
 .debug_pubnames
                0x00002f3c      0x4cd C:\Projects\Intwine\Aztec\Power.a(ADE7753.o)
 .debug_pubnames
                0x00003409       0x20 c:/program files (x86)/microchip/mplabc32/v2.02/bin/../lib/gcc/pic32mx/4.5.1\libgcc.a(_udivdi3.o)
 .debug_pubnames
                0x00003429       0x20 c:/program files (x86)/microchip/mplabc32/v2.02/bin/../lib/gcc/pic32mx/4.5.1\libgcc.a(_umoddi3.o)
 .debug_pubnames
                0x00003449       0x1b c:/program files (x86)/microchip/mplabc32/v2.02/bin/../lib/gcc/pic32mx/4.5.1/../../../../pic32mx/lib\libc.a(atol.o)
 .debug_pubnames
                0x00003464       0x25 c:/program files (x86)/microchip/mplabc32/v2.02/bin/../lib/gcc/pic32mx/4.5.1/../../../../pic32mx/lib\libc.a(puts.o)
 .debug_pubnames
                0x00003489       0x1d c:/program files (x86)/microchip/mplabc32/v2.02/bin/../lib/gcc/pic32mx/4.5.1/../../../../pic32mx/lib\libc.a(strcat.o)
 .debug_pubnames
                0x000034a6       0x1e c:/program files (x86)/microchip/mplabc32/v2.02/bin/../lib/gcc/pic32mx/4.5.1/../../../../pic32mx/lib\libc.a(strncpy.o)
 .debug_pubnames
                0x000034c4       0x1e c:/program files (x86)/microchip/mplabc32/v2.02/bin/../lib/gcc/pic32mx/4.5.1/../../../../pic32mx/lib\libc.a(strrchr.o)
 .debug_pubnames
                0x000034e2       0x28 c:/program files (x86)/microchip/mplabc32/v2.02/bin/../lib/gcc/pic32mx/4.5.1/../../../../pic32mx/lib\libc.a(printf_cdnopsuxX.eo)
 .debug_pubnames
                0x0000350a       0x29 c:/program files (x86)/microchip/mplabc32/v2.02/bin/../lib/gcc/pic32mx/4.5.1/../../../../pic32mx/lib\libc.a(sprintf_cdnopsuxX.eo)
 .debug_pubnames
                0x00003533       0x27 c:/program files (x86)/microchip/mplabc32/v2.02/bin/../lib/gcc/pic32mx/4.5.1/../../../../pic32mx/lib\libc.a(sscanf_cdnopuxX.eo)
 .debug_pubnames
                0x0000355a       0x33 c:/program files (x86)/microchip/mplabc32/v2.02/bin/../lib/gcc/pic32mx/4.5.1/../../../../pic32mx/lib\libc.a(default-bootstrap-exception-handler.o)
 .debug_pubnames
                0x0000358d       0x20 c:/program files (x86)/microchip/mplabc32/v2.02/bin/../lib/gcc/pic32mx/4.5.1/../../../../pic32mx/lib\libc.a(default-on-reset.o)
 .debug_pubnames
                0x000035ad       0x24 c:/program files (x86)/microchip/mplabc32/v2.02/bin/../lib/gcc/pic32mx/4.5.1/../../../../pic32mx/lib\libc.a(default-on-bootstrap.o)
 .debug_pubnames
                0x000035d1       0x1c c:/program files (x86)/microchip/mplabc32/v2.02/bin/../lib/gcc/pic32mx/4.5.1/../../../../pic32mx/lib\libc.a(_fputc_simple.o)
 .debug_pubnames
                0x000035ed       0x2a c:/program files (x86)/microchip/mplabc32/v2.02/bin/../lib/gcc/pic32mx/4.5.1/../../../../pic32mx/lib\libc.a(doprnt_cdnopsuxX.eo)
 .debug_pubnames
                0x00003617       0x28 c:/program files (x86)/microchip/mplabc32/v2.02/bin/../lib/gcc/pic32mx/4.5.1/../../../../pic32mx/lib\libc.a(doscan_cdnopuxX.eo)
 .debug_pubnames
                0x0000363f       0x1c c:/program files (x86)/microchip/mplabc32/v2.02/bin/../lib/gcc/pic32mx/4.5.1/../../../../pic32mx/lib\libc.a(write.o)
 .debug_pubnames
                0x0000365b       0x1e c:/program files (x86)/microchip/mplabc32/v2.02/bin/../lib/gcc/pic32mx/4.5.1/../../../../pic32mx/lib\libc.a(_flsbuf_simple.o)
 .debug_pubnames
                0x00003679       0x1c c:/program files (x86)/microchip/mplabc32/v2.02/bin/../lib/gcc/pic32mx/4.5.1/../../../../pic32mx/lib\libc.a(fgetc.o)
 .debug_pubnames
                0x00003695       0x1b c:/program files (x86)/microchip/mplabc32/v2.02/bin/../lib/gcc/pic32mx/4.5.1/../../../../pic32mx/lib\libc.a(atoi.o)
 .debug_pubnames
                0x000036b0       0xe1 c:/program files (x86)/microchip/mplabc32/v2.02/bin/../lib/gcc/pic32mx/4.5.1/../../../../pic32mx/lib\libc.a(ctypef.o)
 .debug_pubnames
                0x00003791       0x1d c:/program files (x86)/microchip/mplabc32/v2.02/bin/../lib/gcc/pic32mx/4.5.1/../../../../pic32mx/lib\libc.a(ungetc.o)
 .debug_pubnames
                0x000037ae       0x1e c:/program files (x86)/microchip/mplabc32/v2.02/bin/../lib/gcc/pic32mx/4.5.1/../../../../pic32mx/lib\libc.a(filbuf.o)
 .debug_pubnames
                0x000037cc       0x1d c:/program files (x86)/microchip/mplabc32/v2.02/bin/../lib/gcc/pic32mx/4.5.1/../../../../pic32mx/lib\libc.a(fflush.o)
 .debug_pubnames
                0x000037e9       0x1b c:/program files (x86)/microchip/mplabc32/v2.02/bin/../lib/gcc/pic32mx/4.5.1/../../../../pic32mx/lib\libc.a(read.o)
 .debug_pubnames
                0x00003804       0x20 c:/program files (x86)/microchip/mplabc32/v2.02/bin/../lib/gcc/pic32mx/4.5.1/../../../../pic32mx/lib\libmchp_peripheral_32MX575F256L.a(soft_reset_lib.o)
 .debug_pubnames
                0x00003824       0x3b c:/program files (x86)/microchip/mplabc32/v2.02/bin/../lib/gcc/pic32mx/4.5.1/../../../../pic32mx/lib\libmchp_peripheral_32MX575F256L.a(pcache.o)
 .debug_pubnames
                0x0000385f       0x2b c:/program files (x86)/microchip/mplabc32/v2.02/bin/../lib/gcc/pic32mx/4.5.1/../../../../pic32mx/lib\libmchp_peripheral_32MX575F256L.a(int_disable_interrupts_lib.o)
 .debug_pubnames
                0x0000388a       0x2b c:/program files (x86)/microchip/mplabc32/v2.02/bin/../lib/gcc/pic32mx/4.5.1/../../../../pic32mx/lib\libmchp_peripheral_32MX575F256L.a(int_restore_interrupts_lib.o)
 .debug_pubnames
                0x000038b5       0x36 c:/program files (x86)/microchip/mplabc32/v2.02/bin/../lib/gcc/pic32mx/4.5.1/../../../../pic32mx/lib\libmchp_peripheral_32MX575F256L.a(int_enable_mv_int_lib.o)
 .debug_pubnames
                0x000038eb       0xca c:/program files (x86)/microchip/mplabc32/v2.02/bin/../lib/gcc/pic32mx/4.5.1/../../../../pic32mx/lib\libmchp_peripheral_32MX575F256L.a(int_tbl_lib.o)
 .debug_pubnames
                0x000039b5       0x31 c:/program files (x86)/microchip/mplabc32/v2.02/bin/../lib/gcc/pic32mx/4.5.1/../../../../pic32mx/lib\libmchp_peripheral_32MX575F256L.a(spi_chn_getc_lib.o)
 .debug_pubnames
                0x000039e6       0x43 c:/program files (x86)/microchip/mplabc32/v2.02/bin/../lib/gcc/pic32mx/4.5.1/../../../../pic32mx/lib\libmchp_peripheral_32MX575F256L.a(spi_chn_putc_lib.o)
 .debug_pubnames
                0x00003a29       0x27 c:/program files (x86)/microchip/mplabc32/v2.02/bin/../lib/gcc/pic32mx/4.5.1/../../../../pic32mx/lib\libmchp_peripheral_32MX575F256L.a(spi_chn_change_mode_lib.o)
 .debug_pubnames
                0x00003a50       0x2b c:/program files (x86)/microchip/mplabc32/v2.02/bin/../lib/gcc/pic32mx/4.5.1/../../../../pic32mx/lib\libmchp_peripheral_32MX575F256L.a(port_set_pins_digital_in_lib.o)
 .debug_pubnames
                0x00003a7b       0x2c c:/program files (x86)/microchip/mplabc32/v2.02/bin/../lib/gcc/pic32mx/4.5.1/../../../../pic32mx/lib\libmchp_peripheral_32MX575F256L.a(port_set_pins_digital_out_lib.o)
 .debug_pubnames
                0x00003aa7       0xb1 c:/program files (x86)/microchip/mplabc32/v2.02/bin/../lib/gcc/pic32mx/4.5.1/../../../../pic32mx/lib\libmchp_peripheral_32MX575F256L.a(uart_lib.o)
 .debug_pubnames
                0x00003b58       0x2e c:/program files (x86)/microchip/mplabc32/v2.02/bin/../lib/gcc/pic32mx/4.5.1/../../../../pic32mx/lib\libmchp_peripheral_32MX575F256L.a(puts_uartx_lib_legacy.o)
 .debug_pubnames
                0x00003b86       0x1f c:/program files (x86)/microchip/mplabc32/v2.02/bin/../lib/gcc/pic32mx/4.5.1/../../../../pic32mx/lib\libmchp_peripheral_32MX575F256L.a(idle_i2c2_lib_legacy.o)
 .debug_pubnames
                0x00003ba5       0x23 c:/program files (x86)/microchip/mplabc32/v2.02/bin/../lib/gcc/pic32mx/4.5.1/../../../../pic32mx/lib\libmchp_peripheral_32MX575F256L.a(I2CBusIsIdle.o)
 .debug_pubnames
                0x00003bc8       0x2d c:/program files (x86)/microchip/mplabc32/v2.02/bin/../lib/gcc/pic32mx/4.5.1/../../../../pic32mx/lib\libmchp_peripheral_32MX575F256L.a(I2CByteWasAcknowledged.o)
 .debug_pubnames
                0x00003bf5       0x20 c:/program files (x86)/microchip/mplabc32/v2.02/bin/../lib/gcc/pic32mx/4.5.1/../../../../pic32mx/lib\libmchp_peripheral_32MX575F256L.a(I2CEnable.o)
 .debug_pubnames
                0x00003c15       0x21 c:/program files (x86)/microchip/mplabc32/v2.02/bin/../lib/gcc/pic32mx/4.5.1/../../../../pic32mx/lib\libmchp_peripheral_32MX575F256L.a(I2CGetByte.o)
 .debug_pubnames
                0x00003c36       0x23 c:/program files (x86)/microchip/mplabc32/v2.02/bin/../lib/gcc/pic32mx/4.5.1/../../../../pic32mx/lib\libmchp_peripheral_32MX575F256L.a(I2CGetStatus.o)
 .debug_pubnames
                0x00003c59       0x31 c:/program files (x86)/microchip/mplabc32/v2.02/bin/../lib/gcc/pic32mx/4.5.1/../../../../pic32mx/lib\libmchp_peripheral_32MX575F256L.a(I2CReceivedDataIsAvailable.o)
 .debug_pubnames
                0x00003c8a       0x28 c:/program files (x86)/microchip/mplabc32/v2.02/bin/../lib/gcc/pic32mx/4.5.1/../../../../pic32mx/lib\libmchp_peripheral_32MX575F256L.a(I2CReceiverEnable.o)
 .debug_pubnames
                0x00003cb2       0x25 c:/program files (x86)/microchip/mplabc32/v2.02/bin/../lib/gcc/pic32mx/4.5.1/../../../../pic32mx/lib\libmchp_peripheral_32MX575F256L.a(I2CRepeatStart.o)
 .debug_pubnames
                0x00003cd7       0x26 c:/program files (x86)/microchip/mplabc32/v2.02/bin/../lib/gcc/pic32mx/4.5.1/../../../../pic32mx/lib\libmchp_peripheral_32MX575F256L.a(I2CSetFrequency.o)
 .debug_pubnames
                0x00003cfd       0x1f c:/program files (x86)/microchip/mplabc32/v2.02/bin/../lib/gcc/pic32mx/4.5.1/../../../../pic32mx/lib\libmchp_peripheral_32MX575F256L.a(I2CStart.o)
 .debug_pubnames
                0x00003d1c       0x1e c:/program files (x86)/microchip/mplabc32/v2.02/bin/../lib/gcc/pic32mx/4.5.1/../../../../pic32mx/lib\libmchp_peripheral_32MX575F256L.a(I2CStop.o)
 .debug_pubnames
                0x00003d3a       0x32 c:/program files (x86)/microchip/mplabc32/v2.02/bin/../lib/gcc/pic32mx/4.5.1/../../../../pic32mx/lib\libmchp_peripheral_32MX575F256L.a(I2CTransmissionHasCompleted.o)
 .debug_pubnames
                0x00003d6c       0x2c c:/program files (x86)/microchip/mplabc32/v2.02/bin/../lib/gcc/pic32mx/4.5.1/../../../../pic32mx/lib\libmchp_peripheral_32MX575F256L.a(I2CTransmitterIsReady.o)
 .debug_pubnames
                0x00003d98       0x2a c:/program files (x86)/microchip/mplabc32/v2.02/bin/../lib/gcc/pic32mx/4.5.1/../../../../pic32mx/lib\libmchp_peripheral_32MX575F256L.a(int_enable_interrupts_lib.o)

.debug_info     0x00000000    0x85c97
 *(.debug_info .gnu.linkonce.wi.*)
 .debug_info    0x00000000     0x34d0 obj-tmp\Main.o
 .debug_info    0x000034d0     0x2a7b obj-tmp\CustomHTTPApp.o
 .debug_info    0x00005f4b     0x1ddf obj-tmp\WF_Config.o
 .debug_info    0x00007d2a      0xf42 obj-tmp\WifiGDemoMPFSImg.o
 .debug_info    0x00008c6c     0x19ff obj-tmp\Announce.o
 .debug_info    0x0000a66b      0xf15 obj-tmp\ARCFOUR.o
 .debug_info    0x0000b580     0x1bba obj-tmp\ARP.o
 .debug_info    0x0000d13a      0xf14 obj-tmp\AutoIP.o
 .debug_info    0x0000e04e      0xf19 obj-tmp\BerkeleyAPI.o
 .debug_info    0x0000ef67      0xf14 obj-tmp\BigInt.o
 .debug_info    0x0000fe7b      0xfab obj-tmp\Delay.o
 .debug_info    0x00010e26     0x1c55 obj-tmp\DNS.o
 .debug_info    0x00012a7b     0x1a42 obj-tmp\DNSs.o
 .debug_info    0x000144bd      0xf14 obj-tmp\DynDNS.o
 .debug_info    0x000153d1      0xf18 obj-tmp\FileSystem.o
 .debug_info    0x000162e9      0xf11 obj-tmp\FTP.o
 .debug_info    0x000171fa      0xf14 obj-tmp\Hashes.o
 .debug_info    0x0001810e     0x2256 obj-tmp\Helpers.o
 .debug_info    0x0001a364     0x20c7 obj-tmp\HTTP2.o
 .debug_info    0x0001c42b     0x150a obj-tmp\ICMP.o
 .debug_info    0x0001d935     0x1a49 obj-tmp\IP.o
 .debug_info    0x0001f37e      0xf19 obj-tmp\LCDBlocking.o
 .debug_info    0x00020297     0x16eb obj-tmp\MPFS2.o
 .debug_info    0x00021982     0x1b7a obj-tmp\NBNS.o
 .debug_info    0x000234fc      0xf14 obj-tmp\Random.o
 .debug_info    0x00024410     0x18fa obj-tmp\Reboot.o
 .debug_info    0x00025d0a      0xf11 obj-tmp\RSA.o
 .debug_info    0x00026c1b      0xf12 obj-tmp\SMTP.o
 .debug_info    0x00027b2d      0xf12 obj-tmp\SNMP.o
 .debug_info    0x00028a3f      0xf14 obj-tmp\SNMPv3.o
 .debug_info    0x00029953      0xf17 obj-tmp\SNMPv3USM.o
 .debug_info    0x0002a86a      0xf12 obj-tmp\SNTP.o
 .debug_info    0x0002b77c      0xf17 obj-tmp\SPIEEPROM.o
 .debug_info    0x0002c693     0x1bb5 obj-tmp\SPIFlash.o
 .debug_info    0x0002e248      0xf14 obj-tmp\SPIRAM.o
 .debug_info    0x0002f15c      0xf11 obj-tmp\SSL.o
 .debug_info    0x0003006d     0x1911 obj-tmp\StackTsk.o
 .debug_info    0x0003197e     0x313f obj-tmp\TCP.o
 .debug_info    0x00034abd      0xf20 obj-tmp\TCPPerformanceTest.o
 .debug_info    0x000359dd      0xf14 obj-tmp\Telnet.o
 .debug_info    0x000368f1      0xf13 obj-tmp\TFTPc.o
 .debug_info    0x00037804     0x1a60 obj-tmp\Tick.o
 .debug_info    0x00039264     0x1201 obj-tmp\UART.o
 .debug_info    0x0003a465      0xf1c obj-tmp\UART2TCPBridge.o
 .debug_info    0x0003b381     0x20a4 obj-tmp\UDP.o
 .debug_info    0x0003d425      0xf20 obj-tmp\UDPPerformanceTest.o
 .debug_info    0x0003e345      0xfdd obj-tmp\ZeroconfHelper.o
 .debug_info    0x0003f322     0x1e44 obj-tmp\ZeroconfLinkLocal.o
 .debug_info    0x00041166     0x325a obj-tmp\ZeroconfMulticastDNS.o
 .debug_info    0x000443c0     0x1e2f obj-tmp\WF_Eint.o
 .debug_info    0x000461ef     0x19c4 obj-tmp\WF_pbkdf2.o
 .debug_info    0x00047bb3     0x24db obj-tmp\WFConnectionAlgorithm.o
 .debug_info    0x0004a08e     0x1ab5 obj-tmp\WFConnectionManager.o
 .debug_info    0x0004bb43     0x2283 obj-tmp\WFConnectionProfile.o
 .debug_info    0x0004ddc6      0xf1c obj-tmp\WFConsole.o
 .debug_info    0x0004ece2      0xf24 obj-tmp\WFConsoleIfconfig.o
 .debug_info    0x0004fc06      0xf24 obj-tmp\WFConsoleIwconfig.o
 .debug_info    0x00050b2a      0xf22 obj-tmp\WFConsoleIwpriv.o
 .debug_info    0x00051a4c     0x1054 obj-tmp\WFConsoleMsgHandler.o
 .debug_info    0x00052aa0     0x14e9 obj-tmp\WFConsoleMsgs.o
 .debug_info    0x00053f89      0xf1d obj-tmp\WFDataTxRx.o
 .debug_info    0x00054ea6     0x1e1a obj-tmp\WFDebugStrings.o
 .debug_info    0x00056cc0     0x1e3b obj-tmp\WFEasyConfig.o
 .debug_info    0x00058afb     0x14dc obj-tmp\WFEventHandler.o
 .debug_info    0x00059fd7     0x1a53 obj-tmp\WFInit.o
 .debug_info    0x0005ba2a     0x1a30 obj-tmp\WFPowerSave.o
 .debug_info    0x0005d45a     0x157c obj-tmp\WFScan.o
 .debug_info    0x0005e9d6     0x16d7 obj-tmp\WFTxPower.o
 .debug_info    0x000600ad     0x1a98 obj-tmp\WF_Spi.o
 .debug_info    0x00061b45     0x2880 obj-tmp\WFDriverCom_24G.o
 .debug_info    0x000643c5     0x1b8f obj-tmp\WFDriverRaw_24G.o
 .debug_info    0x00065f54     0x2594 obj-tmp\WFMac_24G.o
 .debug_info    0x000684e8     0x150d obj-tmp\WFMgmtMsg_24G.o
 .debug_info    0x000699f5     0x246d obj-tmp\WFParamMsg_24G.o
 .debug_info    0x0006be62     0x1ff0 obj-tmp\DHCP.o
 .debug_info    0x0006de52     0x2261 obj-tmp\DHCPs.o
 .debug_info    0x000700b3     0x1b1b obj-tmp\i2c_master.o
 .debug_info    0x00071bce     0x1bd7 obj-tmp\INTiMain.o
 .debug_info    0x000737a5     0x137a obj-tmp\UARTiMain.o
 .debug_info    0x00074b1f      0xfe9 obj-tmp\Assert.o
 .debug_info    0x00075b08     0x11a9 obj-tmp\Device_ICO_ICL.o
 .debug_info    0x00076cb1     0x11f5 obj-tmp\DeviceState.o
 .debug_info    0x00077ea6     0x1039 obj-tmp\app_ICO_ICL.o
 .debug_info    0x00078edf     0x16e4 obj-tmp\TimeMonitor.o
 .debug_info    0x0007a5c3     0x136d obj-tmp\icoPowerMeasurement.o
 .debug_info    0x0007b930     0x1100 obj-tmp\icoUserButton.o
 .debug_info    0x0007ca30     0x1580 obj-tmp\ADE7753.o
 .debug_info    0x0007dfb0     0x16e3 obj-tmp\spi.o
 .debug_info    0x0007f693     0x1257 obj-tmp\Power.o
 .debug_info    0x000808ea     0x17cb C:\Projects\Intwine\Aztec\Power.a(ADE7753.o)
 .debug_info    0x000820b5      0x783 c:/program files (x86)/microchip/mplabc32/v2.02/bin/../lib/gcc/pic32mx/4.5.1\libgcc.a(_udivdi3.o)
 .debug_info    0x00082838      0x7c0 c:/program files (x86)/microchip/mplabc32/v2.02/bin/../lib/gcc/pic32mx/4.5.1\libgcc.a(_umoddi3.o)
 .debug_info    0x00082ff8       0xcd c:/program files (x86)/microchip/mplabc32/v2.02/bin/../lib/gcc/pic32mx/4.5.1/../../../../pic32mx/lib\libc.a(atol.o)
 .debug_info    0x000830c5        0x0 c:/program files (x86)/microchip/mplabc32/v2.02/bin/../lib/gcc/pic32mx/4.5.1/../../../../pic32mx/lib\libc.a(ctype.o)
 .debug_info    0x000830c5       0xe1 c:/program files (x86)/microchip/mplabc32/v2.02/bin/../lib/gcc/pic32mx/4.5.1/../../../../pic32mx/lib\libc.a(puts.o)
 .debug_info    0x000831a6       0xd1 c:/program files (x86)/microchip/mplabc32/v2.02/bin/../lib/gcc/pic32mx/4.5.1/../../../../pic32mx/lib\libc.a(strcat.o)
 .debug_info    0x00083277       0xd3 c:/program files (x86)/microchip/mplabc32/v2.02/bin/../lib/gcc/pic32mx/4.5.1/../../../../pic32mx/lib\libc.a(strncpy.o)
 .debug_info    0x0008334a       0xd3 c:/program files (x86)/microchip/mplabc32/v2.02/bin/../lib/gcc/pic32mx/4.5.1/../../../../pic32mx/lib\libc.a(strrchr.o)
 .debug_info    0x0008341d       0xe3 c:/program files (x86)/microchip/mplabc32/v2.02/bin/../lib/gcc/pic32mx/4.5.1/../../../../pic32mx/lib\libc.a(printf_cdnopsuxX.eo)
 .debug_info    0x00083500       0xe5 c:/program files (x86)/microchip/mplabc32/v2.02/bin/../lib/gcc/pic32mx/4.5.1/../../../../pic32mx/lib\libc.a(sprintf_cdnopsuxX.eo)
 .debug_info    0x000835e5       0xe2 c:/program files (x86)/microchip/mplabc32/v2.02/bin/../lib/gcc/pic32mx/4.5.1/../../../../pic32mx/lib\libc.a(sscanf_cdnopuxX.eo)
 .debug_info    0x000836c7      0x106 c:/program files (x86)/microchip/mplabc32/v2.02/bin/../lib/gcc/pic32mx/4.5.1/../../../../pic32mx/lib\libc.a(default-bootstrap-exception-handler.o)
 .debug_info    0x000837cd       0xe0 c:/program files (x86)/microchip/mplabc32/v2.02/bin/../lib/gcc/pic32mx/4.5.1/../../../../pic32mx/lib\libc.a(default-on-reset.o)
 .debug_info    0x000838ad       0xe8 c:/program files (x86)/microchip/mplabc32/v2.02/bin/../lib/gcc/pic32mx/4.5.1/../../../../pic32mx/lib\libc.a(default-on-bootstrap.o)
 .debug_info    0x00083995        0x0 c:/program files (x86)/microchip/mplabc32/v2.02/bin/../lib/gcc/pic32mx/4.5.1/../../../../pic32mx/lib\libc.a(_iob.o)
 .debug_info    0x00083995       0xd6 c:/program files (x86)/microchip/mplabc32/v2.02/bin/../lib/gcc/pic32mx/4.5.1/../../../../pic32mx/lib\libc.a(_fputc_simple.o)
 .debug_info    0x00083a6b       0xe6 c:/program files (x86)/microchip/mplabc32/v2.02/bin/../lib/gcc/pic32mx/4.5.1/../../../../pic32mx/lib\libc.a(doprnt_cdnopsuxX.eo)
 .debug_info    0x00083b51      0x10a c:/program files (x86)/microchip/mplabc32/v2.02/bin/../lib/gcc/pic32mx/4.5.1/../../../../pic32mx/lib\libc.a(doscan_cdnopuxX.eo)
 .debug_info    0x00083c5b       0xd1 c:/program files (x86)/microchip/mplabc32/v2.02/bin/../lib/gcc/pic32mx/4.5.1/../../../../pic32mx/lib\libc.a(write.o)
 .debug_info    0x00083d2c       0xd9 c:/program files (x86)/microchip/mplabc32/v2.02/bin/../lib/gcc/pic32mx/4.5.1/../../../../pic32mx/lib\libc.a(_flsbuf_simple.o)
 .debug_info    0x00083e05       0xcf c:/program files (x86)/microchip/mplabc32/v2.02/bin/../lib/gcc/pic32mx/4.5.1/../../../../pic32mx/lib\libc.a(fgetc.o)
 .debug_info    0x00083ed4       0xcd c:/program files (x86)/microchip/mplabc32/v2.02/bin/../lib/gcc/pic32mx/4.5.1/../../../../pic32mx/lib\libc.a(atoi.o)
 .debug_info    0x00083fa1      0x235 c:/program files (x86)/microchip/mplabc32/v2.02/bin/../lib/gcc/pic32mx/4.5.1/../../../../pic32mx/lib\libc.a(ctypef.o)
 .debug_info    0x000841d6       0xd1 c:/program files (x86)/microchip/mplabc32/v2.02/bin/../lib/gcc/pic32mx/4.5.1/../../../../pic32mx/lib\libc.a(ungetc.o)
 .debug_info    0x000842a7       0xd2 c:/program files (x86)/microchip/mplabc32/v2.02/bin/../lib/gcc/pic32mx/4.5.1/../../../../pic32mx/lib\libc.a(filbuf.o)
 .debug_info    0x00084379       0xd1 c:/program files (x86)/microchip/mplabc32/v2.02/bin/../lib/gcc/pic32mx/4.5.1/../../../../pic32mx/lib\libc.a(fflush.o)
 .debug_info    0x0008444a       0xcf c:/program files (x86)/microchip/mplabc32/v2.02/bin/../lib/gcc/pic32mx/4.5.1/../../../../pic32mx/lib\libc.a(read.o)
 .debug_info    0x00084519        0x0 c:/program files (x86)/microchip/mplabc32/v2.02/bin/../lib/gcc/pic32mx/4.5.1/../../../../pic32mx/lib\libc.a(c32_uart.o)
 .debug_info    0x00084519       0xc7 c:/program files (x86)/microchip/mplabc32/v2.02/bin/../lib/gcc/pic32mx/4.5.1/../../../../pic32mx/lib\libmchp_peripheral_32MX575F256L.a(soft_reset_lib.o)
 .debug_info    0x000845e0       0xd4 c:/program files (x86)/microchip/mplabc32/v2.02/bin/../lib/gcc/pic32mx/4.5.1/../../../../pic32mx/lib\libmchp_peripheral_32MX575F256L.a(pcache.o)
 .debug_info    0x000846b4       0xcb c:/program files (x86)/microchip/mplabc32/v2.02/bin/../lib/gcc/pic32mx/4.5.1/../../../../pic32mx/lib\libmchp_peripheral_32MX575F256L.a(int_disable_interrupts_lib.o)
 .debug_info    0x0008477f       0xcb c:/program files (x86)/microchip/mplabc32/v2.02/bin/../lib/gcc/pic32mx/4.5.1/../../../../pic32mx/lib\libmchp_peripheral_32MX575F256L.a(int_restore_interrupts_lib.o)
 .debug_info    0x0008484a       0xd1 c:/program files (x86)/microchip/mplabc32/v2.02/bin/../lib/gcc/pic32mx/4.5.1/../../../../pic32mx/lib\libmchp_peripheral_32MX575F256L.a(int_enable_mv_int_lib.o)
 .debug_info    0x0008491b      0x1ab c:/program files (x86)/microchip/mplabc32/v2.02/bin/../lib/gcc/pic32mx/4.5.1/../../../../pic32mx/lib\libmchp_peripheral_32MX575F256L.a(int_tbl_lib.o)
 .debug_info    0x00084ac6       0xe4 c:/program files (x86)/microchip/mplabc32/v2.02/bin/../lib/gcc/pic32mx/4.5.1/../../../../pic32mx/lib\libmchp_peripheral_32MX575F256L.a(spi_chn_getc_lib.o)
 .debug_info    0x00084baa      0x100 c:/program files (x86)/microchip/mplabc32/v2.02/bin/../lib/gcc/pic32mx/4.5.1/../../../../pic32mx/lib\libmchp_peripheral_32MX575F256L.a(spi_chn_putc_lib.o)
 .debug_info    0x00084caa       0xe4 c:/program files (x86)/microchip/mplabc32/v2.02/bin/../lib/gcc/pic32mx/4.5.1/../../../../pic32mx/lib\libmchp_peripheral_32MX575F256L.a(spi_chn_change_mode_lib.o)
 .debug_info    0x00084d8e        0x0 c:/program files (x86)/microchip/mplabc32/v2.02/bin/../lib/gcc/pic32mx/4.5.1/../../../../pic32mx/lib\libmchp_peripheral_32MX575F256L.a(spi_io_tbl_libp.o)
 .debug_info    0x00084d8e        0x0 c:/program files (x86)/microchip/mplabc32/v2.02/bin/../lib/gcc/pic32mx/4.5.1/../../../../pic32mx/lib\libmchp_peripheral_32MX575F256L.a(spi_map_tbl_libp.o)
 .debug_info    0x00084d8e       0xcf c:/program files (x86)/microchip/mplabc32/v2.02/bin/../lib/gcc/pic32mx/4.5.1/../../../../pic32mx/lib\libmchp_peripheral_32MX575F256L.a(port_set_pins_digital_in_lib.o)
 .debug_info    0x00084e5d       0xd1 c:/program files (x86)/microchip/mplabc32/v2.02/bin/../lib/gcc/pic32mx/4.5.1/../../../../pic32mx/lib\libmchp_peripheral_32MX575F256L.a(port_set_pins_digital_out_lib.o)
 .debug_info    0x00084f2e        0x0 c:/program files (x86)/microchip/mplabc32/v2.02/bin/../lib/gcc/pic32mx/4.5.1/../../../../pic32mx/lib\libmchp_peripheral_32MX575F256L.a(_ports_tbl_libp.o)
 .debug_info    0x00084f2e      0x18a c:/program files (x86)/microchip/mplabc32/v2.02/bin/../lib/gcc/pic32mx/4.5.1/../../../../pic32mx/lib\libmchp_peripheral_32MX575F256L.a(uart_lib.o)
 .debug_info    0x000850b8       0xd4 c:/program files (x86)/microchip/mplabc32/v2.02/bin/../lib/gcc/pic32mx/4.5.1/../../../../pic32mx/lib\libmchp_peripheral_32MX575F256L.a(puts_uartx_lib_legacy.o)
 .debug_info    0x0008518c       0xb9 c:/program files (x86)/microchip/mplabc32/v2.02/bin/../lib/gcc/pic32mx/4.5.1/../../../../pic32mx/lib\libmchp_peripheral_32MX575F256L.a(idle_i2c2_lib_legacy.o)
 .debug_info    0x00085245        0x0 c:/program files (x86)/microchip/mplabc32/v2.02/bin/../lib/gcc/pic32mx/4.5.1/../../../../pic32mx/lib\libmchp_peripheral_32MX575F256L.a(I2CPrivate.o)
 .debug_info    0x00085245       0xb5 c:/program files (x86)/microchip/mplabc32/v2.02/bin/../lib/gcc/pic32mx/4.5.1/../../../../pic32mx/lib\libmchp_peripheral_32MX575F256L.a(I2CBusIsIdle.o)
 .debug_info    0x000852fa       0xc9 c:/program files (x86)/microchip/mplabc32/v2.02/bin/../lib/gcc/pic32mx/4.5.1/../../../../pic32mx/lib\libmchp_peripheral_32MX575F256L.a(I2CByteWasAcknowledged.o)
 .debug_info    0x000853c3       0xaf c:/program files (x86)/microchip/mplabc32/v2.02/bin/../lib/gcc/pic32mx/4.5.1/../../../../pic32mx/lib\libmchp_peripheral_32MX575F256L.a(I2CEnable.o)
 .debug_info    0x00085472       0xb1 c:/program files (x86)/microchip/mplabc32/v2.02/bin/../lib/gcc/pic32mx/4.5.1/../../../../pic32mx/lib\libmchp_peripheral_32MX575F256L.a(I2CGetByte.o)
 .debug_info    0x00085523       0xb5 c:/program files (x86)/microchip/mplabc32/v2.02/bin/../lib/gcc/pic32mx/4.5.1/../../../../pic32mx/lib\libmchp_peripheral_32MX575F256L.a(I2CGetStatus.o)
 .debug_info    0x000855d8       0xd1 c:/program files (x86)/microchip/mplabc32/v2.02/bin/../lib/gcc/pic32mx/4.5.1/../../../../pic32mx/lib\libmchp_peripheral_32MX575F256L.a(I2CReceivedDataIsAvailable.o)
 .debug_info    0x000856a9       0xbf c:/program files (x86)/microchip/mplabc32/v2.02/bin/../lib/gcc/pic32mx/4.5.1/../../../../pic32mx/lib\libmchp_peripheral_32MX575F256L.a(I2CReceiverEnable.o)
 .debug_info    0x00085768       0xb9 c:/program files (x86)/microchip/mplabc32/v2.02/bin/../lib/gcc/pic32mx/4.5.1/../../../../pic32mx/lib\libmchp_peripheral_32MX575F256L.a(I2CRepeatStart.o)
 .debug_info    0x00085821       0xbb c:/program files (x86)/microchip/mplabc32/v2.02/bin/../lib/gcc/pic32mx/4.5.1/../../../../pic32mx/lib\libmchp_peripheral_32MX575F256L.a(I2CSetFrequency.o)
 .debug_info    0x000858dc       0xad c:/program files (x86)/microchip/mplabc32/v2.02/bin/../lib/gcc/pic32mx/4.5.1/../../../../pic32mx/lib\libmchp_peripheral_32MX575F256L.a(I2CStart.o)
 .debug_info    0x00085989       0xab c:/program files (x86)/microchip/mplabc32/v2.02/bin/../lib/gcc/pic32mx/4.5.1/../../../../pic32mx/lib\libmchp_peripheral_32MX575F256L.a(I2CStop.o)
 .debug_info    0x00085a34       0xd3 c:/program files (x86)/microchip/mplabc32/v2.02/bin/../lib/gcc/pic32mx/4.5.1/../../../../pic32mx/lib\libmchp_peripheral_32MX575F256L.a(I2CTransmissionHasCompleted.o)
 .debug_info    0x00085b07       0xc7 c:/program files (x86)/microchip/mplabc32/v2.02/bin/../lib/gcc/pic32mx/4.5.1/../../../../pic32mx/lib\libmchp_peripheral_32MX575F256L.a(I2CTransmitterIsReady.o)
 .debug_info    0x00085bce       0xc9 c:/program files (x86)/microchip/mplabc32/v2.02/bin/../lib/gcc/pic32mx/4.5.1/../../../../pic32mx/lib\libmchp_peripheral_32MX575F256L.a(int_enable_interrupts_lib.o)

.debug_abbrev   0x00000000     0xcc99
 *(.debug_abbrev)
 .debug_abbrev  0x00000000      0x46b obj-tmp\Main.o
 .debug_abbrev  0x0000046b      0x34f obj-tmp\CustomHTTPApp.o
 .debug_abbrev  0x000007ba      0x26b obj-tmp\WF_Config.o
 .debug_abbrev  0x00000a25      0x180 obj-tmp\WifiGDemoMPFSImg.o
 .debug_abbrev  0x00000ba5      0x21d obj-tmp\Announce.o
 .debug_abbrev  0x00000dc2      0x166 obj-tmp\ARCFOUR.o
 .debug_abbrev  0x00000f28      0x31a obj-tmp\ARP.o
 .debug_abbrev  0x00001242      0x166 obj-tmp\AutoIP.o
 .debug_abbrev  0x000013a8      0x166 obj-tmp\BerkeleyAPI.o
 .debug_abbrev  0x0000150e      0x166 obj-tmp\BigInt.o
 .debug_abbrev  0x00001674      0x1aa obj-tmp\Delay.o
 .debug_abbrev  0x0000181e      0x280 obj-tmp\DNS.o
 .debug_abbrev  0x00001a9e      0x2b5 obj-tmp\DNSs.o
 .debug_abbrev  0x00001d53      0x166 obj-tmp\DynDNS.o
 .debug_abbrev  0x00001eb9      0x166 obj-tmp\FileSystem.o
 .debug_abbrev  0x0000201f      0x166 obj-tmp\FTP.o
 .debug_abbrev  0x00002185      0x166 obj-tmp\Hashes.o
 .debug_abbrev  0x000022eb      0x286 obj-tmp\Helpers.o
 .debug_abbrev  0x00002571      0x379 obj-tmp\HTTP2.o
 .debug_abbrev  0x000028ea      0x1c0 obj-tmp\ICMP.o
 .debug_abbrev  0x00002aaa      0x25e obj-tmp\IP.o
 .debug_abbrev  0x00002d08      0x166 obj-tmp\LCDBlocking.o
 .debug_abbrev  0x00002e6e      0x2c4 obj-tmp\MPFS2.o
 .debug_abbrev  0x00003132      0x288 obj-tmp\NBNS.o
 .debug_abbrev  0x000033ba      0x166 obj-tmp\Random.o
 .debug_abbrev  0x00003520      0x1c0 obj-tmp\Reboot.o
 .debug_abbrev  0x000036e0      0x166 obj-tmp\RSA.o
 .debug_abbrev  0x00003846      0x166 obj-tmp\SMTP.o
 .debug_abbrev  0x000039ac      0x166 obj-tmp\SNMP.o
 .debug_abbrev  0x00003b12      0x166 obj-tmp\SNMPv3.o
 .debug_abbrev  0x00003c78      0x166 obj-tmp\SNMPv3USM.o
 .debug_abbrev  0x00003dde      0x166 obj-tmp\SNTP.o
 .debug_abbrev  0x00003f44      0x166 obj-tmp\SPIEEPROM.o
 .debug_abbrev  0x000040aa      0x282 obj-tmp\SPIFlash.o
 .debug_abbrev  0x0000432c      0x166 obj-tmp\SPIRAM.o
 .debug_abbrev  0x00004492      0x166 obj-tmp\SSL.o
 .debug_abbrev  0x000045f8      0x21a obj-tmp\StackTsk.o
 .debug_abbrev  0x00004812      0x3ac obj-tmp\TCP.o
 .debug_abbrev  0x00004bbe      0x166 obj-tmp\TCPPerformanceTest.o
 .debug_abbrev  0x00004d24      0x166 obj-tmp\Telnet.o
 .debug_abbrev  0x00004e8a      0x166 obj-tmp\TFTPc.o
 .debug_abbrev  0x00004ff0      0x233 obj-tmp\Tick.o
 .debug_abbrev  0x00005223      0x19d obj-tmp\UART.o
 .debug_abbrev  0x000053c0      0x166 obj-tmp\UART2TCPBridge.o
 .debug_abbrev  0x00005526      0x35a obj-tmp\UDP.o
 .debug_abbrev  0x00005880      0x166 obj-tmp\UDPPerformanceTest.o
 .debug_abbrev  0x000059e6      0x19f obj-tmp\ZeroconfHelper.o
 .debug_abbrev  0x00005b85      0x2ed obj-tmp\ZeroconfLinkLocal.o
 .debug_abbrev  0x00005e72      0x434 obj-tmp\ZeroconfMulticastDNS.o
 .debug_abbrev  0x000062a6      0x1aa obj-tmp\WF_Eint.o
 .debug_abbrev  0x00006450      0x368 obj-tmp\WF_pbkdf2.o
 .debug_abbrev  0x000067b8      0x2c4 obj-tmp\WFConnectionAlgorithm.o
 .debug_abbrev  0x00006a7c      0x2c9 obj-tmp\WFConnectionManager.o
 .debug_abbrev  0x00006d45      0x2a7 obj-tmp\WFConnectionProfile.o
 .debug_abbrev  0x00006fec      0x166 obj-tmp\WFConsole.o
 .debug_abbrev  0x00007152      0x166 obj-tmp\WFConsoleIfconfig.o
 .debug_abbrev  0x000072b8      0x166 obj-tmp\WFConsoleIwconfig.o
 .debug_abbrev  0x0000741e      0x166 obj-tmp\WFConsoleIwpriv.o
 .debug_abbrev  0x00007584      0x1cd obj-tmp\WFConsoleMsgHandler.o
 .debug_abbrev  0x00007751      0x1ef obj-tmp\WFConsoleMsgs.o
 .debug_abbrev  0x00007940      0x166 obj-tmp\WFDataTxRx.o
 .debug_abbrev  0x00007aa6      0x2db obj-tmp\WFDebugStrings.o
 .debug_abbrev  0x00007d81      0x30b obj-tmp\WFEasyConfig.o
 .debug_abbrev  0x0000808c      0x27e obj-tmp\WFEventHandler.o
 .debug_abbrev  0x0000830a      0x203 obj-tmp\WFInit.o
 .debug_abbrev  0x0000850d      0x29b obj-tmp\WFPowerSave.o
 .debug_abbrev  0x000087a8      0x232 obj-tmp\WFScan.o
 .debug_abbrev  0x000089da      0x218 obj-tmp\WFTxPower.o
 .debug_abbrev  0x00008bf2      0x231 obj-tmp\WF_Spi.o
 .debug_abbrev  0x00008e23      0x3a4 obj-tmp\WFDriverCom_24G.o
 .debug_abbrev  0x000091c7      0x2fe obj-tmp\WFDriverRaw_24G.o
 .debug_abbrev  0x000094c5      0x31f obj-tmp\WFMac_24G.o
 .debug_abbrev  0x000097e4      0x296 obj-tmp\WFMgmtMsg_24G.o
 .debug_abbrev  0x00009a7a      0x292 obj-tmp\WFParamMsg_24G.o
 .debug_abbrev  0x00009d0c      0x2e8 obj-tmp\DHCP.o
 .debug_abbrev  0x00009ff4      0x338 obj-tmp\DHCPs.o
 .debug_abbrev  0x0000a32c      0x2ec obj-tmp\i2c_master.o
 .debug_abbrev  0x0000a618      0x1de obj-tmp\INTiMain.o
 .debug_abbrev  0x0000a7f6      0x1d7 obj-tmp\UARTiMain.o
 .debug_abbrev  0x0000a9cd      0x1aa obj-tmp\Assert.o
 .debug_abbrev  0x0000ab77      0x1c0 obj-tmp\Device_ICO_ICL.o
 .debug_abbrev  0x0000ad37      0x236 obj-tmp\DeviceState.o
 .debug_abbrev  0x0000af6d      0x1f2 obj-tmp\app_ICO_ICL.o
 .debug_abbrev  0x0000b15f      0x221 obj-tmp\TimeMonitor.o
 .debug_abbrev  0x0000b380      0x26a obj-tmp\icoPowerMeasurement.o
 .debug_abbrev  0x0000b5ea      0x1df obj-tmp\icoUserButton.o
 .debug_abbrev  0x0000b7c9      0x2cc obj-tmp\ADE7753.o
 .debug_abbrev  0x0000ba95      0x232 obj-tmp\spi.o
 .debug_abbrev  0x0000bcc7      0x22c obj-tmp\Power.o
 .debug_abbrev  0x0000bef3      0x32e C:\Projects\Intwine\Aztec\Power.a(ADE7753.o)
 .debug_abbrev  0x0000c221      0x13d c:/program files (x86)/microchip/mplabc32/v2.02/bin/../lib/gcc/pic32mx/4.5.1\libgcc.a(_udivdi3.o)
 .debug_abbrev  0x0000c35e      0x15c c:/program files (x86)/microchip/mplabc32/v2.02/bin/../lib/gcc/pic32mx/4.5.1\libgcc.a(_umoddi3.o)
 .debug_abbrev  0x0000c4ba       0x25 c:/program files (x86)/microchip/mplabc32/v2.02/bin/../lib/gcc/pic32mx/4.5.1/../../../../pic32mx/lib\libc.a(atol.o)
 .debug_abbrev  0x0000c4df        0x1 c:/program files (x86)/microchip/mplabc32/v2.02/bin/../lib/gcc/pic32mx/4.5.1/../../../../pic32mx/lib\libc.a(ctype.o)
 .debug_abbrev  0x0000c4e0       0x25 c:/program files (x86)/microchip/mplabc32/v2.02/bin/../lib/gcc/pic32mx/4.5.1/../../../../pic32mx/lib\libc.a(puts.o)
 .debug_abbrev  0x0000c505       0x25 c:/program files (x86)/microchip/mplabc32/v2.02/bin/../lib/gcc/pic32mx/4.5.1/../../../../pic32mx/lib\libc.a(strcat.o)
 .debug_abbrev  0x0000c52a       0x25 c:/program files (x86)/microchip/mplabc32/v2.02/bin/../lib/gcc/pic32mx/4.5.1/../../../../pic32mx/lib\libc.a(strncpy.o)
 .debug_abbrev  0x0000c54f       0x25 c:/program files (x86)/microchip/mplabc32/v2.02/bin/../lib/gcc/pic32mx/4.5.1/../../../../pic32mx/lib\libc.a(strrchr.o)
 .debug_abbrev  0x0000c574       0x27 c:/program files (x86)/microchip/mplabc32/v2.02/bin/../lib/gcc/pic32mx/4.5.1/../../../../pic32mx/lib\libc.a(printf_cdnopsuxX.eo)
 .debug_abbrev  0x0000c59b       0x27 c:/program files (x86)/microchip/mplabc32/v2.02/bin/../lib/gcc/pic32mx/4.5.1/../../../../pic32mx/lib\libc.a(sprintf_cdnopsuxX.eo)
 .debug_abbrev  0x0000c5c2       0x27 c:/program files (x86)/microchip/mplabc32/v2.02/bin/../lib/gcc/pic32mx/4.5.1/../../../../pic32mx/lib\libc.a(sscanf_cdnopuxX.eo)
 .debug_abbrev  0x0000c5e9       0x25 c:/program files (x86)/microchip/mplabc32/v2.02/bin/../lib/gcc/pic32mx/4.5.1/../../../../pic32mx/lib\libc.a(default-bootstrap-exception-handler.o)
 .debug_abbrev  0x0000c60e       0x25 c:/program files (x86)/microchip/mplabc32/v2.02/bin/../lib/gcc/pic32mx/4.5.1/../../../../pic32mx/lib\libc.a(default-on-reset.o)
 .debug_abbrev  0x0000c633       0x25 c:/program files (x86)/microchip/mplabc32/v2.02/bin/../lib/gcc/pic32mx/4.5.1/../../../../pic32mx/lib\libc.a(default-on-bootstrap.o)
 .debug_abbrev  0x0000c658        0x1 c:/program files (x86)/microchip/mplabc32/v2.02/bin/../lib/gcc/pic32mx/4.5.1/../../../../pic32mx/lib\libc.a(_iob.o)
 .debug_abbrev  0x0000c659       0x27 c:/program files (x86)/microchip/mplabc32/v2.02/bin/../lib/gcc/pic32mx/4.5.1/../../../../pic32mx/lib\libc.a(_fputc_simple.o)
 .debug_abbrev  0x0000c680       0x27 c:/program files (x86)/microchip/mplabc32/v2.02/bin/../lib/gcc/pic32mx/4.5.1/../../../../pic32mx/lib\libc.a(doprnt_cdnopsuxX.eo)
 .debug_abbrev  0x0000c6a7       0x38 c:/program files (x86)/microchip/mplabc32/v2.02/bin/../lib/gcc/pic32mx/4.5.1/../../../../pic32mx/lib\libc.a(doscan_cdnopuxX.eo)
 .debug_abbrev  0x0000c6df       0x25 c:/program files (x86)/microchip/mplabc32/v2.02/bin/../lib/gcc/pic32mx/4.5.1/../../../../pic32mx/lib\libc.a(write.o)
 .debug_abbrev  0x0000c704       0x27 c:/program files (x86)/microchip/mplabc32/v2.02/bin/../lib/gcc/pic32mx/4.5.1/../../../../pic32mx/lib\libc.a(_flsbuf_simple.o)
 .debug_abbrev  0x0000c72b       0x25 c:/program files (x86)/microchip/mplabc32/v2.02/bin/../lib/gcc/pic32mx/4.5.1/../../../../pic32mx/lib\libc.a(fgetc.o)
 .debug_abbrev  0x0000c750       0x25 c:/program files (x86)/microchip/mplabc32/v2.02/bin/../lib/gcc/pic32mx/4.5.1/../../../../pic32mx/lib\libc.a(atoi.o)
 .debug_abbrev  0x0000c775       0x25 c:/program files (x86)/microchip/mplabc32/v2.02/bin/../lib/gcc/pic32mx/4.5.1/../../../../pic32mx/lib\libc.a(ctypef.o)
 .debug_abbrev  0x0000c79a       0x25 c:/program files (x86)/microchip/mplabc32/v2.02/bin/../lib/gcc/pic32mx/4.5.1/../../../../pic32mx/lib\libc.a(ungetc.o)
 .debug_abbrev  0x0000c7bf       0x25 c:/program files (x86)/microchip/mplabc32/v2.02/bin/../lib/gcc/pic32mx/4.5.1/../../../../pic32mx/lib\libc.a(filbuf.o)
 .debug_abbrev  0x0000c7e4       0x25 c:/program files (x86)/microchip/mplabc32/v2.02/bin/../lib/gcc/pic32mx/4.5.1/../../../../pic32mx/lib\libc.a(fflush.o)
 .debug_abbrev  0x0000c809       0x25 c:/program files (x86)/microchip/mplabc32/v2.02/bin/../lib/gcc/pic32mx/4.5.1/../../../../pic32mx/lib\libc.a(read.o)
 .debug_abbrev  0x0000c82e        0x1 c:/program files (x86)/microchip/mplabc32/v2.02/bin/../lib/gcc/pic32mx/4.5.1/../../../../pic32mx/lib\libc.a(c32_uart.o)
 .debug_abbrev  0x0000c82f       0x34 c:/program files (x86)/microchip/mplabc32/v2.02/bin/../lib/gcc/pic32mx/4.5.1/../../../../pic32mx/lib\libmchp_peripheral_32MX575F256L.a(soft_reset_lib.o)
 .debug_abbrev  0x0000c863       0x25 c:/program files (x86)/microchip/mplabc32/v2.02/bin/../lib/gcc/pic32mx/4.5.1/../../../../pic32mx/lib\libmchp_peripheral_32MX575F256L.a(pcache.o)
 .debug_abbrev  0x0000c888       0x25 c:/program files (x86)/microchip/mplabc32/v2.02/bin/../lib/gcc/pic32mx/4.5.1/../../../../pic32mx/lib\libmchp_peripheral_32MX575F256L.a(int_disable_interrupts_lib.o)
 .debug_abbrev  0x0000c8ad       0x25 c:/program files (x86)/microchip/mplabc32/v2.02/bin/../lib/gcc/pic32mx/4.5.1/../../../../pic32mx/lib\libmchp_peripheral_32MX575F256L.a(int_restore_interrupts_lib.o)
 .debug_abbrev  0x0000c8d2       0x25 c:/program files (x86)/microchip/mplabc32/v2.02/bin/../lib/gcc/pic32mx/4.5.1/../../../../pic32mx/lib\libmchp_peripheral_32MX575F256L.a(int_enable_mv_int_lib.o)
 .debug_abbrev  0x0000c8f7       0x25 c:/program files (x86)/microchip/mplabc32/v2.02/bin/../lib/gcc/pic32mx/4.5.1/../../../../pic32mx/lib\libmchp_peripheral_32MX575F256L.a(int_tbl_lib.o)
 .debug_abbrev  0x0000c91c       0x34 c:/program files (x86)/microchip/mplabc32/v2.02/bin/../lib/gcc/pic32mx/4.5.1/../../../../pic32mx/lib\libmchp_peripheral_32MX575F256L.a(spi_chn_getc_lib.o)
 .debug_abbrev  0x0000c950       0x34 c:/program files (x86)/microchip/mplabc32/v2.02/bin/../lib/gcc/pic32mx/4.5.1/../../../../pic32mx/lib\libmchp_peripheral_32MX575F256L.a(spi_chn_putc_lib.o)
 .debug_abbrev  0x0000c984       0x3f c:/program files (x86)/microchip/mplabc32/v2.02/bin/../lib/gcc/pic32mx/4.5.1/../../../../pic32mx/lib\libmchp_peripheral_32MX575F256L.a(spi_chn_change_mode_lib.o)
 .debug_abbrev  0x0000c9c3        0x1 c:/program files (x86)/microchip/mplabc32/v2.02/bin/../lib/gcc/pic32mx/4.5.1/../../../../pic32mx/lib\libmchp_peripheral_32MX575F256L.a(spi_io_tbl_libp.o)
 .debug_abbrev  0x0000c9c4        0x1 c:/program files (x86)/microchip/mplabc32/v2.02/bin/../lib/gcc/pic32mx/4.5.1/../../../../pic32mx/lib\libmchp_peripheral_32MX575F256L.a(spi_map_tbl_libp.o)
 .debug_abbrev  0x0000c9c5       0x25 c:/program files (x86)/microchip/mplabc32/v2.02/bin/../lib/gcc/pic32mx/4.5.1/../../../../pic32mx/lib\libmchp_peripheral_32MX575F256L.a(port_set_pins_digital_in_lib.o)
 .debug_abbrev  0x0000c9ea       0x25 c:/program files (x86)/microchip/mplabc32/v2.02/bin/../lib/gcc/pic32mx/4.5.1/../../../../pic32mx/lib\libmchp_peripheral_32MX575F256L.a(port_set_pins_digital_out_lib.o)
 .debug_abbrev  0x0000ca0f        0x1 c:/program files (x86)/microchip/mplabc32/v2.02/bin/../lib/gcc/pic32mx/4.5.1/../../../../pic32mx/lib\libmchp_peripheral_32MX575F256L.a(_ports_tbl_libp.o)
 .debug_abbrev  0x0000ca10       0x38 c:/program files (x86)/microchip/mplabc32/v2.02/bin/../lib/gcc/pic32mx/4.5.1/../../../../pic32mx/lib\libmchp_peripheral_32MX575F256L.a(uart_lib.o)
 .debug_abbrev  0x0000ca48       0x25 c:/program files (x86)/microchip/mplabc32/v2.02/bin/../lib/gcc/pic32mx/4.5.1/../../../../pic32mx/lib\libmchp_peripheral_32MX575F256L.a(puts_uartx_lib_legacy.o)
 .debug_abbrev  0x0000ca6d       0x25 c:/program files (x86)/microchip/mplabc32/v2.02/bin/../lib/gcc/pic32mx/4.5.1/../../../../pic32mx/lib\libmchp_peripheral_32MX575F256L.a(idle_i2c2_lib_legacy.o)
 .debug_abbrev  0x0000ca92        0x1 c:/program files (x86)/microchip/mplabc32/v2.02/bin/../lib/gcc/pic32mx/4.5.1/../../../../pic32mx/lib\libmchp_peripheral_32MX575F256L.a(I2CPrivate.o)
 .debug_abbrev  0x0000ca93       0x25 c:/program files (x86)/microchip/mplabc32/v2.02/bin/../lib/gcc/pic32mx/4.5.1/../../../../pic32mx/lib\libmchp_peripheral_32MX575F256L.a(I2CBusIsIdle.o)
 .debug_abbrev  0x0000cab8       0x25 c:/program files (x86)/microchip/mplabc32/v2.02/bin/../lib/gcc/pic32mx/4.5.1/../../../../pic32mx/lib\libmchp_peripheral_32MX575F256L.a(I2CByteWasAcknowledged.o)
 .debug_abbrev  0x0000cadd       0x25 c:/program files (x86)/microchip/mplabc32/v2.02/bin/../lib/gcc/pic32mx/4.5.1/../../../../pic32mx/lib\libmchp_peripheral_32MX575F256L.a(I2CEnable.o)
 .debug_abbrev  0x0000cb02       0x25 c:/program files (x86)/microchip/mplabc32/v2.02/bin/../lib/gcc/pic32mx/4.5.1/../../../../pic32mx/lib\libmchp_peripheral_32MX575F256L.a(I2CGetByte.o)
 .debug_abbrev  0x0000cb27       0x25 c:/program files (x86)/microchip/mplabc32/v2.02/bin/../lib/gcc/pic32mx/4.5.1/../../../../pic32mx/lib\libmchp_peripheral_32MX575F256L.a(I2CGetStatus.o)
 .debug_abbrev  0x0000cb4c       0x25 c:/program files (x86)/microchip/mplabc32/v2.02/bin/../lib/gcc/pic32mx/4.5.1/../../../../pic32mx/lib\libmchp_peripheral_32MX575F256L.a(I2CReceivedDataIsAvailable.o)
 .debug_abbrev  0x0000cb71       0x25 c:/program files (x86)/microchip/mplabc32/v2.02/bin/../lib/gcc/pic32mx/4.5.1/../../../../pic32mx/lib\libmchp_peripheral_32MX575F256L.a(I2CReceiverEnable.o)
 .debug_abbrev  0x0000cb96       0x25 c:/program files (x86)/microchip/mplabc32/v2.02/bin/../lib/gcc/pic32mx/4.5.1/../../../../pic32mx/lib\libmchp_peripheral_32MX575F256L.a(I2CRepeatStart.o)
 .debug_abbrev  0x0000cbbb       0x25 c:/program files (x86)/microchip/mplabc32/v2.02/bin/../lib/gcc/pic32mx/4.5.1/../../../../pic32mx/lib\libmchp_peripheral_32MX575F256L.a(I2CSetFrequency.o)
 .debug_abbrev  0x0000cbe0       0x25 c:/program files (x86)/microchip/mplabc32/v2.02/bin/../lib/gcc/pic32mx/4.5.1/../../../../pic32mx/lib\libmchp_peripheral_32MX575F256L.a(I2CStart.o)
 .debug_abbrev  0x0000cc05       0x25 c:/program files (x86)/microchip/mplabc32/v2.02/bin/../lib/gcc/pic32mx/4.5.1/../../../../pic32mx/lib\libmchp_peripheral_32MX575F256L.a(I2CStop.o)
 .debug_abbrev  0x0000cc2a       0x25 c:/program files (x86)/microchip/mplabc32/v2.02/bin/../lib/gcc/pic32mx/4.5.1/../../../../pic32mx/lib\libmchp_peripheral_32MX575F256L.a(I2CTransmissionHasCompleted.o)
 .debug_abbrev  0x0000cc4f       0x25 c:/program files (x86)/microchip/mplabc32/v2.02/bin/../lib/gcc/pic32mx/4.5.1/../../../../pic32mx/lib\libmchp_peripheral_32MX575F256L.a(I2CTransmitterIsReady.o)
 .debug_abbrev  0x0000cc74       0x25 c:/program files (x86)/microchip/mplabc32/v2.02/bin/../lib/gcc/pic32mx/4.5.1/../../../../pic32mx/lib\libmchp_peripheral_32MX575F256L.a(int_enable_interrupts_lib.o)

.debug_line     0x00000000     0xde35
 *(.debug_line)
 .debug_line    0x00000000      0x40a obj-tmp\Main.o
 .debug_line    0x0000040a      0x4b1 obj-tmp\CustomHTTPApp.o
 .debug_line    0x000008bb      0x226 obj-tmp\WF_Config.o
 .debug_line    0x00000ae1      0x15c obj-tmp\WifiGDemoMPFSImg.o
 .debug_line    0x00000c3d      0x1fd obj-tmp\Announce.o
 .debug_line    0x00000e3a      0x146 obj-tmp\ARCFOUR.o
 .debug_line    0x00000f80      0x283 obj-tmp\ARP.o
 .debug_line    0x00001203      0x146 obj-tmp\AutoIP.o
 .debug_line    0x00001349      0x146 obj-tmp\BerkeleyAPI.o
 .debug_line    0x0000148f      0x146 obj-tmp\BigInt.o
 .debug_line    0x000015d5      0x189 obj-tmp\Delay.o
 .debug_line    0x0000175e      0x2ea obj-tmp\DNS.o
 .debug_line    0x00001a48      0x258 obj-tmp\DNSs.o
 .debug_line    0x00001ca0      0x146 obj-tmp\DynDNS.o
 .debug_line    0x00001de6      0x146 obj-tmp\FileSystem.o
 .debug_line    0x00001f2c      0x146 obj-tmp\FTP.o
 .debug_line    0x00002072      0x146 obj-tmp\Hashes.o
 .debug_line    0x000021b8      0x359 obj-tmp\Helpers.o
 .debug_line    0x00002511      0x4bf obj-tmp\HTTP2.o
 .debug_line    0x000029d0      0x1be obj-tmp\ICMP.o
 .debug_line    0x00002b8e      0x1fb obj-tmp\IP.o
 .debug_line    0x00002d89      0x146 obj-tmp\LCDBlocking.o
 .debug_line    0x00002ecf      0x2f5 obj-tmp\MPFS2.o
 .debug_line    0x000031c4      0x230 obj-tmp\NBNS.o
 .debug_line    0x000033f4      0x146 obj-tmp\Random.o
 .debug_line    0x0000353a      0x1ce obj-tmp\Reboot.o
 .debug_line    0x00003708      0x146 obj-tmp\RSA.o
 .debug_line    0x0000384e      0x146 obj-tmp\SMTP.o
 .debug_line    0x00003994      0x146 obj-tmp\SNMP.o
 .debug_line    0x00003ada      0x146 obj-tmp\SNMPv3.o
 .debug_line    0x00003c20      0x146 obj-tmp\SNMPv3USM.o
 .debug_line    0x00003d66      0x146 obj-tmp\SNTP.o
 .debug_line    0x00003eac      0x146 obj-tmp\SPIEEPROM.o
 .debug_line    0x00003ff2      0x392 obj-tmp\SPIFlash.o
 .debug_line    0x00004384      0x146 obj-tmp\SPIRAM.o
 .debug_line    0x000044ca      0x146 obj-tmp\SSL.o
 .debug_line    0x00004610      0x224 obj-tmp\StackTsk.o
 .debug_line    0x00004834      0x94a obj-tmp\TCP.o
 .debug_line    0x0000517e      0x146 obj-tmp\TCPPerformanceTest.o
 .debug_line    0x000052c4      0x146 obj-tmp\Telnet.o
 .debug_line    0x0000540a      0x146 obj-tmp\TFTPc.o
 .debug_line    0x00005550      0x1cd obj-tmp\Tick.o
 .debug_line    0x0000571d      0x188 obj-tmp\UART.o
 .debug_line    0x000058a5      0x146 obj-tmp\UART2TCPBridge.o
 .debug_line    0x000059eb      0x307 obj-tmp\UDP.o
 .debug_line    0x00005cf2      0x146 obj-tmp\UDPPerformanceTest.o
 .debug_line    0x00005e38      0x18e obj-tmp\ZeroconfHelper.o
 .debug_line    0x00005fc6      0x2f4 obj-tmp\ZeroconfLinkLocal.o
 .debug_line    0x000062ba      0x6ce obj-tmp\ZeroconfMulticastDNS.o
 .debug_line    0x00006988      0x1b1 obj-tmp\WF_Eint.o
 .debug_line    0x00006b39      0x3a1 obj-tmp\WF_pbkdf2.o
 .debug_line    0x00006eda      0x2fc obj-tmp\WFConnectionAlgorithm.o
 .debug_line    0x000071d6      0x223 obj-tmp\WFConnectionManager.o
 .debug_line    0x000073f9      0x2aa obj-tmp\WFConnectionProfile.o
 .debug_line    0x000076a3      0x146 obj-tmp\WFConsole.o
 .debug_line    0x000077e9      0x146 obj-tmp\WFConsoleIfconfig.o
 .debug_line    0x0000792f      0x146 obj-tmp\WFConsoleIwconfig.o
 .debug_line    0x00007a75      0x146 obj-tmp\WFConsoleIwpriv.o
 .debug_line    0x00007bbb      0x1a2 obj-tmp\WFConsoleMsgHandler.o
 .debug_line    0x00007d5d      0x25b obj-tmp\WFConsoleMsgs.o
 .debug_line    0x00007fb8      0x146 obj-tmp\WFDataTxRx.o
 .debug_line    0x000080fe      0x2f8 obj-tmp\WFDebugStrings.o
 .debug_line    0x000083f6      0x292 obj-tmp\WFEasyConfig.o
 .debug_line    0x00008688      0x273 obj-tmp\WFEventHandler.o
 .debug_line    0x000088fb      0x1d4 obj-tmp\WFInit.o
 .debug_line    0x00008acf      0x21d obj-tmp\WFPowerSave.o
 .debug_line    0x00008cec      0x1df obj-tmp\WFScan.o
 .debug_line    0x00008ecb      0x1d4 obj-tmp\WFTxPower.o
 .debug_line    0x0000909f      0x1fb obj-tmp\WF_Spi.o
 .debug_line    0x0000929a      0x346 obj-tmp\WFDriverCom_24G.o
 .debug_line    0x000095e0      0x2c5 obj-tmp\WFDriverRaw_24G.o
 .debug_line    0x000098a5      0x394 obj-tmp\WFMac_24G.o
 .debug_line    0x00009c39      0x22f obj-tmp\WFMgmtMsg_24G.o
 .debug_line    0x00009e68      0x2aa obj-tmp\WFParamMsg_24G.o
 .debug_line    0x0000a112      0x375 obj-tmp\DHCP.o
 .debug_line    0x0000a487      0x3ba obj-tmp\DHCPs.o
 .debug_line    0x0000a841      0x21b obj-tmp\i2c_master.o
 .debug_line    0x0000aa5c      0x1e5 obj-tmp\INTiMain.o
 .debug_line    0x0000ac41      0x171 obj-tmp\UARTiMain.o
 .debug_line    0x0000adb2      0x16f obj-tmp\Assert.o
 .debug_line    0x0000af21      0x1ad obj-tmp\Device_ICO_ICL.o
 .debug_line    0x0000b0ce      0x1a1 obj-tmp\DeviceState.o
 .debug_line    0x0000b26f      0x17b obj-tmp\app_ICO_ICL.o
 .debug_line    0x0000b3ea      0x1cc obj-tmp\TimeMonitor.o
 .debug_line    0x0000b5b6      0x1e0 obj-tmp\icoPowerMeasurement.o
 .debug_line    0x0000b796      0x1a8 obj-tmp\icoUserButton.o
 .debug_line    0x0000b93e      0x23f obj-tmp\ADE7753.o
 .debug_line    0x0000bb7d      0x1d5 obj-tmp\spi.o
 .debug_line    0x0000bd52      0x1a2 obj-tmp\Power.o
 .debug_line    0x0000bef4      0x6e5 C:\Projects\Intwine\Aztec\Power.a(ADE7753.o)
 .debug_line    0x0000c5d9      0x112 c:/program files (x86)/microchip/mplabc32/v2.02/bin/../lib/gcc/pic32mx/4.5.1\libgcc.a(_udivdi3.o)
 .debug_line    0x0000c6eb      0x128 c:/program files (x86)/microchip/mplabc32/v2.02/bin/../lib/gcc/pic32mx/4.5.1\libgcc.a(_umoddi3.o)
 .debug_line    0x0000c813       0x85 c:/program files (x86)/microchip/mplabc32/v2.02/bin/../lib/gcc/pic32mx/4.5.1/../../../../pic32mx/lib\libc.a(atol.o)
 .debug_line    0x0000c898        0x0 c:/program files (x86)/microchip/mplabc32/v2.02/bin/../lib/gcc/pic32mx/4.5.1/../../../../pic32mx/lib\libc.a(ctype.o)
 .debug_line    0x0000c898       0x85 c:/program files (x86)/microchip/mplabc32/v2.02/bin/../lib/gcc/pic32mx/4.5.1/../../../../pic32mx/lib\libc.a(puts.o)
 .debug_line    0x0000c91d       0x87 c:/program files (x86)/microchip/mplabc32/v2.02/bin/../lib/gcc/pic32mx/4.5.1/../../../../pic32mx/lib\libc.a(strcat.o)
 .debug_line    0x0000c9a4       0x88 c:/program files (x86)/microchip/mplabc32/v2.02/bin/../lib/gcc/pic32mx/4.5.1/../../../../pic32mx/lib\libc.a(strncpy.o)
 .debug_line    0x0000ca2c       0x88 c:/program files (x86)/microchip/mplabc32/v2.02/bin/../lib/gcc/pic32mx/4.5.1/../../../../pic32mx/lib\libc.a(strrchr.o)
 .debug_line    0x0000cab4       0x30 c:/program files (x86)/microchip/mplabc32/v2.02/bin/../lib/gcc/pic32mx/4.5.1/../../../../pic32mx/lib\libc.a(printf_cdnopsuxX.eo)
 .debug_line    0x0000cae4       0x31 c:/program files (x86)/microchip/mplabc32/v2.02/bin/../lib/gcc/pic32mx/4.5.1/../../../../pic32mx/lib\libc.a(sprintf_cdnopsuxX.eo)
 .debug_line    0x0000cb15       0x30 c:/program files (x86)/microchip/mplabc32/v2.02/bin/../lib/gcc/pic32mx/4.5.1/../../../../pic32mx/lib\libc.a(sscanf_cdnopuxX.eo)
 .debug_line    0x0000cb45       0xa6 c:/program files (x86)/microchip/mplabc32/v2.02/bin/../lib/gcc/pic32mx/4.5.1/../../../../pic32mx/lib\libc.a(default-bootstrap-exception-handler.o)
 .debug_line    0x0000cbeb       0x93 c:/program files (x86)/microchip/mplabc32/v2.02/bin/../lib/gcc/pic32mx/4.5.1/../../../../pic32mx/lib\libc.a(default-on-reset.o)
 .debug_line    0x0000cc7e       0x97 c:/program files (x86)/microchip/mplabc32/v2.02/bin/../lib/gcc/pic32mx/4.5.1/../../../../pic32mx/lib\libc.a(default-on-bootstrap.o)
 .debug_line    0x0000cd15        0x0 c:/program files (x86)/microchip/mplabc32/v2.02/bin/../lib/gcc/pic32mx/4.5.1/../../../../pic32mx/lib\libc.a(_iob.o)
 .debug_line    0x0000cd15       0x2f c:/program files (x86)/microchip/mplabc32/v2.02/bin/../lib/gcc/pic32mx/4.5.1/../../../../pic32mx/lib\libc.a(_fputc_simple.o)
 .debug_line    0x0000cd44       0x30 c:/program files (x86)/microchip/mplabc32/v2.02/bin/../lib/gcc/pic32mx/4.5.1/../../../../pic32mx/lib\libc.a(doprnt_cdnopsuxX.eo)
 .debug_line    0x0000cd74       0x30 c:/program files (x86)/microchip/mplabc32/v2.02/bin/../lib/gcc/pic32mx/4.5.1/../../../../pic32mx/lib\libc.a(doscan_cdnopuxX.eo)
 .debug_line    0x0000cda4       0x88 c:/program files (x86)/microchip/mplabc32/v2.02/bin/../lib/gcc/pic32mx/4.5.1/../../../../pic32mx/lib\libc.a(write.o)
 .debug_line    0x0000ce2c       0x30 c:/program files (x86)/microchip/mplabc32/v2.02/bin/../lib/gcc/pic32mx/4.5.1/../../../../pic32mx/lib\libc.a(_flsbuf_simple.o)
 .debug_line    0x0000ce5c       0x86 c:/program files (x86)/microchip/mplabc32/v2.02/bin/../lib/gcc/pic32mx/4.5.1/../../../../pic32mx/lib\libc.a(fgetc.o)
 .debug_line    0x0000cee2       0x85 c:/program files (x86)/microchip/mplabc32/v2.02/bin/../lib/gcc/pic32mx/4.5.1/../../../../pic32mx/lib\libc.a(atoi.o)
 .debug_line    0x0000cf67       0x87 c:/program files (x86)/microchip/mplabc32/v2.02/bin/../lib/gcc/pic32mx/4.5.1/../../../../pic32mx/lib\libc.a(ctypef.o)
 .debug_line    0x0000cfee       0x87 c:/program files (x86)/microchip/mplabc32/v2.02/bin/../lib/gcc/pic32mx/4.5.1/../../../../pic32mx/lib\libc.a(ungetc.o)
 .debug_line    0x0000d075       0x87 c:/program files (x86)/microchip/mplabc32/v2.02/bin/../lib/gcc/pic32mx/4.5.1/../../../../pic32mx/lib\libc.a(filbuf.o)
 .debug_line    0x0000d0fc       0x87 c:/program files (x86)/microchip/mplabc32/v2.02/bin/../lib/gcc/pic32mx/4.5.1/../../../../pic32mx/lib\libc.a(fflush.o)
 .debug_line    0x0000d183       0x87 c:/program files (x86)/microchip/mplabc32/v2.02/bin/../lib/gcc/pic32mx/4.5.1/../../../../pic32mx/lib\libc.a(read.o)
 .debug_line    0x0000d20a        0x0 c:/program files (x86)/microchip/mplabc32/v2.02/bin/../lib/gcc/pic32mx/4.5.1/../../../../pic32mx/lib\libc.a(c32_uart.o)
 .debug_line    0x0000d20a       0xbf c:/program files (x86)/microchip/mplabc32/v2.02/bin/../lib/gcc/pic32mx/4.5.1/../../../../pic32mx/lib\libmchp_peripheral_32MX575F256L.a(soft_reset_lib.o)
 .debug_line    0x0000d2c9       0x62 c:/program files (x86)/microchip/mplabc32/v2.02/bin/../lib/gcc/pic32mx/4.5.1/../../../../pic32mx/lib\libmchp_peripheral_32MX575F256L.a(pcache.o)
 .debug_line    0x0000d32b       0x73 c:/program files (x86)/microchip/mplabc32/v2.02/bin/../lib/gcc/pic32mx/4.5.1/../../../../pic32mx/lib\libmchp_peripheral_32MX575F256L.a(int_disable_interrupts_lib.o)
 .debug_line    0x0000d39e       0x73 c:/program files (x86)/microchip/mplabc32/v2.02/bin/../lib/gcc/pic32mx/4.5.1/../../../../pic32mx/lib\libmchp_peripheral_32MX575F256L.a(int_restore_interrupts_lib.o)
 .debug_line    0x0000d411       0x6e c:/program files (x86)/microchip/mplabc32/v2.02/bin/../lib/gcc/pic32mx/4.5.1/../../../../pic32mx/lib\libmchp_peripheral_32MX575F256L.a(int_enable_mv_int_lib.o)
 .debug_line    0x0000d47f       0x64 c:/program files (x86)/microchip/mplabc32/v2.02/bin/../lib/gcc/pic32mx/4.5.1/../../../../pic32mx/lib\libmchp_peripheral_32MX575F256L.a(int_tbl_lib.o)
 .debug_line    0x0000d4e3       0x7b c:/program files (x86)/microchip/mplabc32/v2.02/bin/../lib/gcc/pic32mx/4.5.1/../../../../pic32mx/lib\libmchp_peripheral_32MX575F256L.a(spi_chn_getc_lib.o)
 .debug_line    0x0000d55e       0x7b c:/program files (x86)/microchip/mplabc32/v2.02/bin/../lib/gcc/pic32mx/4.5.1/../../../../pic32mx/lib\libmchp_peripheral_32MX575F256L.a(spi_chn_putc_lib.o)
 .debug_line    0x0000d5d9       0x70 c:/program files (x86)/microchip/mplabc32/v2.02/bin/../lib/gcc/pic32mx/4.5.1/../../../../pic32mx/lib\libmchp_peripheral_32MX575F256L.a(spi_chn_change_mode_lib.o)
 .debug_line    0x0000d649        0x0 c:/program files (x86)/microchip/mplabc32/v2.02/bin/../lib/gcc/pic32mx/4.5.1/../../../../pic32mx/lib\libmchp_peripheral_32MX575F256L.a(spi_io_tbl_libp.o)
 .debug_line    0x0000d649        0x0 c:/program files (x86)/microchip/mplabc32/v2.02/bin/../lib/gcc/pic32mx/4.5.1/../../../../pic32mx/lib\libmchp_peripheral_32MX575F256L.a(spi_map_tbl_libp.o)
 .debug_line    0x0000d649       0x77 c:/program files (x86)/microchip/mplabc32/v2.02/bin/../lib/gcc/pic32mx/4.5.1/../../../../pic32mx/lib\libmchp_peripheral_32MX575F256L.a(port_set_pins_digital_in_lib.o)
 .debug_line    0x0000d6c0       0x78 c:/program files (x86)/microchip/mplabc32/v2.02/bin/../lib/gcc/pic32mx/4.5.1/../../../../pic32mx/lib\libmchp_peripheral_32MX575F256L.a(port_set_pins_digital_out_lib.o)
 .debug_line    0x0000d738        0x0 c:/program files (x86)/microchip/mplabc32/v2.02/bin/../lib/gcc/pic32mx/4.5.1/../../../../pic32mx/lib\libmchp_peripheral_32MX575F256L.a(_ports_tbl_libp.o)
 .debug_line    0x0000d738       0x62 c:/program files (x86)/microchip/mplabc32/v2.02/bin/../lib/gcc/pic32mx/4.5.1/../../../../pic32mx/lib\libmchp_peripheral_32MX575F256L.a(uart_lib.o)
 .debug_line    0x0000d79a       0x6f c:/program files (x86)/microchip/mplabc32/v2.02/bin/../lib/gcc/pic32mx/4.5.1/../../../../pic32mx/lib\libmchp_peripheral_32MX575F256L.a(puts_uartx_lib_legacy.o)
 .debug_line    0x0000d809       0x6d c:/program files (x86)/microchip/mplabc32/v2.02/bin/../lib/gcc/pic32mx/4.5.1/../../../../pic32mx/lib\libmchp_peripheral_32MX575F256L.a(idle_i2c2_lib_legacy.o)
 .debug_line    0x0000d876        0x0 c:/program files (x86)/microchip/mplabc32/v2.02/bin/../lib/gcc/pic32mx/4.5.1/../../../../pic32mx/lib\libmchp_peripheral_32MX575F256L.a(I2CPrivate.o)
 .debug_line    0x0000d876       0x65 c:/program files (x86)/microchip/mplabc32/v2.02/bin/../lib/gcc/pic32mx/4.5.1/../../../../pic32mx/lib\libmchp_peripheral_32MX575F256L.a(I2CBusIsIdle.o)
 .debug_line    0x0000d8db       0x6f c:/program files (x86)/microchip/mplabc32/v2.02/bin/../lib/gcc/pic32mx/4.5.1/../../../../pic32mx/lib\libmchp_peripheral_32MX575F256L.a(I2CByteWasAcknowledged.o)
 .debug_line    0x0000d94a       0x62 c:/program files (x86)/microchip/mplabc32/v2.02/bin/../lib/gcc/pic32mx/4.5.1/../../../../pic32mx/lib\libmchp_peripheral_32MX575F256L.a(I2CEnable.o)
 .debug_line    0x0000d9ac       0x63 c:/program files (x86)/microchip/mplabc32/v2.02/bin/../lib/gcc/pic32mx/4.5.1/../../../../pic32mx/lib\libmchp_peripheral_32MX575F256L.a(I2CGetByte.o)
 .debug_line    0x0000da0f       0x65 c:/program files (x86)/microchip/mplabc32/v2.02/bin/../lib/gcc/pic32mx/4.5.1/../../../../pic32mx/lib\libmchp_peripheral_32MX575F256L.a(I2CGetStatus.o)
 .debug_line    0x0000da74       0x73 c:/program files (x86)/microchip/mplabc32/v2.02/bin/../lib/gcc/pic32mx/4.5.1/../../../../pic32mx/lib\libmchp_peripheral_32MX575F256L.a(I2CReceivedDataIsAvailable.o)
 .debug_line    0x0000dae7       0x6a c:/program files (x86)/microchip/mplabc32/v2.02/bin/../lib/gcc/pic32mx/4.5.1/../../../../pic32mx/lib\libmchp_peripheral_32MX575F256L.a(I2CReceiverEnable.o)
 .debug_line    0x0000db51       0x67 c:/program files (x86)/microchip/mplabc32/v2.02/bin/../lib/gcc/pic32mx/4.5.1/../../../../pic32mx/lib\libmchp_peripheral_32MX575F256L.a(I2CRepeatStart.o)
 .debug_line    0x0000dbb8       0x68 c:/program files (x86)/microchip/mplabc32/v2.02/bin/../lib/gcc/pic32mx/4.5.1/../../../../pic32mx/lib\libmchp_peripheral_32MX575F256L.a(I2CSetFrequency.o)
 .debug_line    0x0000dc20       0x61 c:/program files (x86)/microchip/mplabc32/v2.02/bin/../lib/gcc/pic32mx/4.5.1/../../../../pic32mx/lib\libmchp_peripheral_32MX575F256L.a(I2CStart.o)
 .debug_line    0x0000dc81       0x60 c:/program files (x86)/microchip/mplabc32/v2.02/bin/../lib/gcc/pic32mx/4.5.1/../../../../pic32mx/lib\libmchp_peripheral_32MX575F256L.a(I2CStop.o)
 .debug_line    0x0000dce1       0x74 c:/program files (x86)/microchip/mplabc32/v2.02/bin/../lib/gcc/pic32mx/4.5.1/../../../../pic32mx/lib\libmchp_peripheral_32MX575F256L.a(I2CTransmissionHasCompleted.o)
 .debug_line    0x0000dd55       0x6e c:/program files (x86)/microchip/mplabc32/v2.02/bin/../lib/gcc/pic32mx/4.5.1/../../../../pic32mx/lib\libmchp_peripheral_32MX575F256L.a(I2CTransmitterIsReady.o)
 .debug_line    0x0000ddc3       0x72 c:/program files (x86)/microchip/mplabc32/v2.02/bin/../lib/gcc/pic32mx/4.5.1/../../../../pic32mx/lib\libmchp_peripheral_32MX575F256L.a(int_enable_interrupts_lib.o)

.debug_frame    0x00000000     0x40dc
 *(.debug_frame)
 .debug_frame   0x00000000       0xa4 obj-tmp\Main.o
 .debug_frame   0x000000a4      0x228 obj-tmp\CustomHTTPApp.o
 .debug_frame   0x000002cc       0x4c obj-tmp\WF_Config.o
 .debug_frame   0x00000318       0x48 obj-tmp\Announce.o
 .debug_frame   0x00000360       0xe8 obj-tmp\ARP.o
 .debug_frame   0x00000448       0x3c obj-tmp\Delay.o
 .debug_frame   0x00000484       0xb0 obj-tmp\DNS.o
 .debug_frame   0x00000534       0x34 obj-tmp\DNSs.o
 .debug_frame   0x00000568      0x154 obj-tmp\Helpers.o
 .debug_frame   0x000006bc      0x174 obj-tmp\HTTP2.o
 .debug_frame   0x00000830       0x2c obj-tmp\ICMP.o
 .debug_frame   0x0000085c       0x80 obj-tmp\IP.o
 .debug_frame   0x000008dc      0x1e0 obj-tmp\MPFS2.o
 .debug_frame   0x00000abc       0x38 obj-tmp\NBNS.o
 .debug_frame   0x00000af4       0x28 obj-tmp\Reboot.o
 .debug_frame   0x00000b1c       0xd4 obj-tmp\SPIFlash.o
 .debug_frame   0x00000bf0       0x78 obj-tmp\StackTsk.o
 .debug_frame   0x00000c68      0x37c obj-tmp\TCP.o
 .debug_frame   0x00000fe4       0xac obj-tmp\Tick.o
 .debug_frame   0x00001090       0x20 obj-tmp\UART.o
 .debug_frame   0x000010b0      0x1a8 obj-tmp\UDP.o
 .debug_frame   0x00001258       0x2c obj-tmp\ZeroconfHelper.o
 .debug_frame   0x00001284       0xac obj-tmp\ZeroconfLinkLocal.o
 .debug_frame   0x00001330      0x250 obj-tmp\ZeroconfMulticastDNS.o
 .debug_frame   0x00001580       0xa4 obj-tmp\WF_Eint.o
 .debug_frame   0x00001624      0x150 obj-tmp\WF_pbkdf2.o
 .debug_frame   0x00001774      0x3d8 obj-tmp\WFConnectionAlgorithm.o
 .debug_frame   0x00001b4c       0xc8 obj-tmp\WFConnectionManager.o
 .debug_frame   0x00001c14      0x280 obj-tmp\WFConnectionProfile.o
 .debug_frame   0x00001e94       0x30 obj-tmp\WFConsoleMsgHandler.o
 .debug_frame   0x00001ec4       0x40 obj-tmp\WFConsoleMsgs.o
 .debug_frame   0x00001f04       0xb0 obj-tmp\WFDebugStrings.o
 .debug_frame   0x00001fb4       0xa8 obj-tmp\WFEasyConfig.o
 .debug_frame   0x0000205c       0x3c obj-tmp\WFEventHandler.o
 .debug_frame   0x00002098       0x28 obj-tmp\WFInit.o
 .debug_frame   0x000020c0      0x128 obj-tmp\WFPowerSave.o
 .debug_frame   0x000021e8       0x40 obj-tmp\WFScan.o
 .debug_frame   0x00002228       0x58 obj-tmp\WFTxPower.o
 .debug_frame   0x00002280       0x60 obj-tmp\WF_Spi.o
 .debug_frame   0x000022e0      0x1b0 obj-tmp\WFDriverCom_24G.o
 .debug_frame   0x00002490      0x20c obj-tmp\WFDriverRaw_24G.o
 .debug_frame   0x0000269c      0x2cc obj-tmp\WFMac_24G.o
 .debug_frame   0x00002968       0x90 obj-tmp\WFMgmtMsg_24G.o
 .debug_frame   0x000029f8      0x25c obj-tmp\WFParamMsg_24G.o
 .debug_frame   0x00002c54      0x100 obj-tmp\DHCP.o
 .debug_frame   0x00002d54       0xbc obj-tmp\DHCPs.o
 .debug_frame   0x00002e10       0xdc obj-tmp\i2c_master.o
 .debug_frame   0x00002eec      0x130 obj-tmp\INTiMain.o
 .debug_frame   0x0000301c       0x44 obj-tmp\UARTiMain.o
 .debug_frame   0x00003060       0x44 obj-tmp\Assert.o
 .debug_frame   0x000030a4       0x58 obj-tmp\Device_ICO_ICL.o
 .debug_frame   0x000030fc       0x60 obj-tmp\DeviceState.o
 .debug_frame   0x0000315c       0x40 obj-tmp\app_ICO_ICL.o
 .debug_frame   0x0000319c       0xb4 obj-tmp\TimeMonitor.o
 .debug_frame   0x00003250       0x94 obj-tmp\icoPowerMeasurement.o
 .debug_frame   0x000032e4       0x38 obj-tmp\icoUserButton.o
 .debug_frame   0x0000331c       0xdc obj-tmp\ADE7753.o
 .debug_frame   0x000033f8       0x94 obj-tmp\spi.o
 .debug_frame   0x0000348c       0x88 obj-tmp\Power.o
 .debug_frame   0x00003514      0x1e0 C:\Projects\Intwine\Aztec\Power.a(ADE7753.o)
 .debug_frame   0x000036f4       0x20 c:/program files (x86)/microchip/mplabc32/v2.02/bin/../lib/gcc/pic32mx/4.5.1/../../../../pic32mx/lib\libc.a(atol.o)
 .debug_frame   0x00003714       0x48 c:/program files (x86)/microchip/mplabc32/v2.02/bin/../lib/gcc/pic32mx/4.5.1/../../../../pic32mx/lib\libc.a(puts.o)
 .debug_frame   0x0000375c       0x20 c:/program files (x86)/microchip/mplabc32/v2.02/bin/../lib/gcc/pic32mx/4.5.1/../../../../pic32mx/lib\libc.a(strcat.o)
 .debug_frame   0x0000377c       0x20 c:/program files (x86)/microchip/mplabc32/v2.02/bin/../lib/gcc/pic32mx/4.5.1/../../../../pic32mx/lib\libc.a(strncpy.o)
 .debug_frame   0x0000379c       0x28 c:/program files (x86)/microchip/mplabc32/v2.02/bin/../lib/gcc/pic32mx/4.5.1/../../../../pic32mx/lib\libc.a(strrchr.o)
 .debug_frame   0x000037c4       0x28 c:/program files (x86)/microchip/mplabc32/v2.02/bin/../lib/gcc/pic32mx/4.5.1/../../../../pic32mx/lib\libc.a(printf_cdnopsuxX.eo)
 .debug_frame   0x000037ec       0x2c c:/program files (x86)/microchip/mplabc32/v2.02/bin/../lib/gcc/pic32mx/4.5.1/../../../../pic32mx/lib\libc.a(sprintf_cdnopsuxX.eo)
 .debug_frame   0x00003818       0x2c c:/program files (x86)/microchip/mplabc32/v2.02/bin/../lib/gcc/pic32mx/4.5.1/../../../../pic32mx/lib\libc.a(sscanf_cdnopuxX.eo)
 .debug_frame   0x00003844       0x20 c:/program files (x86)/microchip/mplabc32/v2.02/bin/../lib/gcc/pic32mx/4.5.1/../../../../pic32mx/lib\libc.a(default-bootstrap-exception-handler.o)
 .debug_frame   0x00003864       0x20 c:/program files (x86)/microchip/mplabc32/v2.02/bin/../lib/gcc/pic32mx/4.5.1/../../../../pic32mx/lib\libc.a(default-on-reset.o)
 .debug_frame   0x00003884       0x20 c:/program files (x86)/microchip/mplabc32/v2.02/bin/../lib/gcc/pic32mx/4.5.1/../../../../pic32mx/lib\libc.a(default-on-bootstrap.o)
 .debug_frame   0x000038a4       0x2c c:/program files (x86)/microchip/mplabc32/v2.02/bin/../lib/gcc/pic32mx/4.5.1/../../../../pic32mx/lib\libc.a(_fputc_simple.o)
 .debug_frame   0x000038d0       0x38 c:/program files (x86)/microchip/mplabc32/v2.02/bin/../lib/gcc/pic32mx/4.5.1/../../../../pic32mx/lib\libc.a(doprnt_cdnopsuxX.eo)
 .debug_frame   0x00003908       0x74 c:/program files (x86)/microchip/mplabc32/v2.02/bin/../lib/gcc/pic32mx/4.5.1/../../../../pic32mx/lib\libc.a(doscan_cdnopuxX.eo)
 .debug_frame   0x0000397c       0x28 c:/program files (x86)/microchip/mplabc32/v2.02/bin/../lib/gcc/pic32mx/4.5.1/../../../../pic32mx/lib\libc.a(write.o)
 .debug_frame   0x000039a4       0x28 c:/program files (x86)/microchip/mplabc32/v2.02/bin/../lib/gcc/pic32mx/4.5.1/../../../../pic32mx/lib\libc.a(_flsbuf_simple.o)
 .debug_frame   0x000039cc       0x30 c:/program files (x86)/microchip/mplabc32/v2.02/bin/../lib/gcc/pic32mx/4.5.1/../../../../pic32mx/lib\libc.a(fgetc.o)
 .debug_frame   0x000039fc       0x20 c:/program files (x86)/microchip/mplabc32/v2.02/bin/../lib/gcc/pic32mx/4.5.1/../../../../pic32mx/lib\libc.a(atoi.o)
 .debug_frame   0x00003a1c      0x120 c:/program files (x86)/microchip/mplabc32/v2.02/bin/../lib/gcc/pic32mx/4.5.1/../../../../pic32mx/lib\libc.a(ctypef.o)
 .debug_frame   0x00003b3c       0x20 c:/program files (x86)/microchip/mplabc32/v2.02/bin/../lib/gcc/pic32mx/4.5.1/../../../../pic32mx/lib\libc.a(ungetc.o)
 .debug_frame   0x00003b5c       0x30 c:/program files (x86)/microchip/mplabc32/v2.02/bin/../lib/gcc/pic32mx/4.5.1/../../../../pic32mx/lib\libc.a(filbuf.o)
 .debug_frame   0x00003b8c       0x2c c:/program files (x86)/microchip/mplabc32/v2.02/bin/../lib/gcc/pic32mx/4.5.1/../../../../pic32mx/lib\libc.a(fflush.o)
 .debug_frame   0x00003bb8       0x2c c:/program files (x86)/microchip/mplabc32/v2.02/bin/../lib/gcc/pic32mx/4.5.1/../../../../pic32mx/lib\libc.a(read.o)
 .debug_frame   0x00003be4       0x28 c:/program files (x86)/microchip/mplabc32/v2.02/bin/../lib/gcc/pic32mx/4.5.1/../../../../pic32mx/lib\libmchp_peripheral_32MX575F256L.a(soft_reset_lib.o)
 .debug_frame   0x00003c0c       0x30 c:/program files (x86)/microchip/mplabc32/v2.02/bin/../lib/gcc/pic32mx/4.5.1/../../../../pic32mx/lib\libmchp_peripheral_32MX575F256L.a(pcache.o)
 .debug_frame   0x00003c3c       0x20 c:/program files (x86)/microchip/mplabc32/v2.02/bin/../lib/gcc/pic32mx/4.5.1/../../../../pic32mx/lib\libmchp_peripheral_32MX575F256L.a(int_disable_interrupts_lib.o)
 .debug_frame   0x00003c5c       0x20 c:/program files (x86)/microchip/mplabc32/v2.02/bin/../lib/gcc/pic32mx/4.5.1/../../../../pic32mx/lib\libmchp_peripheral_32MX575F256L.a(int_restore_interrupts_lib.o)
 .debug_frame   0x00003c7c       0x28 c:/program files (x86)/microchip/mplabc32/v2.02/bin/../lib/gcc/pic32mx/4.5.1/../../../../pic32mx/lib\libmchp_peripheral_32MX575F256L.a(int_enable_mv_int_lib.o)
 .debug_frame   0x00003ca4       0xa0 c:/program files (x86)/microchip/mplabc32/v2.02/bin/../lib/gcc/pic32mx/4.5.1/../../../../pic32mx/lib\libmchp_peripheral_32MX575F256L.a(int_tbl_lib.o)
 .debug_frame   0x00003d44       0x30 c:/program files (x86)/microchip/mplabc32/v2.02/bin/../lib/gcc/pic32mx/4.5.1/../../../../pic32mx/lib\libmchp_peripheral_32MX575F256L.a(spi_chn_getc_lib.o)
 .debug_frame   0x00003d74       0x40 c:/program files (x86)/microchip/mplabc32/v2.02/bin/../lib/gcc/pic32mx/4.5.1/../../../../pic32mx/lib\libmchp_peripheral_32MX575F256L.a(spi_chn_putc_lib.o)
 .debug_frame   0x00003db4       0x48 c:/program files (x86)/microchip/mplabc32/v2.02/bin/../lib/gcc/pic32mx/4.5.1/../../../../pic32mx/lib\libmchp_peripheral_32MX575F256L.a(spi_chn_change_mode_lib.o)
 .debug_frame   0x00003dfc       0x20 c:/program files (x86)/microchip/mplabc32/v2.02/bin/../lib/gcc/pic32mx/4.5.1/../../../../pic32mx/lib\libmchp_peripheral_32MX575F256L.a(port_set_pins_digital_in_lib.o)
 .debug_frame   0x00003e1c       0x20 c:/program files (x86)/microchip/mplabc32/v2.02/bin/../lib/gcc/pic32mx/4.5.1/../../../../pic32mx/lib\libmchp_peripheral_32MX575F256L.a(port_set_pins_digital_out_lib.o)
 .debug_frame   0x00003e3c       0x90 c:/program files (x86)/microchip/mplabc32/v2.02/bin/../lib/gcc/pic32mx/4.5.1/../../../../pic32mx/lib\libmchp_peripheral_32MX575F256L.a(uart_lib.o)
 .debug_frame   0x00003ecc       0x30 c:/program files (x86)/microchip/mplabc32/v2.02/bin/../lib/gcc/pic32mx/4.5.1/../../../../pic32mx/lib\libmchp_peripheral_32MX575F256L.a(puts_uartx_lib_legacy.o)
 .debug_frame   0x00003efc       0x20 c:/program files (x86)/microchip/mplabc32/v2.02/bin/../lib/gcc/pic32mx/4.5.1/../../../../pic32mx/lib\libmchp_peripheral_32MX575F256L.a(idle_i2c2_lib_legacy.o)
 .debug_frame   0x00003f1c       0x20 c:/program files (x86)/microchip/mplabc32/v2.02/bin/../lib/gcc/pic32mx/4.5.1/../../../../pic32mx/lib\libmchp_peripheral_32MX575F256L.a(I2CBusIsIdle.o)
 .debug_frame   0x00003f3c       0x20 c:/program files (x86)/microchip/mplabc32/v2.02/bin/../lib/gcc/pic32mx/4.5.1/../../../../pic32mx/lib\libmchp_peripheral_32MX575F256L.a(I2CByteWasAcknowledged.o)
 .debug_frame   0x00003f5c       0x20 c:/program files (x86)/microchip/mplabc32/v2.02/bin/../lib/gcc/pic32mx/4.5.1/../../../../pic32mx/lib\libmchp_peripheral_32MX575F256L.a(I2CEnable.o)
 .debug_frame   0x00003f7c       0x20 c:/program files (x86)/microchip/mplabc32/v2.02/bin/../lib/gcc/pic32mx/4.5.1/../../../../pic32mx/lib\libmchp_peripheral_32MX575F256L.a(I2CGetByte.o)
 .debug_frame   0x00003f9c       0x20 c:/program files (x86)/microchip/mplabc32/v2.02/bin/../lib/gcc/pic32mx/4.5.1/../../../../pic32mx/lib\libmchp_peripheral_32MX575F256L.a(I2CGetStatus.o)
 .debug_frame   0x00003fbc       0x20 c:/program files (x86)/microchip/mplabc32/v2.02/bin/../lib/gcc/pic32mx/4.5.1/../../../../pic32mx/lib\libmchp_peripheral_32MX575F256L.a(I2CReceivedDataIsAvailable.o)
 .debug_frame   0x00003fdc       0x20 c:/program files (x86)/microchip/mplabc32/v2.02/bin/../lib/gcc/pic32mx/4.5.1/../../../../pic32mx/lib\libmchp_peripheral_32MX575F256L.a(I2CReceiverEnable.o)
 .debug_frame   0x00003ffc       0x20 c:/program files (x86)/microchip/mplabc32/v2.02/bin/../lib/gcc/pic32mx/4.5.1/../../../../pic32mx/lib\libmchp_peripheral_32MX575F256L.a(I2CRepeatStart.o)
 .debug_frame   0x0000401c       0x20 c:/program files (x86)/microchip/mplabc32/v2.02/bin/../lib/gcc/pic32mx/4.5.1/../../../../pic32mx/lib\libmchp_peripheral_32MX575F256L.a(I2CSetFrequency.o)
 .debug_frame   0x0000403c       0x20 c:/program files (x86)/microchip/mplabc32/v2.02/bin/../lib/gcc/pic32mx/4.5.1/../../../../pic32mx/lib\libmchp_peripheral_32MX575F256L.a(I2CStart.o)
 .debug_frame   0x0000405c       0x20 c:/program files (x86)/microchip/mplabc32/v2.02/bin/../lib/gcc/pic32mx/4.5.1/../../../../pic32mx/lib\libmchp_peripheral_32MX575F256L.a(I2CStop.o)
 .debug_frame   0x0000407c       0x20 c:/program files (x86)/microchip/mplabc32/v2.02/bin/../lib/gcc/pic32mx/4.5.1/../../../../pic32mx/lib\libmchp_peripheral_32MX575F256L.a(I2CTransmissionHasCompleted.o)
 .debug_frame   0x0000409c       0x20 c:/program files (x86)/microchip/mplabc32/v2.02/bin/../lib/gcc/pic32mx/4.5.1/../../../../pic32mx/lib\libmchp_peripheral_32MX575F256L.a(I2CTransmitterIsReady.o)
 .debug_frame   0x000040bc       0x20 c:/program files (x86)/microchip/mplabc32/v2.02/bin/../lib/gcc/pic32mx/4.5.1/../../../../pic32mx/lib\libmchp_peripheral_32MX575F256L.a(int_enable_interrupts_lib.o)

.debug_str      0x00000000     0x66b9
 *(.debug_str)
 .debug_str     0x00000000      0x1a8 obj-tmp\Main.o
 .debug_str     0x000001a8      0x196 obj-tmp\CustomHTTPApp.o
 .debug_str     0x0000033e      0x108 obj-tmp\WF_Config.o
 .debug_str     0x00000446       0xe2 obj-tmp\WifiGDemoMPFSImg.o
 .debug_str     0x00000528      0x10e obj-tmp\Announce.o
 .debug_str     0x00000636       0xe2 obj-tmp\ARCFOUR.o
 .debug_str     0x00000718       0xfa obj-tmp\ARP.o
 .debug_str     0x00000812       0xe2 obj-tmp\AutoIP.o
 .debug_str     0x000008f4       0xe2 obj-tmp\BerkeleyAPI.o
 .debug_str     0x000009d6       0xe2 obj-tmp\BigInt.o
 .debug_str     0x00000ab8       0xe2 obj-tmp\Delay.o
 .debug_str     0x00000b9a       0xec obj-tmp\DNS.o
 .debug_str     0x00000c86       0xec obj-tmp\DNSs.o
 .debug_str     0x00000d72       0xe2 obj-tmp\DynDNS.o
 .debug_str     0x00000e54       0xe2 obj-tmp\FileSystem.o
 .debug_str     0x00000f36       0xe2 obj-tmp\FTP.o
 .debug_str     0x00001018       0xe2 obj-tmp\Hashes.o
 .debug_str     0x000010fa       0xf5 obj-tmp\Helpers.o
 .debug_str     0x000011ef      0x10e obj-tmp\HTTP2.o
 .debug_str     0x000012fd       0xe2 obj-tmp\ICMP.o
 .debug_str     0x000013df       0xf5 obj-tmp\IP.o
 .debug_str     0x000014d4       0xe2 obj-tmp\LCDBlocking.o
 .debug_str     0x000015b6      0x106 obj-tmp\MPFS2.o
 .debug_str     0x000016bc      0x105 obj-tmp\NBNS.o
 .debug_str     0x000017c1       0xe2 obj-tmp\Random.o
 .debug_str     0x000018a3      0x100 obj-tmp\Reboot.o
 .debug_str     0x000019a3       0xe2 obj-tmp\RSA.o
 .debug_str     0x00001a85       0xe2 obj-tmp\SMTP.o
 .debug_str     0x00001b67       0xe2 obj-tmp\SNMP.o
 .debug_str     0x00001c49       0xe2 obj-tmp\SNMPv3.o
 .debug_str     0x00001d2b       0xe2 obj-tmp\SNMPv3USM.o
 .debug_str     0x00001e0d       0xe2 obj-tmp\SNTP.o
 .debug_str     0x00001eef       0xe2 obj-tmp\SPIEEPROM.o
 .debug_str     0x00001fd1      0x13e obj-tmp\SPIFlash.o
 .debug_str     0x0000210f       0xe2 obj-tmp\SPIRAM.o
 .debug_str     0x000021f1       0xe2 obj-tmp\SSL.o
 .debug_str     0x000022d3      0x114 obj-tmp\StackTsk.o
 .debug_str     0x000023e7      0x1ad obj-tmp\TCP.o
 .debug_str     0x00002594       0xe2 obj-tmp\TCPPerformanceTest.o
 .debug_str     0x00002676       0xe2 obj-tmp\Telnet.o
 .debug_str     0x00002758       0xe2 obj-tmp\TFTPc.o
 .debug_str     0x0000283a       0xfe obj-tmp\Tick.o
 .debug_str     0x00002938       0xec obj-tmp\UART.o
 .debug_str     0x00002a24       0xe2 obj-tmp\UART2TCPBridge.o
 .debug_str     0x00002b06      0x154 obj-tmp\UDP.o
 .debug_str     0x00002c5a       0xe2 obj-tmp\UDPPerformanceTest.o
 .debug_str     0x00002d3c       0xe2 obj-tmp\ZeroconfHelper.o
 .debug_str     0x00002e1e      0x143 obj-tmp\ZeroconfLinkLocal.o
 .debug_str     0x00002f61      0x1a6 obj-tmp\ZeroconfMulticastDNS.o
 .debug_str     0x00003107      0x113 obj-tmp\WF_Eint.o
 .debug_str     0x0000321a      0x134 obj-tmp\WF_pbkdf2.o
 .debug_str     0x0000334e      0x1e0 obj-tmp\WFConnectionAlgorithm.o
 .debug_str     0x0000352e       0xf7 obj-tmp\WFConnectionManager.o
 .debug_str     0x00003625      0x188 obj-tmp\WFConnectionProfile.o
 .debug_str     0x000037ad       0xe2 obj-tmp\WFConsole.o
 .debug_str     0x0000388f       0xe2 obj-tmp\WFConsoleIfconfig.o
 .debug_str     0x00003971       0xe2 obj-tmp\WFConsoleIwconfig.o
 .debug_str     0x00003a53       0xe2 obj-tmp\WFConsoleIwpriv.o
 .debug_str     0x00003b35       0xe2 obj-tmp\WFConsoleMsgHandler.o
 .debug_str     0x00003c17      0x17c obj-tmp\WFConsoleMsgs.o
 .debug_str     0x00003d93       0xe2 obj-tmp\WFDataTxRx.o
 .debug_str     0x00003e75      0x16b obj-tmp\WFDebugStrings.o
 .debug_str     0x00003fe0      0x121 obj-tmp\WFEasyConfig.o
 .debug_str     0x00004101       0xed obj-tmp\WFEventHandler.o
 .debug_str     0x000041ee       0xec obj-tmp\WFInit.o
 .debug_str     0x000042da      0x10a obj-tmp\WFPowerSave.o
 .debug_str     0x000043e4       0xe2 obj-tmp\WFScan.o
 .debug_str     0x000044c6       0xea obj-tmp\WFTxPower.o
 .debug_str     0x000045b0      0x121 obj-tmp\WF_Spi.o
 .debug_str     0x000046d1      0x1b5 obj-tmp\WFDriverCom_24G.o
 .debug_str     0x00004886      0x1a1 obj-tmp\WFDriverRaw_24G.o
 .debug_str     0x00004a27      0x169 obj-tmp\WFMac_24G.o
 .debug_str     0x00004b90      0x127 obj-tmp\WFMgmtMsg_24G.o
 .debug_str     0x00004cb7      0x125 obj-tmp\WFParamMsg_24G.o
 .debug_str     0x00004ddc      0x12a obj-tmp\DHCP.o
 .debug_str     0x00004f06      0x134 obj-tmp\DHCPs.o
 .debug_str     0x0000503a      0x127 obj-tmp\i2c_master.o
 .debug_str     0x00005161      0x139 obj-tmp\INTiMain.o
 .debug_str     0x0000529a       0xe2 obj-tmp\UARTiMain.o
 .debug_str     0x0000537c       0xe2 obj-tmp\Assert.o
 .debug_str     0x0000545e       0xf0 obj-tmp\Device_ICO_ICL.o
 .debug_str     0x0000554e      0x108 obj-tmp\DeviceState.o
 .debug_str     0x00005656      0x11d obj-tmp\app_ICO_ICL.o
 .debug_str     0x00005773      0x155 obj-tmp\TimeMonitor.o
 .debug_str     0x000058c8       0xff obj-tmp\icoPowerMeasurement.o
 .debug_str     0x000059c7       0xeb obj-tmp\icoUserButton.o
 .debug_str     0x00005ab2      0x10f obj-tmp\ADE7753.o
 .debug_str     0x00005bc1      0x179 obj-tmp\spi.o
 .debug_str     0x00005d3a      0x134 obj-tmp\Power.o
 .debug_str     0x00005e6e      0x84b C:\Projects\Intwine\Aztec\Power.a(ADE7753.o)
                                0x907 (size before relaxing)
 .debug_str     0x000066b9        0x0 c:/program files (x86)/microchip/mplabc32/v2.02/bin/../lib/gcc/pic32mx/4.5.1\libgcc.a(_udivdi3.o)
 .debug_str     0x000066b9        0x0 c:/program files (x86)/microchip/mplabc32/v2.02/bin/../lib/gcc/pic32mx/4.5.1\libgcc.a(_umoddi3.o)
 .debug_str     0x000066b9        0x0 c:/program files (x86)/microchip/mplabc32/v2.02/bin/../lib/gcc/pic32mx/4.5.1/../../../../pic32mx/lib\libc.a(atol.o)
 .debug_str     0x000066b9        0x0 c:/program files (x86)/microchip/mplabc32/v2.02/bin/../lib/gcc/pic32mx/4.5.1/../../../../pic32mx/lib\libc.a(ctype.o)
 .debug_str     0x000066b9        0x0 c:/program files (x86)/microchip/mplabc32/v2.02/bin/../lib/gcc/pic32mx/4.5.1/../../../../pic32mx/lib\libc.a(puts.o)
 .debug_str     0x000066b9        0x0 c:/program files (x86)/microchip/mplabc32/v2.02/bin/../lib/gcc/pic32mx/4.5.1/../../../../pic32mx/lib\libc.a(strcat.o)
 .debug_str     0x000066b9        0x0 c:/program files (x86)/microchip/mplabc32/v2.02/bin/../lib/gcc/pic32mx/4.5.1/../../../../pic32mx/lib\libc.a(strncpy.o)
 .debug_str     0x000066b9        0x0 c:/program files (x86)/microchip/mplabc32/v2.02/bin/../lib/gcc/pic32mx/4.5.1/../../../../pic32mx/lib\libc.a(strrchr.o)
 .debug_str     0x000066b9        0x0 c:/program files (x86)/microchip/mplabc32/v2.02/bin/../lib/gcc/pic32mx/4.5.1/../../../../pic32mx/lib\libc.a(printf_cdnopsuxX.eo)
 .debug_str     0x000066b9        0x0 c:/program files (x86)/microchip/mplabc32/v2.02/bin/../lib/gcc/pic32mx/4.5.1/../../../../pic32mx/lib\libc.a(sprintf_cdnopsuxX.eo)
 .debug_str     0x000066b9        0x0 c:/program files (x86)/microchip/mplabc32/v2.02/bin/../lib/gcc/pic32mx/4.5.1/../../../../pic32mx/lib\libc.a(sscanf_cdnopuxX.eo)
 .debug_str     0x000066b9        0x0 c:/program files (x86)/microchip/mplabc32/v2.02/bin/../lib/gcc/pic32mx/4.5.1/../../../../pic32mx/lib\libc.a(default-bootstrap-exception-handler.o)
 .debug_str     0x000066b9        0x0 c:/program files (x86)/microchip/mplabc32/v2.02/bin/../lib/gcc/pic32mx/4.5.1/../../../../pic32mx/lib\libc.a(default-on-reset.o)
 .debug_str     0x000066b9        0x0 c:/program files (x86)/microchip/mplabc32/v2.02/bin/../lib/gcc/pic32mx/4.5.1/../../../../pic32mx/lib\libc.a(default-on-bootstrap.o)
 .debug_str     0x000066b9        0x0 c:/program files (x86)/microchip/mplabc32/v2.02/bin/../lib/gcc/pic32mx/4.5.1/../../../../pic32mx/lib\libc.a(_iob.o)
 .debug_str     0x000066b9        0x0 c:/program files (x86)/microchip/mplabc32/v2.02/bin/../lib/gcc/pic32mx/4.5.1/../../../../pic32mx/lib\libc.a(_fputc_simple.o)
 .debug_str     0x000066b9        0x0 c:/program files (x86)/microchip/mplabc32/v2.02/bin/../lib/gcc/pic32mx/4.5.1/../../../../pic32mx/lib\libc.a(doprnt_cdnopsuxX.eo)
 .debug_str     0x000066b9        0x0 c:/program files (x86)/microchip/mplabc32/v2.02/bin/../lib/gcc/pic32mx/4.5.1/../../../../pic32mx/lib\libc.a(doscan_cdnopuxX.eo)
 .debug_str     0x000066b9        0x0 c:/program files (x86)/microchip/mplabc32/v2.02/bin/../lib/gcc/pic32mx/4.5.1/../../../../pic32mx/lib\libc.a(write.o)
 .debug_str     0x000066b9        0x0 c:/program files (x86)/microchip/mplabc32/v2.02/bin/../lib/gcc/pic32mx/4.5.1/../../../../pic32mx/lib\libc.a(_flsbuf_simple.o)
 .debug_str     0x000066b9        0x0 c:/program files (x86)/microchip/mplabc32/v2.02/bin/../lib/gcc/pic32mx/4.5.1/../../../../pic32mx/lib\libc.a(fgetc.o)
 .debug_str     0x000066b9        0x0 c:/program files (x86)/microchip/mplabc32/v2.02/bin/../lib/gcc/pic32mx/4.5.1/../../../../pic32mx/lib\libc.a(atoi.o)
 .debug_str     0x000066b9        0x0 c:/program files (x86)/microchip/mplabc32/v2.02/bin/../lib/gcc/pic32mx/4.5.1/../../../../pic32mx/lib\libc.a(ctypef.o)
 .debug_str     0x000066b9        0x0 c:/program files (x86)/microchip/mplabc32/v2.02/bin/../lib/gcc/pic32mx/4.5.1/../../../../pic32mx/lib\libc.a(ungetc.o)
 .debug_str     0x000066b9        0x0 c:/program files (x86)/microchip/mplabc32/v2.02/bin/../lib/gcc/pic32mx/4.5.1/../../../../pic32mx/lib\libc.a(filbuf.o)
 .debug_str     0x000066b9        0x0 c:/program files (x86)/microchip/mplabc32/v2.02/bin/../lib/gcc/pic32mx/4.5.1/../../../../pic32mx/lib\libc.a(fflush.o)
 .debug_str     0x000066b9        0x0 c:/program files (x86)/microchip/mplabc32/v2.02/bin/../lib/gcc/pic32mx/4.5.1/../../../../pic32mx/lib\libc.a(read.o)
 .debug_str     0x000066b9        0x0 c:/program files (x86)/microchip/mplabc32/v2.02/bin/../lib/gcc/pic32mx/4.5.1/../../../../pic32mx/lib\libc.a(c32_uart.o)
 .debug_str     0x000066b9        0x0 c:/program files (x86)/microchip/mplabc32/v2.02/bin/../lib/gcc/pic32mx/4.5.1/../../../../pic32mx/lib\libmchp_peripheral_32MX575F256L.a(soft_reset_lib.o)
 .debug_str     0x000066b9        0x0 c:/program files (x86)/microchip/mplabc32/v2.02/bin/../lib/gcc/pic32mx/4.5.1/../../../../pic32mx/lib\libmchp_peripheral_32MX575F256L.a(pcache.o)
 .debug_str     0x000066b9        0x0 c:/program files (x86)/microchip/mplabc32/v2.02/bin/../lib/gcc/pic32mx/4.5.1/../../../../pic32mx/lib\libmchp_peripheral_32MX575F256L.a(int_disable_interrupts_lib.o)
 .debug_str     0x000066b9        0x0 c:/program files (x86)/microchip/mplabc32/v2.02/bin/../lib/gcc/pic32mx/4.5.1/../../../../pic32mx/lib\libmchp_peripheral_32MX575F256L.a(int_restore_interrupts_lib.o)
 .debug_str     0x000066b9        0x0 c:/program files (x86)/microchip/mplabc32/v2.02/bin/../lib/gcc/pic32mx/4.5.1/../../../../pic32mx/lib\libmchp_peripheral_32MX575F256L.a(int_enable_mv_int_lib.o)
 .debug_str     0x000066b9        0x0 c:/program files (x86)/microchip/mplabc32/v2.02/bin/../lib/gcc/pic32mx/4.5.1/../../../../pic32mx/lib\libmchp_peripheral_32MX575F256L.a(int_tbl_lib.o)
 .debug_str     0x000066b9        0x0 c:/program files (x86)/microchip/mplabc32/v2.02/bin/../lib/gcc/pic32mx/4.5.1/../../../../pic32mx/lib\libmchp_peripheral_32MX575F256L.a(spi_chn_getc_lib.o)
 .debug_str     0x000066b9        0x0 c:/program files (x86)/microchip/mplabc32/v2.02/bin/../lib/gcc/pic32mx/4.5.1/../../../../pic32mx/lib\libmchp_peripheral_32MX575F256L.a(spi_chn_putc_lib.o)
 .debug_str     0x000066b9        0x0 c:/program files (x86)/microchip/mplabc32/v2.02/bin/../lib/gcc/pic32mx/4.5.1/../../../../pic32mx/lib\libmchp_peripheral_32MX575F256L.a(spi_chn_change_mode_lib.o)
 .debug_str     0x000066b9        0x0 c:/program files (x86)/microchip/mplabc32/v2.02/bin/../lib/gcc/pic32mx/4.5.1/../../../../pic32mx/lib\libmchp_peripheral_32MX575F256L.a(spi_io_tbl_libp.o)
 .debug_str     0x000066b9        0x0 c:/program files (x86)/microchip/mplabc32/v2.02/bin/../lib/gcc/pic32mx/4.5.1/../../../../pic32mx/lib\libmchp_peripheral_32MX575F256L.a(spi_map_tbl_libp.o)
 .debug_str     0x000066b9        0x0 c:/program files (x86)/microchip/mplabc32/v2.02/bin/../lib/gcc/pic32mx/4.5.1/../../../../pic32mx/lib\libmchp_peripheral_32MX575F256L.a(port_set_pins_digital_in_lib.o)
 .debug_str     0x000066b9        0x0 c:/program files (x86)/microchip/mplabc32/v2.02/bin/../lib/gcc/pic32mx/4.5.1/../../../../pic32mx/lib\libmchp_peripheral_32MX575F256L.a(port_set_pins_digital_out_lib.o)
 .debug_str     0x000066b9        0x0 c:/program files (x86)/microchip/mplabc32/v2.02/bin/../lib/gcc/pic32mx/4.5.1/../../../../pic32mx/lib\libmchp_peripheral_32MX575F256L.a(_ports_tbl_libp.o)
 .debug_str     0x000066b9        0x0 c:/program files (x86)/microchip/mplabc32/v2.02/bin/../lib/gcc/pic32mx/4.5.1/../../../../pic32mx/lib\libmchp_peripheral_32MX575F256L.a(uart_lib.o)
 .debug_str     0x000066b9        0x0 c:/program files (x86)/microchip/mplabc32/v2.02/bin/../lib/gcc/pic32mx/4.5.1/../../../../pic32mx/lib\libmchp_peripheral_32MX575F256L.a(puts_uartx_lib_legacy.o)
 .debug_str     0x000066b9        0x0 c:/program files (x86)/microchip/mplabc32/v2.02/bin/../lib/gcc/pic32mx/4.5.1/../../../../pic32mx/lib\libmchp_peripheral_32MX575F256L.a(idle_i2c2_lib_legacy.o)
 .debug_str     0x000066b9        0x0 c:/program files (x86)/microchip/mplabc32/v2.02/bin/../lib/gcc/pic32mx/4.5.1/../../../../pic32mx/lib\libmchp_peripheral_32MX575F256L.a(I2CPrivate.o)
 .debug_str     0x000066b9        0x0 c:/program files (x86)/microchip/mplabc32/v2.02/bin/../lib/gcc/pic32mx/4.5.1/../../../../pic32mx/lib\libmchp_peripheral_32MX575F256L.a(I2CBusIsIdle.o)
 .debug_str     0x000066b9        0x0 c:/program files (x86)/microchip/mplabc32/v2.02/bin/../lib/gcc/pic32mx/4.5.1/../../../../pic32mx/lib\libmchp_peripheral_32MX575F256L.a(I2CByteWasAcknowledged.o)
 .debug_str     0x000066b9        0x0 c:/program files (x86)/microchip/mplabc32/v2.02/bin/../lib/gcc/pic32mx/4.5.1/../../../../pic32mx/lib\libmchp_peripheral_32MX575F256L.a(I2CEnable.o)
 .debug_str     0x000066b9        0x0 c:/program files (x86)/microchip/mplabc32/v2.02/bin/../lib/gcc/pic32mx/4.5.1/../../../../pic32mx/lib\libmchp_peripheral_32MX575F256L.a(I2CGetByte.o)
 .debug_str     0x000066b9        0x0 c:/program files (x86)/microchip/mplabc32/v2.02/bin/../lib/gcc/pic32mx/4.5.1/../../../../pic32mx/lib\libmchp_peripheral_32MX575F256L.a(I2CGetStatus.o)
 .debug_str     0x000066b9        0x0 c:/program files (x86)/microchip/mplabc32/v2.02/bin/../lib/gcc/pic32mx/4.5.1/../../../../pic32mx/lib\libmchp_peripheral_32MX575F256L.a(I2CReceivedDataIsAvailable.o)
 .debug_str     0x000066b9        0x0 c:/program files (x86)/microchip/mplabc32/v2.02/bin/../lib/gcc/pic32mx/4.5.1/../../../../pic32mx/lib\libmchp_peripheral_32MX575F256L.a(I2CReceiverEnable.o)
 .debug_str     0x000066b9        0x0 c:/program files (x86)/microchip/mplabc32/v2.02/bin/../lib/gcc/pic32mx/4.5.1/../../../../pic32mx/lib\libmchp_peripheral_32MX575F256L.a(I2CRepeatStart.o)
 .debug_str     0x000066b9        0x0 c:/program files (x86)/microchip/mplabc32/v2.02/bin/../lib/gcc/pic32mx/4.5.1/../../../../pic32mx/lib\libmchp_peripheral_32MX575F256L.a(I2CSetFrequency.o)
 .debug_str     0x000066b9        0x0 c:/program files (x86)/microchip/mplabc32/v2.02/bin/../lib/gcc/pic32mx/4.5.1/../../../../pic32mx/lib\libmchp_peripheral_32MX575F256L.a(I2CStart.o)
 .debug_str     0x000066b9        0x0 c:/program files (x86)/microchip/mplabc32/v2.02/bin/../lib/gcc/pic32mx/4.5.1/../../../../pic32mx/lib\libmchp_peripheral_32MX575F256L.a(I2CStop.o)
 .debug_str     0x000066b9        0x0 c:/program files (x86)/microchip/mplabc32/v2.02/bin/../lib/gcc/pic32mx/4.5.1/../../../../pic32mx/lib\libmchp_peripheral_32MX575F256L.a(I2CTransmissionHasCompleted.o)
 .debug_str     0x000066b9        0x0 c:/program files (x86)/microchip/mplabc32/v2.02/bin/../lib/gcc/pic32mx/4.5.1/../../../../pic32mx/lib\libmchp_peripheral_32MX575F256L.a(I2CTransmitterIsReady.o)
 .debug_str     0x000066b9        0x0 c:/program files (x86)/microchip/mplabc32/v2.02/bin/../lib/gcc/pic32mx/4.5.1/../../../../pic32mx/lib\libmchp_peripheral_32MX575F256L.a(int_enable_interrupts_lib.o)

.debug_loc      0x00000000     0xb458
 *(.debug_loc)
 .debug_loc     0x00000000      0x283 obj-tmp\Main.o
 .debug_loc     0x00000283      0x2a5 obj-tmp\CustomHTTPApp.o
 .debug_loc     0x00000528      0x148 obj-tmp\WF_Config.o
 .debug_loc     0x00000670       0xb9 obj-tmp\Announce.o
 .debug_loc     0x00000729      0x10f obj-tmp\ARP.o
 .debug_loc     0x00000838       0x5f obj-tmp\Delay.o
 .debug_loc     0x00000897      0x152 obj-tmp\DNS.o
 .debug_loc     0x000009e9      0x1b7 obj-tmp\DNSs.o
 .debug_loc     0x00000ba0      0x734 obj-tmp\Helpers.o
 .debug_loc     0x000012d4      0x823 obj-tmp\HTTP2.o
 .debug_loc     0x00001af7       0x3c obj-tmp\ICMP.o
 .debug_loc     0x00001b33      0x100 obj-tmp\IP.o
 .debug_loc     0x00001c33      0x4a0 obj-tmp\MPFS2.o
 .debug_loc     0x000020d3       0xb3 obj-tmp\NBNS.o
 .debug_loc     0x00002186      0x52a obj-tmp\SPIFlash.o
 .debug_loc     0x000026b0       0x29 obj-tmp\StackTsk.o
 .debug_loc     0x000026d9     0x14ed obj-tmp\TCP.o
 .debug_loc     0x00003bc6       0x49 obj-tmp\Tick.o
 .debug_loc     0x00003c0f       0x7d obj-tmp\UART.o
 .debug_loc     0x00003c8c      0x3f0 obj-tmp\UDP.o
 .debug_loc     0x0000407c       0x5a obj-tmp\ZeroconfHelper.o
 .debug_loc     0x000040d6       0xf5 obj-tmp\ZeroconfLinkLocal.o
 .debug_loc     0x000041cb      0xc4c obj-tmp\ZeroconfMulticastDNS.o
 .debug_loc     0x00004e17      0xecb obj-tmp\WF_pbkdf2.o
 .debug_loc     0x00005ce2      0x536 obj-tmp\WFConnectionAlgorithm.o
 .debug_loc     0x00006218      0x122 obj-tmp\WFConnectionManager.o
 .debug_loc     0x0000633a      0x63c obj-tmp\WFConnectionProfile.o
 .debug_loc     0x00006976       0xb4 obj-tmp\WFConsoleMsgHandler.o
 .debug_loc     0x00006a2a       0xad obj-tmp\WFConsoleMsgs.o
 .debug_loc     0x00006ad7      0x2cd obj-tmp\WFDebugStrings.o
 .debug_loc     0x00006da4       0xb3 obj-tmp\WFEasyConfig.o
 .debug_loc     0x00006e57      0x292 obj-tmp\WFEventHandler.o
 .debug_loc     0x000070e9       0x6d obj-tmp\WFPowerSave.o
 .debug_loc     0x00007156       0x5b obj-tmp\WFScan.o
 .debug_loc     0x000071b1       0x8c obj-tmp\WFTxPower.o
 .debug_loc     0x0000723d       0xd9 obj-tmp\WF_Spi.o
 .debug_loc     0x00007316      0x40c obj-tmp\WFDriverCom_24G.o
 .debug_loc     0x00007722      0x53d obj-tmp\WFDriverRaw_24G.o
 .debug_loc     0x00007c5f      0x602 obj-tmp\WFMac_24G.o
 .debug_loc     0x00008261      0x168 obj-tmp\WFMgmtMsg_24G.o
 .debug_loc     0x000083c9      0x400 obj-tmp\WFParamMsg_24G.o
 .debug_loc     0x000087c9      0x2e6 obj-tmp\DHCP.o
 .debug_loc     0x00008aaf      0x512 obj-tmp\DHCPs.o
 .debug_loc     0x00008fc1      0x41e obj-tmp\i2c_master.o
 .debug_loc     0x000093df       0x2c obj-tmp\INTiMain.o
 .debug_loc     0x0000940b       0x78 obj-tmp\UARTiMain.o
 .debug_loc     0x00009483      0x103 obj-tmp\Assert.o
 .debug_loc     0x00009586       0x75 obj-tmp\Device_ICO_ICL.o
 .debug_loc     0x000095fb       0xbd obj-tmp\DeviceState.o
 .debug_loc     0x000096b8       0xf2 obj-tmp\TimeMonitor.o
 .debug_loc     0x000097aa       0xf5 obj-tmp\icoPowerMeasurement.o
 .debug_loc     0x0000989f       0xa5 obj-tmp\icoUserButton.o
 .debug_loc     0x00009944      0x37b obj-tmp\ADE7753.o
 .debug_loc     0x00009cbf      0x200 obj-tmp\spi.o
 .debug_loc     0x00009ebf      0x135 obj-tmp\Power.o
 .debug_loc     0x00009ff4      0xa47 c:/program files (x86)/microchip/mplabc32/v2.02/bin/../lib/gcc/pic32mx/4.5.1\libgcc.a(_udivdi3.o)
 .debug_loc     0x0000aa3b      0xa1d c:/program files (x86)/microchip/mplabc32/v2.02/bin/../lib/gcc/pic32mx/4.5.1\libgcc.a(_umoddi3.o)

.debug_macinfo
 *(.debug_macinfo)

.debug_weaknames
 *(.debug_weaknames)

.debug_funcnames
 *(.debug_funcnames)

.debug_typenames
 *(.debug_typenames)

.debug_varnames
 *(.debug_varnames)

.debug_pubtypes
                0x00000000     0x64d9
 *(.debug_pubtypes)
 .debug_pubtypes
                0x00000000      0x24f obj-tmp\Main.o
 .debug_pubtypes
                0x0000024f      0x271 obj-tmp\CustomHTTPApp.o
 .debug_pubtypes
                0x000004c0      0x1d2 obj-tmp\WF_Config.o
 .debug_pubtypes
                0x00000692       0xc6 obj-tmp\WifiGDemoMPFSImg.o
 .debug_pubtypes
                0x00000758      0x170 obj-tmp\Announce.o
 .debug_pubtypes
                0x000008c8       0xbd obj-tmp\ARCFOUR.o
 .debug_pubtypes
                0x00000985      0x173 obj-tmp\ARP.o
 .debug_pubtypes
                0x00000af8       0xbd obj-tmp\AutoIP.o
 .debug_pubtypes
                0x00000bb5       0xbd obj-tmp\BerkeleyAPI.o
 .debug_pubtypes
                0x00000c72       0xbd obj-tmp\BigInt.o
 .debug_pubtypes
                0x00000d2f       0xd0 obj-tmp\Delay.o
 .debug_pubtypes
                0x00000dff      0x183 obj-tmp\DNS.o
 .debug_pubtypes
                0x00000f82      0x146 obj-tmp\DNSs.o
 .debug_pubtypes
                0x000010c8       0xbd obj-tmp\DynDNS.o
 .debug_pubtypes
                0x00001185       0xbd obj-tmp\FileSystem.o
 .debug_pubtypes
                0x00001242       0xbd obj-tmp\FTP.o
 .debug_pubtypes
                0x000012ff       0xbd obj-tmp\Hashes.o
 .debug_pubtypes
                0x000013bc      0x13d obj-tmp\Helpers.o
 .debug_pubtypes
                0x000014f9      0x19a obj-tmp\HTTP2.o
 .debug_pubtypes
                0x00001693      0x10f obj-tmp\ICMP.o
 .debug_pubtypes
                0x000017a2      0x162 obj-tmp\IP.o
 .debug_pubtypes
                0x00001904       0xbd obj-tmp\LCDBlocking.o
 .debug_pubtypes
                0x000019c1      0x13e obj-tmp\MPFS2.o
 .debug_pubtypes
                0x00001aff      0x191 obj-tmp\NBNS.o
 .debug_pubtypes
                0x00001c90       0xbd obj-tmp\Random.o
 .debug_pubtypes
                0x00001d4d      0x152 obj-tmp\Reboot.o
 .debug_pubtypes
                0x00001e9f       0xbd obj-tmp\RSA.o
 .debug_pubtypes
                0x00001f5c       0xbd obj-tmp\SMTP.o
 .debug_pubtypes
                0x00002019       0xbd obj-tmp\SNMP.o
 .debug_pubtypes
                0x000020d6       0xbd obj-tmp\SNMPv3.o
 .debug_pubtypes
                0x00002193       0xbd obj-tmp\SNMPv3USM.o
 .debug_pubtypes
                0x00002250       0xbd obj-tmp\SNTP.o
 .debug_pubtypes
                0x0000230d       0xbd obj-tmp\SPIEEPROM.o
 .debug_pubtypes
                0x000023ca      0x138 obj-tmp\SPIFlash.o
 .debug_pubtypes
                0x00002502       0xbd obj-tmp\SPIRAM.o
 .debug_pubtypes
                0x000025bf       0xbd obj-tmp\SSL.o
 .debug_pubtypes
                0x0000267c      0x15d obj-tmp\StackTsk.o
 .debug_pubtypes
                0x000027d9      0x1fa obj-tmp\TCP.o
 .debug_pubtypes
                0x000029d3       0xbd obj-tmp\TCPPerformanceTest.o
 .debug_pubtypes
                0x00002a90       0xbd obj-tmp\Telnet.o
 .debug_pubtypes
                0x00002b4d       0xbd obj-tmp\TFTPc.o
 .debug_pubtypes
                0x00002c0a      0x11a obj-tmp\Tick.o
 .debug_pubtypes
                0x00002d24       0xd8 obj-tmp\UART.o
 .debug_pubtypes
                0x00002dfc       0xbd obj-tmp\UART2TCPBridge.o
 .debug_pubtypes
                0x00002eb9      0x1c1 obj-tmp\UDP.o
 .debug_pubtypes
                0x0000307a       0xbd obj-tmp\UDPPerformanceTest.o
 .debug_pubtypes
                0x00003137       0xd0 obj-tmp\ZeroconfHelper.o
 .debug_pubtypes
                0x00003207      0x211 obj-tmp\ZeroconfLinkLocal.o
 .debug_pubtypes
                0x00003418      0x369 obj-tmp\ZeroconfMulticastDNS.o
 .debug_pubtypes
                0x00003781      0x129 obj-tmp\WF_Eint.o
 .debug_pubtypes
                0x000038aa      0x113 obj-tmp\WF_pbkdf2.o
 .debug_pubtypes
                0x000039bd      0x161 obj-tmp\WFConnectionAlgorithm.o
 .debug_pubtypes
                0x00003b1e      0x117 obj-tmp\WFConnectionManager.o
 .debug_pubtypes
                0x00003c35      0x170 obj-tmp\WFConnectionProfile.o
 .debug_pubtypes
                0x00003da5       0xbd obj-tmp\WFConsole.o
 .debug_pubtypes
                0x00003e62       0xbd obj-tmp\WFConsoleIfconfig.o
 .debug_pubtypes
                0x00003f1f       0xbd obj-tmp\WFConsoleIwconfig.o
 .debug_pubtypes
                0x00003fdc       0xbd obj-tmp\WFConsoleIwpriv.o
 .debug_pubtypes
                0x00004099       0xee obj-tmp\WFConsoleMsgHandler.o
 .debug_pubtypes
                0x00004187      0x113 obj-tmp\WFConsoleMsgs.o
 .debug_pubtypes
                0x0000429a       0xbd obj-tmp\WFDataTxRx.o
 .debug_pubtypes
                0x00004357      0x176 obj-tmp\WFDebugStrings.o
 .debug_pubtypes
                0x000044cd      0x1c9 obj-tmp\WFEasyConfig.o
 .debug_pubtypes
                0x00004696      0x18e obj-tmp\WFEventHandler.o
 .debug_pubtypes
                0x00004824      0x158 obj-tmp\WFInit.o
 .debug_pubtypes
                0x0000497c      0x134 obj-tmp\WFPowerSave.o
 .debug_pubtypes
                0x00004ab0       0xf7 obj-tmp\WFScan.o
 .debug_pubtypes
                0x00004ba7       0xda obj-tmp\WFTxPower.o
 .debug_pubtypes
                0x00004c81      0x11e obj-tmp\WF_Spi.o
 .debug_pubtypes
                0x00004d9f      0x1b0 obj-tmp\WFDriverCom_24G.o
 .debug_pubtypes
                0x00004f4f      0x102 obj-tmp\WFDriverRaw_24G.o
 .debug_pubtypes
                0x00005051      0x19a obj-tmp\WFMac_24G.o
 .debug_pubtypes
                0x000051eb      0x116 obj-tmp\WFMgmtMsg_24G.o
 .debug_pubtypes
                0x00005301      0x1a7 obj-tmp\WFParamMsg_24G.o
 .debug_pubtypes
                0x000054a8      0x1ae obj-tmp\DHCP.o
 .debug_pubtypes
                0x00005656      0x1cd obj-tmp\DHCPs.o
 .debug_pubtypes
                0x00005823      0x189 obj-tmp\i2c_master.o
 .debug_pubtypes
                0x000059ac       0xbd obj-tmp\INTiMain.o
 .debug_pubtypes
                0x00005a69       0xd8 obj-tmp\UARTiMain.o
 .debug_pubtypes
                0x00005b41       0xbd obj-tmp\Assert.o
 .debug_pubtypes
                0x00005bfe       0xda obj-tmp\Device_ICO_ICL.o
 .debug_pubtypes
                0x00005cd8      0x116 obj-tmp\DeviceState.o
 .debug_pubtypes
                0x00005dee       0xd1 obj-tmp\app_ICO_ICL.o
 .debug_pubtypes
                0x00005ebf       0xd0 obj-tmp\TimeMonitor.o
 .debug_pubtypes
                0x00005f8f       0xd0 obj-tmp\icoPowerMeasurement.o
 .debug_pubtypes
                0x0000605f       0xd1 obj-tmp\icoUserButton.o
 .debug_pubtypes
                0x00006130      0x11a obj-tmp\ADE7753.o
 .debug_pubtypes
                0x0000624a      0x10b obj-tmp\spi.o
 .debug_pubtypes
                0x00006355       0xd2 obj-tmp\Power.o
 .debug_pubtypes
                0x00006427       0x59 c:/program files (x86)/microchip/mplabc32/v2.02/bin/../lib/gcc/pic32mx/4.5.1\libgcc.a(_udivdi3.o)
 .debug_pubtypes
                0x00006480       0x59 c:/program files (x86)/microchip/mplabc32/v2.02/bin/../lib/gcc/pic32mx/4.5.1\libgcc.a(_umoddi3.o)

.debug_ranges   0x00000000      0xef0
 *(.debug_ranges)
 .debug_ranges  0x00000000      0x150 obj-tmp\Main.o
 .debug_ranges  0x00000150       0x30 obj-tmp\CustomHTTPApp.o
 .debug_ranges  0x00000180       0x70 obj-tmp\DNSs.o
 .debug_ranges  0x000001f0       0x88 obj-tmp\HTTP2.o
 .debug_ranges  0x00000278       0x70 obj-tmp\NBNS.o
 .debug_ranges  0x000002e8       0x60 obj-tmp\SPIFlash.o
 .debug_ranges  0x00000348       0x40 obj-tmp\TCP.o
 .debug_ranges  0x00000388       0x18 obj-tmp\Tick.o
 .debug_ranges  0x000003a0       0x18 obj-tmp\UDP.o
 .debug_ranges  0x000003b8       0x60 obj-tmp\ZeroconfMulticastDNS.o
 .debug_ranges  0x00000418       0x68 obj-tmp\WF_pbkdf2.o
 .debug_ranges  0x00000480       0x70 obj-tmp\WFEventHandler.o
 .debug_ranges  0x000004f0       0x18 obj-tmp\WF_Spi.o
 .debug_ranges  0x00000508       0xd8 obj-tmp\DHCPs.o
 .debug_ranges  0x000005e0      0x2e8 C:\Projects\Intwine\Aztec\Power.a(ADE7753.o)
 .debug_ranges  0x000008c8       0xc0 c:/program files (x86)/microchip/mplabc32/v2.02/bin/../lib/gcc/pic32mx/4.5.1\libgcc.a(_udivdi3.o)
 .debug_ranges  0x00000988       0xf8 c:/program files (x86)/microchip/mplabc32/v2.02/bin/../lib/gcc/pic32mx/4.5.1\libgcc.a(_umoddi3.o)
 .debug_ranges  0x00000a80       0x10 c:/program files (x86)/microchip/mplabc32/v2.02/bin/../lib/gcc/pic32mx/4.5.1/../../../../pic32mx/lib\libc.a(atol.o)
 .debug_ranges  0x00000a90       0x18 c:/program files (x86)/microchip/mplabc32/v2.02/bin/../lib/gcc/pic32mx/4.5.1/../../../../pic32mx/lib\libc.a(puts.o)
 .debug_ranges  0x00000aa8       0x10 c:/program files (x86)/microchip/mplabc32/v2.02/bin/../lib/gcc/pic32mx/4.5.1/../../../../pic32mx/lib\libc.a(strcat.o)
 .debug_ranges  0x00000ab8       0x10 c:/program files (x86)/microchip/mplabc32/v2.02/bin/../lib/gcc/pic32mx/4.5.1/../../../../pic32mx/lib\libc.a(strncpy.o)
 .debug_ranges  0x00000ac8       0x10 c:/program files (x86)/microchip/mplabc32/v2.02/bin/../lib/gcc/pic32mx/4.5.1/../../../../pic32mx/lib\libc.a(strrchr.o)
 .debug_ranges  0x00000ad8       0x10 c:/program files (x86)/microchip/mplabc32/v2.02/bin/../lib/gcc/pic32mx/4.5.1/../../../../pic32mx/lib\libc.a(printf_cdnopsuxX.eo)
 .debug_ranges  0x00000ae8       0x10 c:/program files (x86)/microchip/mplabc32/v2.02/bin/../lib/gcc/pic32mx/4.5.1/../../../../pic32mx/lib\libc.a(sprintf_cdnopsuxX.eo)
 .debug_ranges  0x00000af8       0x10 c:/program files (x86)/microchip/mplabc32/v2.02/bin/../lib/gcc/pic32mx/4.5.1/../../../../pic32mx/lib\libc.a(sscanf_cdnopuxX.eo)
 .debug_ranges  0x00000b08       0x10 c:/program files (x86)/microchip/mplabc32/v2.02/bin/../lib/gcc/pic32mx/4.5.1/../../../../pic32mx/lib\libc.a(default-bootstrap-exception-handler.o)
 .debug_ranges  0x00000b18       0x10 c:/program files (x86)/microchip/mplabc32/v2.02/bin/../lib/gcc/pic32mx/4.5.1/../../../../pic32mx/lib\libc.a(default-on-reset.o)
 .debug_ranges  0x00000b28       0x10 c:/program files (x86)/microchip/mplabc32/v2.02/bin/../lib/gcc/pic32mx/4.5.1/../../../../pic32mx/lib\libc.a(default-on-bootstrap.o)
 .debug_ranges  0x00000b38       0x10 c:/program files (x86)/microchip/mplabc32/v2.02/bin/../lib/gcc/pic32mx/4.5.1/../../../../pic32mx/lib\libc.a(_fputc_simple.o)
 .debug_ranges  0x00000b48       0x10 c:/program files (x86)/microchip/mplabc32/v2.02/bin/../lib/gcc/pic32mx/4.5.1/../../../../pic32mx/lib\libc.a(doprnt_cdnopsuxX.eo)
 .debug_ranges  0x00000b58       0x20 c:/program files (x86)/microchip/mplabc32/v2.02/bin/../lib/gcc/pic32mx/4.5.1/../../../../pic32mx/lib\libc.a(doscan_cdnopuxX.eo)
 .debug_ranges  0x00000b78       0x10 c:/program files (x86)/microchip/mplabc32/v2.02/bin/../lib/gcc/pic32mx/4.5.1/../../../../pic32mx/lib\libc.a(write.o)
 .debug_ranges  0x00000b88       0x10 c:/program files (x86)/microchip/mplabc32/v2.02/bin/../lib/gcc/pic32mx/4.5.1/../../../../pic32mx/lib\libc.a(_flsbuf_simple.o)
 .debug_ranges  0x00000b98       0x10 c:/program files (x86)/microchip/mplabc32/v2.02/bin/../lib/gcc/pic32mx/4.5.1/../../../../pic32mx/lib\libc.a(fgetc.o)
 .debug_ranges  0x00000ba8       0x10 c:/program files (x86)/microchip/mplabc32/v2.02/bin/../lib/gcc/pic32mx/4.5.1/../../../../pic32mx/lib\libc.a(atoi.o)
 .debug_ranges  0x00000bb8       0x90 c:/program files (x86)/microchip/mplabc32/v2.02/bin/../lib/gcc/pic32mx/4.5.1/../../../../pic32mx/lib\libc.a(ctypef.o)
 .debug_ranges  0x00000c48       0x10 c:/program files (x86)/microchip/mplabc32/v2.02/bin/../lib/gcc/pic32mx/4.5.1/../../../../pic32mx/lib\libc.a(ungetc.o)
 .debug_ranges  0x00000c58       0x10 c:/program files (x86)/microchip/mplabc32/v2.02/bin/../lib/gcc/pic32mx/4.5.1/../../../../pic32mx/lib\libc.a(filbuf.o)
 .debug_ranges  0x00000c68       0x10 c:/program files (x86)/microchip/mplabc32/v2.02/bin/../lib/gcc/pic32mx/4.5.1/../../../../pic32mx/lib\libc.a(fflush.o)
 .debug_ranges  0x00000c78       0x10 c:/program files (x86)/microchip/mplabc32/v2.02/bin/../lib/gcc/pic32mx/4.5.1/../../../../pic32mx/lib\libc.a(read.o)
 .debug_ranges  0x00000c88       0x10 c:/program files (x86)/microchip/mplabc32/v2.02/bin/../lib/gcc/pic32mx/4.5.1/../../../../pic32mx/lib\libmchp_peripheral_32MX575F256L.a(soft_reset_lib.o)
 .debug_ranges  0x00000c98       0x18 c:/program files (x86)/microchip/mplabc32/v2.02/bin/../lib/gcc/pic32mx/4.5.1/../../../../pic32mx/lib\libmchp_peripheral_32MX575F256L.a(pcache.o)
 .debug_ranges  0x00000cb0       0x10 c:/program files (x86)/microchip/mplabc32/v2.02/bin/../lib/gcc/pic32mx/4.5.1/../../../../pic32mx/lib\libmchp_peripheral_32MX575F256L.a(int_disable_interrupts_lib.o)
 .debug_ranges  0x00000cc0       0x10 c:/program files (x86)/microchip/mplabc32/v2.02/bin/../lib/gcc/pic32mx/4.5.1/../../../../pic32mx/lib\libmchp_peripheral_32MX575F256L.a(int_restore_interrupts_lib.o)
 .debug_ranges  0x00000cd0       0x10 c:/program files (x86)/microchip/mplabc32/v2.02/bin/../lib/gcc/pic32mx/4.5.1/../../../../pic32mx/lib\libmchp_peripheral_32MX575F256L.a(int_enable_mv_int_lib.o)
 .debug_ranges  0x00000ce0       0x50 c:/program files (x86)/microchip/mplabc32/v2.02/bin/../lib/gcc/pic32mx/4.5.1/../../../../pic32mx/lib\libmchp_peripheral_32MX575F256L.a(int_tbl_lib.o)
 .debug_ranges  0x00000d30       0x18 c:/program files (x86)/microchip/mplabc32/v2.02/bin/../lib/gcc/pic32mx/4.5.1/../../../../pic32mx/lib\libmchp_peripheral_32MX575F256L.a(spi_chn_getc_lib.o)
 .debug_ranges  0x00000d48       0x20 c:/program files (x86)/microchip/mplabc32/v2.02/bin/../lib/gcc/pic32mx/4.5.1/../../../../pic32mx/lib\libmchp_peripheral_32MX575F256L.a(spi_chn_putc_lib.o)
 .debug_ranges  0x00000d68       0x18 c:/program files (x86)/microchip/mplabc32/v2.02/bin/../lib/gcc/pic32mx/4.5.1/../../../../pic32mx/lib\libmchp_peripheral_32MX575F256L.a(spi_chn_change_mode_lib.o)
 .debug_ranges  0x00000d80       0x10 c:/program files (x86)/microchip/mplabc32/v2.02/bin/../lib/gcc/pic32mx/4.5.1/../../../../pic32mx/lib\libmchp_peripheral_32MX575F256L.a(port_set_pins_digital_in_lib.o)
 .debug_ranges  0x00000d90       0x10 c:/program files (x86)/microchip/mplabc32/v2.02/bin/../lib/gcc/pic32mx/4.5.1/../../../../pic32mx/lib\libmchp_peripheral_32MX575F256L.a(port_set_pins_digital_out_lib.o)
 .debug_ranges  0x00000da0       0x48 c:/program files (x86)/microchip/mplabc32/v2.02/bin/../lib/gcc/pic32mx/4.5.1/../../../../pic32mx/lib\libmchp_peripheral_32MX575F256L.a(uart_lib.o)
 .debug_ranges  0x00000de8       0x18 c:/program files (x86)/microchip/mplabc32/v2.02/bin/../lib/gcc/pic32mx/4.5.1/../../../../pic32mx/lib\libmchp_peripheral_32MX575F256L.a(puts_uartx_lib_legacy.o)
 .debug_ranges  0x00000e00       0x10 c:/program files (x86)/microchip/mplabc32/v2.02/bin/../lib/gcc/pic32mx/4.5.1/../../../../pic32mx/lib\libmchp_peripheral_32MX575F256L.a(idle_i2c2_lib_legacy.o)
 .debug_ranges  0x00000e10       0x10 c:/program files (x86)/microchip/mplabc32/v2.02/bin/../lib/gcc/pic32mx/4.5.1/../../../../pic32mx/lib\libmchp_peripheral_32MX575F256L.a(I2CBusIsIdle.o)
 .debug_ranges  0x00000e20       0x10 c:/program files (x86)/microchip/mplabc32/v2.02/bin/../lib/gcc/pic32mx/4.5.1/../../../../pic32mx/lib\libmchp_peripheral_32MX575F256L.a(I2CByteWasAcknowledged.o)
 .debug_ranges  0x00000e30       0x10 c:/program files (x86)/microchip/mplabc32/v2.02/bin/../lib/gcc/pic32mx/4.5.1/../../../../pic32mx/lib\libmchp_peripheral_32MX575F256L.a(I2CEnable.o)
 .debug_ranges  0x00000e40       0x10 c:/program files (x86)/microchip/mplabc32/v2.02/bin/../lib/gcc/pic32mx/4.5.1/../../../../pic32mx/lib\libmchp_peripheral_32MX575F256L.a(I2CGetByte.o)
 .debug_ranges  0x00000e50       0x10 c:/program files (x86)/microchip/mplabc32/v2.02/bin/../lib/gcc/pic32mx/4.5.1/../../../../pic32mx/lib\libmchp_peripheral_32MX575F256L.a(I2CGetStatus.o)
 .debug_ranges  0x00000e60       0x10 c:/program files (x86)/microchip/mplabc32/v2.02/bin/../lib/gcc/pic32mx/4.5.1/../../../../pic32mx/lib\libmchp_peripheral_32MX575F256L.a(I2CReceivedDataIsAvailable.o)
 .debug_ranges  0x00000e70       0x10 c:/program files (x86)/microchip/mplabc32/v2.02/bin/../lib/gcc/pic32mx/4.5.1/../../../../pic32mx/lib\libmchp_peripheral_32MX575F256L.a(I2CReceiverEnable.o)
 .debug_ranges  0x00000e80       0x10 c:/program files (x86)/microchip/mplabc32/v2.02/bin/../lib/gcc/pic32mx/4.5.1/../../../../pic32mx/lib\libmchp_peripheral_32MX575F256L.a(I2CRepeatStart.o)
 .debug_ranges  0x00000e90       0x10 c:/program files (x86)/microchip/mplabc32/v2.02/bin/../lib/gcc/pic32mx/4.5.1/../../../../pic32mx/lib\libmchp_peripheral_32MX575F256L.a(I2CSetFrequency.o)
 .debug_ranges  0x00000ea0       0x10 c:/program files (x86)/microchip/mplabc32/v2.02/bin/../lib/gcc/pic32mx/4.5.1/../../../../pic32mx/lib\libmchp_peripheral_32MX575F256L.a(I2CStart.o)
 .debug_ranges  0x00000eb0       0x10 c:/program files (x86)/microchip/mplabc32/v2.02/bin/../lib/gcc/pic32mx/4.5.1/../../../../pic32mx/lib\libmchp_peripheral_32MX575F256L.a(I2CStop.o)
 .debug_ranges  0x00000ec0       0x10 c:/program files (x86)/microchip/mplabc32/v2.02/bin/../lib/gcc/pic32mx/4.5.1/../../../../pic32mx/lib\libmchp_peripheral_32MX575F256L.a(I2CTransmissionHasCompleted.o)
 .debug_ranges  0x00000ed0       0x10 c:/program files (x86)/microchip/mplabc32/v2.02/bin/../lib/gcc/pic32mx/4.5.1/../../../../pic32mx/lib\libmchp_peripheral_32MX575F256L.a(I2CTransmitterIsReady.o)
 .debug_ranges  0x00000ee0       0x10 c:/program files (x86)/microchip/mplabc32/v2.02/bin/../lib/gcc/pic32mx/4.5.1/../../../../pic32mx/lib\libmchp_peripheral_32MX575F256L.a(int_enable_interrupts_lib.o)

.gnu.attributes
                0x00000000       0x10
 *(.gnu.attributes)
 .gnu.attributes
                0x00000000       0x10 obj-tmp\Main.o
 .gnu.attributes
                0x00000010       0x10 obj-tmp\CustomHTTPApp.o
 .gnu.attributes
                0x00000020       0x10 obj-tmp\WF_Config.o
 .gnu.attributes
                0x00000030       0x10 obj-tmp\WifiGDemoMPFSImg.o
 .gnu.attributes
                0x00000040       0x10 obj-tmp\Announce.o
 .gnu.attributes
                0x00000050       0x10 obj-tmp\ARCFOUR.o
 .gnu.attributes
                0x00000060       0x10 obj-tmp\ARP.o
 .gnu.attributes
                0x00000070       0x10 obj-tmp\AutoIP.o
 .gnu.attributes
                0x00000080       0x10 obj-tmp\BerkeleyAPI.o
 .gnu.attributes
                0x00000090       0x10 obj-tmp\BigInt.o
 .gnu.attributes
                0x000000a0       0x10 obj-tmp\Delay.o
 .gnu.attributes
                0x000000b0       0x10 obj-tmp\DNS.o
 .gnu.attributes
                0x000000c0       0x10 obj-tmp\DNSs.o
 .gnu.attributes
                0x000000d0       0x10 obj-tmp\DynDNS.o
 .gnu.attributes
                0x000000e0       0x10 obj-tmp\FileSystem.o
 .gnu.attributes
                0x000000f0       0x10 obj-tmp\FTP.o
 .gnu.attributes
                0x00000100       0x10 obj-tmp\Hashes.o
 .gnu.attributes
                0x00000110       0x10 obj-tmp\Helpers.o
 .gnu.attributes
                0x00000120       0x10 obj-tmp\HTTP2.o
 .gnu.attributes
                0x00000130       0x10 obj-tmp\ICMP.o
 .gnu.attributes
                0x00000140       0x10 obj-tmp\IP.o
 .gnu.attributes
                0x00000150       0x10 obj-tmp\LCDBlocking.o
 .gnu.attributes
                0x00000160       0x10 obj-tmp\MPFS2.o
 .gnu.attributes
                0x00000170       0x10 obj-tmp\NBNS.o
 .gnu.attributes
                0x00000180       0x10 obj-tmp\Random.o
 .gnu.attributes
                0x00000190       0x10 obj-tmp\Reboot.o
 .gnu.attributes
                0x000001a0       0x10 obj-tmp\RSA.o
 .gnu.attributes
                0x000001b0       0x10 obj-tmp\SMTP.o
 .gnu.attributes
                0x000001c0       0x10 obj-tmp\SNMP.o
 .gnu.attributes
                0x000001d0       0x10 obj-tmp\SNMPv3.o
 .gnu.attributes
                0x000001e0       0x10 obj-tmp\SNMPv3USM.o
 .gnu.attributes
                0x000001f0       0x10 obj-tmp\SNTP.o
 .gnu.attributes
                0x00000200       0x10 obj-tmp\SPIEEPROM.o
 .gnu.attributes
                0x00000210       0x10 obj-tmp\SPIFlash.o
 .gnu.attributes
                0x00000220       0x10 obj-tmp\SPIRAM.o
 .gnu.attributes
                0x00000230       0x10 obj-tmp\SSL.o
 .gnu.attributes
                0x00000240       0x10 obj-tmp\StackTsk.o
 .gnu.attributes
                0x00000250       0x10 obj-tmp\TCP.o
 .gnu.attributes
                0x00000260       0x10 obj-tmp\TCPPerformanceTest.o
 .gnu.attributes
                0x00000270       0x10 obj-tmp\Telnet.o
 .gnu.attributes
                0x00000280       0x10 obj-tmp\TFTPc.o
 .gnu.attributes
                0x00000290       0x10 obj-tmp\Tick.o
 .gnu.attributes
                0x000002a0       0x10 obj-tmp\UART.o
 .gnu.attributes
                0x000002b0       0x10 obj-tmp\UART2TCPBridge.o
 .gnu.attributes
                0x000002c0       0x10 obj-tmp\UDP.o
 .gnu.attributes
                0x000002d0       0x10 obj-tmp\UDPPerformanceTest.o
 .gnu.attributes
                0x000002e0       0x10 obj-tmp\ZeroconfHelper.o
 .gnu.attributes
                0x000002f0       0x10 obj-tmp\ZeroconfLinkLocal.o
 .gnu.attributes
                0x00000300       0x10 obj-tmp\ZeroconfMulticastDNS.o
 .gnu.attributes
                0x00000310       0x10 obj-tmp\WF_Eint.o
 .gnu.attributes
                0x00000320       0x10 obj-tmp\WF_pbkdf2.o
 .gnu.attributes
                0x00000330       0x10 obj-tmp\WFConnectionAlgorithm.o
 .gnu.attributes
                0x00000340       0x10 obj-tmp\WFConnectionManager.o
 .gnu.attributes
                0x00000350       0x10 obj-tmp\WFConnectionProfile.o
 .gnu.attributes
                0x00000360       0x10 obj-tmp\WFConsole.o
 .gnu.attributes
                0x00000370       0x10 obj-tmp\WFConsoleIfconfig.o
 .gnu.attributes
                0x00000380       0x10 obj-tmp\WFConsoleIwconfig.o
 .gnu.attributes
                0x00000390       0x10 obj-tmp\WFConsoleIwpriv.o
 .gnu.attributes
                0x000003a0       0x10 obj-tmp\WFConsoleMsgHandler.o
 .gnu.attributes
                0x000003b0       0x10 obj-tmp\WFConsoleMsgs.o
 .gnu.attributes
                0x000003c0       0x10 obj-tmp\WFDataTxRx.o
 .gnu.attributes
                0x000003d0       0x10 obj-tmp\WFDebugStrings.o
 .gnu.attributes
                0x000003e0       0x10 obj-tmp\WFEasyConfig.o
 .gnu.attributes
                0x000003f0       0x10 obj-tmp\WFEventHandler.o
 .gnu.attributes
                0x00000400       0x10 obj-tmp\WFInit.o
 .gnu.attributes
                0x00000410       0x10 obj-tmp\WFPowerSave.o
 .gnu.attributes
                0x00000420       0x10 obj-tmp\WFScan.o
 .gnu.attributes
                0x00000430       0x10 obj-tmp\WFTxPower.o
 .gnu.attributes
                0x00000440       0x10 obj-tmp\WF_Spi.o
 .gnu.attributes
                0x00000450       0x10 obj-tmp\WFDriverCom_24G.o
 .gnu.attributes
                0x00000460       0x10 obj-tmp\WFDriverRaw_24G.o
 .gnu.attributes
                0x00000470       0x10 obj-tmp\WFMac_24G.o
 .gnu.attributes
                0x00000480       0x10 obj-tmp\WFMgmtMsg_24G.o
 .gnu.attributes
                0x00000490       0x10 obj-tmp\WFParamMsg_24G.o
 .gnu.attributes
                0x000004a0       0x10 obj-tmp\DHCP.o
 .gnu.attributes
                0x000004b0       0x10 obj-tmp\DHCPs.o
 .gnu.attributes
                0x000004c0       0x10 obj-tmp\i2c_master.o
 .gnu.attributes
                0x000004d0       0x10 obj-tmp\INTiMain.o
 .gnu.attributes
                0x000004e0       0x10 obj-tmp\UARTiMain.o
 .gnu.attributes
                0x000004f0       0x10 obj-tmp\Assert.o
 .gnu.attributes
                0x00000500       0x10 obj-tmp\Device_ICO_ICL.o
 .gnu.attributes
                0x00000510       0x10 obj-tmp\DeviceState.o
 .gnu.attributes
                0x00000520       0x10 obj-tmp\app_ICO_ICL.o
 .gnu.attributes
                0x00000530       0x10 obj-tmp\TimeMonitor.o
 .gnu.attributes
                0x00000540       0x10 obj-tmp\icoPowerMeasurement.o
 .gnu.attributes
                0x00000550       0x10 obj-tmp\icoUserButton.o
 .gnu.attributes
                0x00000560       0x10 obj-tmp\ADE7753.o
 .gnu.attributes
                0x00000570       0x10 obj-tmp\spi.o
 .gnu.attributes
                0x00000580       0x10 obj-tmp\Power.o
 .gnu.attributes
                0x00000590       0x10 c:/program files (x86)/microchip/mplabc32/v2.02/bin/../lib/gcc/pic32mx/4.5.1\libgcc.a(_udivdi3.o)
 .gnu.attributes
                0x000005a0       0x10 c:/program files (x86)/microchip/mplabc32/v2.02/bin/../lib/gcc/pic32mx/4.5.1\libgcc.a(_umoddi3.o)
 .gnu.attributes
                0x000005b0       0x10 c:/program files (x86)/microchip/mplabc32/v2.02/bin/../lib/gcc/pic32mx/4.5.1/../../../../pic32mx/lib\libc.a(atol.o)
 .gnu.attributes
                0x000005c0       0x10 c:/program files (x86)/microchip/mplabc32/v2.02/bin/../lib/gcc/pic32mx/4.5.1/../../../../pic32mx/lib\libc.a(ctype.o)
 .gnu.attributes
                0x000005d0       0x10 c:/program files (x86)/microchip/mplabc32/v2.02/bin/../lib/gcc/pic32mx/4.5.1/../../../../pic32mx/lib\libc.a(puts.o)
 .gnu.attributes
                0x000005e0       0x10 c:/program files (x86)/microchip/mplabc32/v2.02/bin/../lib/gcc/pic32mx/4.5.1/../../../../pic32mx/lib\libc.a(strcat.o)
 .gnu.attributes
                0x000005f0       0x10 c:/program files (x86)/microchip/mplabc32/v2.02/bin/../lib/gcc/pic32mx/4.5.1/../../../../pic32mx/lib\libc.a(strncpy.o)
 .gnu.attributes
                0x00000600       0x10 c:/program files (x86)/microchip/mplabc32/v2.02/bin/../lib/gcc/pic32mx/4.5.1/../../../../pic32mx/lib\libc.a(strrchr.o)
 .gnu.attributes
                0x00000610       0x10 c:/program files (x86)/microchip/mplabc32/v2.02/bin/../lib/gcc/pic32mx/4.5.1/../../../../pic32mx/lib\libc.a(printf_cdnopsuxX.eo)
 .gnu.attributes
                0x00000620       0x10 c:/program files (x86)/microchip/mplabc32/v2.02/bin/../lib/gcc/pic32mx/4.5.1/../../../../pic32mx/lib\libc.a(sprintf_cdnopsuxX.eo)
 .gnu.attributes
                0x00000630       0x10 c:/program files (x86)/microchip/mplabc32/v2.02/bin/../lib/gcc/pic32mx/4.5.1/../../../../pic32mx/lib\libc.a(sscanf_cdnopuxX.eo)
 .gnu.attributes
                0x00000640       0x10 c:/program files (x86)/microchip/mplabc32/v2.02/bin/../lib/gcc/pic32mx/4.5.1/../../../../pic32mx/lib\libc.a(default-bootstrap-exception-handler.o)
 .gnu.attributes
                0x00000650       0x10 c:/program files (x86)/microchip/mplabc32/v2.02/bin/../lib/gcc/pic32mx/4.5.1/../../../../pic32mx/lib\libc.a(default-on-reset.o)
 .gnu.attributes
                0x00000660       0x10 c:/program files (x86)/microchip/mplabc32/v2.02/bin/../lib/gcc/pic32mx/4.5.1/../../../../pic32mx/lib\libc.a(default-on-bootstrap.o)
 .gnu.attributes
                0x00000670       0x10 c:/program files (x86)/microchip/mplabc32/v2.02/bin/../lib/gcc/pic32mx/4.5.1/../../../../pic32mx/lib\libc.a(_iob.o)
 .gnu.attributes
                0x00000680       0x10 c:/program files (x86)/microchip/mplabc32/v2.02/bin/../lib/gcc/pic32mx/4.5.1/../../../../pic32mx/lib\libc.a(_fputc_simple.o)
 .gnu.attributes
                0x00000690       0x10 c:/program files (x86)/microchip/mplabc32/v2.02/bin/../lib/gcc/pic32mx/4.5.1/../../../../pic32mx/lib\libc.a(doprnt_cdnopsuxX.eo)
 .gnu.attributes
                0x000006a0       0x10 c:/program files (x86)/microchip/mplabc32/v2.02/bin/../lib/gcc/pic32mx/4.5.1/../../../../pic32mx/lib\libc.a(doscan_cdnopuxX.eo)
 .gnu.attributes
                0x000006b0       0x10 c:/program files (x86)/microchip/mplabc32/v2.02/bin/../lib/gcc/pic32mx/4.5.1/../../../../pic32mx/lib\libc.a(write.o)
 .gnu.attributes
                0x000006c0       0x10 c:/program files (x86)/microchip/mplabc32/v2.02/bin/../lib/gcc/pic32mx/4.5.1/../../../../pic32mx/lib\libc.a(_flsbuf_simple.o)
 .gnu.attributes
                0x000006d0       0x10 c:/program files (x86)/microchip/mplabc32/v2.02/bin/../lib/gcc/pic32mx/4.5.1/../../../../pic32mx/lib\libc.a(fgetc.o)
 .gnu.attributes
                0x000006e0       0x10 c:/program files (x86)/microchip/mplabc32/v2.02/bin/../lib/gcc/pic32mx/4.5.1/../../../../pic32mx/lib\libc.a(atoi.o)
 .gnu.attributes
                0x000006f0       0x10 c:/program files (x86)/microchip/mplabc32/v2.02/bin/../lib/gcc/pic32mx/4.5.1/../../../../pic32mx/lib\libc.a(ctypef.o)
 .gnu.attributes
                0x00000700       0x10 c:/program files (x86)/microchip/mplabc32/v2.02/bin/../lib/gcc/pic32mx/4.5.1/../../../../pic32mx/lib\libc.a(ungetc.o)
 .gnu.attributes
                0x00000710       0x10 c:/program files (x86)/microchip/mplabc32/v2.02/bin/../lib/gcc/pic32mx/4.5.1/../../../../pic32mx/lib\libc.a(filbuf.o)
 .gnu.attributes
                0x00000720       0x10 c:/program files (x86)/microchip/mplabc32/v2.02/bin/../lib/gcc/pic32mx/4.5.1/../../../../pic32mx/lib\libc.a(fflush.o)
 .gnu.attributes
                0x00000730       0x10 c:/program files (x86)/microchip/mplabc32/v2.02/bin/../lib/gcc/pic32mx/4.5.1/../../../../pic32mx/lib\libc.a(read.o)
 .gnu.attributes
                0x00000740       0x10 c:/program files (x86)/microchip/mplabc32/v2.02/bin/../lib/gcc/pic32mx/4.5.1/../../../../pic32mx/lib\libc.a(c32_uart.o)
 .gnu.attributes
                0x00000750       0x10 c:/program files (x86)/microchip/mplabc32/v2.02/bin/../lib/gcc/pic32mx/4.5.1/../../../../pic32mx/lib\libmchp_peripheral_32MX575F256L.a(soft_reset_lib.o)
 .gnu.attributes
                0x00000760       0x10 c:/program files (x86)/microchip/mplabc32/v2.02/bin/../lib/gcc/pic32mx/4.5.1/../../../../pic32mx/lib\libmchp_peripheral_32MX575F256L.a(pcache.o)
 .gnu.attributes
                0x00000770       0x10 c:/program files (x86)/microchip/mplabc32/v2.02/bin/../lib/gcc/pic32mx/4.5.1/../../../../pic32mx/lib\libmchp_peripheral_32MX575F256L.a(int_disable_interrupts_lib.o)
 .gnu.attributes
                0x00000780       0x10 c:/program files (x86)/microchip/mplabc32/v2.02/bin/../lib/gcc/pic32mx/4.5.1/../../../../pic32mx/lib\libmchp_peripheral_32MX575F256L.a(int_restore_interrupts_lib.o)
 .gnu.attributes
                0x00000790       0x10 c:/program files (x86)/microchip/mplabc32/v2.02/bin/../lib/gcc/pic32mx/4.5.1/../../../../pic32mx/lib\libmchp_peripheral_32MX575F256L.a(int_enable_mv_int_lib.o)
 .gnu.attributes
                0x000007a0       0x10 c:/program files (x86)/microchip/mplabc32/v2.02/bin/../lib/gcc/pic32mx/4.5.1/../../../../pic32mx/lib\libmchp_peripheral_32MX575F256L.a(int_tbl_lib.o)
 .gnu.attributes
                0x000007b0       0x10 c:/program files (x86)/microchip/mplabc32/v2.02/bin/../lib/gcc/pic32mx/4.5.1/../../../../pic32mx/lib\libmchp_peripheral_32MX575F256L.a(spi_chn_getc_lib.o)
 .gnu.attributes
                0x000007c0       0x10 c:/program files (x86)/microchip/mplabc32/v2.02/bin/../lib/gcc/pic32mx/4.5.1/../../../../pic32mx/lib\libmchp_peripheral_32MX575F256L.a(spi_chn_putc_lib.o)
 .gnu.attributes
                0x000007d0       0x10 c:/program files (x86)/microchip/mplabc32/v2.02/bin/../lib/gcc/pic32mx/4.5.1/../../../../pic32mx/lib\libmchp_peripheral_32MX575F256L.a(spi_chn_change_mode_lib.o)
 .gnu.attributes
                0x000007e0       0x10 c:/program files (x86)/microchip/mplabc32/v2.02/bin/../lib/gcc/pic32mx/4.5.1/../../../../pic32mx/lib\libmchp_peripheral_32MX575F256L.a(spi_io_tbl_libp.o)
 .gnu.attributes
                0x000007f0       0x10 c:/program files (x86)/microchip/mplabc32/v2.02/bin/../lib/gcc/pic32mx/4.5.1/../../../../pic32mx/lib\libmchp_peripheral_32MX575F256L.a(spi_map_tbl_libp.o)
 .gnu.attributes
                0x00000800       0x10 c:/program files (x86)/microchip/mplabc32/v2.02/bin/../lib/gcc/pic32mx/4.5.1/../../../../pic32mx/lib\libmchp_peripheral_32MX575F256L.a(port_set_pins_digital_in_lib.o)
 .gnu.attributes
                0x00000810       0x10 c:/program files (x86)/microchip/mplabc32/v2.02/bin/../lib/gcc/pic32mx/4.5.1/../../../../pic32mx/lib\libmchp_peripheral_32MX575F256L.a(port_set_pins_digital_out_lib.o)
 .gnu.attributes
                0x00000820       0x10 c:/program files (x86)/microchip/mplabc32/v2.02/bin/../lib/gcc/pic32mx/4.5.1/../../../../pic32mx/lib\libmchp_peripheral_32MX575F256L.a(_ports_tbl_libp.o)
 .gnu.attributes
                0x00000830       0x10 c:/program files (x86)/microchip/mplabc32/v2.02/bin/../lib/gcc/pic32mx/4.5.1/../../../../pic32mx/lib\libmchp_peripheral_32MX575F256L.a(uart_lib.o)
 .gnu.attributes
                0x00000840       0x10 c:/program files (x86)/microchip/mplabc32/v2.02/bin/../lib/gcc/pic32mx/4.5.1/../../../../pic32mx/lib\libmchp_peripheral_32MX575F256L.a(puts_uartx_lib_legacy.o)
 .gnu.attributes
                0x00000850       0x10 c:/program files (x86)/microchip/mplabc32/v2.02/bin/../lib/gcc/pic32mx/4.5.1/../../../../pic32mx/lib\libmchp_peripheral_32MX575F256L.a(idle_i2c2_lib_legacy.o)
 .gnu.attributes
                0x00000860       0x10 c:/program files (x86)/microchip/mplabc32/v2.02/bin/../lib/gcc/pic32mx/4.5.1/../../../../pic32mx/lib\libmchp_peripheral_32MX575F256L.a(I2CPrivate.o)
 .gnu.attributes
                0x00000870       0x10 c:/program files (x86)/microchip/mplabc32/v2.02/bin/../lib/gcc/pic32mx/4.5.1/../../../../pic32mx/lib\libmchp_peripheral_32MX575F256L.a(I2CBusIsIdle.o)
 .gnu.attributes
                0x00000880       0x10 c:/program files (x86)/microchip/mplabc32/v2.02/bin/../lib/gcc/pic32mx/4.5.1/../../../../pic32mx/lib\libmchp_peripheral_32MX575F256L.a(I2CByteWasAcknowledged.o)
 .gnu.attributes
                0x00000890       0x10 c:/program files (x86)/microchip/mplabc32/v2.02/bin/../lib/gcc/pic32mx/4.5.1/../../../../pic32mx/lib\libmchp_peripheral_32MX575F256L.a(I2CEnable.o)
 .gnu.attributes
                0x000008a0       0x10 c:/program files (x86)/microchip/mplabc32/v2.02/bin/../lib/gcc/pic32mx/4.5.1/../../../../pic32mx/lib\libmchp_peripheral_32MX575F256L.a(I2CGetByte.o)
 .gnu.attributes
                0x000008b0       0x10 c:/program files (x86)/microchip/mplabc32/v2.02/bin/../lib/gcc/pic32mx/4.5.1/../../../../pic32mx/lib\libmchp_peripheral_32MX575F256L.a(I2CGetStatus.o)
 .gnu.attributes
                0x000008c0       0x10 c:/program files (x86)/microchip/mplabc32/v2.02/bin/../lib/gcc/pic32mx/4.5.1/../../../../pic32mx/lib\libmchp_peripheral_32MX575F256L.a(I2CReceivedDataIsAvailable.o)
 .gnu.attributes
                0x000008d0       0x10 c:/program files (x86)/microchip/mplabc32/v2.02/bin/../lib/gcc/pic32mx/4.5.1/../../../../pic32mx/lib\libmchp_peripheral_32MX575F256L.a(I2CReceiverEnable.o)
 .gnu.attributes
                0x000008e0       0x10 c:/program files (x86)/microchip/mplabc32/v2.02/bin/../lib/gcc/pic32mx/4.5.1/../../../../pic32mx/lib\libmchp_peripheral_32MX575F256L.a(I2CRepeatStart.o)
 .gnu.attributes
                0x000008f0       0x10 c:/program files (x86)/microchip/mplabc32/v2.02/bin/../lib/gcc/pic32mx/4.5.1/../../../../pic32mx/lib\libmchp_peripheral_32MX575F256L.a(I2CSetFrequency.o)
 .gnu.attributes
                0x00000900       0x10 c:/program files (x86)/microchip/mplabc32/v2.02/bin/../lib/gcc/pic32mx/4.5.1/../../../../pic32mx/lib\libmchp_peripheral_32MX575F256L.a(I2CStart.o)
 .gnu.attributes
                0x00000910       0x10 c:/program files (x86)/microchip/mplabc32/v2.02/bin/../lib/gcc/pic32mx/4.5.1/../../../../pic32mx/lib\libmchp_peripheral_32MX575F256L.a(I2CStop.o)
 .gnu.attributes
                0x00000920       0x10 c:/program files (x86)/microchip/mplabc32/v2.02/bin/../lib/gcc/pic32mx/4.5.1/../../../../pic32mx/lib\libmchp_peripheral_32MX575F256L.a(I2CTransmissionHasCompleted.o)
 .gnu.attributes
                0x00000930       0x10 c:/program files (x86)/microchip/mplabc32/v2.02/bin/../lib/gcc/pic32mx/4.5.1/../../../../pic32mx/lib\libmchp_peripheral_32MX575F256L.a(I2CTransmitterIsReady.o)
 .gnu.attributes
                0x00000940       0x10 c:/program files (x86)/microchip/mplabc32/v2.02/bin/../lib/gcc/pic32mx/4.5.1/../../../../pic32mx/lib\libmchp_peripheral_32MX575F256L.a(int_enable_interrupts_lib.o)
OUTPUT(bin\Aztec.elf elf32-tradlittlemips)
LOAD stack
LOAD data_init

.mdebug.abi32   0x9d000000        0x0
 .mdebug.abi32  0x9d000000        0x0 C:\Projects\Intwine\Aztec\Power.a(ADE7753.o)

.stack          0xa0001f68      0x400
 .stack         0xa0001f68      0x400 stack

.bss            0xa00013b4      0x360
 .bss           0xa00013b4      0x360 obj-tmp\ZeroconfMulticastDNS.o

.data           0xa0001714      0x3a8
 .data          0xa0001714      0x268 obj-tmp\WFDebugStrings.o
                0xa0001714                connectionFailureStrings
                0xa0001764                connectionLostStrings
                0xa000177c                deauthDisssocReasonCodes
                0xa00017e0                statusCodes
                0xa00018a0                wpsState
                0xa00018dc                wpsConfigErr
                0xa000191c                moduleName
 .data          0xa000197c      0x140 obj-tmp\Power.o
                0xa000197c                CalibrationDataOfUnit1

.bss            0xa0001abc      0x104
 .bss           0xa0001abc      0x104 obj-tmp\TCP.o

.data           0xa0001bc0      0x120
 .data          0xa0001bc0       0xa0 c:/program files (x86)/microchip/mplabc32/v2.02/bin/../lib/gcc/pic32mx/4.5.1/../../../../pic32mx/lib\libc.a(_iob.o)
                0xa0001bc0                _iob
 .data          0xa0001c60       0x80 obj-tmp\DeviceState.o
                0xa0001c60                issv1

.bss            0xa0001ce0       0xf0
 .bss           0xa0001ce0       0x78 obj-tmp\MPFS2.o
 .bss           0xa0001d58       0x78 obj-tmp\icoPowerMeasurement.o

.bss.eeprom_data_temp
                0xa0001dd0       0x50
 .bss.eeprom_data_temp
                0xa0001dd0       0x50 C:\Projects\Intwine\Aztec\Power.a(ADE7753.o)
                0xa0001dd0                eeprom_data_temp

.bss            0xa0001e20      0x124
 .bss           0xa0001e20       0x40 obj-tmp\DNSs.o
 .bss           0xa0001e60       0x40 c:/program files (x86)/microchip/mplabc32/v2.02/bin/../lib/gcc/pic32mx/4.5.1/../../../../pic32mx/lib\libc.a(_iob.o)
                0xa0001e60                _sibuf
                0xa0001e80                _sobuf
 .bss           0xa0001ea0       0x3c obj-tmp\CustomHTTPApp.o
 .bss           0xa0001edc       0x34 obj-tmp\DHCP.o
 .bss           0xa0001f10       0x28 obj-tmp\ARP.o
 .bss           0xa0001f38        0xc obj-tmp\DNS.o

.pbss           0xa0001f44        0x4
 .pbss          0xa0001f44        0x4 obj-tmp\DNS.o

.bss            0xa0001f48        0x4
 .bss           0xa0001f48        0x4 c:/program files (x86)/microchip/mplabc32/v2.02/bin/../lib/gcc/pic32mx/4.5.1/../../../../pic32mx/lib\libc.a(doscan_cdnopuxX.eo)

.pbss           0xa00004fe        0x2
 .pbss          0xa00004fe        0x2 obj-tmp\TCP.o

.pbss           0xa0001f4c        0x2
 .pbss          0xa0001f4c        0x2 obj-tmp\UDP.o

.bss%z1         0x00000000        0x0
 .bss           0x00000000        0x0 c:/program files (x86)/microchip/mplabc32/v2.02/bin/../lib/gcc/pic32mx/4.5.1/../../../../pic32mx/lib/./proc/32MX575F256L\processor.o

.data%z2        0x00000000        0x0
 .data          0x00000000        0x0 c:/program files (x86)/microchip/mplabc32/v2.02/bin/../lib/gcc/pic32mx/4.5.1/../../../../pic32mx/lib/./proc/32MX575F256L\processor.o

.mdebug.abi32%z3
                0x00000000        0x0
 .mdebug.abi32  0x00000000        0x0 c:/program files (x86)/microchip/mplabc32/v2.02/bin/../lib/gcc/pic32mx/4.5.1/../../../../pic32mx/lib\libmchp_peripheral_32MX575F256L.a(int_enable_interrupts_lib.o)

.bss%z4         0x00000000        0x0
 .bss           0x00000000        0x0 c:/program files (x86)/microchip/mplabc32/v2.02/bin/../lib/gcc/pic32mx/4.5.1/../../../../pic32mx/lib\libmchp_peripheral_32MX575F256L.a(int_enable_interrupts_lib.o)

.data%z5        0x00000000        0x0
 .data          0x00000000        0x0 c:/program files (x86)/microchip/mplabc32/v2.02/bin/../lib/gcc/pic32mx/4.5.1/../../../../pic32mx/lib\libmchp_peripheral_32MX575F256L.a(int_enable_interrupts_lib.o)

.mdebug.abi32%z6
                0x00000000        0x0
 .mdebug.abi32  0x00000000        0x0 c:/program files (x86)/microchip/mplabc32/v2.02/bin/../lib/gcc/pic32mx/4.5.1/../../../../pic32mx/lib\libmchp_peripheral_32MX575F256L.a(I2CTransmitterIsReady.o)

.bss%z7         0x00000000        0x0
 .bss           0x00000000        0x0 c:/program files (x86)/microchip/mplabc32/v2.02/bin/../lib/gcc/pic32mx/4.5.1/../../../../pic32mx/lib\libmchp_peripheral_32MX575F256L.a(I2CTransmitterIsReady.o)

.data%z8        0x00000000        0x0
 .data          0x00000000        0x0 c:/program files (x86)/microchip/mplabc32/v2.02/bin/../lib/gcc/pic32mx/4.5.1/../../../../pic32mx/lib\libmchp_peripheral_32MX575F256L.a(I2CTransmitterIsReady.o)

.mdebug.abi32%z9
                0x00000000        0x0
 .mdebug.abi32  0x00000000        0x0 c:/program files (x86)/microchip/mplabc32/v2.02/bin/../lib/gcc/pic32mx/4.5.1/../../../../pic32mx/lib\libmchp_peripheral_32MX575F256L.a(I2CTransmissionHasCompleted.o)

.bss%z10        0x00000000        0x0
 .bss           0x00000000        0x0 c:/program files (x86)/microchip/mplabc32/v2.02/bin/../lib/gcc/pic32mx/4.5.1/../../../../pic32mx/lib\libmchp_peripheral_32MX575F256L.a(I2CTransmissionHasCompleted.o)

.data%z11       0x00000000        0x0
 .data          0x00000000        0x0 c:/program files (x86)/microchip/mplabc32/v2.02/bin/../lib/gcc/pic32mx/4.5.1/../../../../pic32mx/lib\libmchp_peripheral_32MX575F256L.a(I2CTransmissionHasCompleted.o)

.mdebug.abi32%z12
                0x00000000        0x0
 .mdebug.abi32  0x00000000        0x0 c:/program files (x86)/microchip/mplabc32/v2.02/bin/../lib/gcc/pic32mx/4.5.1/../../../../pic32mx/lib\libmchp_peripheral_32MX575F256L.a(I2CStop.o)

.bss%z13        0x00000000        0x0
 .bss           0x00000000        0x0 c:/program files (x86)/microchip/mplabc32/v2.02/bin/../lib/gcc/pic32mx/4.5.1/../../../../pic32mx/lib\libmchp_peripheral_32MX575F256L.a(I2CStop.o)

.data%z14       0x00000000        0x0
 .data          0x00000000        0x0 c:/program files (x86)/microchip/mplabc32/v2.02/bin/../lib/gcc/pic32mx/4.5.1/../../../../pic32mx/lib\libmchp_peripheral_32MX575F256L.a(I2CStop.o)

.mdebug.abi32%z15
                0x00000000        0x0
 .mdebug.abi32  0x00000000        0x0 c:/program files (x86)/microchip/mplabc32/v2.02/bin/../lib/gcc/pic32mx/4.5.1/../../../../pic32mx/lib\libmchp_peripheral_32MX575F256L.a(I2CStart.o)

.bss%z16        0x00000000        0x0
 .bss           0x00000000        0x0 c:/program files (x86)/microchip/mplabc32/v2.02/bin/../lib/gcc/pic32mx/4.5.1/../../../../pic32mx/lib\libmchp_peripheral_32MX575F256L.a(I2CStart.o)

.data%z17       0x00000000        0x0
 .data          0x00000000        0x0 c:/program files (x86)/microchip/mplabc32/v2.02/bin/../lib/gcc/pic32mx/4.5.1/../../../../pic32mx/lib\libmchp_peripheral_32MX575F256L.a(I2CStart.o)

.mdebug.abi32%z18
                0x00000000        0x0
 .mdebug.abi32  0x00000000        0x0 c:/program files (x86)/microchip/mplabc32/v2.02/bin/../lib/gcc/pic32mx/4.5.1/../../../../pic32mx/lib\libmchp_peripheral_32MX575F256L.a(I2CSetFrequency.o)

.bss%z19        0x00000000        0x0
 .bss           0x00000000        0x0 c:/program files (x86)/microchip/mplabc32/v2.02/bin/../lib/gcc/pic32mx/4.5.1/../../../../pic32mx/lib\libmchp_peripheral_32MX575F256L.a(I2CSetFrequency.o)

.data%z20       0x00000000        0x0
 .data          0x00000000        0x0 c:/program files (x86)/microchip/mplabc32/v2.02/bin/../lib/gcc/pic32mx/4.5.1/../../../../pic32mx/lib\libmchp_peripheral_32MX575F256L.a(I2CSetFrequency.o)

.mdebug.abi32%z21
                0x00000000        0x0
 .mdebug.abi32  0x00000000        0x0 c:/program files (x86)/microchip/mplabc32/v2.02/bin/../lib/gcc/pic32mx/4.5.1/../../../../pic32mx/lib\libmchp_peripheral_32MX575F256L.a(I2CRepeatStart.o)

.bss%z22        0x00000000        0x0
 .bss           0x00000000        0x0 c:/program files (x86)/microchip/mplabc32/v2.02/bin/../lib/gcc/pic32mx/4.5.1/../../../../pic32mx/lib\libmchp_peripheral_32MX575F256L.a(I2CRepeatStart.o)

.data%z23       0x00000000        0x0
 .data          0x00000000        0x0 c:/program files (x86)/microchip/mplabc32/v2.02/bin/../lib/gcc/pic32mx/4.5.1/../../../../pic32mx/lib\libmchp_peripheral_32MX575F256L.a(I2CRepeatStart.o)

.mdebug.abi32%z24
                0x00000000        0x0
 .mdebug.abi32  0x00000000        0x0 c:/program files (x86)/microchip/mplabc32/v2.02/bin/../lib/gcc/pic32mx/4.5.1/../../../../pic32mx/lib\libmchp_peripheral_32MX575F256L.a(I2CReceiverEnable.o)

.bss%z25        0x00000000        0x0
 .bss           0x00000000        0x0 c:/program files (x86)/microchip/mplabc32/v2.02/bin/../lib/gcc/pic32mx/4.5.1/../../../../pic32mx/lib\libmchp_peripheral_32MX575F256L.a(I2CReceiverEnable.o)

.data%z26       0x00000000        0x0
 .data          0x00000000        0x0 c:/program files (x86)/microchip/mplabc32/v2.02/bin/../lib/gcc/pic32mx/4.5.1/../../../../pic32mx/lib\libmchp_peripheral_32MX575F256L.a(I2CReceiverEnable.o)

.mdebug.abi32%z27
                0x00000000        0x0
 .mdebug.abi32  0x00000000        0x0 c:/program files (x86)/microchip/mplabc32/v2.02/bin/../lib/gcc/pic32mx/4.5.1/../../../../pic32mx/lib\libmchp_peripheral_32MX575F256L.a(I2CReceivedDataIsAvailable.o)

.bss%z28        0x00000000        0x0
 .bss           0x00000000        0x0 c:/program files (x86)/microchip/mplabc32/v2.02/bin/../lib/gcc/pic32mx/4.5.1/../../../../pic32mx/lib\libmchp_peripheral_32MX575F256L.a(I2CReceivedDataIsAvailable.o)

.data%z29       0x00000000        0x0
 .data          0x00000000        0x0 c:/program files (x86)/microchip/mplabc32/v2.02/bin/../lib/gcc/pic32mx/4.5.1/../../../../pic32mx/lib\libmchp_peripheral_32MX575F256L.a(I2CReceivedDataIsAvailable.o)

.mdebug.abi32%z30
                0x00000000        0x0
 .mdebug.abi32  0x00000000        0x0 c:/program files (x86)/microchip/mplabc32/v2.02/bin/../lib/gcc/pic32mx/4.5.1/../../../../pic32mx/lib\libmchp_peripheral_32MX575F256L.a(I2CGetStatus.o)

.bss%z31        0x00000000        0x0
 .bss           0x00000000        0x0 c:/program files (x86)/microchip/mplabc32/v2.02/bin/../lib/gcc/pic32mx/4.5.1/../../../../pic32mx/lib\libmchp_peripheral_32MX575F256L.a(I2CGetStatus.o)

.data%z32       0x00000000        0x0
 .data          0x00000000        0x0 c:/program files (x86)/microchip/mplabc32/v2.02/bin/../lib/gcc/pic32mx/4.5.1/../../../../pic32mx/lib\libmchp_peripheral_32MX575F256L.a(I2CGetStatus.o)

.mdebug.abi32%z33
                0x00000000        0x0
 .mdebug.abi32  0x00000000        0x0 c:/program files (x86)/microchip/mplabc32/v2.02/bin/../lib/gcc/pic32mx/4.5.1/../../../../pic32mx/lib\libmchp_peripheral_32MX575F256L.a(I2CGetByte.o)

.bss%z34        0x00000000        0x0
 .bss           0x00000000        0x0 c:/program files (x86)/microchip/mplabc32/v2.02/bin/../lib/gcc/pic32mx/4.5.1/../../../../pic32mx/lib\libmchp_peripheral_32MX575F256L.a(I2CGetByte.o)

.data%z35       0x00000000        0x0
 .data          0x00000000        0x0 c:/program files (x86)/microchip/mplabc32/v2.02/bin/../lib/gcc/pic32mx/4.5.1/../../../../pic32mx/lib\libmchp_peripheral_32MX575F256L.a(I2CGetByte.o)

.mdebug.abi32%z36
                0x00000000        0x0
 .mdebug.abi32  0x00000000        0x0 c:/program files (x86)/microchip/mplabc32/v2.02/bin/../lib/gcc/pic32mx/4.5.1/../../../../pic32mx/lib\libmchp_peripheral_32MX575F256L.a(I2CEnable.o)

.bss%z37        0x00000000        0x0
 .bss           0x00000000        0x0 c:/program files (x86)/microchip/mplabc32/v2.02/bin/../lib/gcc/pic32mx/4.5.1/../../../../pic32mx/lib\libmchp_peripheral_32MX575F256L.a(I2CEnable.o)

.data%z38       0x00000000        0x0
 .data          0x00000000        0x0 c:/program files (x86)/microchip/mplabc32/v2.02/bin/../lib/gcc/pic32mx/4.5.1/../../../../pic32mx/lib\libmchp_peripheral_32MX575F256L.a(I2CEnable.o)

.mdebug.abi32%z39
                0x00000000        0x0
 .mdebug.abi32  0x00000000        0x0 c:/program files (x86)/microchip/mplabc32/v2.02/bin/../lib/gcc/pic32mx/4.5.1/../../../../pic32mx/lib\libmchp_peripheral_32MX575F256L.a(I2CByteWasAcknowledged.o)

.bss%z40        0x00000000        0x0
 .bss           0x00000000        0x0 c:/program files (x86)/microchip/mplabc32/v2.02/bin/../lib/gcc/pic32mx/4.5.1/../../../../pic32mx/lib\libmchp_peripheral_32MX575F256L.a(I2CByteWasAcknowledged.o)

.data%z41       0x00000000        0x0
 .data          0x00000000        0x0 c:/program files (x86)/microchip/mplabc32/v2.02/bin/../lib/gcc/pic32mx/4.5.1/../../../../pic32mx/lib\libmchp_peripheral_32MX575F256L.a(I2CByteWasAcknowledged.o)

.mdebug.abi32%z42
                0x00000000        0x0
 .mdebug.abi32  0x00000000        0x0 c:/program files (x86)/microchip/mplabc32/v2.02/bin/../lib/gcc/pic32mx/4.5.1/../../../../pic32mx/lib\libmchp_peripheral_32MX575F256L.a(I2CBusIsIdle.o)

.bss%z43        0x00000000        0x0
 .bss           0x00000000        0x0 c:/program files (x86)/microchip/mplabc32/v2.02/bin/../lib/gcc/pic32mx/4.5.1/../../../../pic32mx/lib\libmchp_peripheral_32MX575F256L.a(I2CBusIsIdle.o)

.data%z44       0x00000000        0x0
 .data          0x00000000        0x0 c:/program files (x86)/microchip/mplabc32/v2.02/bin/../lib/gcc/pic32mx/4.5.1/../../../../pic32mx/lib\libmchp_peripheral_32MX575F256L.a(I2CBusIsIdle.o)

.mdebug.abi32%z45
                0x00000000        0x0
 .mdebug.abi32  0x00000000        0x0 c:/program files (x86)/microchip/mplabc32/v2.02/bin/../lib/gcc/pic32mx/4.5.1/../../../../pic32mx/lib\libmchp_peripheral_32MX575F256L.a(I2CPrivate.o)

.bss%z46        0x00000000        0x0
 .bss           0x00000000        0x0 c:/program files (x86)/microchip/mplabc32/v2.02/bin/../lib/gcc/pic32mx/4.5.1/../../../../pic32mx/lib\libmchp_peripheral_32MX575F256L.a(I2CPrivate.o)

.data%z47       0x00000000        0x0
 .data          0x00000000        0x0 c:/program files (x86)/microchip/mplabc32/v2.02/bin/../lib/gcc/pic32mx/4.5.1/../../../../pic32mx/lib\libmchp_peripheral_32MX575F256L.a(I2CPrivate.o)

.mdebug.abi32%z48
                0x00000000        0x0
 .mdebug.abi32  0x00000000        0x0 c:/program files (x86)/microchip/mplabc32/v2.02/bin/../lib/gcc/pic32mx/4.5.1/../../../../pic32mx/lib\libmchp_peripheral_32MX575F256L.a(idle_i2c2_lib_legacy.o)

.bss%z49        0x00000000        0x0
 .bss           0x00000000        0x0 c:/program files (x86)/microchip/mplabc32/v2.02/bin/../lib/gcc/pic32mx/4.5.1/../../../../pic32mx/lib\libmchp_peripheral_32MX575F256L.a(idle_i2c2_lib_legacy.o)

.data%z50       0x00000000        0x0
 .data          0x00000000        0x0 c:/program files (x86)/microchip/mplabc32/v2.02/bin/../lib/gcc/pic32mx/4.5.1/../../../../pic32mx/lib\libmchp_peripheral_32MX575F256L.a(idle_i2c2_lib_legacy.o)

.mdebug.abi32%z51
                0x00000000        0x0
 .mdebug.abi32  0x00000000        0x0 c:/program files (x86)/microchip/mplabc32/v2.02/bin/../lib/gcc/pic32mx/4.5.1/../../../../pic32mx/lib\libmchp_peripheral_32MX575F256L.a(puts_uartx_lib_legacy.o)

.bss%z52        0x00000000        0x0
 .bss           0x00000000        0x0 c:/program files (x86)/microchip/mplabc32/v2.02/bin/../lib/gcc/pic32mx/4.5.1/../../../../pic32mx/lib\libmchp_peripheral_32MX575F256L.a(puts_uartx_lib_legacy.o)

.data%z53       0x00000000        0x0
 .data          0x00000000        0x0 c:/program files (x86)/microchip/mplabc32/v2.02/bin/../lib/gcc/pic32mx/4.5.1/../../../../pic32mx/lib\libmchp_peripheral_32MX575F256L.a(puts_uartx_lib_legacy.o)

.mdebug.abi32%z54
                0x00000000        0x0
 .mdebug.abi32  0x00000000        0x0 c:/program files (x86)/microchip/mplabc32/v2.02/bin/../lib/gcc/pic32mx/4.5.1/../../../../pic32mx/lib\libmchp_peripheral_32MX575F256L.a(uart_lib.o)

.bss%z55        0x00000000        0x0
 .bss           0x00000000        0x0 c:/program files (x86)/microchip/mplabc32/v2.02/bin/../lib/gcc/pic32mx/4.5.1/../../../../pic32mx/lib\libmchp_peripheral_32MX575F256L.a(uart_lib.o)

.data%z56       0x00000000        0x0
 .data          0x00000000        0x0 c:/program files (x86)/microchip/mplabc32/v2.02/bin/../lib/gcc/pic32mx/4.5.1/../../../../pic32mx/lib\libmchp_peripheral_32MX575F256L.a(uart_lib.o)

.mdebug.abi32%z57
                0x00000000        0x0
 .mdebug.abi32  0x00000000        0x0 c:/program files (x86)/microchip/mplabc32/v2.02/bin/../lib/gcc/pic32mx/4.5.1/../../../../pic32mx/lib\libmchp_peripheral_32MX575F256L.a(_ports_tbl_libp.o)

.bss%z58        0x00000000        0x0
 .bss           0x00000000        0x0 c:/program files (x86)/microchip/mplabc32/v2.02/bin/../lib/gcc/pic32mx/4.5.1/../../../../pic32mx/lib\libmchp_peripheral_32MX575F256L.a(_ports_tbl_libp.o)

.data%z59       0x00000000        0x0
 .data          0x00000000        0x0 c:/program files (x86)/microchip/mplabc32/v2.02/bin/../lib/gcc/pic32mx/4.5.1/../../../../pic32mx/lib\libmchp_peripheral_32MX575F256L.a(_ports_tbl_libp.o)

.mdebug.abi32%z60
                0x00000000        0x0
 .mdebug.abi32  0x00000000        0x0 c:/program files (x86)/microchip/mplabc32/v2.02/bin/../lib/gcc/pic32mx/4.5.1/../../../../pic32mx/lib\libmchp_peripheral_32MX575F256L.a(port_set_pins_digital_out_lib.o)

.bss%z61        0x00000000        0x0
 .bss           0x00000000        0x0 c:/program files (x86)/microchip/mplabc32/v2.02/bin/../lib/gcc/pic32mx/4.5.1/../../../../pic32mx/lib\libmchp_peripheral_32MX575F256L.a(port_set_pins_digital_out_lib.o)

.data%z62       0x00000000        0x0
 .data          0x00000000        0x0 c:/program files (x86)/microchip/mplabc32/v2.02/bin/../lib/gcc/pic32mx/4.5.1/../../../../pic32mx/lib\libmchp_peripheral_32MX575F256L.a(port_set_pins_digital_out_lib.o)

.mdebug.abi32%z63
                0x00000000        0x0
 .mdebug.abi32  0x00000000        0x0 c:/program files (x86)/microchip/mplabc32/v2.02/bin/../lib/gcc/pic32mx/4.5.1/../../../../pic32mx/lib\libmchp_peripheral_32MX575F256L.a(port_set_pins_digital_in_lib.o)

.bss%z64        0x00000000        0x0
 .bss           0x00000000        0x0 c:/program files (x86)/microchip/mplabc32/v2.02/bin/../lib/gcc/pic32mx/4.5.1/../../../../pic32mx/lib\libmchp_peripheral_32MX575F256L.a(port_set_pins_digital_in_lib.o)

.data%z65       0x00000000        0x0
 .data          0x00000000        0x0 c:/program files (x86)/microchip/mplabc32/v2.02/bin/../lib/gcc/pic32mx/4.5.1/../../../../pic32mx/lib\libmchp_peripheral_32MX575F256L.a(port_set_pins_digital_in_lib.o)

.mdebug.abi32%z66
                0x00000000        0x0
 .mdebug.abi32  0x00000000        0x0 c:/program files (x86)/microchip/mplabc32/v2.02/bin/../lib/gcc/pic32mx/4.5.1/../../../../pic32mx/lib\libmchp_peripheral_32MX575F256L.a(spi_map_tbl_libp.o)

.bss%z67        0x00000000        0x0
 .bss           0x00000000        0x0 c:/program files (x86)/microchip/mplabc32/v2.02/bin/../lib/gcc/pic32mx/4.5.1/../../../../pic32mx/lib\libmchp_peripheral_32MX575F256L.a(spi_map_tbl_libp.o)

.data%z68       0x00000000        0x0
 .data          0x00000000        0x0 c:/program files (x86)/microchip/mplabc32/v2.02/bin/../lib/gcc/pic32mx/4.5.1/../../../../pic32mx/lib\libmchp_peripheral_32MX575F256L.a(spi_map_tbl_libp.o)

.mdebug.abi32%z69
                0x00000000        0x0
 .mdebug.abi32  0x00000000        0x0 c:/program files (x86)/microchip/mplabc32/v2.02/bin/../lib/gcc/pic32mx/4.5.1/../../../../pic32mx/lib\libmchp_peripheral_32MX575F256L.a(spi_io_tbl_libp.o)

.bss%z70        0x00000000        0x0
 .bss           0x00000000        0x0 c:/program files (x86)/microchip/mplabc32/v2.02/bin/../lib/gcc/pic32mx/4.5.1/../../../../pic32mx/lib\libmchp_peripheral_32MX575F256L.a(spi_io_tbl_libp.o)

.data%z71       0x00000000        0x0
 .data          0x00000000        0x0 c:/program files (x86)/microchip/mplabc32/v2.02/bin/../lib/gcc/pic32mx/4.5.1/../../../../pic32mx/lib\libmchp_peripheral_32MX575F256L.a(spi_io_tbl_libp.o)

.mdebug.abi32%z72
                0x00000000        0x0
 .mdebug.abi32  0x00000000        0x0 c:/program files (x86)/microchip/mplabc32/v2.02/bin/../lib/gcc/pic32mx/4.5.1/../../../../pic32mx/lib\libmchp_peripheral_32MX575F256L.a(spi_chn_change_mode_lib.o)

.bss%z73        0x00000000        0x0
 .bss           0x00000000        0x0 c:/program files (x86)/microchip/mplabc32/v2.02/bin/../lib/gcc/pic32mx/4.5.1/../../../../pic32mx/lib\libmchp_peripheral_32MX575F256L.a(spi_chn_change_mode_lib.o)

.data%z74       0x00000000        0x0
 .data          0x00000000        0x0 c:/program files (x86)/microchip/mplabc32/v2.02/bin/../lib/gcc/pic32mx/4.5.1/../../../../pic32mx/lib\libmchp_peripheral_32MX575F256L.a(spi_chn_change_mode_lib.o)

.mdebug.abi32%z75
                0x00000000        0x0
 .mdebug.abi32  0x00000000        0x0 c:/program files (x86)/microchip/mplabc32/v2.02/bin/../lib/gcc/pic32mx/4.5.1/../../../../pic32mx/lib\libmchp_peripheral_32MX575F256L.a(spi_chn_putc_lib.o)

.bss%z76        0x00000000        0x0
 .bss           0x00000000        0x0 c:/program files (x86)/microchip/mplabc32/v2.02/bin/../lib/gcc/pic32mx/4.5.1/../../../../pic32mx/lib\libmchp_peripheral_32MX575F256L.a(spi_chn_putc_lib.o)

.data%z77       0x00000000        0x0
 .data          0x00000000        0x0 c:/program files (x86)/microchip/mplabc32/v2.02/bin/../lib/gcc/pic32mx/4.5.1/../../../../pic32mx/lib\libmchp_peripheral_32MX575F256L.a(spi_chn_putc_lib.o)

.mdebug.abi32%z78
                0x00000000        0x0
 .mdebug.abi32  0x00000000        0x0 c:/program files (x86)/microchip/mplabc32/v2.02/bin/../lib/gcc/pic32mx/4.5.1/../../../../pic32mx/lib\libmchp_peripheral_32MX575F256L.a(spi_chn_getc_lib.o)

.bss%z79        0x00000000        0x0
 .bss           0x00000000        0x0 c:/program files (x86)/microchip/mplabc32/v2.02/bin/../lib/gcc/pic32mx/4.5.1/../../../../pic32mx/lib\libmchp_peripheral_32MX575F256L.a(spi_chn_getc_lib.o)

.data%z80       0x00000000        0x0
 .data          0x00000000        0x0 c:/program files (x86)/microchip/mplabc32/v2.02/bin/../lib/gcc/pic32mx/4.5.1/../../../../pic32mx/lib\libmchp_peripheral_32MX575F256L.a(spi_chn_getc_lib.o)

.mdebug.abi32%z81
                0x00000000        0x0
 .mdebug.abi32  0x00000000        0x0 c:/program files (x86)/microchip/mplabc32/v2.02/bin/../lib/gcc/pic32mx/4.5.1/../../../../pic32mx/lib\libmchp_peripheral_32MX575F256L.a(int_tbl_lib.o)

.bss%z82        0x00000000        0x0
 .bss           0x00000000        0x0 c:/program files (x86)/microchip/mplabc32/v2.02/bin/../lib/gcc/pic32mx/4.5.1/../../../../pic32mx/lib\libmchp_peripheral_32MX575F256L.a(int_tbl_lib.o)

.data%z83       0x00000000        0x0
 .data          0x00000000        0x0 c:/program files (x86)/microchip/mplabc32/v2.02/bin/../lib/gcc/pic32mx/4.5.1/../../../../pic32mx/lib\libmchp_peripheral_32MX575F256L.a(int_tbl_lib.o)

.mdebug.abi32%z84
                0x00000000        0x0
 .mdebug.abi32  0x00000000        0x0 c:/program files (x86)/microchip/mplabc32/v2.02/bin/../lib/gcc/pic32mx/4.5.1/../../../../pic32mx/lib\libmchp_peripheral_32MX575F256L.a(int_enable_mv_int_lib.o)

.bss%z85        0x00000000        0x0
 .bss           0x00000000        0x0 c:/program files (x86)/microchip/mplabc32/v2.02/bin/../lib/gcc/pic32mx/4.5.1/../../../../pic32mx/lib\libmchp_peripheral_32MX575F256L.a(int_enable_mv_int_lib.o)

.data%z86       0x00000000        0x0
 .data          0x00000000        0x0 c:/program files (x86)/microchip/mplabc32/v2.02/bin/../lib/gcc/pic32mx/4.5.1/../../../../pic32mx/lib\libmchp_peripheral_32MX575F256L.a(int_enable_mv_int_lib.o)

.mdebug.abi32%z87
                0x00000000        0x0
 .mdebug.abi32  0x00000000        0x0 c:/program files (x86)/microchip/mplabc32/v2.02/bin/../lib/gcc/pic32mx/4.5.1/../../../../pic32mx/lib\libmchp_peripheral_32MX575F256L.a(int_restore_interrupts_lib.o)

.bss%z88        0x00000000        0x0
 .bss           0x00000000        0x0 c:/program files (x86)/microchip/mplabc32/v2.02/bin/../lib/gcc/pic32mx/4.5.1/../../../../pic32mx/lib\libmchp_peripheral_32MX575F256L.a(int_restore_interrupts_lib.o)

.data%z89       0x00000000        0x0
 .data          0x00000000        0x0 c:/program files (x86)/microchip/mplabc32/v2.02/bin/../lib/gcc/pic32mx/4.5.1/../../../../pic32mx/lib\libmchp_peripheral_32MX575F256L.a(int_restore_interrupts_lib.o)

.mdebug.abi32%z90
                0x00000000        0x0
 .mdebug.abi32  0x00000000        0x0 c:/program files (x86)/microchip/mplabc32/v2.02/bin/../lib/gcc/pic32mx/4.5.1/../../../../pic32mx/lib\libmchp_peripheral_32MX575F256L.a(int_disable_interrupts_lib.o)

.bss%z91        0x00000000        0x0
 .bss           0x00000000        0x0 c:/program files (x86)/microchip/mplabc32/v2.02/bin/../lib/gcc/pic32mx/4.5.1/../../../../pic32mx/lib\libmchp_peripheral_32MX575F256L.a(int_disable_interrupts_lib.o)

.data%z92       0x00000000        0x0
 .data          0x00000000        0x0 c:/program files (x86)/microchip/mplabc32/v2.02/bin/../lib/gcc/pic32mx/4.5.1/../../../../pic32mx/lib\libmchp_peripheral_32MX575F256L.a(int_disable_interrupts_lib.o)

.mdebug.abi32%z93
                0x00000000        0x0
 .mdebug.abi32  0x00000000        0x0 c:/program files (x86)/microchip/mplabc32/v2.02/bin/../lib/gcc/pic32mx/4.5.1/../../../../pic32mx/lib\libmchp_peripheral_32MX575F256L.a(pcache.o)

.bss%z94        0x00000000        0x0
 .bss           0x00000000        0x0 c:/program files (x86)/microchip/mplabc32/v2.02/bin/../lib/gcc/pic32mx/4.5.1/../../../../pic32mx/lib\libmchp_peripheral_32MX575F256L.a(pcache.o)

.data%z95       0x00000000        0x0
 .data          0x00000000        0x0 c:/program files (x86)/microchip/mplabc32/v2.02/bin/../lib/gcc/pic32mx/4.5.1/../../../../pic32mx/lib\libmchp_peripheral_32MX575F256L.a(pcache.o)

.mdebug.abi32%z96
                0x00000000        0x0
 .mdebug.abi32  0x00000000        0x0 c:/program files (x86)/microchip/mplabc32/v2.02/bin/../lib/gcc/pic32mx/4.5.1/../../../../pic32mx/lib\libmchp_peripheral_32MX575F256L.a(soft_reset_lib.o)

.bss%z97        0x00000000        0x0
 .bss           0x00000000        0x0 c:/program files (x86)/microchip/mplabc32/v2.02/bin/../lib/gcc/pic32mx/4.5.1/../../../../pic32mx/lib\libmchp_peripheral_32MX575F256L.a(soft_reset_lib.o)

.data%z98       0x00000000        0x0
 .data          0x00000000        0x0 c:/program files (x86)/microchip/mplabc32/v2.02/bin/../lib/gcc/pic32mx/4.5.1/../../../../pic32mx/lib\libmchp_peripheral_32MX575F256L.a(soft_reset_lib.o)

.mdebug.abi32%z99
                0x00000000        0x0
 .mdebug.abi32  0x00000000        0x0 c:/program files (x86)/microchip/mplabc32/v2.02/bin/../lib/gcc/pic32mx/4.5.1/../../../../pic32mx/lib\libc.a(c32_uart.o)

.bss%z100       0x00000000        0x0
 .bss           0x00000000        0x0 c:/program files (x86)/microchip/mplabc32/v2.02/bin/../lib/gcc/pic32mx/4.5.1/../../../../pic32mx/lib\libc.a(c32_uart.o)

.data%z101      0x00000000        0x0
 .data          0x00000000        0x0 c:/program files (x86)/microchip/mplabc32/v2.02/bin/../lib/gcc/pic32mx/4.5.1/../../../../pic32mx/lib\libc.a(c32_uart.o)

.mdebug.abi32%z102
                0x00000000        0x0
 .mdebug.abi32  0x00000000        0x0 c:/program files (x86)/microchip/mplabc32/v2.02/bin/../lib/gcc/pic32mx/4.5.1/../../../../pic32mx/lib\libc.a(read.o)

.bss%z103       0x00000000        0x0
 .bss           0x00000000        0x0 c:/program files (x86)/microchip/mplabc32/v2.02/bin/../lib/gcc/pic32mx/4.5.1/../../../../pic32mx/lib\libc.a(read.o)

.data%z104      0x00000000        0x0
 .data          0x00000000        0x0 c:/program files (x86)/microchip/mplabc32/v2.02/bin/../lib/gcc/pic32mx/4.5.1/../../../../pic32mx/lib\libc.a(read.o)

.mdebug.abi32%z105
                0x00000000        0x0
 .mdebug.abi32  0x00000000        0x0 c:/program files (x86)/microchip/mplabc32/v2.02/bin/../lib/gcc/pic32mx/4.5.1/../../../../pic32mx/lib\libc.a(fflush.o)

.bss%z106       0x00000000        0x0
 .bss           0x00000000        0x0 c:/program files (x86)/microchip/mplabc32/v2.02/bin/../lib/gcc/pic32mx/4.5.1/../../../../pic32mx/lib\libc.a(fflush.o)

.data%z107      0x00000000        0x0
 .data          0x00000000        0x0 c:/program files (x86)/microchip/mplabc32/v2.02/bin/../lib/gcc/pic32mx/4.5.1/../../../../pic32mx/lib\libc.a(fflush.o)

.mdebug.abi32%z108
                0x00000000        0x0
 .mdebug.abi32  0x00000000        0x0 c:/program files (x86)/microchip/mplabc32/v2.02/bin/../lib/gcc/pic32mx/4.5.1/../../../../pic32mx/lib\libc.a(filbuf.o)

.bss%z109       0x00000000        0x0
 .bss           0x00000000        0x0 c:/program files (x86)/microchip/mplabc32/v2.02/bin/../lib/gcc/pic32mx/4.5.1/../../../../pic32mx/lib\libc.a(filbuf.o)

.data%z110      0x00000000        0x0
 .data          0x00000000        0x0 c:/program files (x86)/microchip/mplabc32/v2.02/bin/../lib/gcc/pic32mx/4.5.1/../../../../pic32mx/lib\libc.a(filbuf.o)

.mdebug.abi32%z111
                0x00000000        0x0
 .mdebug.abi32  0x00000000        0x0 c:/program files (x86)/microchip/mplabc32/v2.02/bin/../lib/gcc/pic32mx/4.5.1/../../../../pic32mx/lib\libc.a(ungetc.o)

.bss%z112       0x00000000        0x0
 .bss           0x00000000        0x0 c:/program files (x86)/microchip/mplabc32/v2.02/bin/../lib/gcc/pic32mx/4.5.1/../../../../pic32mx/lib\libc.a(ungetc.o)

.data%z113      0x00000000        0x0
 .data          0x00000000        0x0 c:/program files (x86)/microchip/mplabc32/v2.02/bin/../lib/gcc/pic32mx/4.5.1/../../../../pic32mx/lib\libc.a(ungetc.o)

.mdebug.abi32%z114
                0x00000000        0x0
 .mdebug.abi32  0x00000000        0x0 c:/program files (x86)/microchip/mplabc32/v2.02/bin/../lib/gcc/pic32mx/4.5.1/../../../../pic32mx/lib\libc.a(ctypef.o)

.bss%z115       0x00000000        0x0
 .bss           0x00000000        0x0 c:/program files (x86)/microchip/mplabc32/v2.02/bin/../lib/gcc/pic32mx/4.5.1/../../../../pic32mx/lib\libc.a(ctypef.o)

.data%z116      0x00000000        0x0
 .data          0x00000000        0x0 c:/program files (x86)/microchip/mplabc32/v2.02/bin/../lib/gcc/pic32mx/4.5.1/../../../../pic32mx/lib\libc.a(ctypef.o)

.mdebug.abi32%z117
                0x00000000        0x0
 .mdebug.abi32  0x00000000        0x0 c:/program files (x86)/microchip/mplabc32/v2.02/bin/../lib/gcc/pic32mx/4.5.1/../../../../pic32mx/lib\libc.a(atoi.o)

.bss%z118       0x00000000        0x0
 .bss           0x00000000        0x0 c:/program files (x86)/microchip/mplabc32/v2.02/bin/../lib/gcc/pic32mx/4.5.1/../../../../pic32mx/lib\libc.a(atoi.o)

.data%z119      0x00000000        0x0
 .data          0x00000000        0x0 c:/program files (x86)/microchip/mplabc32/v2.02/bin/../lib/gcc/pic32mx/4.5.1/../../../../pic32mx/lib\libc.a(atoi.o)

.mdebug.abi32%z120
                0x00000000        0x0
 .mdebug.abi32  0x00000000        0x0 c:/program files (x86)/microchip/mplabc32/v2.02/bin/../lib/gcc/pic32mx/4.5.1/../../../../pic32mx/lib\libc.a(fgetc.o)

.bss%z121       0x00000000        0x0
 .bss           0x00000000        0x0 c:/program files (x86)/microchip/mplabc32/v2.02/bin/../lib/gcc/pic32mx/4.5.1/../../../../pic32mx/lib\libc.a(fgetc.o)

.data%z122      0x00000000        0x0
 .data          0x00000000        0x0 c:/program files (x86)/microchip/mplabc32/v2.02/bin/../lib/gcc/pic32mx/4.5.1/../../../../pic32mx/lib\libc.a(fgetc.o)

.mdebug.abi32%z123
                0x00000000        0x0
 .mdebug.abi32  0x00000000        0x0 c:/program files (x86)/microchip/mplabc32/v2.02/bin/../lib/gcc/pic32mx/4.5.1/../../../../pic32mx/lib\libc.a(_flsbuf_simple.o)

.bss%z124       0x00000000        0x0
 .bss           0x00000000        0x0 c:/program files (x86)/microchip/mplabc32/v2.02/bin/../lib/gcc/pic32mx/4.5.1/../../../../pic32mx/lib\libc.a(_flsbuf_simple.o)

.data%z125      0x00000000        0x0
 .data          0x00000000        0x0 c:/program files (x86)/microchip/mplabc32/v2.02/bin/../lib/gcc/pic32mx/4.5.1/../../../../pic32mx/lib\libc.a(_flsbuf_simple.o)

.mdebug.abi32%z126
                0x00000000        0x0
 .mdebug.abi32  0x00000000        0x0 c:/program files (x86)/microchip/mplabc32/v2.02/bin/../lib/gcc/pic32mx/4.5.1/../../../../pic32mx/lib\libc.a(write.o)

.bss%z127       0x00000000        0x0
 .bss           0x00000000        0x0 c:/program files (x86)/microchip/mplabc32/v2.02/bin/../lib/gcc/pic32mx/4.5.1/../../../../pic32mx/lib\libc.a(write.o)

.data%z128      0x00000000        0x0
 .data          0x00000000        0x0 c:/program files (x86)/microchip/mplabc32/v2.02/bin/../lib/gcc/pic32mx/4.5.1/../../../../pic32mx/lib\libc.a(write.o)

.mdebug.abi32%z129
                0x00000000        0x0
 .mdebug.abi32  0x00000000        0x0 c:/program files (x86)/microchip/mplabc32/v2.02/bin/../lib/gcc/pic32mx/4.5.1/../../../../pic32mx/lib\libc.a(doscan_cdnopuxX.eo)

.data%z130      0x00000000        0x0
 .data          0x00000000        0x0 c:/program files (x86)/microchip/mplabc32/v2.02/bin/../lib/gcc/pic32mx/4.5.1/../../../../pic32mx/lib\libc.a(doscan_cdnopuxX.eo)

.mdebug.abi32%z131
                0x00000000        0x0
 .mdebug.abi32  0x00000000        0x0 c:/program files (x86)/microchip/mplabc32/v2.02/bin/../lib/gcc/pic32mx/4.5.1/../../../../pic32mx/lib\libc.a(doprnt_cdnopsuxX.eo)

.bss%z132       0x00000000        0x0
 .bss           0x00000000        0x0 c:/program files (x86)/microchip/mplabc32/v2.02/bin/../lib/gcc/pic32mx/4.5.1/../../../../pic32mx/lib\libc.a(doprnt_cdnopsuxX.eo)

.data%z133      0x00000000        0x0
 .data          0x00000000        0x0 c:/program files (x86)/microchip/mplabc32/v2.02/bin/../lib/gcc/pic32mx/4.5.1/../../../../pic32mx/lib\libc.a(doprnt_cdnopsuxX.eo)

.mdebug.abi32%z134
                0x00000000        0x0
 .mdebug.abi32  0x00000000        0x0 c:/program files (x86)/microchip/mplabc32/v2.02/bin/../lib/gcc/pic32mx/4.5.1/../../../../pic32mx/lib\libc.a(_fputc_simple.o)

.bss%z135       0x00000000        0x0
 .bss           0x00000000        0x0 c:/program files (x86)/microchip/mplabc32/v2.02/bin/../lib/gcc/pic32mx/4.5.1/../../../../pic32mx/lib\libc.a(_fputc_simple.o)

.data%z136      0x00000000        0x0
 .data          0x00000000        0x0 c:/program files (x86)/microchip/mplabc32/v2.02/bin/../lib/gcc/pic32mx/4.5.1/../../../../pic32mx/lib\libc.a(_fputc_simple.o)

.mdebug.abi32%z137
                0x00000000        0x0
 .mdebug.abi32  0x00000000        0x0 c:/program files (x86)/microchip/mplabc32/v2.02/bin/../lib/gcc/pic32mx/4.5.1/../../../../pic32mx/lib\libc.a(_iob.o)

.bss%z138       0x00000000        0x0
 .bss           0x00000000        0x0 c:/program files (x86)/microchip/mplabc32/v2.02/bin/../lib/gcc/pic32mx/4.5.1/../../../../pic32mx/lib\libc.a(default-nmi-handler.o)

.data%z139      0x00000000        0x0
 .data          0x00000000        0x0 c:/program files (x86)/microchip/mplabc32/v2.02/bin/../lib/gcc/pic32mx/4.5.1/../../../../pic32mx/lib\libc.a(default-nmi-handler.o)

.mdebug.abi32%z140
                0x00000000        0x0
 .mdebug.abi32  0x00000000        0x0 c:/program files (x86)/microchip/mplabc32/v2.02/bin/../lib/gcc/pic32mx/4.5.1/../../../../pic32mx/lib\libc.a(default-on-bootstrap.o)

.bss%z141       0x00000000        0x0
 .bss           0x00000000        0x0 c:/program files (x86)/microchip/mplabc32/v2.02/bin/../lib/gcc/pic32mx/4.5.1/../../../../pic32mx/lib\libc.a(default-on-bootstrap.o)

.data%z142      0x00000000        0x0
 .data          0x00000000        0x0 c:/program files (x86)/microchip/mplabc32/v2.02/bin/../lib/gcc/pic32mx/4.5.1/../../../../pic32mx/lib\libc.a(default-on-bootstrap.o)

.mdebug.abi32%z143
                0x00000000        0x0
 .mdebug.abi32  0x00000000        0x0 c:/program files (x86)/microchip/mplabc32/v2.02/bin/../lib/gcc/pic32mx/4.5.1/../../../../pic32mx/lib\libc.a(default-on-reset.o)

.bss%z144       0x00000000        0x0
 .bss           0x00000000        0x0 c:/program files (x86)/microchip/mplabc32/v2.02/bin/../lib/gcc/pic32mx/4.5.1/../../../../pic32mx/lib\libc.a(default-on-reset.o)

.data%z145      0x00000000        0x0
 .data          0x00000000        0x0 c:/program files (x86)/microchip/mplabc32/v2.02/bin/../lib/gcc/pic32mx/4.5.1/../../../../pic32mx/lib\libc.a(default-on-reset.o)

.mdebug.abi32%z146
                0x00000000        0x0
 .mdebug.abi32  0x00000000        0x0 c:/program files (x86)/microchip/mplabc32/v2.02/bin/../lib/gcc/pic32mx/4.5.1/../../../../pic32mx/lib\libc.a(default-bootstrap-exception-handler.o)

.bss%z147       0x00000000        0x0
 .bss           0x00000000        0x0 c:/program files (x86)/microchip/mplabc32/v2.02/bin/../lib/gcc/pic32mx/4.5.1/../../../../pic32mx/lib\libc.a(default-bootstrap-exception-handler.o)

.data%z148      0x00000000        0x0
 .data          0x00000000        0x0 c:/program files (x86)/microchip/mplabc32/v2.02/bin/../lib/gcc/pic32mx/4.5.1/../../../../pic32mx/lib\libc.a(default-bootstrap-exception-handler.o)

.mdebug.abi32%z149
                0x00000000        0x0
 .mdebug.abi32  0x00000000        0x0 c:/program files (x86)/microchip/mplabc32/v2.02/bin/../lib/gcc/pic32mx/4.5.1/../../../../pic32mx/lib\libc.a(sscanf_cdnopuxX.eo)

.bss%z150       0x00000000        0x0
 .bss           0x00000000        0x0 c:/program files (x86)/microchip/mplabc32/v2.02/bin/../lib/gcc/pic32mx/4.5.1/../../../../pic32mx/lib\libc.a(sscanf_cdnopuxX.eo)

.data%z151      0x00000000        0x0
 .data          0x00000000        0x0 c:/program files (x86)/microchip/mplabc32/v2.02/bin/../lib/gcc/pic32mx/4.5.1/../../../../pic32mx/lib\libc.a(sscanf_cdnopuxX.eo)

.mdebug.abi32%z152
                0x00000000        0x0
 .mdebug.abi32  0x00000000        0x0 c:/program files (x86)/microchip/mplabc32/v2.02/bin/../lib/gcc/pic32mx/4.5.1/../../../../pic32mx/lib\libc.a(sprintf_cdnopsuxX.eo)

.bss%z153       0x00000000        0x0
 .bss           0x00000000        0x0 c:/program files (x86)/microchip/mplabc32/v2.02/bin/../lib/gcc/pic32mx/4.5.1/../../../../pic32mx/lib\libc.a(sprintf_cdnopsuxX.eo)

.data%z154      0x00000000        0x0
 .data          0x00000000        0x0 c:/program files (x86)/microchip/mplabc32/v2.02/bin/../lib/gcc/pic32mx/4.5.1/../../../../pic32mx/lib\libc.a(sprintf_cdnopsuxX.eo)

.mdebug.abi32%z155
                0x00000000        0x0
 .mdebug.abi32  0x00000000        0x0 c:/program files (x86)/microchip/mplabc32/v2.02/bin/../lib/gcc/pic32mx/4.5.1/../../../../pic32mx/lib\libc.a(printf_cdnopsuxX.eo)

.bss%z156       0x00000000        0x0
 .bss           0x00000000        0x0 c:/program files (x86)/microchip/mplabc32/v2.02/bin/../lib/gcc/pic32mx/4.5.1/../../../../pic32mx/lib\libc.a(printf_cdnopsuxX.eo)

.data%z157      0x00000000        0x0
 .data          0x00000000        0x0 c:/program files (x86)/microchip/mplabc32/v2.02/bin/../lib/gcc/pic32mx/4.5.1/../../../../pic32mx/lib\libc.a(printf_cdnopsuxX.eo)

.mdebug.abi32%z158
                0x00000000        0x0
 .mdebug.abi32  0x00000000        0x0 c:/program files (x86)/microchip/mplabc32/v2.02/bin/../lib/gcc/pic32mx/4.5.1/../../../../pic32mx/lib\libc.a(strrchr.o)

.bss%z159       0x00000000        0x0
 .bss           0x00000000        0x0 c:/program files (x86)/microchip/mplabc32/v2.02/bin/../lib/gcc/pic32mx/4.5.1/../../../../pic32mx/lib\libc.a(strrchr.o)

.data%z160      0x00000000        0x0
 .data          0x00000000        0x0 c:/program files (x86)/microchip/mplabc32/v2.02/bin/../lib/gcc/pic32mx/4.5.1/../../../../pic32mx/lib\libc.a(strrchr.o)

.mdebug.abi32%z161
                0x00000000        0x0
 .mdebug.abi32  0x00000000        0x0 c:/program files (x86)/microchip/mplabc32/v2.02/bin/../lib/gcc/pic32mx/4.5.1/../../../../pic32mx/lib\libc.a(strncpy.o)

.bss%z162       0x00000000        0x0
 .bss           0x00000000        0x0 c:/program files (x86)/microchip/mplabc32/v2.02/bin/../lib/gcc/pic32mx/4.5.1/../../../../pic32mx/lib\libc.a(strncpy.o)

.data%z163      0x00000000        0x0
 .data          0x00000000        0x0 c:/program files (x86)/microchip/mplabc32/v2.02/bin/../lib/gcc/pic32mx/4.5.1/../../../../pic32mx/lib\libc.a(strncpy.o)

.mdebug.abi32%z164
                0x00000000        0x0
 .mdebug.abi32  0x00000000        0x0 c:/program files (x86)/microchip/mplabc32/v2.02/bin/../lib/gcc/pic32mx/4.5.1/../../../../pic32mx/lib\libc.a(strcat.o)

.bss%z165       0x00000000        0x0
 .bss           0x00000000        0x0 c:/program files (x86)/microchip/mplabc32/v2.02/bin/../lib/gcc/pic32mx/4.5.1/../../../../pic32mx/lib\libc.a(strcat.o)

.data%z166      0x00000000        0x0
 .data          0x00000000        0x0 c:/program files (x86)/microchip/mplabc32/v2.02/bin/../lib/gcc/pic32mx/4.5.1/../../../../pic32mx/lib\libc.a(strcat.o)

.mdebug.abi32%z167
                0x00000000        0x0
 .mdebug.abi32  0x00000000        0x0 c:/program files (x86)/microchip/mplabc32/v2.02/bin/../lib/gcc/pic32mx/4.5.1/../../../../pic32mx/lib\libc.a(puts.o)

.bss%z168       0x00000000        0x0
 .bss           0x00000000        0x0 c:/program files (x86)/microchip/mplabc32/v2.02/bin/../lib/gcc/pic32mx/4.5.1/../../../../pic32mx/lib\libc.a(puts.o)

.data%z169      0x00000000        0x0
 .data          0x00000000        0x0 c:/program files (x86)/microchip/mplabc32/v2.02/bin/../lib/gcc/pic32mx/4.5.1/../../../../pic32mx/lib\libc.a(puts.o)

.mdebug.abi32%z170
                0x00000000        0x0
 .mdebug.abi32  0x00000000        0x0 c:/program files (x86)/microchip/mplabc32/v2.02/bin/../lib/gcc/pic32mx/4.5.1/../../../../pic32mx/lib\libc.a(ctype.o)

.bss%z171       0x00000000        0x0
 .bss           0x00000000        0x0 c:/program files (x86)/microchip/mplabc32/v2.02/bin/../lib/gcc/pic32mx/4.5.1/../../../../pic32mx/lib\libc.a(ctype.o)

.data%z172      0x00000000        0x0
 .data          0x00000000        0x0 c:/program files (x86)/microchip/mplabc32/v2.02/bin/../lib/gcc/pic32mx/4.5.1/../../../../pic32mx/lib\libc.a(ctype.o)

.mdebug.abi32%z173
                0x00000000        0x0
 .mdebug.abi32  0x00000000        0x0 c:/program files (x86)/microchip/mplabc32/v2.02/bin/../lib/gcc/pic32mx/4.5.1/../../../../pic32mx/lib\libc.a(atol.o)

.bss%z174       0x00000000        0x0
 .bss           0x00000000        0x0 c:/program files (x86)/microchip/mplabc32/v2.02/bin/../lib/gcc/pic32mx/4.5.1/../../../../pic32mx/lib\libc.a(atol.o)

.data%z175      0x00000000        0x0
 .data          0x00000000        0x0 c:/program files (x86)/microchip/mplabc32/v2.02/bin/../lib/gcc/pic32mx/4.5.1/../../../../pic32mx/lib\libc.a(atol.o)

.bss%z176       0x00000000        0x0
 .bss           0x00000000        0x0 c:/program files (x86)/microchip/mplabc32/v2.02/bin/../lib/gcc/pic32mx/4.5.1/../../../../pic32mx/lib\libc.a(general-exception.o)

.data%z177      0x00000000        0x0
 .data          0x00000000        0x0 c:/program files (x86)/microchip/mplabc32/v2.02/bin/../lib/gcc/pic32mx/4.5.1/../../../../pic32mx/lib\libc.a(general-exception.o)

.bss%z178       0x00000000        0x0
 .bss           0x00000000        0x0 c:/program files (x86)/microchip/mplabc32/v2.02/bin/../lib/gcc/pic32mx/4.5.1/../../../../pic32mx/lib\libc.a(strlen.o)

.data%z179      0x00000000        0x0
 .data          0x00000000        0x0 c:/program files (x86)/microchip/mplabc32/v2.02/bin/../lib/gcc/pic32mx/4.5.1/../../../../pic32mx/lib\libc.a(strlen.o)

.bss%z180       0x00000000        0x0
 .bss           0x00000000        0x0 c:/program files (x86)/microchip/mplabc32/v2.02/bin/../lib/gcc/pic32mx/4.5.1/../../../../pic32mx/lib\libc.a(strcpy.o)

.data%z181      0x00000000        0x0
 .data          0x00000000        0x0 c:/program files (x86)/microchip/mplabc32/v2.02/bin/../lib/gcc/pic32mx/4.5.1/../../../../pic32mx/lib\libc.a(strcpy.o)

.bss%z182       0x00000000        0x0
 .bss           0x00000000        0x0 c:/program files (x86)/microchip/mplabc32/v2.02/bin/../lib/gcc/pic32mx/4.5.1/../../../../pic32mx/lib\libc.a(strcmp.o)

.data%z183      0x00000000        0x0
 .data          0x00000000        0x0 c:/program files (x86)/microchip/mplabc32/v2.02/bin/../lib/gcc/pic32mx/4.5.1/../../../../pic32mx/lib\libc.a(strcmp.o)

.bss%z184       0x00000000        0x0
 .bss           0x00000000        0x0 c:/program files (x86)/microchip/mplabc32/v2.02/bin/../lib/gcc/pic32mx/4.5.1/../../../../pic32mx/lib\libc.a(memset.o)

.data%z185      0x00000000        0x0
 .data          0x00000000        0x0 c:/program files (x86)/microchip/mplabc32/v2.02/bin/../lib/gcc/pic32mx/4.5.1/../../../../pic32mx/lib\libc.a(memset.o)

.bss%z186       0x00000000        0x0
 .bss           0x00000000        0x0 c:/program files (x86)/microchip/mplabc32/v2.02/bin/../lib/gcc/pic32mx/4.5.1/../../../../pic32mx/lib\libc.a(memcpy.o)

.data%z187      0x00000000        0x0
 .data          0x00000000        0x0 c:/program files (x86)/microchip/mplabc32/v2.02/bin/../lib/gcc/pic32mx/4.5.1/../../../../pic32mx/lib\libc.a(memcpy.o)

.bss%z188       0x00000000        0x0
 .bss           0x00000000        0x0 c:/program files (x86)/microchip/mplabc32/v2.02/bin/../lib/gcc/pic32mx/4.5.1/../../../../pic32mx/lib\libc.a(memcmp.o)

.data%z189      0x00000000        0x0
 .data          0x00000000        0x0 c:/program files (x86)/microchip/mplabc32/v2.02/bin/../lib/gcc/pic32mx/4.5.1/../../../../pic32mx/lib\libc.a(memcmp.o)

.mdebug.abi32%z190
                0x00000000        0x0
 .mdebug.abi32  0x00000000        0x0 c:/program files (x86)/microchip/mplabc32/v2.02/bin/../lib/gcc/pic32mx/4.5.1\libgcc.a(_umoddi3.o)

.bss%z191       0x00000000        0x0
 .bss           0x00000000        0x0 c:/program files (x86)/microchip/mplabc32/v2.02/bin/../lib/gcc/pic32mx/4.5.1\libgcc.a(_umoddi3.o)

.data%z192      0x00000000        0x0
 .data          0x00000000        0x0 c:/program files (x86)/microchip/mplabc32/v2.02/bin/../lib/gcc/pic32mx/4.5.1\libgcc.a(_umoddi3.o)

.mdebug.abi32%z193
                0x00000000        0x0
 .mdebug.abi32  0x00000000        0x0 c:/program files (x86)/microchip/mplabc32/v2.02/bin/../lib/gcc/pic32mx/4.5.1\libgcc.a(_udivdi3.o)

.bss%z194       0x00000000        0x0
 .bss           0x00000000        0x0 c:/program files (x86)/microchip/mplabc32/v2.02/bin/../lib/gcc/pic32mx/4.5.1\libgcc.a(_udivdi3.o)

.data%z195      0x00000000        0x0
 .data          0x00000000        0x0 c:/program files (x86)/microchip/mplabc32/v2.02/bin/../lib/gcc/pic32mx/4.5.1\libgcc.a(_udivdi3.o)

.bss%z196       0x00000000        0x0
 .bss           0x00000000        0x0 C:\Projects\Intwine\Aztec\Power.a(ADE7753.o)

.data%z197      0x00000000        0x0
 .data          0x00000000        0x0 C:\Projects\Intwine\Aztec\Power.a(ADE7753.o)

.mdebug.abi32%z198
                0x00000000        0x0
 .mdebug.abi32  0x00000000        0x0 obj-tmp\Power.o

.bss%z199       0x00000000        0x0
 .bss           0x00000000        0x0 obj-tmp\Power.o

.mdebug.abi32%z200
                0x00000000        0x0
 .mdebug.abi32  0x00000000        0x0 obj-tmp\spi.o

.bss%z201       0x00000000        0x0
 .bss           0x00000000        0x0 obj-tmp\spi.o

.data%z202      0x00000000        0x0
 .data          0x00000000        0x0 obj-tmp\spi.o

.mdebug.abi32%z203
                0x00000000        0x0
 .mdebug.abi32  0x00000000        0x0 obj-tmp\ADE7753.o

.bss%z204       0x00000000        0x0
 .bss           0x00000000        0x0 obj-tmp\ADE7753.o

.data%z205      0x00000000        0x0
 .data          0x00000000        0x0 obj-tmp\ADE7753.o

.mdebug.abi32%z206
                0x00000000        0x0
 .mdebug.abi32  0x00000000        0x0 obj-tmp\icoUserButton.o

.bss%z207       0x00000000        0x0
 .bss           0x00000000        0x0 obj-tmp\icoUserButton.o

.data%z208      0x00000000        0x0
 .data          0x00000000        0x0 obj-tmp\icoUserButton.o

.mdebug.abi32%z209
                0x00000000        0x0
 .mdebug.abi32  0x00000000        0x0 obj-tmp\icoPowerMeasurement.o

.data%z210      0x00000000        0x0
 .data          0x00000000        0x0 obj-tmp\icoPowerMeasurement.o

.mdebug.abi32%z211
                0x00000000        0x0
 .mdebug.abi32  0x00000000        0x0 obj-tmp\TimeMonitor.o

.bss%z212       0x00000000        0x0
 .bss           0x00000000        0x0 obj-tmp\TimeMonitor.o

.data%z213      0x00000000        0x0
 .data          0x00000000        0x0 obj-tmp\TimeMonitor.o

.mdebug.abi32%z214
                0x00000000        0x0
 .mdebug.abi32  0x00000000        0x0 obj-tmp\app_ICO_ICL.o

.bss%z215       0x00000000        0x0
 .bss           0x00000000        0x0 obj-tmp\app_ICO_ICL.o

.data%z216      0x00000000        0x0
 .data          0x00000000        0x0 obj-tmp\app_ICO_ICL.o

.mdebug.abi32%z217
                0x00000000        0x0
 .mdebug.abi32  0x00000000        0x0 obj-tmp\DeviceState.o

.bss%z218       0x00000000        0x0
 .bss           0x00000000        0x0 obj-tmp\DeviceState.o

.mdebug.abi32%z219
                0x00000000        0x0
 .mdebug.abi32  0x00000000        0x0 obj-tmp\Device_ICO_ICL.o

.bss%z220       0x00000000        0x0
 .bss           0x00000000        0x0 obj-tmp\Device_ICO_ICL.o

.data%z221      0x00000000        0x0
 .data          0x00000000        0x0 obj-tmp\Device_ICO_ICL.o

.mdebug.abi32%z222
                0x00000000        0x0
 .mdebug.abi32  0x00000000        0x0 obj-tmp\Assert.o

.bss%z223       0x00000000        0x0
 .bss           0x00000000        0x0 obj-tmp\Assert.o

.data%z224      0x00000000        0x0
 .data          0x00000000        0x0 obj-tmp\Assert.o

.mdebug.abi32%z225
                0x00000000        0x0
 .mdebug.abi32  0x00000000        0x0 obj-tmp\UARTiMain.o

.bss%z226       0x00000000        0x0
 .bss           0x00000000        0x0 obj-tmp\UARTiMain.o

.data%z227      0x00000000        0x0
 .data          0x00000000        0x0 obj-tmp\UARTiMain.o

.mdebug.abi32%z228
                0x00000000        0x0
 .mdebug.abi32  0x00000000        0x0 obj-tmp\INTiMain.o

.bss%z229       0x00000000        0x0
 .bss           0x00000000        0x0 obj-tmp\INTiMain.o

.data%z230      0x00000000        0x0
 .data          0x00000000        0x0 obj-tmp\INTiMain.o

.mdebug.abi32%z231
                0x00000000        0x0
 .mdebug.abi32  0x00000000        0x0 obj-tmp\i2c_master.o

.bss%z232       0x00000000        0x0
 .bss           0x00000000        0x0 obj-tmp\i2c_master.o

.data%z233      0x00000000        0x0
 .data          0x00000000        0x0 obj-tmp\i2c_master.o

.mdebug.abi32%z234
                0x00000000        0x0
 .mdebug.abi32  0x00000000        0x0 obj-tmp\DHCPs.o

.bss%z235       0x00000000        0x0
 .bss           0x00000000        0x0 obj-tmp\DHCPs.o

.data%z236      0x00000000        0x0
 .data          0x00000000        0x0 obj-tmp\DHCPs.o

.mdebug.abi32%z237
                0x00000000        0x0
 .mdebug.abi32  0x00000000        0x0 obj-tmp\DHCP.o

.data%z238      0x00000000        0x0
 .data          0x00000000        0x0 obj-tmp\DHCP.o

.mdebug.abi32%z239
                0x00000000        0x0
 .mdebug.abi32  0x00000000        0x0 obj-tmp\WFParamMsg_24G.o

.bss%z240       0x00000000        0x0
 .bss           0x00000000        0x0 obj-tmp\WFParamMsg_24G.o

.data%z241      0x00000000        0x0
 .data          0x00000000        0x0 obj-tmp\WFParamMsg_24G.o

.mdebug.abi32%z242
                0x00000000        0x0
 .mdebug.abi32  0x00000000        0x0 obj-tmp\WFMgmtMsg_24G.o

.bss%z243       0x00000000        0x0
 .bss           0x00000000        0x0 obj-tmp\WFMgmtMsg_24G.o

.data%z244      0x00000000        0x0
 .data          0x00000000        0x0 obj-tmp\WFMgmtMsg_24G.o

.mdebug.abi32%z245
                0x00000000        0x0
 .mdebug.abi32  0x00000000        0x0 obj-tmp\WFMac_24G.o

.bss%z246       0x00000000        0x0
 .bss           0x00000000        0x0 obj-tmp\WFMac_24G.o

.data%z247      0x00000000        0x0
 .data          0x00000000        0x0 obj-tmp\WFMac_24G.o

.mdebug.abi32%z248
                0x00000000        0x0
 .mdebug.abi32  0x00000000        0x0 obj-tmp\WFDriverRaw_24G.o

.bss%z249       0x00000000        0x0
 .bss           0x00000000        0x0 obj-tmp\WFDriverRaw_24G.o

.data%z250      0x00000000        0x0
 .data          0x00000000        0x0 obj-tmp\WFDriverRaw_24G.o

.mdebug.abi32%z251
                0x00000000        0x0
 .mdebug.abi32  0x00000000        0x0 obj-tmp\WFDriverCom_24G.o

.bss%z252       0x00000000        0x0
 .bss           0x00000000        0x0 obj-tmp\WFDriverCom_24G.o

.data%z253      0x00000000        0x0
 .data          0x00000000        0x0 obj-tmp\WFDriverCom_24G.o

.mdebug.abi32%z254
                0x00000000        0x0
 .mdebug.abi32  0x00000000        0x0 obj-tmp\WF_Spi.o

.bss%z255       0x00000000        0x0
 .bss           0x00000000        0x0 obj-tmp\WF_Spi.o

.data%z256      0x00000000        0x0
 .data          0x00000000        0x0 obj-tmp\WF_Spi.o

.mdebug.abi32%z257
                0x00000000        0x0
 .mdebug.abi32  0x00000000        0x0 obj-tmp\WFTxPower.o

.bss%z258       0x00000000        0x0
 .bss           0x00000000        0x0 obj-tmp\WFTxPower.o

.data%z259      0x00000000        0x0
 .data          0x00000000        0x0 obj-tmp\WFTxPower.o

.mdebug.abi32%z260
                0x00000000        0x0
 .mdebug.abi32  0x00000000        0x0 obj-tmp\WFScan.o

.bss%z261       0x00000000        0x0
 .bss           0x00000000        0x0 obj-tmp\WFScan.o

.data%z262      0x00000000        0x0
 .data          0x00000000        0x0 obj-tmp\WFScan.o

.mdebug.abi32%z263
                0x00000000        0x0
 .mdebug.abi32  0x00000000        0x0 obj-tmp\WFPowerSave.o

.bss%z264       0x00000000        0x0
 .bss           0x00000000        0x0 obj-tmp\WFPowerSave.o

.data%z265      0x00000000        0x0
 .data          0x00000000        0x0 obj-tmp\WFPowerSave.o

.mdebug.abi32%z266
                0x00000000        0x0
 .mdebug.abi32  0x00000000        0x0 obj-tmp\WFInit.o

.bss%z267       0x00000000        0x0
 .bss           0x00000000        0x0 obj-tmp\WFInit.o

.data%z268      0x00000000        0x0
 .data          0x00000000        0x0 obj-tmp\WFInit.o

.mdebug.abi32%z269
                0x00000000        0x0
 .mdebug.abi32  0x00000000        0x0 obj-tmp\WFEventHandler.o

.bss%z270       0x00000000        0x0
 .bss           0x00000000        0x0 obj-tmp\WFEventHandler.o

.data%z271      0x00000000        0x0
 .data          0x00000000        0x0 obj-tmp\WFEventHandler.o

.mdebug.abi32%z272
                0x00000000        0x0
 .mdebug.abi32  0x00000000        0x0 obj-tmp\WFEasyConfig.o

.bss%z273       0x00000000        0x0
 .bss           0x00000000        0x0 obj-tmp\WFEasyConfig.o

.data%z274      0x00000000        0x0
 .data          0x00000000        0x0 obj-tmp\WFEasyConfig.o

.mdebug.abi32%z275
                0x00000000        0x0
 .mdebug.abi32  0x00000000        0x0 obj-tmp\WFDebugStrings.o

.bss%z276       0x00000000        0x0
 .bss           0x00000000        0x0 obj-tmp\WFDebugStrings.o

.mdebug.abi32%z277
                0x00000000        0x0
 .mdebug.abi32  0x00000000        0x0 obj-tmp\WFDataTxRx.o

.bss%z278       0x00000000        0x0
 .bss           0x00000000        0x0 obj-tmp\WFDataTxRx.o

.data%z279      0x00000000        0x0
 .data          0x00000000        0x0 obj-tmp\WFDataTxRx.o

.mdebug.abi32%z280
                0x00000000        0x0
 .mdebug.abi32  0x00000000        0x0 obj-tmp\WFConsoleMsgs.o

.bss%z281       0x00000000        0x0
 .bss           0x00000000        0x0 obj-tmp\WFConsoleMsgs.o

.data%z282      0x00000000        0x0
 .data          0x00000000        0x0 obj-tmp\WFConsoleMsgs.o

.mdebug.abi32%z283
                0x00000000        0x0
 .mdebug.abi32  0x00000000        0x0 obj-tmp\WFConsoleMsgHandler.o

.bss%z284       0x00000000        0x0
 .bss           0x00000000        0x0 obj-tmp\WFConsoleMsgHandler.o

.data%z285      0x00000000        0x0
 .data          0x00000000        0x0 obj-tmp\WFConsoleMsgHandler.o

.mdebug.abi32%z286
                0x00000000        0x0
 .mdebug.abi32  0x00000000        0x0 obj-tmp\WFConsoleIwpriv.o

.bss%z287       0x00000000        0x0
 .bss           0x00000000        0x0 obj-tmp\WFConsoleIwpriv.o

.data%z288      0x00000000        0x0
 .data          0x00000000        0x0 obj-tmp\WFConsoleIwpriv.o

.mdebug.abi32%z289
                0x00000000        0x0
 .mdebug.abi32  0x00000000        0x0 obj-tmp\WFConsoleIwconfig.o

.bss%z290       0x00000000        0x0
 .bss           0x00000000        0x0 obj-tmp\WFConsoleIwconfig.o

.data%z291      0x00000000        0x0
 .data          0x00000000        0x0 obj-tmp\WFConsoleIwconfig.o

.mdebug.abi32%z292
                0x00000000        0x0
 .mdebug.abi32  0x00000000        0x0 obj-tmp\WFConsoleIfconfig.o

.bss%z293       0x00000000        0x0
 .bss           0x00000000        0x0 obj-tmp\WFConsoleIfconfig.o

.data%z294      0x00000000        0x0
 .data          0x00000000        0x0 obj-tmp\WFConsoleIfconfig.o

.mdebug.abi32%z295
                0x00000000        0x0
 .mdebug.abi32  0x00000000        0x0 obj-tmp\WFConsole.o

.bss%z296       0x00000000        0x0
 .bss           0x00000000        0x0 obj-tmp\WFConsole.o

.data%z297      0x00000000        0x0
 .data          0x00000000        0x0 obj-tmp\WFConsole.o

.mdebug.abi32%z298
                0x00000000        0x0
 .mdebug.abi32  0x00000000        0x0 obj-tmp\WFConnectionProfile.o

.bss%z299       0x00000000        0x0
 .bss           0x00000000        0x0 obj-tmp\WFConnectionProfile.o

.data%z300      0x00000000        0x0
 .data          0x00000000        0x0 obj-tmp\WFConnectionProfile.o

.mdebug.abi32%z301
                0x00000000        0x0
 .mdebug.abi32  0x00000000        0x0 obj-tmp\WFConnectionManager.o

.bss%z302       0x00000000        0x0
 .bss           0x00000000        0x0 obj-tmp\WFConnectionManager.o

.data%z303      0x00000000        0x0
 .data          0x00000000        0x0 obj-tmp\WFConnectionManager.o

.mdebug.abi32%z304
                0x00000000        0x0
 .mdebug.abi32  0x00000000        0x0 obj-tmp\WFConnectionAlgorithm.o

.bss%z305       0x00000000        0x0
 .bss           0x00000000        0x0 obj-tmp\WFConnectionAlgorithm.o

.data%z306      0x00000000        0x0
 .data          0x00000000        0x0 obj-tmp\WFConnectionAlgorithm.o

.mdebug.abi32%z307
                0x00000000        0x0
 .mdebug.abi32  0x00000000        0x0 obj-tmp\WF_pbkdf2.o

.bss%z308       0x00000000        0x0
 .bss           0x00000000        0x0 obj-tmp\WF_pbkdf2.o

.data%z309      0x00000000        0x0
 .data          0x00000000        0x0 obj-tmp\WF_pbkdf2.o

.mdebug.abi32%z310
                0x00000000        0x0
 .mdebug.abi32  0x00000000        0x0 obj-tmp\WF_Eint.o

.bss%z311       0x00000000        0x0
 .bss           0x00000000        0x0 obj-tmp\WF_Eint.o

.data%z312      0x00000000        0x0
 .data          0x00000000        0x0 obj-tmp\WF_Eint.o

.mdebug.abi32%z313
                0x00000000        0x0
 .mdebug.abi32  0x00000000        0x0 obj-tmp\ZeroconfMulticastDNS.o

.data%z314      0x00000000        0x0
 .data          0x00000000        0x0 obj-tmp\ZeroconfMulticastDNS.o

.mdebug.abi32%z315
                0x00000000        0x0
 .mdebug.abi32  0x00000000        0x0 obj-tmp\ZeroconfLinkLocal.o

.bss%z316       0x00000000        0x0
 .bss           0x00000000        0x0 obj-tmp\ZeroconfLinkLocal.o

.data%z317      0x00000000        0x0
 .data          0x00000000        0x0 obj-tmp\ZeroconfLinkLocal.o

.mdebug.abi32%z318
                0x00000000        0x0
 .mdebug.abi32  0x00000000        0x0 obj-tmp\ZeroconfHelper.o

.bss%z319       0x00000000        0x0
 .bss           0x00000000        0x0 obj-tmp\ZeroconfHelper.o

.data%z320      0x00000000        0x0
 .data          0x00000000        0x0 obj-tmp\ZeroconfHelper.o

.mdebug.abi32%z321
                0x00000000        0x0
 .mdebug.abi32  0x00000000        0x0 obj-tmp\UDPPerformanceTest.o

.bss%z322       0x00000000        0x0
 .bss           0x00000000        0x0 obj-tmp\UDPPerformanceTest.o

.data%z323      0x00000000        0x0
 .data          0x00000000        0x0 obj-tmp\UDPPerformanceTest.o

.mdebug.abi32%z324
                0x00000000        0x0
 .mdebug.abi32  0x00000000        0x0 obj-tmp\UDP.o

.bss%z325       0x00000000        0x0
 .bss           0x00000000        0x0 obj-tmp\UDP.o

.data%z326      0x00000000        0x0
 .data          0x00000000        0x0 obj-tmp\UDP.o

.mdebug.abi32%z327
                0x00000000        0x0
 .mdebug.abi32  0x00000000        0x0 obj-tmp\UART2TCPBridge.o

.bss%z328       0x00000000        0x0
 .bss           0x00000000        0x0 obj-tmp\UART2TCPBridge.o

.data%z329      0x00000000        0x0
 .data          0x00000000        0x0 obj-tmp\UART2TCPBridge.o

.mdebug.abi32%z330
                0x00000000        0x0
 .mdebug.abi32  0x00000000        0x0 obj-tmp\UART.o

.bss%z331       0x00000000        0x0
 .bss           0x00000000        0x0 obj-tmp\UART.o

.data%z332      0x00000000        0x0
 .data          0x00000000        0x0 obj-tmp\UART.o

.mdebug.abi32%z333
                0x00000000        0x0
 .mdebug.abi32  0x00000000        0x0 obj-tmp\Tick.o

.bss%z334       0x00000000        0x0
 .bss           0x00000000        0x0 obj-tmp\Tick.o

.data%z335      0x00000000        0x0
 .data          0x00000000        0x0 obj-tmp\Tick.o

.mdebug.abi32%z336
                0x00000000        0x0
 .mdebug.abi32  0x00000000        0x0 obj-tmp\TFTPc.o

.bss%z337       0x00000000        0x0
 .bss           0x00000000        0x0 obj-tmp\TFTPc.o

.data%z338      0x00000000        0x0
 .data          0x00000000        0x0 obj-tmp\TFTPc.o

.mdebug.abi32%z339
                0x00000000        0x0
 .mdebug.abi32  0x00000000        0x0 obj-tmp\Telnet.o

.bss%z340       0x00000000        0x0
 .bss           0x00000000        0x0 obj-tmp\Telnet.o

.data%z341      0x00000000        0x0
 .data          0x00000000        0x0 obj-tmp\Telnet.o

.mdebug.abi32%z342
                0x00000000        0x0
 .mdebug.abi32  0x00000000        0x0 obj-tmp\TCPPerformanceTest.o

.bss%z343       0x00000000        0x0
 .bss           0x00000000        0x0 obj-tmp\TCPPerformanceTest.o

.data%z344      0x00000000        0x0
 .data          0x00000000        0x0 obj-tmp\TCPPerformanceTest.o

.mdebug.abi32%z345
                0x00000000        0x0
 .mdebug.abi32  0x00000000        0x0 obj-tmp\TCP.o

.data%z346      0x00000000        0x0
 .data          0x00000000        0x0 obj-tmp\TCP.o

.mdebug.abi32%z347
                0x00000000        0x0
 .mdebug.abi32  0x00000000        0x0 obj-tmp\StackTsk.o

.bss%z348       0x00000000        0x0
 .bss           0x00000000        0x0 obj-tmp\StackTsk.o

.data%z349      0x00000000        0x0
 .data          0x00000000        0x0 obj-tmp\StackTsk.o

.mdebug.abi32%z350
                0x00000000        0x0
 .mdebug.abi32  0x00000000        0x0 obj-tmp\SSL.o

.bss%z351       0x00000000        0x0
 .bss           0x00000000        0x0 obj-tmp\SSL.o

.data%z352      0x00000000        0x0
 .data          0x00000000        0x0 obj-tmp\SSL.o

.mdebug.abi32%z353
                0x00000000        0x0
 .mdebug.abi32  0x00000000        0x0 obj-tmp\SPIRAM.o

.bss%z354       0x00000000        0x0
 .bss           0x00000000        0x0 obj-tmp\SPIRAM.o

.data%z355      0x00000000        0x0
 .data          0x00000000        0x0 obj-tmp\SPIRAM.o

.mdebug.abi32%z356
                0x00000000        0x0
 .mdebug.abi32  0x00000000        0x0 obj-tmp\SPIFlash.o

.bss%z357       0x00000000        0x0
 .bss           0x00000000        0x0 obj-tmp\SPIFlash.o

.data%z358      0x00000000        0x0
 .data          0x00000000        0x0 obj-tmp\SPIFlash.o

.mdebug.abi32%z359
                0x00000000        0x0
 .mdebug.abi32  0x00000000        0x0 obj-tmp\SPIEEPROM.o

.bss%z360       0x00000000        0x0
 .bss           0x00000000        0x0 obj-tmp\SPIEEPROM.o

.data%z361      0x00000000        0x0
 .data          0x00000000        0x0 obj-tmp\SPIEEPROM.o

.mdebug.abi32%z362
                0x00000000        0x0
 .mdebug.abi32  0x00000000        0x0 obj-tmp\SNTP.o

.bss%z363       0x00000000        0x0
 .bss           0x00000000        0x0 obj-tmp\SNTP.o

.data%z364      0x00000000        0x0
 .data          0x00000000        0x0 obj-tmp\SNTP.o

.mdebug.abi32%z365
                0x00000000        0x0
 .mdebug.abi32  0x00000000        0x0 obj-tmp\SNMPv3USM.o

.bss%z366       0x00000000        0x0
 .bss           0x00000000        0x0 obj-tmp\SNMPv3USM.o

.data%z367      0x00000000        0x0
 .data          0x00000000        0x0 obj-tmp\SNMPv3USM.o

.mdebug.abi32%z368
                0x00000000        0x0
 .mdebug.abi32  0x00000000        0x0 obj-tmp\SNMPv3.o

.bss%z369       0x00000000        0x0
 .bss           0x00000000        0x0 obj-tmp\SNMPv3.o

.data%z370      0x00000000        0x0
 .data          0x00000000        0x0 obj-tmp\SNMPv3.o

.mdebug.abi32%z371
                0x00000000        0x0
 .mdebug.abi32  0x00000000        0x0 obj-tmp\SNMP.o

.bss%z372       0x00000000        0x0
 .bss           0x00000000        0x0 obj-tmp\SNMP.o

.data%z373      0x00000000        0x0
 .data          0x00000000        0x0 obj-tmp\SNMP.o

.mdebug.abi32%z374
                0x00000000        0x0
 .mdebug.abi32  0x00000000        0x0 obj-tmp\SMTP.o

.bss%z375       0x00000000        0x0
 .bss           0x00000000        0x0 obj-tmp\SMTP.o

.data%z376      0x00000000        0x0
 .data          0x00000000        0x0 obj-tmp\SMTP.o

.mdebug.abi32%z377
                0x00000000        0x0
 .mdebug.abi32  0x00000000        0x0 obj-tmp\RSA.o

.bss%z378       0x00000000        0x0
 .bss           0x00000000        0x0 obj-tmp\RSA.o

.data%z379      0x00000000        0x0
 .data          0x00000000        0x0 obj-tmp\RSA.o

.mdebug.abi32%z380
                0x00000000        0x0
 .mdebug.abi32  0x00000000        0x0 obj-tmp\Reboot.o

.bss%z381       0x00000000        0x0
 .bss           0x00000000        0x0 obj-tmp\Reboot.o

.data%z382      0x00000000        0x0
 .data          0x00000000        0x0 obj-tmp\Reboot.o

.mdebug.abi32%z383
                0x00000000        0x0
 .mdebug.abi32  0x00000000        0x0 obj-tmp\Random.o

.bss%z384       0x00000000        0x0
 .bss           0x00000000        0x0 obj-tmp\Random.o

.data%z385      0x00000000        0x0
 .data          0x00000000        0x0 obj-tmp\Random.o

.mdebug.abi32%z386
                0x00000000        0x0
 .mdebug.abi32  0x00000000        0x0 obj-tmp\NBNS.o

.bss%z387       0x00000000        0x0
 .bss           0x00000000        0x0 obj-tmp\NBNS.o

.data%z388      0x00000000        0x0
 .data          0x00000000        0x0 obj-tmp\NBNS.o

.mdebug.abi32%z389
                0x00000000        0x0
 .mdebug.abi32  0x00000000        0x0 obj-tmp\MPFS2.o

.data%z390      0x00000000        0x0
 .data          0x00000000        0x0 obj-tmp\MPFS2.o

.mdebug.abi32%z391
                0x00000000        0x0
 .mdebug.abi32  0x00000000        0x0 obj-tmp\LCDBlocking.o

.bss%z392       0x00000000        0x0
 .bss           0x00000000        0x0 obj-tmp\LCDBlocking.o

.data%z393      0x00000000        0x0
 .data          0x00000000        0x0 obj-tmp\LCDBlocking.o

.mdebug.abi32%z394
                0x00000000        0x0
 .mdebug.abi32  0x00000000        0x0 obj-tmp\IP.o

.bss%z395       0x00000000        0x0
 .bss           0x00000000        0x0 obj-tmp\IP.o

.data%z396      0x00000000        0x0
 .data          0x00000000        0x0 obj-tmp\IP.o

.mdebug.abi32%z397
                0x00000000        0x0
 .mdebug.abi32  0x00000000        0x0 obj-tmp\ICMP.o

.bss%z398       0x00000000        0x0
 .bss           0x00000000        0x0 obj-tmp\ICMP.o

.data%z399      0x00000000        0x0
 .data          0x00000000        0x0 obj-tmp\ICMP.o

.mdebug.abi32%z400
                0x00000000        0x0
 .mdebug.abi32  0x00000000        0x0 obj-tmp\HTTP2.o

.bss%z401       0x00000000        0x0
 .bss           0x00000000        0x0 obj-tmp\HTTP2.o

.data%z402      0x00000000        0x0
 .data          0x00000000        0x0 obj-tmp\HTTP2.o

.mdebug.abi32%z403
                0x00000000        0x0
 .mdebug.abi32  0x00000000        0x0 obj-tmp\Helpers.o

.bss%z404       0x00000000        0x0
 .bss           0x00000000        0x0 obj-tmp\Helpers.o

.data%z405      0x00000000        0x0
 .data          0x00000000        0x0 obj-tmp\Helpers.o

.mdebug.abi32%z406
                0x00000000        0x0
 .mdebug.abi32  0x00000000        0x0 obj-tmp\Hashes.o

.bss%z407       0x00000000        0x0
 .bss           0x00000000        0x0 obj-tmp\Hashes.o

.data%z408      0x00000000        0x0
 .data          0x00000000        0x0 obj-tmp\Hashes.o

.mdebug.abi32%z409
                0x00000000        0x0
 .mdebug.abi32  0x00000000        0x0 obj-tmp\FTP.o

.bss%z410       0x00000000        0x0
 .bss           0x00000000        0x0 obj-tmp\FTP.o

.data%z411      0x00000000        0x0
 .data          0x00000000        0x0 obj-tmp\FTP.o

.mdebug.abi32%z412
                0x00000000        0x0
 .mdebug.abi32  0x00000000        0x0 obj-tmp\FileSystem.o

.bss%z413       0x00000000        0x0
 .bss           0x00000000        0x0 obj-tmp\FileSystem.o

.data%z414      0x00000000        0x0
 .data          0x00000000        0x0 obj-tmp\FileSystem.o

.mdebug.abi32%z415
                0x00000000        0x0
 .mdebug.abi32  0x00000000        0x0 obj-tmp\DynDNS.o

.bss%z416       0x00000000        0x0
 .bss           0x00000000        0x0 obj-tmp\DynDNS.o

.data%z417      0x00000000        0x0
 .data          0x00000000        0x0 obj-tmp\DynDNS.o

.mdebug.abi32%z418
                0x00000000        0x0
 .mdebug.abi32  0x00000000        0x0 obj-tmp\DNSs.o

.data%z419      0x00000000        0x0
 .data          0x00000000        0x0 obj-tmp\DNSs.o

.mdebug.abi32%z420
                0x00000000        0x0
 .mdebug.abi32  0x00000000        0x0 obj-tmp\DNS.o

.data%z421      0x00000000        0x0
 .data          0x00000000        0x0 obj-tmp\DNS.o

.mdebug.abi32%z422
                0x00000000        0x0
 .mdebug.abi32  0x00000000        0x0 obj-tmp\Delay.o

.bss%z423       0x00000000        0x0
 .bss           0x00000000        0x0 obj-tmp\Delay.o

.data%z424      0x00000000        0x0
 .data          0x00000000        0x0 obj-tmp\Delay.o

.bss%z425       0x00000000        0x0
 .bss           0x00000000        0x0 obj-tmp\BigInt_helper_PIC32.o

.data%z426      0x00000000        0x0
 .data          0x00000000        0x0 obj-tmp\BigInt_helper_PIC32.o

.mdebug.abi32%z427
                0x00000000        0x0
 .mdebug.abi32  0x00000000        0x0 obj-tmp\BigInt.o

.bss%z428       0x00000000        0x0
 .bss           0x00000000        0x0 obj-tmp\BigInt.o

.data%z429      0x00000000        0x0
 .data          0x00000000        0x0 obj-tmp\BigInt.o

.mdebug.abi32%z430
                0x00000000        0x0
 .mdebug.abi32  0x00000000        0x0 obj-tmp\BerkeleyAPI.o

.bss%z431       0x00000000        0x0
 .bss           0x00000000        0x0 obj-tmp\BerkeleyAPI.o

.data%z432      0x00000000        0x0
 .data          0x00000000        0x0 obj-tmp\BerkeleyAPI.o

.mdebug.abi32%z433
                0x00000000        0x0
 .mdebug.abi32  0x00000000        0x0 obj-tmp\AutoIP.o

.bss%z434       0x00000000        0x0
 .bss           0x00000000        0x0 obj-tmp\AutoIP.o

.data%z435      0x00000000        0x0
 .data          0x00000000        0x0 obj-tmp\AutoIP.o

.mdebug.abi32%z436
                0x00000000        0x0
 .mdebug.abi32  0x00000000        0x0 obj-tmp\ARP.o

.data%z437      0x00000000        0x0
 .data          0x00000000        0x0 obj-tmp\ARP.o

.mdebug.abi32%z438
                0x00000000        0x0
 .mdebug.abi32  0x00000000        0x0 obj-tmp\ARCFOUR.o

.bss%z439       0x00000000        0x0
 .bss           0x00000000        0x0 obj-tmp\ARCFOUR.o

.data%z440      0x00000000        0x0
 .data          0x00000000        0x0 obj-tmp\ARCFOUR.o

.mdebug.abi32%z441
                0x00000000        0x0
 .mdebug.abi32  0x00000000        0x0 obj-tmp\Announce.o

.bss%z442       0x00000000        0x0
 .bss           0x00000000        0x0 obj-tmp\Announce.o

.data%z443      0x00000000        0x0
 .data          0x00000000        0x0 obj-tmp\Announce.o

.mdebug.abi32%z444
                0x00000000        0x0
 .mdebug.abi32  0x00000000        0x0 obj-tmp\WifiGDemoMPFSImg.o

.bss%z445       0x00000000        0x0
 .bss           0x00000000        0x0 obj-tmp\WifiGDemoMPFSImg.o

.data%z446      0x00000000        0x0
 .data          0x00000000        0x0 obj-tmp\WifiGDemoMPFSImg.o

.mdebug.abi32%z447
                0x00000000        0x0
 .mdebug.abi32  0x00000000        0x0 obj-tmp\WF_Config.o

.bss%z448       0x00000000        0x0
 .bss           0x00000000        0x0 obj-tmp\WF_Config.o

.data%z449      0x00000000        0x0
 .data          0x00000000        0x0 obj-tmp\WF_Config.o

.mdebug.abi32%z450
                0x00000000        0x0
 .mdebug.abi32  0x00000000        0x0 obj-tmp\CustomHTTPApp.o

.data%z451      0x00000000        0x0
 .data          0x00000000        0x0 obj-tmp\CustomHTTPApp.o

.mdebug.abi32%z452
                0x00000000        0x0
 .mdebug.abi32  0x00000000        0x0 obj-tmp\Main.o

.bss%z453       0x00000000        0x0
 .bss           0x00000000        0x0 obj-tmp\Main.o

.data%z454      0x00000000        0x0
 .data          0x00000000        0x0 obj-tmp\Main.o

.bss%z455       0x00000000        0x0
 .bss           0x00000000        0x0 c:/program files (x86)/microchip/mplabc32/v2.02/bin/../lib/gcc/pic32mx/4.5.1/../../../../pic32mx/lib/crt0.o

.data%z456      0x00000000        0x0
 .data          0x00000000        0x0 c:/program files (x86)/microchip/mplabc32/v2.02/bin/../lib/gcc/pic32mx/4.5.1/../../../../pic32mx/lib/crt0.o

.rodata         0x9d000008     0x7088
 .rodata        0x9d000008     0x7088 obj-tmp\WifiGDemoMPFSImg.o
                0x9d000008                MPFS_Start

.text           0x9d007090     0xe374
 .text          0x9d007090     0x4624 obj-tmp\TCP.o
                0x9d007c6c                TCPInit
                0x9d007ddc                TCPOpen
                0x9d0080e4                TCPWasReset
                0x9d008150                TCPIsConnected
                0x9d008190                TCPDisconnect
                0x9d008398                TCPClose
                0x9d0083e4                TCPGetRemoteInfo
                0x9d008440                TCPFlush
                0x9d0084a0                TCPIsPutReady
                0x9d008558                TCPPut
                0x9d008734                TCPPutArray
                0x9d0089b0                TCPPutString
                0x9d0089f8                TCPGetTxFIFOFull
                0x9d008a60                TCPIsGetReady
                0x9d008ae4                TCPDiscard
                0x9d008b4c                TCPGet
                0x9d008cc4                TCPGetArray
                0x9d008edc                TCPGetRxFIFOFree
                0x9d008f40                TCPPeekArray
                0x9d0090cc                TCPPeek
                0x9d0090f8                TCPFindArrayEx
                0x9d009494                TCPFindEx
                0x9d0094d4                TCPTick
                0x9d009f24                TCPProcess
                0x9d00b364                TCPAdjustFIFOSize
 .text          0x9d00b6b4     0x22a8 obj-tmp\ZeroconfMulticastDNS.o
                0x9d00c7f4                mDNSSDFillResRecords
                0x9d00cb54                mDNSServiceUpdate
                0x9d00cbf8                mDNSServiceDeRegister
                0x9d00cccc                mDNSServiceRegister
                0x9d00ce18                mDNSAnnounce
                0x9d00ce48                mDNSFillHostRecord
                0x9d00ceb0                mDNSHostRegister
                0x9d00cf58                mDNSInitialize
                0x9d00cfe0                mDNSProcessInternal
                0x9d00d740                mDNSProcess
                0x9d00d828                mDNSMulticastFilterRegister
                0x9d00d864                mDNSDumpInfo
 .text          0x9d00d95c     0x1bd0 obj-tmp\HTTP2.o
                0x9d00dc4c                HTTPPrint
                0x9d00de50                HTTPPrint_
                0x9d00de84                HTTPInit
                0x9d00df54                HTTPURLDecode
                0x9d00e06c                HTTPServer
                0x9d00f228                HTTPGetArg
                0x9d00f2c4                HTTPReadPostName
                0x9d00f31c                HTTPReadPostValue
                0x9d00f3d0                HTTPIncFile
 .text          0x9d00f52c     0x1b40 obj-tmp\WF_pbkdf2.o
                0x9d01081c                sha1_vector
                0x9d0109c8                hmac_sha1_vector
                0x9d010b74                sha1_t_prf
                0x9d010ce8                sha1_prf
                0x9d010e30                hmac_sha1
                0x9d010e68                pbkdf2_sha1
                0x9d011050                sha1_transform
 .text          0x9d01106c     0x1a10 C:\Projects\Intwine\Aztec\Power.a(ADE7753.o)
                0x9d01106c                COR_get_gain_full_from_range
                0x9d011140                COR_get_add_offset
                0x9d011174                COR_Read7753
                0x9d0111dc                COR_Write7753
                0x9d0112c4                COR_soft_reset_7753
                0x9d011420                COR_Init7753
                0x9d011e1c                COR_init_7753_reg
                0x9d011f10                COR_init_7753_reg2
                0x9d012078                COR_AP_init_lowcontrol
                0x9d0120c4                COR_AL_dealpower
                0x9d0122e0                COR_mul_div
                0x9d012390                IsFlashAvailable
                0x9d012434                extFlashRead
                0x9d0125d4                halInternalFlashBlockRead
                0x9d0125e0                COR_cali_eeprom
                0x9d0126b4                COR_AP_deal_power
 .text          0x9d012a7c     0x18fc obj-tmp\CustomHTTPApp.o
                0x9d012a7c                HTTPExecuteGet
                0x9d012cc8                HTTPExecutePost
                0x9d0134ec                HTTPPrint_btn
                0x9d013550                HTTPPrint_led
                0x9d0135dc                HTTPPrint_ipaddr
                0x9d013640                HTTPPrint_scan
                0x9d013684                HTTPPrint_fwver
                0x9d0136e8                HTTPPrint_ssid
                0x9d013728                HTTPPrint_bssCount
                0x9d013768                HTTPPrint_valid
                0x9d0137a8                HTTPPrint_name
                0x9d013880                HTTPPrint_privacy
                0x9d013900                HTTPPrint_curPrivacy
                0x9d013b60                HTTPPrint_wlan
                0x9d013db8                HTTPPrint_strength
                0x9d013e5c                HTTPPrint_nextSSID
                0x9d013e94                HTTPPrint_prevSSID
                0x9d013ecc                HTTPPrint_prevWLAN
                0x9d013fd8                HTTPPrint_nextWLAN
                0x9d0140b0                HTTPPrint_Demoversion
                0x9d014100                HTTPPrint_aplist
 .text          0x9d014378     0x108c obj-tmp\DHCP.o
                0x9d014bb4                DHCPInit
                0x9d014c3c                DHCPDisable
                0x9d014c80                DHCPEnable
                0x9d014cb8                DHCPIsEnabled
                0x9d014cc8                DHCPIsBound
                0x9d014cd8                DHCPStateChanged
                0x9d014d0c                DHCPIsServerDetected
                0x9d014d1c                DHCPTempIPAddr
                0x9d014d38                DHCPTask

.rodata         0x9d015404      0xef4
 .rodata        0x9d015404      0xef4 obj-tmp\WFDebugStrings.o

.text           0x9d0162f8     0x33a0
 .text          0x9d0162f8      0xd74 obj-tmp\DHCPs.o
                0x9d0164bc                DHCPServerTask
                0x9d01701c                DHCPServer_Disable
                0x9d017054                DHCPServer_Enable
 .text          0x9d01706c      0xd04 obj-tmp\WFMac_24G.o
                0x9d0171ac                GetReadPtrRawWindow
                0x9d0171b4                RetrieveBinaryKey
                0x9d01721c                WFGetTCBSize
                0x9d017224                MACInit
                0x9d017248                RawInit
                0x9d0172a4                MACIsLinked
                0x9d0172c0                MACProcess
                0x9d017400                MACIsTxReady
                0x9d01742c                RawGetMgmtRxBuffer
                0x9d017458                MACDiscardRx
                0x9d017484                MACGetFreeRxSize
                0x9d0174b0                MACGetHeader
                0x9d017634                MACFlush
                0x9d017674                MACSetReadPtrInRx
                0x9d017698                MACSetWritePtr
                0x9d0176c8                MACSetReadPtr
                0x9d0176f8                MACMemCopyAsync
                0x9d017a38                MACIsMemCopyDone
                0x9d017a40                MACGet
                0x9d017a78                MACGetArray
                0x9d017b08                MACPut
                0x9d017b40                MACPutArray
                0x9d017b84                MACPutGeneralHeader
                0x9d017c1c                MACPutHeader
                0x9d017cbc                MACPowerDown
                0x9d017cc4                MACPowerUp
                0x9d017ccc                CalcIPBufferChecksum
                0x9d017d18                MACCalcRxChecksum
 .text          0x9d017d70      0xcbc obj-tmp\MPFS2.o
                0x9d017d70                MPFSClose
                0x9d017dac                MPFSGet
                0x9d017e8c                MPFSGetArray
                0x9d01801c                MPFSOpenID
                0x9d0180fc                MPFSOpen
                0x9d01832c                MPFSInit
                0x9d0183d0                MPFSGetLong
                0x9d0183f8                MPFSGetTimestamp
                0x9d01846c                MPFSGetMicrotime
                0x9d0184e0                MPFSGetFlags
                0x9d018554                MPFSGetSize
                0x9d0185c8                MPFSGetBytesRem
                0x9d018624                MPFSGetStartAddr
                0x9d018698                MPFSGetEndAddr
                0x9d018718                MPFSSeek
                0x9d018908                MPFSGetFilename
                0x9d0189c4                MPFSGetPosition
                0x9d018a08                MPFSGetID
 .text          0x9d018a2c      0xc6c obj-tmp\SPIFlash.o
                0x9d018b38                SPIFlashInit
                0x9d018dc0                SPIFlashReadArray
                0x9d018f8c                SPIFlashBeginWrite
                0x9d018f94                SPIFlashEraseSector
                0x9d019130                SPIFlashWrite
                0x9d019330                SPIFlashWriteArray

.dinit          0x9d019698      0xb80
 .dinit         0x9d019698      0xb80 data_init

.text._vfprintf_cdnopsuxX
                0x9d01a218      0xae4
 .text._vfprintf_cdnopsuxX
                0x9d01a218      0xae4 c:/program files (x86)/microchip/mplabc32/v2.02/bin/../lib/gcc/pic32mx/4.5.1/../../../../pic32mx/lib\libc.a(doprnt_cdnopsuxX.eo)
                0x9d01a218                _vfprintf_s
                0x9d01a218                _vfprintf_0
                0x9d01a218                _vfprintf_cdnopuxX
                0x9d01a218                _vfprintf_cdnopsuxX

.text           0x9d01acfc     0x449c
 .text          0x9d01acfc      0xa74 obj-tmp\Main.o
                0x9d01acfc                _mon_putc
                0x9d01ad34                _general_exception_handler
                0x9d01ad44                DisplayIPValue
                0x9d01ad7c                SaveAppConfig
                0x9d01add8                RestoreWifiConfig
                0x9d01ae14                main
 .text          0x9d01b770      0xa54 obj-tmp\ZeroconfLinkLocal.o
                0x9d01b788                zcll_rand
                0x9d01b7a4                ARPAction
                0x9d01b7c0                FindARPPktType
                0x9d01b804                ZeroconfARPPktNotify
                0x9d01b934                ZeroconfLLInitialize
                0x9d01b97c                ZeroconfLLProcess
 .text          0x9d01c1c4      0x9e8 obj-tmp\WFDriverCom_24G.o
                0x9d01c1c4                WiFiTask
                0x9d01c2c8                SignalDHCPSuccessful
                0x9d01c2d8                SetDhcpProgressState
                0x9d01c310                SignalWiFiConnectionChanged
                0x9d01c320                Read8BitWFRegister
                0x9d01c360                Write8BitWFRegister
                0x9d01c40c                Read16BitWFRegister
                0x9d01c45c                Write16BitWFRegister
                0x9d01c644                WFProcess
                0x9d01c7d4                WriteWFArray
                0x9d01c838                ReadWFArray
                0x9d01c8ac                WFEintHandler
                0x9d01c988                ReenablePowerSaveMode
                0x9d01c994                WFHardwareInit
 .text          0x9d01cbac      0x9d8 obj-tmp\DNS.o
                0x9d01cd3c                DNSBeginUsage
                0x9d01cd68                DNSEndUsage
                0x9d01cdb4                DNSResolve
                0x9d01ce28                DNSIsResolved
 .text          0x9d01d584      0x9a4 obj-tmp\UDP.o
                0x9d01d584                UDPOpenEx
                0x9d01d6ec                UDPTask
                0x9d01d8cc                UDPIsOpened
                0x9d01d8f8                UDPClose
                0x9d01d934                UDPInit
                0x9d01d980                UDPSetTxBuffer
                0x9d01d9ac                UDPSetRxBuffer
                0x9d01d9dc                UDPIsPutReady
                0x9d01da3c                UDPPut
                0x9d01da90                UDPPutArray
                0x9d01daf8                UDPPutString
                0x9d01db2c                UDPFlush
                0x9d01dbd8                UDPIsGetReady
                0x9d01dc34                UDPGet
                0x9d01dc94                UDPGetArray
                0x9d01dcfc                UDPDiscard
                0x9d01dd48                UDPProcess
 .text          0x9d01df28      0x990 obj-tmp\WFConnectionAlgorithm.o
                0x9d01e010                WF_CASetElementsN
                0x9d01e084                WF_CAGetElements
                0x9d01e108                WF_CASetScanType
                0x9d01e130                WF_CAGetScanType
                0x9d01e158                WF_CASetMinChannelTime
                0x9d01e190                WF_CAGetMinChannelTime
                0x9d01e1d8                WF_CASetMaxChannelTime
                0x9d01e210                WF_CAGetMaxChannelTime
                0x9d01e258                WF_CASetProbeDelay
                0x9d01e290                WF_CAGetProbeDelay
                0x9d01e2d8                WF_CASetScanCount
                0x9d01e300                WF_CAGetScanCount
                0x9d01e328                WF_CASetRssi
                0x9d01e350                WF_CAGetRssi
                0x9d01e378                WF_CASetConnectionProfileList
                0x9d01e398                WF_CAGetConnectionProfileList
                0x9d01e3b8                WF_CASetListRetryCount
                0x9d01e3e0                WF_CAGetListRetryCount
                0x9d01e408                WF_CASetEventNotificationAction
                0x9d01e424                WF_CASetBeaconTimeoutAction
                0x9d01e44c                WF_CAGetBeaconTimeoutAction
                0x9d01e474                WF_CASetDeauthAction
                0x9d01e49c                WF_CAGetDeauthAction
                0x9d01e4c4                WF_CASetChannelList
                0x9d01e4ec                WF_CAGetChannelList
                0x9d01e560                WF_CASetListenInterval
                0x9d01e598                WF_CASetDtimInterval
                0x9d01e5d0                WF_CAGetListenInterval
                0x9d01e618                WF_CASetBeaconPeriod
                0x9d01e650                WF_CAGetBeaconPeriod
                0x9d01e698                WF_CAGetDtimInterval
                0x9d01e6e0                WF_CASetBeaconTimeout
                0x9d01e708                WF_CAGetBeaconTimeout
                0x9d01e730                GetEventNotificationMask
                0x9d01e738                WF_CAGetEventNotificationAction
                0x9d01e760                WF_CASetElements
                0x9d01e88c                WF_DisableModuleConnectionManager
 .text          0x9d01e8b8      0x8e0 obj-tmp\Helpers.o
                0x9d01e8b8                LFSRRand
                0x9d01e8f8                LFSRSeedRand
                0x9d01e944                GenerateRandomDWORD
                0x9d01eb30                StringToIPAddress
                0x9d01ed18                uitoa
                0x9d01eda0                hexatob
                0x9d01ee10                btohexa_high
                0x9d01ee2c                btohexa_low
                0x9d01ee48                stricmppgm2ram
                0x9d01eeec                swaps
                0x9d01ef00                swapl
                0x9d01ef40                CalcIPChecksum
                0x9d01efbc                strupr
                0x9d01f004                FormatNetBIOSName
                0x9d01f08c                strnchr
                0x9d01f0c4                strncpy_m

.rodata         0x9d01f198      0x7d4
 .rodata        0x9d01f198      0x7d4 c:/program files (x86)/microchip/mplabc32/v2.02/bin/../lib/gcc/pic32mx/4.5.1/../../../../pic32mx/lib\libmchp_peripheral_32MX575F256L.a(int_tbl_lib.o)
                0x9d01f198                __IntSrcTbl
                0x9d01f6b4                __IntVectorTbl

.text._vfscanf_cdnopuxX
                0x9d01f96c      0x778
 .text._vfscanf_cdnopuxX
                0x9d01f96c      0x778 c:/program files (x86)/microchip/mplabc32/v2.02/bin/../lib/gcc/pic32mx/4.5.1/../../../../pic32mx/lib\libc.a(doscan_cdnopuxX.eo)
                0x9d01f96c                _vfscanf_cdnopuxX

.text           0x9d0200e4     0x30a4
 .text          0x9d0200e4      0x774 obj-tmp\WFDebugStrings.o
                0x9d0200e4                WF_OutputConnectionContext
                0x9d0201cc                WF_OutputConnectionDebugMsg
                0x9d020578                WF_OutputConnectionInfo
                0x9d02074c                ValidateConfig
                0x9d020754                WF_AssertionFailed
                0x9d0207e8                WF_DisplayModuleAssertInfo
 .text          0x9d020858      0x758 obj-tmp\WFDriverRaw_24G.o
                0x9d0209ec                RawCalculateChecksum
                0x9d020a24                AllocateMgmtTxBuffer
                0x9d020a74                DeallocateMgmtRxBuffer
                0x9d020a9c                AllocateDataTxBuffer
                0x9d020b20                SendRAWManagementFrame
                0x9d020b48                DeallocateDataRxBuffer
                0x9d020b90                RawMountRxBuffer
                0x9d020bf0                RawToRawCopy
                0x9d020c58                PushRawWindow
                0x9d020c80                PopRawWindow
                0x9d020ca8                ScratchMount
                0x9d020cf0                ScratchUnmount
                0x9d020d18                RawSetIndex
                0x9d020de4                RawGetIndex
                0x9d020e10                RawGetByte
                0x9d020e60                RawRead
                0x9d020eb4                RawSetByte
                0x9d020f04                RawWrite
                0x9d020f58                SendRAWDataFrame
 .text          0x9d020fb0      0x71c obj-tmp\WFParamMsg_24G.o
                0x9d020fb0                WF_MulticastGetConfig
                0x9d021068                SendSetParamMsg
                0x9d0210b8                WF_EnableSWMultiCastFilter
                0x9d0210e4                WF_SetMultiCastFilter
                0x9d0211a8                WF_SetPSK
                0x9d0211cc                WF_YieldPassphrase2Host
                0x9d0211f8                WF_SetRtsThreshold
                0x9d021250                WF_SetRegionalDomain
                0x9d021278                WF_SetTxDataConfirm
                0x9d0212a0                WF_MulticastSetConfig
                0x9d0213b0                WF_SetMacAddress
                0x9d0213d4                WFEnableBroadcastProbeResponse
                0x9d021400                WF_SetTxMode
                0x9d021428                WF_SetLinkDownThreshold
                0x9d021450                WFEnableDebugPrint
                0x9d021478                WFEnableMRF24WB0MMode
                0x9d0214a4                SendGetParamMsg
                0x9d021510                WF_GetMacStats
                0x9d021580                WF_GetRtsThreshold
                0x9d0215c4                WF_GetRegionalDomain
                0x9d0215e8                WF_GetTxDataConfirm
                0x9d02160c                WF_GetMacAddress
                0x9d021630                WF_GetDeviceInfo
                0x9d0216a8                WF_GetTxMode
 .text          0x9d0216cc      0x70c obj-tmp\WFConnectionProfile.o
                0x9d0217a4                WF_CPCreate
                0x9d021804                WF_CPDelete
                0x9d02184c                WF_CPGetIds
                0x9d0218a4                WF_CPSetElements
                0x9d0218fc                WF_CPGetElements
                0x9d02192c                WF_CPSetSsidType
                0x9d021958                WF_CPGetSsidType
                0x9d021988                WF_CPSetSsid
                0x9d0219e8                WF_CPGetSsid
                0x9d021a60                WF_CPSetBssid
                0x9d021a88                WF_CPGetBssid
                0x9d021ab8                WF_CPSetNetworkType
                0x9d021ae4                WF_CPGetNetworkType
                0x9d021b14                WF_CPSetWepKeyType
                0x9d021b40                WF_CPGetWepKeyType
                0x9d021b70                WF_CPGetWPSCredentials
                0x9d021ba0                WF_CPUpdatePMK
                0x9d021bc8                WF_CPSetSecurity
                0x9d021c58                WF_CPGetSecurity
                0x9d021d20                WF_CPSetDefaultWepKeyIndex
                0x9d021d4c                WF_CPGetDefaultWepKeyIndex
                0x9d021d7c                WF_CPSetAdHocBehavior
                0x9d021da8                WF_CPGetAdHocBehavior
 .text          0x9d021dd8      0x6d0 obj-tmp\WFEasyConfig.o
                0x9d021dd8                WFEasyConfigInit
                0x9d021e14                WFEasyConfigMgr
                0x9d0221a4                WFInitScan
                0x9d0221b4                WFStartScan
                0x9d022204                WFRetrieveScanResult
                0x9d022258                WFScanEventHandler
                0x9d022274                WFDisplayScanMgr
 .text          0x9d0224a8      0x69c obj-tmp\ADE7753.o
                0x9d0224a8                PwrChipCmd
                0x9d022504                ReadCurrentAndVoltage
                0x9d022598                ReadStatusRegister
                0x9d0225c0                StoreMeterCalConstants
                0x9d02261c                cal_data_byte_swap
                0x9d022638                ReadMeterCalConstants
                0x9d022a1c                StoreCalDataFromString
                0x9d022ae8                initMeterChip
 .text          0x9d022b44      0x644 obj-tmp\ARP.o
                0x9d022b44                ARPRegisterCallbacks
                0x9d022ba4                ARPDeRegisterCallbacks
                0x9d022be0                ARPProcessRxPkt
                0x9d022cb8                ARPInit
                0x9d022ce8                ARPIsResolved
                0x9d022d6c                SwapARPPacket
                0x9d022e60                ARPResolve
                0x9d022f5c                ARPSendPkt
                0x9d022ff8                ARPProcess

.rodata         0x9d023188      0x520
 .rodata        0x9d023188      0x520 obj-tmp\HTTP2.o

.text           0x9d0236a8     0x1a80
 .text          0x9d0236a8      0x4c4 obj-tmp\i2c_master.o
                0x9d0236a8                I2CSendByteJK
                0x9d023718                InitI2C
                0x9d0237a8                StartTransfer
                0x9d023830                TransmitOneByte
                0x9d0238c4                StopTransfer
                0x9d0238f8                WriteI2CByte
                0x9d0239c4                ReadI2C
 .text          0x9d023b6c      0x490 obj-tmp\WF_Config.o
                0x9d023b6c                WF_Connect
                0x9d023e3c                WF_ProcessEvent
 .text          0x9d023ffc      0x46c c:/program files (x86)/microchip/mplabc32/v2.02/bin/../lib/gcc/pic32mx/4.5.1\libgcc.a(_umoddi3.o)
                0x9d023ffc                __umoddi3
 .text          0x9d024468      0x44c obj-tmp\INTiMain.o
                0x9d024468                INTiRegisterUART5RxCallbackFunction
                0x9d024470                INTiRegisterUART2RxCallbackFunction
                0x9d024478                INTiRegisterSPI3CallbackFunction
                0x9d024480                UART5InterruptServiceRoutine
                0x9d0245a0                UART2InterruptServiceRoutine
                0x9d0246c0                SPI3InterruptServiceRoutine
                0x9d02483c                SPI3DisableInterrupts
                0x9d024868                SPI3EnableInterrupts
 .text          0x9d0248b4      0x448 c:/program files (x86)/microchip/mplabc32/v2.02/bin/../lib/gcc/pic32mx/4.5.1\libgcc.a(_udivdi3.o)
                0x9d0248b4                __udivdi3
 .text          0x9d024cfc      0x42c obj-tmp\icoPowerMeasurement.o
                0x9d024cfc                StoreCumulativeEnergy
                0x9d024d50                RestoreCumulativeEnergy
                0x9d024dcc                PowerMeasurementInit
                0x9d024df4                PowerMeasurementTask
                0x9d02510c                ResetCumulativeEnergy

.rodata         0x9d025128      0x400
 .rodata        0x9d025128      0x400 obj-tmp\ADE7753.o
                0x9d0253d8                PwrChip

.text           0x9d025528      0x3f4
 .text          0x9d025528      0x3f4 obj-tmp\NBNS.o
                0x9d025528                NBNSTask

.rodata         0x9d02591c      0x3b8
 .rodata        0x9d02591c      0x3b8 obj-tmp\CustomHTTPApp.o
                0x9d025ccc                HTML_UP_ARROW
                0x9d025cd0                HTML_DOWN_ARROW

.text           0x9d025cd4     0x2240
 .text          0x9d025cd4      0x394 obj-tmp\DNSs.o
                0x9d025cd4                DNSServerTask
 .text          0x9d026068      0x390 obj-tmp\spi.o
                0x9d026068                spiConfigurePins
                0x9d026088                spiInit
                0x9d0260f0                spiEnable
                0x9d026138                spiSendRecvChar
                0x9d026288                ReadMeterChip
                0x9d026340                WriteMeterChip
 .text          0x9d0263f8      0x380 obj-tmp\StackTsk.o
                0x9d0263f8                StackInit
                0x9d0264ac                StackTask
                0x9d026714                StackApplications
                0x9d026758                RenewDhcp
 .text          0x9d026778      0x33c obj-tmp\WFMgmtMsg_24G.o
                0x9d026778                SendMgmtMsg
                0x9d026854                SignalMgmtConfirmReceivedEvent
                0x9d026864                WaitForMgmtResponse
                0x9d0269c8                WaitForMgmtResponseAndReadData
                0x9d026a80                WFSetFuncState
 .text          0x9d026ab4      0x320 obj-tmp\WFEventHandler.o
                0x9d026ac0                WFProcessMgmtIndicateMsg
 .text          0x9d026dd4      0x2c8 obj-tmp\Announce.o
                0x9d026dd4                AnnounceIP
                0x9d026ee4                DiscoveryTask
 .text          0x9d02709c      0x2bc obj-tmp\WFConnectionManager.o
                0x9d02709c                WF_CMConnect
                0x9d0270e8                WFisConnected
                0x9d0270f0                SetLogicalConnectionState
                0x9d0270f8                WF_CMGetConnectionState
                0x9d02719c                WF_CMCheckConnectionState
                0x9d027210                WF_CMDisconnect
                0x9d027284                WF_CMGetConnectContext
                0x9d0272a8                WF_ConvPassphrase2Key
 .text          0x9d027358      0x288 obj-tmp\IP.o
                0x9d02739c                IPGetHeader
                0x9d0274f4                IPPutHeader
                0x9d0275bc                IPSetRxBuffer
 .text          0x9d0275e0      0x27c obj-tmp\TimeMonitor.o
                0x9d0275e0                TimeMonitorInit
                0x9d027618                TimeMonitorEnable
                0x9d027628                TimeMonitorDisable
                0x9d027634                TimeMonitorCancelI
                0x9d027680                TimeMonitorUpdate
                0x9d027788                TimeMonitorChangeTimeI
                0x9d0277e4                TimeMonitorRegisterI
 .text          0x9d02785c      0x248 obj-tmp\Tick.o
                0x9d0278dc                TickInit
                0x9d027944                TickGet
                0x9d027984                TickGetDiv256
                0x9d0279c4                TickGetDiv64K
                0x9d027a04                TickConvertToMilliseconds
                0x9d027a34                _T1Interrupt
 .text          0x9d027aa4      0x248 obj-tmp\WFPowerSave.o
                0x9d027ae8                WFConfigureLowPowerMode
                0x9d027b50                isSleepNeeded
                0x9d027b58                ClearSleepNeeded
                0x9d027b60                SetSleepNeeded
                0x9d027b6c                SetAppPowerSaveMode
                0x9d027b74                GetAppPowerSaveMode
                0x9d027b7c                WF_GetPowerSaveState
                0x9d027b88                WFisPsPollEnabled
                0x9d027b9c                WFIsPsPollActive
                0x9d027ba4                EnsureWFisAwake
                0x9d027bf0                WF_HibernateEnable
                0x9d027c1c                SetPowerSaveState
                0x9d027c24                WF_PsPollDisable
                0x9d027c68                WF_PsPollEnable
 .text          0x9d027cec      0x228 obj-tmp\WF_Eint.o
                0x9d027cec                WF_EintIsDisabled
                0x9d027d00                WF_EintIsPending
                0x9d027d2c                _WFInterrupt
                0x9d027e60                WF_EintEnable
                0x9d027e90                WF_EintDisable
                0x9d027ea4                WF_EintInit

.rodata         0x9d027f14      0x1bc
 .rodata        0x9d027f14      0x1bc obj-tmp\WFConsoleMsgs.o
                0x9d027f14                helpCmd
                0x9d027f1c                helpHelp
                0x9d027f30                getwfverCmd
                0x9d027f3c                getwfverHelp
                0x9d027f58                resetCmd
                0x9d027f60                resetHelp
                0x9d027f70                clsCmd
                0x9d027f74                clsHelp
                0x9d027f84                wpsPinCmd
                0x9d027f8c                wpsPinHelp
                0x9d027fe0                wpsPushButtonCmd
                0x9d027fe8                wpsPushButtonHelp
                0x9d02801c                wpsCredCmd
                0x9d028024                wpsCredHelp
                0x9d02803c                seeDocHelp
                0x9d028050                pingCmd
                0x9d028058                pingHelp
                0x9d02806c                g_consoleCmd
                0x9d0280cc                g_numCmds

.text           0x9d0280d0      0x348
 .text          0x9d0280d0      0x1a8 obj-tmp\WF_Spi.o
                0x9d0280d0                WF_SpiInit
                0x9d02812c                WF_SpiEnableChipSelect
                0x9d028144                WF_SpiDisableChipSelect
                0x9d02816c                WFSpiTxRx
 .text          0x9d028278      0x1a0 c:/program files (x86)/microchip/mplabc32/v2.02/bin/../lib/gcc/pic32mx/4.5.1/../../../../pic32mx/lib\libc.a(strcpy.o)
                0x9d028278                strcpy

.text.SpiChnChangeMode
                0x9d028418      0x18c
 .text.SpiChnChangeMode
                0x9d028418      0x18c c:/program files (x86)/microchip/mplabc32/v2.02/bin/../lib/gcc/pic32mx/4.5.1/../../../../pic32mx/lib\libmchp_peripheral_32MX575F256L.a(spi_chn_change_mode_lib.o)
                0x9d028418                SpiChnChangeMode

.text           0x9d0285a4      0x2d0
 .text          0x9d0285a4      0x168 c:/program files (x86)/microchip/mplabc32/v2.02/bin/../lib/gcc/pic32mx/4.5.1/../../../../pic32mx/lib\libc.a(memcpy.o)
                0x9d0285a4                memcpy
 .text          0x9d02870c      0x168 c:/program files (x86)/microchip/mplabc32/v2.02/bin/../lib/gcc/pic32mx/4.5.1/../../../../pic32mx/lib\libc.a(strlen.o)
                0x9d02870c                strlen

.text._filbuf   0x9d028874      0x168
 .text._filbuf  0x9d028874      0x168 c:/program files (x86)/microchip/mplabc32/v2.02/bin/../lib/gcc/pic32mx/4.5.1/../../../../pic32mx/lib\libc.a(filbuf.o)
                0x9d028874                _filbuf

.text           0x9d0289dc      0x530
 .text          0x9d0289dc      0x158 obj-tmp\icoUserButton.o
                0x9d0289dc                UserButtonTask
                0x9d028b1c                UserButtonInit
 .text          0x9d028b34      0x150 obj-tmp\DeviceState.o
                0x9d028b34                DeviceStateSet
                0x9d028b9c                DeviceStateDataClear
                0x9d028c04                DeviceStateGet
 .text          0x9d028c84      0x148 obj-tmp\Power.o
                0x9d028c84                PowerAPI_Initialize
                0x9d028ca8                PowerAPI_Sample
                0x9d028cf0                PowerAPI_Read
                0x9d028d44                PowerAPI_SetupCalibrationData
                0x9d028d6c                PowerAPI_TestApp
 .text          0x9d028dcc      0x140 obj-tmp\WFConsoleMsgs.o
                0x9d028dcc                HexToBin
                0x9d028e14                ConvertASCIIHexToBinary

.text.fputc     0x9d028f0c      0x140
 .text.fputc    0x9d028f0c      0x140 c:/program files (x86)/microchip/mplabc32/v2.02/bin/../lib/gcc/pic32mx/4.5.1/../../../../pic32mx/lib\libc.a(_fputc_simple.o)
                0x9d028f0c                fputc

.text.read      0x9d02904c      0x140
 .text.read     0x9d02904c      0x140 c:/program files (x86)/microchip/mplabc32/v2.02/bin/../lib/gcc/pic32mx/4.5.1/../../../../pic32mx/lib\libc.a(read.o)
                0x9d02904c                read

.text._flsbuf   0x9d02918c      0x12c
 .text._flsbuf  0x9d02918c      0x12c c:/program files (x86)/microchip/mplabc32/v2.02/bin/../lib/gcc/pic32mx/4.5.1/../../../../pic32mx/lib\libc.a(_flsbuf_simple.o)
                0x9d02918c                _flsbuf

.text           0x9d0292b8      0x230
 .text          0x9d0292b8      0x120 c:/program files (x86)/microchip/mplabc32/v2.02/bin/../lib/gcc/pic32mx/4.5.1/../../../../pic32mx/lib\libc.a(strcmp.o)
                0x9d0292b8                strcmp
 .text          0x9d0293d8      0x110 obj-tmp\WFScan.o
                0x9d0293d8                WF_Scan
                0x9d02945c                WF_ScanGetResult

.rodata         0x9d0294e8      0x10c
 .rodata        0x9d0294e8      0x10c obj-tmp\WFMgmtMsg_24G.o

.text.fgetc     0x9d0295f4      0x108
 .text.fgetc    0x9d0295f4      0x108 c:/program files (x86)/microchip/mplabc32/v2.02/bin/../lib/gcc/pic32mx/4.5.1/../../../../pic32mx/lib\libc.a(fgetc.o)
                0x9d0295f4                fgetc

.rodata         0x9d0296fc      0x104
 .rodata        0x9d0296fc      0x104 c:/program files (x86)/microchip/mplabc32/v2.02/bin/../lib/gcc/pic32mx/4.5.1/../../../../pic32mx/lib\libc.a(ctype.o)
                0x9d0296fc                _ctype

.text           0x9d029800      0x2dc
 .text          0x9d029800      0x100 obj-tmp\ICMP.o
                0x9d029800                ICMPProcess
 .text          0x9d029900       0xf4 obj-tmp\Device_ICO_ICL.o
                0x9d029900                PlugStripSetRelay
                0x9d029980                PlugStripRestoreState
                0x9d0299ac                PlugStripOneTimeSetup
 .text          0x9d0299f4       0xe8 obj-tmp\Reboot.o
                0x9d0299f4                RebootTask

.rodata         0x9d029adc       0xe8
 .rodata        0x9d029adc       0xe8 obj-tmp\ZeroconfMulticastDNS.o

.text           0x9d029bc4      0x280
 .text          0x9d029bc4       0xe0 obj-tmp\app_ICO_ICL.o
                0x9d029bc4                AppTaskInit
                0x9d029be8                AppTaskLoop
 .text          0x9d029ca4       0xd0 obj-tmp\WFConsoleMsgHandler.o
                0x9d029ca4                convertAsciiToHexInPlace
 .text          0x9d029d74       0xd0 obj-tmp\WFTxPower.o
                0x9d029d74                WF_TxPowerGetMax
                0x9d029dac                WF_TxPowerGetFactoryMax
                0x9d029de4                WF_TxPowerSetMax

.text.general_exception
                0x9d029e44       0xd0
 .text.general_exception
                0x9d029e44       0xd0 c:/program files (x86)/microchip/mplabc32/v2.02/bin/../lib/gcc/pic32mx/4.5.1/../../../../pic32mx/lib\libc.a(general-exception.o)
                0x9d029e44                _general_exception_context

.rodata         0x9d029f18      0x198
 .rodata        0x9d029f18       0xd0 c:/program files (x86)/microchip/mplabc32/v2.02/bin/../lib/gcc/pic32mx/4.5.1/../../../../pic32mx/lib\libc.a(doprnt_cdnopsuxX.eo)
 .rodata        0x9d029fe8       0xc8 obj-tmp\i2c_master.o

.text           0x9d02a0b0       0xb4
 .text          0x9d02a0b0       0xb4 obj-tmp\WFInit.o
                0x9d02a0b0                WF_Init

.rodata         0x9d02a164       0xb0
 .rodata        0x9d02a164       0xb0 obj-tmp\WF_Config.o

.text           0x9d02a214       0xa8
 .text          0x9d02a214       0xa8 c:/program files (x86)/microchip/mplabc32/v2.02/bin/../lib/gcc/pic32mx/4.5.1/../../../../pic32mx/lib\libc.a(memset.o)
                0x9d02a214                memset

.text.atol      0x9d02a2bc       0xa4
 .text.atol     0x9d02a2bc       0xa4 c:/program files (x86)/microchip/mplabc32/v2.02/bin/../lib/gcc/pic32mx/4.5.1/../../../../pic32mx/lib\libc.a(atol.o)
                0x9d02a2bc                atol

.text.atoi      0x9d02a360       0xa4
 .text.atoi     0x9d02a360       0xa4 c:/program files (x86)/microchip/mplabc32/v2.02/bin/../lib/gcc/pic32mx/4.5.1/../../../../pic32mx/lib\libc.a(atoi.o)
                0x9d02a360                atoi

.rodata         0x9d02a404       0xa0
 .rodata        0x9d02a404       0xa0 c:/program files (x86)/microchip/mplabc32/v2.02/bin/../lib/gcc/pic32mx/4.5.1/../../../../pic32mx/lib\libmchp_peripheral_32MX575F256L.a(spi_io_tbl_libp.o)
                0x9d02a404                _SpiIoTbl

.text           0x9d02a4a4      0x130
 .text          0x9d02a4a4       0x98 obj-tmp\Delay.o
                0x9d02a4a4                Delay10us
                0x9d02a4ec                DelayMs
 .text          0x9d02a53c       0x98 obj-tmp\UARTiMain.o
                0x9d02a53c                UARTiConfigure
                0x9d02a5b8                UARTiDisable

.rodata         0x9d02a5d4       0x98
 .rodata        0x9d02a5d4       0x98 obj-tmp\icoPowerMeasurement.o

.text           0x9d02a66c      0x12c
 .text          0x9d02a66c       0x98 c:/program files (x86)/microchip/mplabc32/v2.02/bin/../lib/gcc/pic32mx/4.5.1/../../../../pic32mx/lib\libc.a(memcmp.o)
                0x9d02a66c                memcmp
 .text          0x9d02a704       0x94 obj-tmp\Assert.o
                0x9d02a704                Assert
                0x9d02a778                AssertInt

.text.fflush    0x9d02a798       0x94
 .text.fflush   0x9d02a798       0x94 c:/program files (x86)/microchip/mplabc32/v2.02/bin/../lib/gcc/pic32mx/4.5.1/../../../../pic32mx/lib\libc.a(fflush.o)
                0x9d02a798                fflush

.rodata         0x9d02a82c       0x90
 .rodata        0x9d02a82c       0x90 obj-tmp\Main.o

.text           0x9d02a8bc       0x88
 .text          0x9d02a8bc       0x88 obj-tmp\ZeroconfHelper.o
                0x9d02a8bc                zgzc_wait_for

.text.write     0x9d02a944       0x88
 .text.write    0x9d02a944       0x88 c:/program files (x86)/microchip/mplabc32/v2.02/bin/../lib/gcc/pic32mx/4.5.1/../../../../pic32mx/lib\libc.a(write.o)
                0x9d02a944                write

.text.range     0x9d02a9cc       0x84
 .text.range    0x9d02a9cc       0x84 c:/program files (x86)/microchip/mplabc32/v2.02/bin/../lib/gcc/pic32mx/4.5.1/../../../../pic32mx/lib\libc.a(doscan_cdnopuxX.eo)

.text.UARTEnable
                0x9d02aa50       0x80
 .text.UARTEnable
                0x9d02aa50       0x80 c:/program files (x86)/microchip/mplabc32/v2.02/bin/../lib/gcc/pic32mx/4.5.1/../../../../pic32mx/lib\libmchp_peripheral_32MX575F256L.a(uart_lib.o)
                0x9d02aa50                UARTEnable

.text.ungetc    0x9d02aad0       0x7c
 .text.ungetc   0x9d02aad0       0x7c c:/program files (x86)/microchip/mplabc32/v2.02/bin/../lib/gcc/pic32mx/4.5.1/../../../../pic32mx/lib\libc.a(ungetc.o)
                0x9d02aad0                ungetc

.text.fputs     0x9d02ab4c       0x78
 .text.fputs    0x9d02ab4c       0x78 c:/program files (x86)/microchip/mplabc32/v2.02/bin/../lib/gcc/pic32mx/4.5.1/../../../../pic32mx/lib\libc.a(puts.o)
                0x9d02ab4c                fputs

.text.SoftReset
                0x9d02abc4       0x78
 .text.SoftReset
                0x9d02abc4       0x78 c:/program files (x86)/microchip/mplabc32/v2.02/bin/../lib/gcc/pic32mx/4.5.1/../../../../pic32mx/lib\libmchp_peripheral_32MX575F256L.a(soft_reset_lib.o)
                0x9d02abc4                SoftReset

.text.IdleI2C2  0x9d02ac3c       0x74
 .text.IdleI2C2
                0x9d02ac3c       0x74 c:/program files (x86)/microchip/mplabc32/v2.02/bin/../lib/gcc/pic32mx/4.5.1/../../../../pic32mx/lib\libmchp_peripheral_32MX575F256L.a(idle_i2c2_lib_legacy.o)
                0x9d02ac3c                IdleI2C2

.text           0x9d02acb0       0x68
 .text          0x9d02acb0       0x68 obj-tmp\UART.o
                0x9d02acb0                ReadStringUART

.text._sprintf_cdnopsuxX
                0x9d02ad18       0x68
 .text._sprintf_cdnopsuxX
                0x9d02ad18       0x68 c:/program files (x86)/microchip/mplabc32/v2.02/bin/../lib/gcc/pic32mx/4.5.1/../../../../pic32mx/lib\libc.a(sprintf_cdnopsuxX.eo)
                0x9d02ad18                _sprintf_cdnopuxX
                0x9d02ad18                _sprintf_cdnopsuxX

.text.strncpy   0x9d02ad80       0x64
 .text.strncpy  0x9d02ad80       0x64 c:/program files (x86)/microchip/mplabc32/v2.02/bin/../lib/gcc/pic32mx/4.5.1/../../../../pic32mx/lib\libc.a(strncpy.o)
                0x9d02ad80                strncpy

.text.wspace    0x9d02ade4       0x60
 .text.wspace   0x9d02ade4       0x60 c:/program files (x86)/microchip/mplabc32/v2.02/bin/../lib/gcc/pic32mx/4.5.1/../../../../pic32mx/lib\libc.a(doscan_cdnopuxX.eo)

.text.SpiChnGetC
                0x9d02ae44       0x60
 .text.SpiChnGetC
                0x9d02ae44       0x60 c:/program files (x86)/microchip/mplabc32/v2.02/bin/../lib/gcc/pic32mx/4.5.1/../../../../pic32mx/lib\libmchp_peripheral_32MX575F256L.a(spi_chn_getc_lib.o)
                0x9d02ae44                SpiChnGetC

.text.SpiChnPutC
                0x9d02aea4       0x60
 .text.SpiChnPutC
                0x9d02aea4       0x60 c:/program files (x86)/microchip/mplabc32/v2.02/bin/../lib/gcc/pic32mx/4.5.1/../../../../pic32mx/lib\libmchp_peripheral_32MX575F256L.a(spi_chn_putc_lib.o)
                0x9d02aea4                SpiChnPutC

.text._sscanf_cdnopuxX
                0x9d02af04       0x5c
 .text._sscanf_cdnopuxX
                0x9d02af04       0x5c c:/program files (x86)/microchip/mplabc32/v2.02/bin/../lib/gcc/pic32mx/4.5.1/../../../../pic32mx/lib\libc.a(sscanf_cdnopuxX.eo)
                0x9d02af04                _sscanf_cdnopuxX

.text.UARTSetDataRate
                0x9d02af60       0x5c
 .text.UARTSetDataRate
                0x9d02af60       0x5c c:/program files (x86)/microchip/mplabc32/v2.02/bin/../lib/gcc/pic32mx/4.5.1/../../../../pic32mx/lib\libmchp_peripheral_32MX575F256L.a(uart_lib.o)
                0x9d02af60                UARTSetDataRate

.text.INTEnable
                0x9d02afbc       0x58
 .text.INTEnable
                0x9d02afbc       0x58 c:/program files (x86)/microchip/mplabc32/v2.02/bin/../lib/gcc/pic32mx/4.5.1/../../../../pic32mx/lib\libmchp_peripheral_32MX575F256L.a(int_tbl_lib.o)
                0x9d02afbc                INTEnable

.rodata         0x9d02b014       0xa8
 .rodata        0x9d02b014       0x54 obj-tmp\WFEasyConfig.o
 .rodata        0x9d02b068       0x54 c:/program files (x86)/microchip/mplabc32/v2.02/bin/../lib/gcc/pic32mx/4.5.1/../../../../pic32mx/lib\libmchp_peripheral_32MX575F256L.a(_ports_tbl_libp.o)
                0x9d02b068                PortRegTbl

.text.I2CBusIsIdle
                0x9d02b0bc       0x54
 .text.I2CBusIsIdle
                0x9d02b0bc       0x54 c:/program files (x86)/microchip/mplabc32/v2.02/bin/../lib/gcc/pic32mx/4.5.1/../../../../pic32mx/lib\libmchp_peripheral_32MX575F256L.a(I2CBusIsIdle.o)
                0x9d02b0bc                I2CBusIsIdle

.rodata         0x9d02b110       0x4c
 .rodata        0x9d02b110       0x4c obj-tmp\WFDriverRaw_24G.o
                0x9d02b110                g_RawAccessOutOfBoundsMask

.text.strrchr   0x9d02b15c       0x4c
 .text.strrchr  0x9d02b15c       0x4c c:/program files (x86)/microchip/mplabc32/v2.02/bin/../lib/gcc/pic32mx/4.5.1/../../../../pic32mx/lib\libc.a(strrchr.o)
                0x9d02b15c                strrchr

.text.putsUART1
                0x9d02b1a8       0x4c
 .text.putsUART1
                0x9d02b1a8       0x4c c:/program files (x86)/microchip/mplabc32/v2.02/bin/../lib/gcc/pic32mx/4.5.1/../../../../pic32mx/lib\libmchp_peripheral_32MX575F256L.a(puts_uartx_lib_legacy.o)
                0x9d02b1a8                putsUART1

.text.putsUART2
                0x9d02b1f4       0x4c
 .text.putsUART2
                0x9d02b1f4       0x4c c:/program files (x86)/microchip/mplabc32/v2.02/bin/../lib/gcc/pic32mx/4.5.1/../../../../pic32mx/lib\libmchp_peripheral_32MX575F256L.a(puts_uartx_lib_legacy.o)
                0x9d02b1f4                putsUART2

.text.I2CSetFrequency
                0x9d02b240       0x48
 .text.I2CSetFrequency
                0x9d02b240       0x48 c:/program files (x86)/microchip/mplabc32/v2.02/bin/../lib/gcc/pic32mx/4.5.1/../../../../pic32mx/lib\libmchp_peripheral_32MX575F256L.a(I2CSetFrequency.o)
                0x9d02b240                I2CSetFrequency

.text.puts      0x9d02b288       0x44
 .text.puts     0x9d02b288       0x44 c:/program files (x86)/microchip/mplabc32/v2.02/bin/../lib/gcc/pic32mx/4.5.1/../../../../pic32mx/lib\libc.a(puts.o)
                0x9d02b288                puts

.text.I2CGetStatus
                0x9d02b2cc       0x44
 .text.I2CGetStatus
                0x9d02b2cc       0x44 c:/program files (x86)/microchip/mplabc32/v2.02/bin/../lib/gcc/pic32mx/4.5.1/../../../../pic32mx/lib\libmchp_peripheral_32MX575F256L.a(I2CGetStatus.o)
                0x9d02b2cc                I2CGetStatus

.text._printf_cdnopsuxX
                0x9d02b310       0x40
 .text._printf_cdnopsuxX
                0x9d02b310       0x40 c:/program files (x86)/microchip/mplabc32/v2.02/bin/../lib/gcc/pic32mx/4.5.1/../../../../pic32mx/lib\libc.a(printf_cdnopsuxX.eo)
                0x9d02b310                _printf_cdnopsuxX
                0x9d02b310                _printf_cdnopuxX
                0x9d02b310                _printf_s
                0x9d02b310                _printf_0

.text.PORTSetPinsDigitalIn
                0x9d02b350       0x40
 .text.PORTSetPinsDigitalIn
                0x9d02b350       0x40 c:/program files (x86)/microchip/mplabc32/v2.02/bin/../lib/gcc/pic32mx/4.5.1/../../../../pic32mx/lib\libmchp_peripheral_32MX575F256L.a(port_set_pins_digital_in_lib.o)
                0x9d02b350                PORTSetPinsDigitalIn

.text.PORTSetPinsDigitalOut
                0x9d02b390       0x40
 .text.PORTSetPinsDigitalOut
                0x9d02b390       0x40 c:/program files (x86)/microchip/mplabc32/v2.02/bin/../lib/gcc/pic32mx/4.5.1/../../../../pic32mx/lib\libmchp_peripheral_32MX575F256L.a(port_set_pins_digital_out_lib.o)
                0x9d02b390                PORTSetPinsDigitalOut

.text.UARTGetDataRate
                0x9d02b3d0       0x40
 .text.UARTGetDataRate
                0x9d02b3d0       0x40 c:/program files (x86)/microchip/mplabc32/v2.02/bin/../lib/gcc/pic32mx/4.5.1/../../../../pic32mx/lib\libmchp_peripheral_32MX575F256L.a(uart_lib.o)
                0x9d02b3d0                UARTGetDataRate

.rodata         0x9d02b410       0x3c
 .rodata        0x9d02b410       0x3c obj-tmp\WFMac_24G.o

.text.INTSetVectorPriority
                0x9d02b44c       0x3c
 .text.INTSetVectorPriority
                0x9d02b44c       0x3c c:/program files (x86)/microchip/mplabc32/v2.02/bin/../lib/gcc/pic32mx/4.5.1/../../../../pic32mx/lib\libmchp_peripheral_32MX575F256L.a(int_tbl_lib.o)
                0x9d02b44c                INTSetVectorPriority

.text.INTSetVectorSubPriority
                0x9d02b488       0x3c
 .text.INTSetVectorSubPriority
                0x9d02b488       0x3c c:/program files (x86)/microchip/mplabc32/v2.02/bin/../lib/gcc/pic32mx/4.5.1/../../../../pic32mx/lib\libmchp_peripheral_32MX575F256L.a(int_tbl_lib.o)
                0x9d02b488                INTSetVectorSubPriority

.text._SpiWaitBusy.clone.0
                0x9d02b4c4       0x3c
 .text._SpiWaitBusy.clone.0
                0x9d02b4c4       0x3c c:/program files (x86)/microchip/mplabc32/v2.02/bin/../lib/gcc/pic32mx/4.5.1/../../../../pic32mx/lib\libmchp_peripheral_32MX575F256L.a(spi_chn_change_mode_lib.o)

.text.UARTConfigure
                0x9d02b500       0x3c
 .text.UARTConfigure
                0x9d02b500       0x3c c:/program files (x86)/microchip/mplabc32/v2.02/bin/../lib/gcc/pic32mx/4.5.1/../../../../pic32mx/lib\libmchp_peripheral_32MX575F256L.a(uart_lib.o)
                0x9d02b500                UARTConfigure

.text.UARTSetAddress
                0x9d02b53c       0x3c
 .text.UARTSetAddress
                0x9d02b53c       0x3c c:/program files (x86)/microchip/mplabc32/v2.02/bin/../lib/gcc/pic32mx/4.5.1/../../../../pic32mx/lib\libmchp_peripheral_32MX575F256L.a(uart_lib.o)
                0x9d02b53c                UARTSetAddress

.text.strcat    0x9d02b578       0x38
 .text.strcat   0x9d02b578       0x38 c:/program files (x86)/microchip/mplabc32/v2.02/bin/../lib/gcc/pic32mx/4.5.1/../../../../pic32mx/lib\libc.a(strcat.o)
                0x9d02b578                strcat

.text.UARTWatchForAddress
                0x9d02b5b0       0x38
 .text.UARTWatchForAddress
                0x9d02b5b0       0x38 c:/program files (x86)/microchip/mplabc32/v2.02/bin/../lib/gcc/pic32mx/4.5.1/../../../../pic32mx/lib\libmchp_peripheral_32MX575F256L.a(uart_lib.o)
                0x9d02b5b0                UARTWatchForAddress

.text.I2CReceiverEnable
                0x9d02b5e8       0x38
 .text.I2CReceiverEnable
                0x9d02b5e8       0x38 c:/program files (x86)/microchip/mplabc32/v2.02/bin/../lib/gcc/pic32mx/4.5.1/../../../../pic32mx/lib\libmchp_peripheral_32MX575F256L.a(I2CReceiverEnable.o)
                0x9d02b5e8                I2CReceiverEnable

.text.INTEnableSystemMultiVectoredInt
                0x9d02b620       0x34
 .text.INTEnableSystemMultiVectoredInt
                0x9d02b620       0x34 c:/program files (x86)/microchip/mplabc32/v2.02/bin/../lib/gcc/pic32mx/4.5.1/../../../../pic32mx/lib\libmchp_peripheral_32MX575F256L.a(int_enable_mv_int_lib.o)
                0x9d02b620                INTEnableSystemMultiVectoredInt

.text.I2CStart  0x9d02b654       0x34
 .text.I2CStart
                0x9d02b654       0x34 c:/program files (x86)/microchip/mplabc32/v2.02/bin/../lib/gcc/pic32mx/4.5.1/../../../../pic32mx/lib\libmchp_peripheral_32MX575F256L.a(I2CStart.o)
                0x9d02b654                I2CStart

.rodata         0x9d02b688       0x30
 .rodata        0x9d02b688       0x30 obj-tmp\Assert.o

.text.INTGetVectorPriority
                0x9d02b6b8       0x30
 .text.INTGetVectorPriority
                0x9d02b6b8       0x30 c:/program files (x86)/microchip/mplabc32/v2.02/bin/../lib/gcc/pic32mx/4.5.1/../../../../pic32mx/lib\libmchp_peripheral_32MX575F256L.a(int_tbl_lib.o)
                0x9d02b6b8                INTGetVectorPriority

.text.INTGetVectorSubPriority
                0x9d02b6e8       0x30
 .text.INTGetVectorSubPriority
                0x9d02b6e8       0x30 c:/program files (x86)/microchip/mplabc32/v2.02/bin/../lib/gcc/pic32mx/4.5.1/../../../../pic32mx/lib\libmchp_peripheral_32MX575F256L.a(int_tbl_lib.o)
                0x9d02b6e8                INTGetVectorSubPriority

.text.I2CRepeatStart
                0x9d02b718       0x30
 .text.I2CRepeatStart
                0x9d02b718       0x30 c:/program files (x86)/microchip/mplabc32/v2.02/bin/../lib/gcc/pic32mx/4.5.1/../../../../pic32mx/lib\libmchp_peripheral_32MX575F256L.a(I2CRepeatStart.o)
                0x9d02b718                I2CRepeatStart

.text.INTClearFlag
                0x9d02b748       0x2c
 .text.INTClearFlag
                0x9d02b748       0x2c c:/program files (x86)/microchip/mplabc32/v2.02/bin/../lib/gcc/pic32mx/4.5.1/../../../../pic32mx/lib\libmchp_peripheral_32MX575F256L.a(int_tbl_lib.o)
                0x9d02b748                INTClearFlag

.text.INTSetFlag
                0x9d02b774       0x2c
 .text.INTSetFlag
                0x9d02b774       0x2c c:/program files (x86)/microchip/mplabc32/v2.02/bin/../lib/gcc/pic32mx/4.5.1/../../../../pic32mx/lib\libmchp_peripheral_32MX575F256L.a(int_tbl_lib.o)
                0x9d02b774                INTSetFlag

.text.INTGetFlag
                0x9d02b7a0       0x2c
 .text.INTGetFlag
                0x9d02b7a0       0x2c c:/program files (x86)/microchip/mplabc32/v2.02/bin/../lib/gcc/pic32mx/4.5.1/../../../../pic32mx/lib\libmchp_peripheral_32MX575F256L.a(int_tbl_lib.o)
                0x9d02b7a0                INTGetFlag

.text.INTGetEnable
                0x9d02b7cc       0x2c
 .text.INTGetEnable
                0x9d02b7cc       0x2c c:/program files (x86)/microchip/mplabc32/v2.02/bin/../lib/gcc/pic32mx/4.5.1/../../../../pic32mx/lib\libmchp_peripheral_32MX575F256L.a(int_tbl_lib.o)
                0x9d02b7cc                INTGetEnable

.text.UARTSetFifoMode
                0x9d02b7f8       0x28
 .text.UARTSetFifoMode
                0x9d02b7f8       0x28 c:/program files (x86)/microchip/mplabc32/v2.02/bin/../lib/gcc/pic32mx/4.5.1/../../../../pic32mx/lib\libmchp_peripheral_32MX575F256L.a(uart_lib.o)
                0x9d02b7f8                UARTSetFifoMode

.text.UARTSetLineControl
                0x9d02b820       0x28
 .text.UARTSetLineControl
                0x9d02b820       0x28 c:/program files (x86)/microchip/mplabc32/v2.02/bin/../lib/gcc/pic32mx/4.5.1/../../../../pic32mx/lib\libmchp_peripheral_32MX575F256L.a(uart_lib.o)
                0x9d02b820                UARTSetLineControl

.text.I2CEnable
                0x9d02b848       0x28
 .text.I2CEnable
                0x9d02b848       0x28 c:/program files (x86)/microchip/mplabc32/v2.02/bin/../lib/gcc/pic32mx/4.5.1/../../../../pic32mx/lib\libmchp_peripheral_32MX575F256L.a(I2CEnable.o)
                0x9d02b848                I2CEnable

.text.tolower   0x9d02b870       0x24
 .text.tolower  0x9d02b870       0x24 c:/program files (x86)/microchip/mplabc32/v2.02/bin/../lib/gcc/pic32mx/4.5.1/../../../../pic32mx/lib\libc.a(ctypef.o)
                0x9d02b870                tolower

.text.toupper   0x9d02b894       0x24
 .text.toupper  0x9d02b894       0x24 c:/program files (x86)/microchip/mplabc32/v2.02/bin/../lib/gcc/pic32mx/4.5.1/../../../../pic32mx/lib\libc.a(ctypef.o)
                0x9d02b894                toupper

.text.I2CByteWasAcknowledged
                0x9d02b8b8       0x24
 .text.I2CByteWasAcknowledged
                0x9d02b8b8       0x24 c:/program files (x86)/microchip/mplabc32/v2.02/bin/../lib/gcc/pic32mx/4.5.1/../../../../pic32mx/lib\libmchp_peripheral_32MX575F256L.a(I2CByteWasAcknowledged.o)
                0x9d02b8b8                I2CByteWasAcknowledged

.text.I2CStop   0x9d02b8dc       0x24
 .text.I2CStop  0x9d02b8dc       0x24 c:/program files (x86)/microchip/mplabc32/v2.02/bin/../lib/gcc/pic32mx/4.5.1/../../../../pic32mx/lib\libmchp_peripheral_32MX575F256L.a(I2CStop.o)
                0x9d02b8dc                I2CStop

.text.I2CTransmissionHasCompleted
                0x9d02b900       0x24
 .text.I2CTransmissionHasCompleted
                0x9d02b900       0x24 c:/program files (x86)/microchip/mplabc32/v2.02/bin/../lib/gcc/pic32mx/4.5.1/../../../../pic32mx/lib\libmchp_peripheral_32MX575F256L.a(I2CTransmissionHasCompleted.o)
                0x9d02b900                I2CTransmissionHasCompleted

.text.I2CTransmitterIsReady
                0x9d02b924       0x24
 .text.I2CTransmitterIsReady
                0x9d02b924       0x24 c:/program files (x86)/microchip/mplabc32/v2.02/bin/../lib/gcc/pic32mx/4.5.1/../../../../pic32mx/lib\libmchp_peripheral_32MX575F256L.a(I2CTransmitterIsReady.o)
                0x9d02b924                I2CTransmitterIsReady

.rodata         0x9d02b948       0x40
 .rodata        0x9d02b948       0x20 obj-tmp\ARP.o
 .rodata        0x9d02b968       0x20 obj-tmp\TimeMonitor.o

.text.SpiChnReadC
                0x9d02b988       0x20
 .text.SpiChnReadC
                0x9d02b988       0x20 c:/program files (x86)/microchip/mplabc32/v2.02/bin/../lib/gcc/pic32mx/4.5.1/../../../../pic32mx/lib\libmchp_peripheral_32MX575F256L.a(spi_chn_getc_lib.o)
                0x9d02b988                SpiChnReadC

.text.SpiChnWriteC
                0x9d02b9a8       0x20
 .text.SpiChnWriteC
                0x9d02b9a8       0x20 c:/program files (x86)/microchip/mplabc32/v2.02/bin/../lib/gcc/pic32mx/4.5.1/../../../../pic32mx/lib\libmchp_peripheral_32MX575F256L.a(spi_chn_putc_lib.o)
                0x9d02b9a8                SpiChnWriteC

.text.I2CGetByte
                0x9d02b9c8       0x20
 .text.I2CGetByte
                0x9d02b9c8       0x20 c:/program files (x86)/microchip/mplabc32/v2.02/bin/../lib/gcc/pic32mx/4.5.1/../../../../pic32mx/lib\libmchp_peripheral_32MX575F256L.a(I2CGetByte.o)
                0x9d02b9c8                I2CGetByte

.text.I2CReceivedDataIsAvailable
                0x9d02b9e8       0x20
 .text.I2CReceivedDataIsAvailable
                0x9d02b9e8       0x20 c:/program files (x86)/microchip/mplabc32/v2.02/bin/../lib/gcc/pic32mx/4.5.1/../../../../pic32mx/lib\libmchp_peripheral_32MX575F256L.a(I2CReceivedDataIsAvailable.o)
                0x9d02b9e8                I2CReceivedDataIsAvailable

.rodata         0x9d02ba08       0x38
 .rodata        0x9d02ba08       0x1c obj-tmp\Announce.o
 .rodata        0x9d02ba24       0x1c obj-tmp\DHCP.o

.text.INTRestoreInterrupts
                0x9d02ba40       0x1c
 .text.INTRestoreInterrupts
                0x9d02ba40       0x1c c:/program files (x86)/microchip/mplabc32/v2.02/bin/../lib/gcc/pic32mx/4.5.1/../../../../pic32mx/lib\libmchp_peripheral_32MX575F256L.a(int_restore_interrupts_lib.o)
                0x9d02ba40                INTRestoreInterrupts

.text.SpiChnBuffer
                0x9d02ba5c       0x1c
 .text.SpiChnBuffer
                0x9d02ba5c       0x1c c:/program files (x86)/microchip/mplabc32/v2.02/bin/../lib/gcc/pic32mx/4.5.1/../../../../pic32mx/lib\libmchp_peripheral_32MX575F256L.a(spi_chn_putc_lib.o)
                0x9d02ba5c                SpiChnBuffer

.rodata         0x9d02ba78       0x18
 .rodata        0x9d02ba78       0x18 obj-tmp\INTiMain.o

.text           0x9d02ba90       0x18
 .text          0x9d02ba90       0x18 c:/program files (x86)/microchip/mplabc32/v2.02/bin/../lib/gcc/pic32mx/4.5.1/../../../../pic32mx/lib\libc.a(default-nmi-handler.o)
                0x9d02ba90                _nmi_handler

.text.isalnum   0x9d02baa8       0x18
 .text.isalnum  0x9d02baa8       0x18 c:/program files (x86)/microchip/mplabc32/v2.02/bin/../lib/gcc/pic32mx/4.5.1/../../../../pic32mx/lib\libc.a(ctypef.o)
                0x9d02baa8                isalnum

.text.isalpha   0x9d02bac0       0x18
 .text.isalpha  0x9d02bac0       0x18 c:/program files (x86)/microchip/mplabc32/v2.02/bin/../lib/gcc/pic32mx/4.5.1/../../../../pic32mx/lib\libc.a(ctypef.o)
                0x9d02bac0                isalpha

.text.iscntrl   0x9d02bad8       0x18
 .text.iscntrl  0x9d02bad8       0x18 c:/program files (x86)/microchip/mplabc32/v2.02/bin/../lib/gcc/pic32mx/4.5.1/../../../../pic32mx/lib\libc.a(ctypef.o)
                0x9d02bad8                iscntrl

.text.isdigit   0x9d02baf0       0x18
 .text.isdigit  0x9d02baf0       0x18 c:/program files (x86)/microchip/mplabc32/v2.02/bin/../lib/gcc/pic32mx/4.5.1/../../../../pic32mx/lib\libc.a(ctypef.o)
                0x9d02baf0                isdigit

.text.isgraph   0x9d02bb08       0x18
 .text.isgraph  0x9d02bb08       0x18 c:/program files (x86)/microchip/mplabc32/v2.02/bin/../lib/gcc/pic32mx/4.5.1/../../../../pic32mx/lib\libc.a(ctypef.o)
                0x9d02bb08                isgraph

.text.islower   0x9d02bb20       0x18
 .text.islower  0x9d02bb20       0x18 c:/program files (x86)/microchip/mplabc32/v2.02/bin/../lib/gcc/pic32mx/4.5.1/../../../../pic32mx/lib\libc.a(ctypef.o)
                0x9d02bb20                islower

.text.isprint   0x9d02bb38       0x18
 .text.isprint  0x9d02bb38       0x18 c:/program files (x86)/microchip/mplabc32/v2.02/bin/../lib/gcc/pic32mx/4.5.1/../../../../pic32mx/lib\libc.a(ctypef.o)
                0x9d02bb38                isprint

.text.ispunct   0x9d02bb50       0x18
 .text.ispunct  0x9d02bb50       0x18 c:/program files (x86)/microchip/mplabc32/v2.02/bin/../lib/gcc/pic32mx/4.5.1/../../../../pic32mx/lib\libc.a(ctypef.o)
                0x9d02bb50                ispunct

.text.isspace   0x9d02bb68       0x18
 .text.isspace  0x9d02bb68       0x18 c:/program files (x86)/microchip/mplabc32/v2.02/bin/../lib/gcc/pic32mx/4.5.1/../../../../pic32mx/lib\libc.a(ctypef.o)
                0x9d02bb68                isspace

.text.isupper   0x9d02bb80       0x18
 .text.isupper  0x9d02bb80       0x18 c:/program files (x86)/microchip/mplabc32/v2.02/bin/../lib/gcc/pic32mx/4.5.1/../../../../pic32mx/lib\libc.a(ctypef.o)
                0x9d02bb80                isupper

.text.isxdigit  0x9d02bb98       0x18
 .text.isxdigit
                0x9d02bb98       0x18 c:/program files (x86)/microchip/mplabc32/v2.02/bin/../lib/gcc/pic32mx/4.5.1/../../../../pic32mx/lib\libc.a(ctypef.o)
                0x9d02bb98                isxdigit

.text.CheKseg0CacheOff
                0x9d02bbb0       0x18
 .text.CheKseg0CacheOff
                0x9d02bbb0       0x18 c:/program files (x86)/microchip/mplabc32/v2.02/bin/../lib/gcc/pic32mx/4.5.1/../../../../pic32mx/lib\libmchp_peripheral_32MX575F256L.a(pcache.o)
                0x9d02bbb0                CheKseg0CacheOff

.text.CheKseg0CacheOn
                0x9d02bbc8       0x18
 .text.CheKseg0CacheOn
                0x9d02bbc8       0x18 c:/program files (x86)/microchip/mplabc32/v2.02/bin/../lib/gcc/pic32mx/4.5.1/../../../../pic32mx/lib\libmchp_peripheral_32MX575F256L.a(pcache.o)
                0x9d02bbc8                CheKseg0CacheOn

.rodata         0x9d02bbe0       0x54
 .rodata        0x9d02bbe0       0x18 c:/program files (x86)/microchip/mplabc32/v2.02/bin/../lib/gcc/pic32mx/4.5.1/../../../../pic32mx/lib\libmchp_peripheral_32MX575F256L.a(uart_lib.o)
                0x9d02bbe0                uartReg
 .rodata        0x9d02bbf8       0x14 obj-tmp\TCP.o
                0x9d02bbf8                TCPSocketInitializer
 .rodata        0x9d02bc0c       0x14 c:/program files (x86)/microchip/mplabc32/v2.02/bin/../lib/gcc/pic32mx/4.5.1/../../../../pic32mx/lib\libmchp_peripheral_32MX575F256L.a(spi_map_tbl_libp.o)
                0x9d02bc0c                _SpiMapTbl
 .rodata        0x9d02bc20       0x14 c:/program files (x86)/microchip/mplabc32/v2.02/bin/../lib/gcc/pic32mx/4.5.1/../../../../pic32mx/lib\libmchp_peripheral_32MX575F256L.a(I2CPrivate.o)
                0x9d02bc20                i2cBase

.text           0x9d02bc34       0x10
 .text          0x9d02bc34       0x10 c:/program files (x86)/microchip/mplabc32/v2.02/bin/../lib/gcc/pic32mx/4.5.1/../../../../pic32mx/lib/crt0.o
                0x9d02bc3c                __crt0_exit

.rodata         0x9d02bc44       0x10
 .rodata        0x9d02bc44       0x10 obj-tmp\app_ICO_ICL.o

.text._bootstrap_exception_handler
                0x9d02bc54        0xc
 .text._bootstrap_exception_handler
                0x9d02bc54        0xc c:/program files (x86)/microchip/mplabc32/v2.02/bin/../lib/gcc/pic32mx/4.5.1/../../../../pic32mx/lib\libc.a(default-bootstrap-exception-handler.o)
                0x9d02bc54                _bootstrap_exception_handler

.rodata         0x9d02bc60       0x20
 .rodata        0x9d02bc60        0x8 obj-tmp\DNSs.o
 .rodata        0x9d02bc68        0x8 obj-tmp\MPFS2.o
 .rodata        0x9d02bc70        0x8 obj-tmp\WF_pbkdf2.o
 .rodata        0x9d02bc78        0x8 obj-tmp\WFInit.o

.text._on_reset
                0x9d02bc80        0x8
 .text._on_reset
                0x9d02bc80        0x8 c:/program files (x86)/microchip/mplabc32/v2.02/bin/../lib/gcc/pic32mx/4.5.1/../../../../pic32mx/lib\libc.a(default-on-reset.o)
                0x9d02bc80                _on_reset

.text._on_bootstrap
                0x9d02bc88        0x8
 .text._on_bootstrap
                0x9d02bc88        0x8 c:/program files (x86)/microchip/mplabc32/v2.02/bin/../lib/gcc/pic32mx/4.5.1/../../../../pic32mx/lib\libc.a(default-on-bootstrap.o)
                0x9d02bc88                _on_bootstrap

.text.isascii   0x9d02bc90        0x8
 .text.isascii  0x9d02bc90        0x8 c:/program files (x86)/microchip/mplabc32/v2.02/bin/../lib/gcc/pic32mx/4.5.1/../../../../pic32mx/lib\libc.a(ctypef.o)
                0x9d02bc90                isascii

.text.toascii   0x9d02bc98        0x8
 .text.toascii  0x9d02bc98        0x8 c:/program files (x86)/microchip/mplabc32/v2.02/bin/../lib/gcc/pic32mx/4.5.1/../../../../pic32mx/lib\libc.a(ctypef.o)
                0x9d02bc98                toascii

.text._tolower  0x9d02bca0        0x8
 .text._tolower
                0x9d02bca0        0x8 c:/program files (x86)/microchip/mplabc32/v2.02/bin/../lib/gcc/pic32mx/4.5.1/../../../../pic32mx/lib\libc.a(ctypef.o)
                0x9d02bca0                _tolower

.text._toupper  0x9d02bca8        0x8
 .text._toupper
                0x9d02bca8        0x8 c:/program files (x86)/microchip/mplabc32/v2.02/bin/../lib/gcc/pic32mx/4.5.1/../../../../pic32mx/lib\libc.a(ctypef.o)
                0x9d02bca8                _toupper

.text.INTDisableInterrupts
                0x9d02bcb0        0x8
 .text.INTDisableInterrupts
                0x9d02bcb0        0x8 c:/program files (x86)/microchip/mplabc32/v2.02/bin/../lib/gcc/pic32mx/4.5.1/../../../../pic32mx/lib\libmchp_peripheral_32MX575F256L.a(int_disable_interrupts_lib.o)
                0x9d02bcb0                INTDisableInterrupts

.text.INTEnableInterrupts
                0x9d02bcb8        0x8
 .text.INTEnableInterrupts
                0x9d02bcb8        0x8 c:/program files (x86)/microchip/mplabc32/v2.02/bin/../lib/gcc/pic32mx/4.5.1/../../../../pic32mx/lib\libmchp_peripheral_32MX575F256L.a(int_enable_interrupts_lib.o)
                0x9d02bcb8                INTEnableInterrupts

.rodata         0x9d029f14        0x4
 .rodata        0x9d029f14        0x4 obj-tmp\WFConsoleMsgHandler.o

.text%z457      0x00000000        0x0
 .text          0x00000000        0x0 c:/program files (x86)/microchip/mplabc32/v2.02/bin/../lib/gcc/pic32mx/4.5.1/../../../../pic32mx/lib/./proc/32MX575F256L\processor.o

.text%z458      0x00000000        0x0
 .text          0x00000000        0x0 c:/program files (x86)/microchip/mplabc32/v2.02/bin/../lib/gcc/pic32mx/4.5.1/../../../../pic32mx/lib\libmchp_peripheral_32MX575F256L.a(int_enable_interrupts_lib.o)

.text%z459      0x00000000        0x0
 .text          0x00000000        0x0 c:/program files (x86)/microchip/mplabc32/v2.02/bin/../lib/gcc/pic32mx/4.5.1/../../../../pic32mx/lib\libmchp_peripheral_32MX575F256L.a(I2CTransmitterIsReady.o)

.text%z460      0x00000000        0x0
 .text          0x00000000        0x0 c:/program files (x86)/microchip/mplabc32/v2.02/bin/../lib/gcc/pic32mx/4.5.1/../../../../pic32mx/lib\libmchp_peripheral_32MX575F256L.a(I2CTransmissionHasCompleted.o)

.text%z461      0x00000000        0x0
 .text          0x00000000        0x0 c:/program files (x86)/microchip/mplabc32/v2.02/bin/../lib/gcc/pic32mx/4.5.1/../../../../pic32mx/lib\libmchp_peripheral_32MX575F256L.a(I2CStop.o)

.text%z462      0x00000000        0x0
 .text          0x00000000        0x0 c:/program files (x86)/microchip/mplabc32/v2.02/bin/../lib/gcc/pic32mx/4.5.1/../../../../pic32mx/lib\libmchp_peripheral_32MX575F256L.a(I2CStart.o)

.text%z463      0x00000000        0x0
 .text          0x00000000        0x0 c:/program files (x86)/microchip/mplabc32/v2.02/bin/../lib/gcc/pic32mx/4.5.1/../../../../pic32mx/lib\libmchp_peripheral_32MX575F256L.a(I2CSetFrequency.o)

.text%z464      0x00000000        0x0
 .text          0x00000000        0x0 c:/program files (x86)/microchip/mplabc32/v2.02/bin/../lib/gcc/pic32mx/4.5.1/../../../../pic32mx/lib\libmchp_peripheral_32MX575F256L.a(I2CRepeatStart.o)

.text%z465      0x00000000        0x0
 .text          0x00000000        0x0 c:/program files (x86)/microchip/mplabc32/v2.02/bin/../lib/gcc/pic32mx/4.5.1/../../../../pic32mx/lib\libmchp_peripheral_32MX575F256L.a(I2CReceiverEnable.o)

.text%z466      0x00000000        0x0
 .text          0x00000000        0x0 c:/program files (x86)/microchip/mplabc32/v2.02/bin/../lib/gcc/pic32mx/4.5.1/../../../../pic32mx/lib\libmchp_peripheral_32MX575F256L.a(I2CReceivedDataIsAvailable.o)

.text%z467      0x00000000        0x0
 .text          0x00000000        0x0 c:/program files (x86)/microchip/mplabc32/v2.02/bin/../lib/gcc/pic32mx/4.5.1/../../../../pic32mx/lib\libmchp_peripheral_32MX575F256L.a(I2CGetStatus.o)

.text%z468      0x00000000        0x0
 .text          0x00000000        0x0 c:/program files (x86)/microchip/mplabc32/v2.02/bin/../lib/gcc/pic32mx/4.5.1/../../../../pic32mx/lib\libmchp_peripheral_32MX575F256L.a(I2CGetByte.o)

.text%z469      0x00000000        0x0
 .text          0x00000000        0x0 c:/program files (x86)/microchip/mplabc32/v2.02/bin/../lib/gcc/pic32mx/4.5.1/../../../../pic32mx/lib\libmchp_peripheral_32MX575F256L.a(I2CEnable.o)

.text%z470      0x00000000        0x0
 .text          0x00000000        0x0 c:/program files (x86)/microchip/mplabc32/v2.02/bin/../lib/gcc/pic32mx/4.5.1/../../../../pic32mx/lib\libmchp_peripheral_32MX575F256L.a(I2CByteWasAcknowledged.o)

.text%z471      0x00000000        0x0
 .text          0x00000000        0x0 c:/program files (x86)/microchip/mplabc32/v2.02/bin/../lib/gcc/pic32mx/4.5.1/../../../../pic32mx/lib\libmchp_peripheral_32MX575F256L.a(I2CBusIsIdle.o)

.text%z472      0x00000000        0x0
 .text          0x00000000        0x0 c:/program files (x86)/microchip/mplabc32/v2.02/bin/../lib/gcc/pic32mx/4.5.1/../../../../pic32mx/lib\libmchp_peripheral_32MX575F256L.a(I2CPrivate.o)

.text%z473      0x00000000        0x0
 .text          0x00000000        0x0 c:/program files (x86)/microchip/mplabc32/v2.02/bin/../lib/gcc/pic32mx/4.5.1/../../../../pic32mx/lib\libmchp_peripheral_32MX575F256L.a(idle_i2c2_lib_legacy.o)

.text%z474      0x00000000        0x0
 .text          0x00000000        0x0 c:/program files (x86)/microchip/mplabc32/v2.02/bin/../lib/gcc/pic32mx/4.5.1/../../../../pic32mx/lib\libmchp_peripheral_32MX575F256L.a(puts_uartx_lib_legacy.o)

.text%z475      0x00000000        0x0
 .text          0x00000000        0x0 c:/program files (x86)/microchip/mplabc32/v2.02/bin/../lib/gcc/pic32mx/4.5.1/../../../../pic32mx/lib\libmchp_peripheral_32MX575F256L.a(uart_lib.o)

.text%z476      0x00000000        0x0
 .text          0x00000000        0x0 c:/program files (x86)/microchip/mplabc32/v2.02/bin/../lib/gcc/pic32mx/4.5.1/../../../../pic32mx/lib\libmchp_peripheral_32MX575F256L.a(_ports_tbl_libp.o)

.text%z477      0x00000000        0x0
 .text          0x00000000        0x0 c:/program files (x86)/microchip/mplabc32/v2.02/bin/../lib/gcc/pic32mx/4.5.1/../../../../pic32mx/lib\libmchp_peripheral_32MX575F256L.a(port_set_pins_digital_out_lib.o)

.text%z478      0x00000000        0x0
 .text          0x00000000        0x0 c:/program files (x86)/microchip/mplabc32/v2.02/bin/../lib/gcc/pic32mx/4.5.1/../../../../pic32mx/lib\libmchp_peripheral_32MX575F256L.a(port_set_pins_digital_in_lib.o)

.text%z479      0x00000000        0x0
 .text          0x00000000        0x0 c:/program files (x86)/microchip/mplabc32/v2.02/bin/../lib/gcc/pic32mx/4.5.1/../../../../pic32mx/lib\libmchp_peripheral_32MX575F256L.a(spi_map_tbl_libp.o)

.text%z480      0x00000000        0x0
 .text          0x00000000        0x0 c:/program files (x86)/microchip/mplabc32/v2.02/bin/../lib/gcc/pic32mx/4.5.1/../../../../pic32mx/lib\libmchp_peripheral_32MX575F256L.a(spi_io_tbl_libp.o)

.text%z481      0x00000000        0x0
 .text          0x00000000        0x0 c:/program files (x86)/microchip/mplabc32/v2.02/bin/../lib/gcc/pic32mx/4.5.1/../../../../pic32mx/lib\libmchp_peripheral_32MX575F256L.a(spi_chn_change_mode_lib.o)

.text%z482      0x00000000        0x0
 .text          0x00000000        0x0 c:/program files (x86)/microchip/mplabc32/v2.02/bin/../lib/gcc/pic32mx/4.5.1/../../../../pic32mx/lib\libmchp_peripheral_32MX575F256L.a(spi_chn_putc_lib.o)

.text%z483      0x00000000        0x0
 .text          0x00000000        0x0 c:/program files (x86)/microchip/mplabc32/v2.02/bin/../lib/gcc/pic32mx/4.5.1/../../../../pic32mx/lib\libmchp_peripheral_32MX575F256L.a(spi_chn_getc_lib.o)

.text%z484      0x00000000        0x0
 .text          0x00000000        0x0 c:/program files (x86)/microchip/mplabc32/v2.02/bin/../lib/gcc/pic32mx/4.5.1/../../../../pic32mx/lib\libmchp_peripheral_32MX575F256L.a(int_tbl_lib.o)

.text%z485      0x00000000        0x0
 .text          0x00000000        0x0 c:/program files (x86)/microchip/mplabc32/v2.02/bin/../lib/gcc/pic32mx/4.5.1/../../../../pic32mx/lib\libmchp_peripheral_32MX575F256L.a(int_enable_mv_int_lib.o)

.text%z486      0x00000000        0x0
 .text          0x00000000        0x0 c:/program files (x86)/microchip/mplabc32/v2.02/bin/../lib/gcc/pic32mx/4.5.1/../../../../pic32mx/lib\libmchp_peripheral_32MX575F256L.a(int_restore_interrupts_lib.o)

.text%z487      0x00000000        0x0
 .text          0x00000000        0x0 c:/program files (x86)/microchip/mplabc32/v2.02/bin/../lib/gcc/pic32mx/4.5.1/../../../../pic32mx/lib\libmchp_peripheral_32MX575F256L.a(int_disable_interrupts_lib.o)

.text%z488      0x00000000        0x0
 .text          0x00000000        0x0 c:/program files (x86)/microchip/mplabc32/v2.02/bin/../lib/gcc/pic32mx/4.5.1/../../../../pic32mx/lib\libmchp_peripheral_32MX575F256L.a(pcache.o)

.text%z489      0x00000000        0x0
 .text          0x00000000        0x0 c:/program files (x86)/microchip/mplabc32/v2.02/bin/../lib/gcc/pic32mx/4.5.1/../../../../pic32mx/lib\libmchp_peripheral_32MX575F256L.a(soft_reset_lib.o)

.text%z490      0x00000000        0x0
 .text          0x00000000        0x0 c:/program files (x86)/microchip/mplabc32/v2.02/bin/../lib/gcc/pic32mx/4.5.1/../../../../pic32mx/lib\libc.a(c32_uart.o)

.text%z491      0x00000000        0x0
 .text          0x00000000        0x0 c:/program files (x86)/microchip/mplabc32/v2.02/bin/../lib/gcc/pic32mx/4.5.1/../../../../pic32mx/lib\libc.a(read.o)

.text%z492      0x00000000        0x0
 .text          0x00000000        0x0 c:/program files (x86)/microchip/mplabc32/v2.02/bin/../lib/gcc/pic32mx/4.5.1/../../../../pic32mx/lib\libc.a(fflush.o)

.text%z493      0x00000000        0x0
 .text          0x00000000        0x0 c:/program files (x86)/microchip/mplabc32/v2.02/bin/../lib/gcc/pic32mx/4.5.1/../../../../pic32mx/lib\libc.a(filbuf.o)

.text%z494      0x00000000        0x0
 .text          0x00000000        0x0 c:/program files (x86)/microchip/mplabc32/v2.02/bin/../lib/gcc/pic32mx/4.5.1/../../../../pic32mx/lib\libc.a(ungetc.o)

.text%z495      0x00000000        0x0
 .text          0x00000000        0x0 c:/program files (x86)/microchip/mplabc32/v2.02/bin/../lib/gcc/pic32mx/4.5.1/../../../../pic32mx/lib\libc.a(ctypef.o)

.text%z496      0x00000000        0x0
 .text          0x00000000        0x0 c:/program files (x86)/microchip/mplabc32/v2.02/bin/../lib/gcc/pic32mx/4.5.1/../../../../pic32mx/lib\libc.a(atoi.o)

.text%z497      0x00000000        0x0
 .text          0x00000000        0x0 c:/program files (x86)/microchip/mplabc32/v2.02/bin/../lib/gcc/pic32mx/4.5.1/../../../../pic32mx/lib\libc.a(fgetc.o)

.text%z498      0x00000000        0x0
 .text          0x00000000        0x0 c:/program files (x86)/microchip/mplabc32/v2.02/bin/../lib/gcc/pic32mx/4.5.1/../../../../pic32mx/lib\libc.a(_flsbuf_simple.o)

.text%z499      0x00000000        0x0
 .text          0x00000000        0x0 c:/program files (x86)/microchip/mplabc32/v2.02/bin/../lib/gcc/pic32mx/4.5.1/../../../../pic32mx/lib\libc.a(write.o)

.text%z500      0x00000000        0x0
 .text          0x00000000        0x0 c:/program files (x86)/microchip/mplabc32/v2.02/bin/../lib/gcc/pic32mx/4.5.1/../../../../pic32mx/lib\libc.a(doscan_cdnopuxX.eo)

.text%z501      0x00000000        0x0
 .text          0x00000000        0x0 c:/program files (x86)/microchip/mplabc32/v2.02/bin/../lib/gcc/pic32mx/4.5.1/../../../../pic32mx/lib\libc.a(doprnt_cdnopsuxX.eo)

.text%z502      0x00000000        0x0
 .text          0x00000000        0x0 c:/program files (x86)/microchip/mplabc32/v2.02/bin/../lib/gcc/pic32mx/4.5.1/../../../../pic32mx/lib\libc.a(_fputc_simple.o)

.text%z503      0x00000000        0x0
 .text          0x00000000        0x0 c:/program files (x86)/microchip/mplabc32/v2.02/bin/../lib/gcc/pic32mx/4.5.1/../../../../pic32mx/lib\libc.a(_iob.o)

.text%z504      0x00000000        0x0
 .text          0x00000000        0x0 c:/program files (x86)/microchip/mplabc32/v2.02/bin/../lib/gcc/pic32mx/4.5.1/../../../../pic32mx/lib\libc.a(default-on-bootstrap.o)

.text%z505      0x00000000        0x0
 .text          0x00000000        0x0 c:/program files (x86)/microchip/mplabc32/v2.02/bin/../lib/gcc/pic32mx/4.5.1/../../../../pic32mx/lib\libc.a(default-on-reset.o)

.text%z506      0x00000000        0x0
 .text          0x00000000        0x0 c:/program files (x86)/microchip/mplabc32/v2.02/bin/../lib/gcc/pic32mx/4.5.1/../../../../pic32mx/lib\libc.a(default-bootstrap-exception-handler.o)

.text%z507      0x00000000        0x0
 .text          0x00000000        0x0 c:/program files (x86)/microchip/mplabc32/v2.02/bin/../lib/gcc/pic32mx/4.5.1/../../../../pic32mx/lib\libc.a(sscanf_cdnopuxX.eo)

.text%z508      0x00000000        0x0
 .text          0x00000000        0x0 c:/program files (x86)/microchip/mplabc32/v2.02/bin/../lib/gcc/pic32mx/4.5.1/../../../../pic32mx/lib\libc.a(sprintf_cdnopsuxX.eo)

.text%z509      0x00000000        0x0
 .text          0x00000000        0x0 c:/program files (x86)/microchip/mplabc32/v2.02/bin/../lib/gcc/pic32mx/4.5.1/../../../../pic32mx/lib\libc.a(printf_cdnopsuxX.eo)

.text%z510      0x00000000        0x0
 .text          0x00000000        0x0 c:/program files (x86)/microchip/mplabc32/v2.02/bin/../lib/gcc/pic32mx/4.5.1/../../../../pic32mx/lib\libc.a(strrchr.o)

.text%z511      0x00000000        0x0
 .text          0x00000000        0x0 c:/program files (x86)/microchip/mplabc32/v2.02/bin/../lib/gcc/pic32mx/4.5.1/../../../../pic32mx/lib\libc.a(strncpy.o)

.text%z512      0x00000000        0x0
 .text          0x00000000        0x0 c:/program files (x86)/microchip/mplabc32/v2.02/bin/../lib/gcc/pic32mx/4.5.1/../../../../pic32mx/lib\libc.a(strcat.o)

.text%z513      0x00000000        0x0
 .text          0x00000000        0x0 c:/program files (x86)/microchip/mplabc32/v2.02/bin/../lib/gcc/pic32mx/4.5.1/../../../../pic32mx/lib\libc.a(puts.o)

.text%z514      0x00000000        0x0
 .text          0x00000000        0x0 c:/program files (x86)/microchip/mplabc32/v2.02/bin/../lib/gcc/pic32mx/4.5.1/../../../../pic32mx/lib\libc.a(ctype.o)

.text%z515      0x00000000        0x0
 .text          0x00000000        0x0 c:/program files (x86)/microchip/mplabc32/v2.02/bin/../lib/gcc/pic32mx/4.5.1/../../../../pic32mx/lib\libc.a(atol.o)

.text%z516      0x00000000        0x0
 .text          0x00000000        0x0 c:/program files (x86)/microchip/mplabc32/v2.02/bin/../lib/gcc/pic32mx/4.5.1/../../../../pic32mx/lib\libc.a(general-exception.o)

.text%z517      0x00000000        0x0
 .text          0x00000000        0x0 obj-tmp\WFDataTxRx.o

.text%z518      0x00000000        0x0
 .text          0x00000000        0x0 obj-tmp\WFConsoleIwpriv.o

.text%z519      0x00000000        0x0
 .text          0x00000000        0x0 obj-tmp\WFConsoleIwconfig.o

.text%z520      0x00000000        0x0
 .text          0x00000000        0x0 obj-tmp\WFConsoleIfconfig.o

.text%z521      0x00000000        0x0
 .text          0x00000000        0x0 obj-tmp\WFConsole.o

.rodata         0x9d02bcc0        0x1
 .rodata        0x9d02bcc0        0x1 obj-tmp\ZeroconfLinkLocal.o
                0x9d02bcc0                g_zcll_dhcp_client

.text%z522      0x00000000        0x0
 .text          0x00000000        0x0 obj-tmp\UDPPerformanceTest.o

.text%z523      0x00000000        0x0
 .text          0x00000000        0x0 obj-tmp\UART2TCPBridge.o

.text%z524      0x00000000        0x0
 .text          0x00000000        0x0 obj-tmp\TFTPc.o

.text%z525      0x00000000        0x0
 .text          0x00000000        0x0 obj-tmp\Telnet.o

.text%z526      0x00000000        0x0
 .text          0x00000000        0x0 obj-tmp\TCPPerformanceTest.o

.text%z527      0x00000000        0x0
 .text          0x00000000        0x0 obj-tmp\SSL.o

.text%z528      0x00000000        0x0
 .text          0x00000000        0x0 obj-tmp\SPIRAM.o

.text%z529      0x00000000        0x0
 .text          0x00000000        0x0 obj-tmp\SPIEEPROM.o

.text%z530      0x00000000        0x0
 .text          0x00000000        0x0 obj-tmp\SNTP.o

.text%z531      0x00000000        0x0
 .text          0x00000000        0x0 obj-tmp\SNMPv3USM.o

.text%z532      0x00000000        0x0
 .text          0x00000000        0x0 obj-tmp\SNMPv3.o

.text%z533      0x00000000        0x0
 .text          0x00000000        0x0 obj-tmp\SNMP.o

.text%z534      0x00000000        0x0
 .text          0x00000000        0x0 obj-tmp\SMTP.o

.text%z535      0x00000000        0x0
 .text          0x00000000        0x0 obj-tmp\RSA.o

.text%z536      0x00000000        0x0
 .text          0x00000000        0x0 obj-tmp\Random.o

.text%z537      0x00000000        0x0
 .text          0x00000000        0x0 obj-tmp\LCDBlocking.o

.text%z538      0x00000000        0x0
 .text          0x00000000        0x0 obj-tmp\Hashes.o

.text%z539      0x00000000        0x0
 .text          0x00000000        0x0 obj-tmp\FTP.o

.text%z540      0x00000000        0x0
 .text          0x00000000        0x0 obj-tmp\FileSystem.o

.text%z541      0x00000000        0x0
 .text          0x00000000        0x0 obj-tmp\DynDNS.o

.text%z542      0x00000000        0x0
 .text          0x00000000        0x0 obj-tmp\BigInt_helper_PIC32.o

.text%z543      0x00000000        0x0
 .text          0x00000000        0x0 obj-tmp\BigInt.o

.text%z544      0x00000000        0x0
 .text          0x00000000        0x0 obj-tmp\BerkeleyAPI.o

.text%z545      0x00000000        0x0
 .text          0x00000000        0x0 obj-tmp\AutoIP.o

.text%z546      0x00000000        0x0
 .text          0x00000000        0x0 obj-tmp\ARCFOUR.o

.text%z547      0x00000000        0x0
 .text          0x00000000        0x0 obj-tmp\WifiGDemoMPFSImg.o
