Archive member included because of file (symbol)

c:/program files (x86)/microchip/xc32/v1.40/bin/bin/../../lib/gcc/pic32mx/4.8.3/../../../../pic32mx/lib\libmchp_peripheral_32MX575F256L.a(soft_reset_lib.o)
                              build/default/production/_ext/93166211/Reboot.o (SoftReset)
c:/program files (x86)/microchip/xc32/v1.40/bin/bin/../../lib/gcc/pic32mx/4.8.3/../../../../pic32mx/lib\libmchp_peripheral_32MX575F256L.a(pcache.o)
                              build/default/production/_ext/1472/Main.o (CheKseg0CacheOn)
c:/program files (x86)/microchip/xc32/v1.40/bin/bin/../../lib/gcc/pic32mx/4.8.3/../../../../pic32mx/lib\libmchp_peripheral_32MX575F256L.a(int_disable_interrupts_lib.o)
                              build/default/production/_ext/1472/Main.o (INTDisableInterrupts)
c:/program files (x86)/microchip/xc32/v1.40/bin/bin/../../lib/gcc/pic32mx/4.8.3/../../../../pic32mx/lib\libmchp_peripheral_32MX575F256L.a(int_restore_interrupts_lib.o)
                              build/default/production/_ext/1472/Main.o (INTRestoreInterrupts)
c:/program files (x86)/microchip/xc32/v1.40/bin/bin/../../lib/gcc/pic32mx/4.8.3/../../../../pic32mx/lib\libmchp_peripheral_32MX575F256L.a(int_enable_mv_int_lib.o)
                              build/default/production/_ext/1472/Main.o (INTEnableSystemMultiVectoredInt)
c:/program files (x86)/microchip/xc32/v1.40/bin/bin/../../lib/gcc/pic32mx/4.8.3/../../../../pic32mx/lib\libmchp_peripheral_32MX575F256L.a(int_tbl_lib.o)
                              build/default/production/_ext/1472/INTiMain.o (INTClearFlag)
c:/program files (x86)/microchip/xc32/v1.40/bin/bin/../../lib/gcc/pic32mx/4.8.3/../../../../pic32mx/lib\libmchp_peripheral_32MX575F256L.a(uart_lib.o)
                              build/default/production/_ext/1472/UARTiMain.o (uartReg)
c:/program files (x86)/microchip/xc32/v1.40/bin/bin/../../lib/gcc/pic32mx/4.8.3/../../../../pic32mx/lib\libmchp_peripheral_32MX575F256L.a(puts_uartx_lib_legacy.o)
                              build/default/production/_ext/93166211/ARP.o (putsUART1)
c:/program files (x86)/microchip/xc32/v1.40/bin/bin/../../lib/gcc/pic32mx/4.8.3/../../../../pic32mx/lib\libmchp_peripheral_32MX575F256L.a(idle_i2c2_lib_legacy.o)
                              build/default/production/_ext/1472/i2c_master.o (IdleI2C2)
c:/program files (x86)/microchip/xc32/v1.40/bin/bin/../../lib/gcc/pic32mx/4.8.3/../../../../pic32mx/lib\libmchp_peripheral_32MX575F256L.a(I2CPrivate.o)
                              build/default/production/_ext/1472/i2c_master.o (i2cBase)
c:/program files (x86)/microchip/xc32/v1.40/bin/bin/../../lib/gcc/pic32mx/4.8.3/../../../../pic32mx/lib\libmchp_peripheral_32MX575F256L.a(I2CBusIsIdle.o)
                              build/default/production/_ext/1472/i2c_master.o (I2CBusIsIdle)
c:/program files (x86)/microchip/xc32/v1.40/bin/bin/../../lib/gcc/pic32mx/4.8.3/../../../../pic32mx/lib\libmchp_peripheral_32MX575F256L.a(I2CByteWasAcknowledged.o)
                              build/default/production/_ext/1472/i2c_master.o (I2CByteWasAcknowledged)
c:/program files (x86)/microchip/xc32/v1.40/bin/bin/../../lib/gcc/pic32mx/4.8.3/../../../../pic32mx/lib\libmchp_peripheral_32MX575F256L.a(I2CEnable.o)
                              build/default/production/_ext/1472/i2c_master.o (I2CEnable)
c:/program files (x86)/microchip/xc32/v1.40/bin/bin/../../lib/gcc/pic32mx/4.8.3/../../../../pic32mx/lib\libmchp_peripheral_32MX575F256L.a(I2CGetByte.o)
                              build/default/production/_ext/1472/i2c_master.o (I2CGetByte)
c:/program files (x86)/microchip/xc32/v1.40/bin/bin/../../lib/gcc/pic32mx/4.8.3/../../../../pic32mx/lib\libmchp_peripheral_32MX575F256L.a(I2CGetStatus.o)
                              build/default/production/_ext/1472/i2c_master.o (I2CGetStatus)
c:/program files (x86)/microchip/xc32/v1.40/bin/bin/../../lib/gcc/pic32mx/4.8.3/../../../../pic32mx/lib\libmchp_peripheral_32MX575F256L.a(I2CReceivedDataIsAvailable.o)
                              build/default/production/_ext/1472/i2c_master.o (I2CReceivedDataIsAvailable)
c:/program files (x86)/microchip/xc32/v1.40/bin/bin/../../lib/gcc/pic32mx/4.8.3/../../../../pic32mx/lib\libmchp_peripheral_32MX575F256L.a(I2CReceiverEnable.o)
                              build/default/production/_ext/1472/i2c_master.o (I2CReceiverEnable)
c:/program files (x86)/microchip/xc32/v1.40/bin/bin/../../lib/gcc/pic32mx/4.8.3/../../../../pic32mx/lib\libmchp_peripheral_32MX575F256L.a(I2CRepeatStart.o)
                              build/default/production/_ext/1472/i2c_master.o (I2CRepeatStart)
c:/program files (x86)/microchip/xc32/v1.40/bin/bin/../../lib/gcc/pic32mx/4.8.3/../../../../pic32mx/lib\libmchp_peripheral_32MX575F256L.a(I2CSetFrequency.o)
                              build/default/production/_ext/1472/i2c_master.o (I2CSetFrequency)
c:/program files (x86)/microchip/xc32/v1.40/bin/bin/../../lib/gcc/pic32mx/4.8.3/../../../../pic32mx/lib\libmchp_peripheral_32MX575F256L.a(I2CStart.o)
                              build/default/production/_ext/1472/i2c_master.o (I2CStart)
c:/program files (x86)/microchip/xc32/v1.40/bin/bin/../../lib/gcc/pic32mx/4.8.3/../../../../pic32mx/lib\libmchp_peripheral_32MX575F256L.a(I2CStop.o)
                              build/default/production/_ext/1472/i2c_master.o (I2CStop)
c:/program files (x86)/microchip/xc32/v1.40/bin/bin/../../lib/gcc/pic32mx/4.8.3/../../../../pic32mx/lib\libmchp_peripheral_32MX575F256L.a(I2CTransmissionHasCompleted.o)
                              build/default/production/_ext/1472/i2c_master.o (I2CTransmissionHasCompleted)
c:/program files (x86)/microchip/xc32/v1.40/bin/bin/../../lib/gcc/pic32mx/4.8.3/../../../../pic32mx/lib\libmchp_peripheral_32MX575F256L.a(I2CTransmitterIsReady.o)
                              build/default/production/_ext/1472/i2c_master.o (I2CTransmitterIsReady)
c:/program files (x86)/microchip/xc32/v1.40/bin/bin/../../lib/gcc/pic32mx/4.8.3/../../../../pic32mx/lib\libmchp_peripheral_32MX575F256L.a(int_enable_interrupts_lib.o)
                              c:/program files (x86)/microchip/xc32/v1.40/bin/bin/../../lib/gcc/pic32mx/4.8.3/../../../../pic32mx/lib\libmchp_peripheral_32MX575F256L.a(int_enable_mv_int_lib.o) (INTEnableInterrupts)
c:/program files (x86)/microchip/xc32/v1.40/bin/bin/../../lib/gcc/pic32mx/4.8.3\libgcc.a(_udivdi3.o)
                              build/default/production/_ext/93166211/Tick.o (__udivdi3)
c:/program files (x86)/microchip/xc32/v1.40/bin/bin/../../lib/gcc/pic32mx/4.8.3\libgcc.a(_umoddi3.o)
                              build/default/production/_ext/93166211/DHCP.o (__umoddi3)
c:/program files (x86)/microchip/xc32/v1.40/bin/bin/../../lib/gcc/pic32mx/4.8.3\libgcc.a(floatunsisf.o)
                              build/default/production/_ext/1472/OpenADRClient.o (__floatunsisf)
c:/program files (x86)/microchip/xc32/v1.40/bin/bin/../../lib/gcc/pic32mx/4.8.3/../../../../pic32mx/lib\libpic32.a(memcmp.o)
                              build/default/production/_ext/93166211/ARP.o (memcmp)
c:/program files (x86)/microchip/xc32/v1.40/bin/bin/../../lib/gcc/pic32mx/4.8.3/../../../../pic32mx/lib\libpic32.a(memcpy.o)
                              build/default/production/_ext/93166211/MPFS2.o (memcpy)
c:/program files (x86)/microchip/xc32/v1.40/bin/bin/../../lib/gcc/pic32mx/4.8.3/../../../../pic32mx/lib\libpic32.a(memset.o)
                              build/default/production/_ext/93166211/TCP.o (memset)
c:/program files (x86)/microchip/xc32/v1.40/bin/bin/../../lib/gcc/pic32mx/4.8.3/../../../../pic32mx/lib\libpic32.a(strcmp.o)
                              build/default/production/_ext/93166211/HTTP2.o (strcmp)
c:/program files (x86)/microchip/xc32/v1.40/bin/bin/../../lib/gcc/pic32mx/4.8.3/../../../../pic32mx/lib\libpic32.a(strcpy.o)
                              build/default/production/_ext/1472/CustomHTTPApp.o (strcpy)
c:/program files (x86)/microchip/xc32/v1.40/bin/bin/../../lib/gcc/pic32mx/4.8.3/../../../../pic32mx/lib\libpic32.a(strlen.o)
                              build/default/production/_ext/93166211/Helpers.o (strlen)
c:/program files (x86)/microchip/xc32/v1.40/bin/bin/../../lib/gcc/pic32mx/4.8.3/../../../../pic32mx/lib\libpic32.a(default-bootstrap-exception-handler.o)
                              c:/program files (x86)/microchip/xc32/v1.40/bin/bin/../../lib/gcc/pic32mx/4.8.3/../../../../pic32mx/lib/./proc/32MX575F256L/crt0_mips32r2.o (_bootstrap_exception_handler)
c:/program files (x86)/microchip/xc32/v1.40/bin/bin/../../lib/gcc/pic32mx/4.8.3/../../../../pic32mx/lib\libpic32.a(default-on-reset.o)
                              c:/program files (x86)/microchip/xc32/v1.40/bin/bin/../../lib/gcc/pic32mx/4.8.3/../../../../pic32mx/lib/./proc/32MX575F256L/crt0_mips32r2.o (_on_reset)
c:/program files (x86)/microchip/xc32/v1.40/bin/bin/../../lib/gcc/pic32mx/4.8.3/../../../../pic32mx/lib\libpic32.a(default-on-bootstrap.o)
                              c:/program files (x86)/microchip/xc32/v1.40/bin/bin/../../lib/gcc/pic32mx/4.8.3/../../../../pic32mx/lib/./proc/32MX575F256L/crt0_mips32r2.o (_on_bootstrap)
c:/program files (x86)/microchip/xc32/v1.40/bin/bin/../../lib/gcc/pic32mx/4.8.3/../../../../pic32mx/lib\libpic32.a(default-nmi-handler.o)
                              c:/program files (x86)/microchip/xc32/v1.40/bin/bin/../../lib/gcc/pic32mx/4.8.3/../../../../pic32mx/lib/./proc/32MX575F256L/crt0_mips32r2.o (_nmi_handler)
c:/program files (x86)/microchip/xc32/v1.40/bin/bin/../../lib/gcc/pic32mx/4.8.3/../../../../pic32mx/lib\libpic32.a(general-exception.o)
                              c:/program files (x86)/microchip/xc32/v1.40/bin/bin/../../lib/gcc/pic32mx/4.8.3/../../../../pic32mx/lib/./proc/32MX575F256L/crt0_mips32r2.o (_general_exception_context)
c:/program files (x86)/microchip/xc32/v1.40/bin/bin/../../lib/gcc/pic32mx/4.8.3/../../../../pic32mx/lib\libpic32.a(vector0.o)
                              c:/program files (x86)/microchip/xc32/v1.40/bin/bin/../../lib/gcc/pic32mx/4.8.3/../../../../pic32mx/lib/./proc/32MX575F256L\default_isr_vectors.o (__vector_dispatch_0)
c:/program files (x86)/microchip/xc32/v1.40/bin/bin/../../lib/gcc/pic32mx/4.8.3/../../../../pic32mx/lib\libpic32.a(vector1.o)
                              c:/program files (x86)/microchip/xc32/v1.40/bin/bin/../../lib/gcc/pic32mx/4.8.3/../../../../pic32mx/lib/./proc/32MX575F256L\default_isr_vectors.o (__vector_dispatch_1)
c:/program files (x86)/microchip/xc32/v1.40/bin/bin/../../lib/gcc/pic32mx/4.8.3/../../../../pic32mx/lib\libpic32.a(vector2.o)
                              c:/program files (x86)/microchip/xc32/v1.40/bin/bin/../../lib/gcc/pic32mx/4.8.3/../../../../pic32mx/lib/./proc/32MX575F256L\default_isr_vectors.o (__vector_dispatch_2)
c:/program files (x86)/microchip/xc32/v1.40/bin/bin/../../lib/gcc/pic32mx/4.8.3/../../../../pic32mx/lib\libpic32.a(vector3.o)
                              c:/program files (x86)/microchip/xc32/v1.40/bin/bin/../../lib/gcc/pic32mx/4.8.3/../../../../pic32mx/lib/./proc/32MX575F256L\default_isr_vectors.o (__vector_dispatch_3)
c:/program files (x86)/microchip/xc32/v1.40/bin/bin/../../lib/gcc/pic32mx/4.8.3/../../../../pic32mx/lib\libpic32.a(vector5.o)
                              c:/program files (x86)/microchip/xc32/v1.40/bin/bin/../../lib/gcc/pic32mx/4.8.3/../../../../pic32mx/lib/./proc/32MX575F256L\default_isr_vectors.o (__vector_dispatch_5)
c:/program files (x86)/microchip/xc32/v1.40/bin/bin/../../lib/gcc/pic32mx/4.8.3/../../../../pic32mx/lib\libpic32.a(vector6.o)
                              c:/program files (x86)/microchip/xc32/v1.40/bin/bin/../../lib/gcc/pic32mx/4.8.3/../../../../pic32mx/lib/./proc/32MX575F256L\default_isr_vectors.o (__vector_dispatch_6)
c:/program files (x86)/microchip/xc32/v1.40/bin/bin/../../lib/gcc/pic32mx/4.8.3/../../../../pic32mx/lib\libpic32.a(vector7.o)
                              c:/program files (x86)/microchip/xc32/v1.40/bin/bin/../../lib/gcc/pic32mx/4.8.3/../../../../pic32mx/lib/./proc/32MX575F256L\default_isr_vectors.o (__vector_dispatch_7)
c:/program files (x86)/microchip/xc32/v1.40/bin/bin/../../lib/gcc/pic32mx/4.8.3/../../../../pic32mx/lib\libpic32.a(vector9.o)
                              c:/program files (x86)/microchip/xc32/v1.40/bin/bin/../../lib/gcc/pic32mx/4.8.3/../../../../pic32mx/lib/./proc/32MX575F256L\default_isr_vectors.o (__vector_dispatch_9)
c:/program files (x86)/microchip/xc32/v1.40/bin/bin/../../lib/gcc/pic32mx/4.8.3/../../../../pic32mx/lib\libpic32.a(vector10.o)
                              c:/program files (x86)/microchip/xc32/v1.40/bin/bin/../../lib/gcc/pic32mx/4.8.3/../../../../pic32mx/lib/./proc/32MX575F256L\default_isr_vectors.o (__vector_dispatch_10)
c:/program files (x86)/microchip/xc32/v1.40/bin/bin/../../lib/gcc/pic32mx/4.8.3/../../../../pic32mx/lib\libpic32.a(vector11.o)
                              c:/program files (x86)/microchip/xc32/v1.40/bin/bin/../../lib/gcc/pic32mx/4.8.3/../../../../pic32mx/lib/./proc/32MX575F256L\default_isr_vectors.o (__vector_dispatch_11)
c:/program files (x86)/microchip/xc32/v1.40/bin/bin/../../lib/gcc/pic32mx/4.8.3/../../../../pic32mx/lib\libpic32.a(vector12.o)
                              c:/program files (x86)/microchip/xc32/v1.40/bin/bin/../../lib/gcc/pic32mx/4.8.3/../../../../pic32mx/lib/./proc/32MX575F256L\default_isr_vectors.o (__vector_dispatch_12)
c:/program files (x86)/microchip/xc32/v1.40/bin/bin/../../lib/gcc/pic32mx/4.8.3/../../../../pic32mx/lib\libpic32.a(vector13.o)
                              c:/program files (x86)/microchip/xc32/v1.40/bin/bin/../../lib/gcc/pic32mx/4.8.3/../../../../pic32mx/lib/./proc/32MX575F256L\default_isr_vectors.o (__vector_dispatch_13)
c:/program files (x86)/microchip/xc32/v1.40/bin/bin/../../lib/gcc/pic32mx/4.8.3/../../../../pic32mx/lib\libpic32.a(vector14.o)
                              c:/program files (x86)/microchip/xc32/v1.40/bin/bin/../../lib/gcc/pic32mx/4.8.3/../../../../pic32mx/lib/./proc/32MX575F256L\default_isr_vectors.o (__vector_dispatch_14)
c:/program files (x86)/microchip/xc32/v1.40/bin/bin/../../lib/gcc/pic32mx/4.8.3/../../../../pic32mx/lib\libpic32.a(vector16.o)
                              c:/program files (x86)/microchip/xc32/v1.40/bin/bin/../../lib/gcc/pic32mx/4.8.3/../../../../pic32mx/lib/./proc/32MX575F256L\default_isr_vectors.o (__vector_dispatch_16)
c:/program files (x86)/microchip/xc32/v1.40/bin/bin/../../lib/gcc/pic32mx/4.8.3/../../../../pic32mx/lib\libpic32.a(vector17.o)
                              c:/program files (x86)/microchip/xc32/v1.40/bin/bin/../../lib/gcc/pic32mx/4.8.3/../../../../pic32mx/lib/./proc/32MX575F256L\default_isr_vectors.o (__vector_dispatch_17)
c:/program files (x86)/microchip/xc32/v1.40/bin/bin/../../lib/gcc/pic32mx/4.8.3/../../../../pic32mx/lib\libpic32.a(vector18.o)
                              c:/program files (x86)/microchip/xc32/v1.40/bin/bin/../../lib/gcc/pic32mx/4.8.3/../../../../pic32mx/lib/./proc/32MX575F256L\default_isr_vectors.o (__vector_dispatch_18)
c:/program files (x86)/microchip/xc32/v1.40/bin/bin/../../lib/gcc/pic32mx/4.8.3/../../../../pic32mx/lib\libpic32.a(vector19.o)
                              c:/program files (x86)/microchip/xc32/v1.40/bin/bin/../../lib/gcc/pic32mx/4.8.3/../../../../pic32mx/lib/./proc/32MX575F256L\default_isr_vectors.o (__vector_dispatch_19)
c:/program files (x86)/microchip/xc32/v1.40/bin/bin/../../lib/gcc/pic32mx/4.8.3/../../../../pic32mx/lib\libpic32.a(vector20.o)
                              c:/program files (x86)/microchip/xc32/v1.40/bin/bin/../../lib/gcc/pic32mx/4.8.3/../../../../pic32mx/lib/./proc/32MX575F256L\default_isr_vectors.o (__vector_dispatch_20)
c:/program files (x86)/microchip/xc32/v1.40/bin/bin/../../lib/gcc/pic32mx/4.8.3/../../../../pic32mx/lib\libpic32.a(vector21.o)
                              c:/program files (x86)/microchip/xc32/v1.40/bin/bin/../../lib/gcc/pic32mx/4.8.3/../../../../pic32mx/lib/./proc/32MX575F256L\default_isr_vectors.o (__vector_dispatch_21)
c:/program files (x86)/microchip/xc32/v1.40/bin/bin/../../lib/gcc/pic32mx/4.8.3/../../../../pic32mx/lib\libpic32.a(vector22.o)
                              c:/program files (x86)/microchip/xc32/v1.40/bin/bin/../../lib/gcc/pic32mx/4.8.3/../../../../pic32mx/lib/./proc/32MX575F256L\default_isr_vectors.o (__vector_dispatch_22)
c:/program files (x86)/microchip/xc32/v1.40/bin/bin/../../lib/gcc/pic32mx/4.8.3/../../../../pic32mx/lib\libpic32.a(vector23.o)
                              c:/program files (x86)/microchip/xc32/v1.40/bin/bin/../../lib/gcc/pic32mx/4.8.3/../../../../pic32mx/lib/./proc/32MX575F256L\default_isr_vectors.o (__vector_dispatch_23)
c:/program files (x86)/microchip/xc32/v1.40/bin/bin/../../lib/gcc/pic32mx/4.8.3/../../../../pic32mx/lib\libpic32.a(vector25.o)
                              c:/program files (x86)/microchip/xc32/v1.40/bin/bin/../../lib/gcc/pic32mx/4.8.3/../../../../pic32mx/lib/./proc/32MX575F256L\default_isr_vectors.o (__vector_dispatch_25)
c:/program files (x86)/microchip/xc32/v1.40/bin/bin/../../lib/gcc/pic32mx/4.8.3/../../../../pic32mx/lib\libpic32.a(vector26.o)
                              c:/program files (x86)/microchip/xc32/v1.40/bin/bin/../../lib/gcc/pic32mx/4.8.3/../../../../pic32mx/lib/./proc/32MX575F256L\default_isr_vectors.o (__vector_dispatch_26)
c:/program files (x86)/microchip/xc32/v1.40/bin/bin/../../lib/gcc/pic32mx/4.8.3/../../../../pic32mx/lib\libpic32.a(vector27.o)
                              c:/program files (x86)/microchip/xc32/v1.40/bin/bin/../../lib/gcc/pic32mx/4.8.3/../../../../pic32mx/lib/./proc/32MX575F256L\default_isr_vectors.o (__vector_dispatch_27)
c:/program files (x86)/microchip/xc32/v1.40/bin/bin/../../lib/gcc/pic32mx/4.8.3/../../../../pic32mx/lib\libpic32.a(vector28.o)
                              c:/program files (x86)/microchip/xc32/v1.40/bin/bin/../../lib/gcc/pic32mx/4.8.3/../../../../pic32mx/lib/./proc/32MX575F256L\default_isr_vectors.o (__vector_dispatch_28)
c:/program files (x86)/microchip/xc32/v1.40/bin/bin/../../lib/gcc/pic32mx/4.8.3/../../../../pic32mx/lib\libpic32.a(vector29.o)
                              c:/program files (x86)/microchip/xc32/v1.40/bin/bin/../../lib/gcc/pic32mx/4.8.3/../../../../pic32mx/lib/./proc/32MX575F256L\default_isr_vectors.o (__vector_dispatch_29)
c:/program files (x86)/microchip/xc32/v1.40/bin/bin/../../lib/gcc/pic32mx/4.8.3/../../../../pic32mx/lib\libpic32.a(vector30.o)
                              c:/program files (x86)/microchip/xc32/v1.40/bin/bin/../../lib/gcc/pic32mx/4.8.3/../../../../pic32mx/lib/./proc/32MX575F256L\default_isr_vectors.o (__vector_dispatch_30)
c:/program files (x86)/microchip/xc32/v1.40/bin/bin/../../lib/gcc/pic32mx/4.8.3/../../../../pic32mx/lib\libpic32.a(vector31.o)
                              c:/program files (x86)/microchip/xc32/v1.40/bin/bin/../../lib/gcc/pic32mx/4.8.3/../../../../pic32mx/lib/./proc/32MX575F256L\default_isr_vectors.o (__vector_dispatch_31)
c:/program files (x86)/microchip/xc32/v1.40/bin/bin/../../lib/gcc/pic32mx/4.8.3/../../../../pic32mx/lib\libpic32.a(vector33.o)
                              c:/program files (x86)/microchip/xc32/v1.40/bin/bin/../../lib/gcc/pic32mx/4.8.3/../../../../pic32mx/lib/./proc/32MX575F256L\default_isr_vectors.o (__vector_dispatch_33)
c:/program files (x86)/microchip/xc32/v1.40/bin/bin/../../lib/gcc/pic32mx/4.8.3/../../../../pic32mx/lib\libpic32.a(vector34.o)
                              c:/program files (x86)/microchip/xc32/v1.40/bin/bin/../../lib/gcc/pic32mx/4.8.3/../../../../pic32mx/lib/./proc/32MX575F256L\default_isr_vectors.o (__vector_dispatch_34)
c:/program files (x86)/microchip/xc32/v1.40/bin/bin/../../lib/gcc/pic32mx/4.8.3/../../../../pic32mx/lib\libpic32.a(vector35.o)
                              c:/program files (x86)/microchip/xc32/v1.40/bin/bin/../../lib/gcc/pic32mx/4.8.3/../../../../pic32mx/lib/./proc/32MX575F256L\default_isr_vectors.o (__vector_dispatch_35)
c:/program files (x86)/microchip/xc32/v1.40/bin/bin/../../lib/gcc/pic32mx/4.8.3/../../../../pic32mx/lib\libpic32.a(vector36.o)
                              c:/program files (x86)/microchip/xc32/v1.40/bin/bin/../../lib/gcc/pic32mx/4.8.3/../../../../pic32mx/lib/./proc/32MX575F256L\default_isr_vectors.o (__vector_dispatch_36)
c:/program files (x86)/microchip/xc32/v1.40/bin/bin/../../lib/gcc/pic32mx/4.8.3/../../../../pic32mx/lib\libpic32.a(vector37.o)
                              c:/program files (x86)/microchip/xc32/v1.40/bin/bin/../../lib/gcc/pic32mx/4.8.3/../../../../pic32mx/lib/./proc/32MX575F256L\default_isr_vectors.o (__vector_dispatch_37)
c:/program files (x86)/microchip/xc32/v1.40/bin/bin/../../lib/gcc/pic32mx/4.8.3/../../../../pic32mx/lib\libpic32.a(vector38.o)
                              c:/program files (x86)/microchip/xc32/v1.40/bin/bin/../../lib/gcc/pic32mx/4.8.3/../../../../pic32mx/lib/./proc/32MX575F256L\default_isr_vectors.o (__vector_dispatch_38)
c:/program files (x86)/microchip/xc32/v1.40/bin/bin/../../lib/gcc/pic32mx/4.8.3/../../../../pic32mx/lib\libpic32.a(vector39.o)
                              c:/program files (x86)/microchip/xc32/v1.40/bin/bin/../../lib/gcc/pic32mx/4.8.3/../../../../pic32mx/lib/./proc/32MX575F256L\default_isr_vectors.o (__vector_dispatch_39)
c:/program files (x86)/microchip/xc32/v1.40/bin/bin/../../lib/gcc/pic32mx/4.8.3/../../../../pic32mx/lib\libpic32.a(vector40.o)
                              c:/program files (x86)/microchip/xc32/v1.40/bin/bin/../../lib/gcc/pic32mx/4.8.3/../../../../pic32mx/lib/./proc/32MX575F256L\default_isr_vectors.o (__vector_dispatch_40)
c:/program files (x86)/microchip/xc32/v1.40/bin/bin/../../lib/gcc/pic32mx/4.8.3/../../../../pic32mx/lib\libpic32.a(vector41.o)
                              c:/program files (x86)/microchip/xc32/v1.40/bin/bin/../../lib/gcc/pic32mx/4.8.3/../../../../pic32mx/lib/./proc/32MX575F256L\default_isr_vectors.o (__vector_dispatch_41)
c:/program files (x86)/microchip/xc32/v1.40/bin/bin/../../lib/gcc/pic32mx/4.8.3/../../../../pic32mx/lib\libpic32.a(vector42.o)
                              c:/program files (x86)/microchip/xc32/v1.40/bin/bin/../../lib/gcc/pic32mx/4.8.3/../../../../pic32mx/lib/./proc/32MX575F256L\default_isr_vectors.o (__vector_dispatch_42)
c:/program files (x86)/microchip/xc32/v1.40/bin/bin/../../lib/gcc/pic32mx/4.8.3/../../../../pic32mx/lib\libpic32.a(vector43.o)
                              c:/program files (x86)/microchip/xc32/v1.40/bin/bin/../../lib/gcc/pic32mx/4.8.3/../../../../pic32mx/lib/./proc/32MX575F256L\default_isr_vectors.o (__vector_dispatch_43)
c:/program files (x86)/microchip/xc32/v1.40/bin/bin/../../lib/gcc/pic32mx/4.8.3/../../../../pic32mx/lib\libpic32.a(vector44.o)
                              c:/program files (x86)/microchip/xc32/v1.40/bin/bin/../../lib/gcc/pic32mx/4.8.3/../../../../pic32mx/lib/./proc/32MX575F256L\default_isr_vectors.o (__vector_dispatch_44)
c:/program files (x86)/microchip/xc32/v1.40/bin/bin/../../lib/gcc/pic32mx/4.8.3/../../../../pic32mx/lib\libpic32.a(vector45.o)
                              c:/program files (x86)/microchip/xc32/v1.40/bin/bin/../../lib/gcc/pic32mx/4.8.3/../../../../pic32mx/lib/./proc/32MX575F256L\default_isr_vectors.o (__vector_dispatch_45)
c:/program files (x86)/microchip/xc32/v1.40/bin/bin/../../lib/gcc/pic32mx/4.8.3/../../../../pic32mx/lib\libpic32.a(vector46.o)
                              c:/program files (x86)/microchip/xc32/v1.40/bin/bin/../../lib/gcc/pic32mx/4.8.3/../../../../pic32mx/lib/./proc/32MX575F256L\default_isr_vectors.o (__vector_dispatch_46)
c:/program files (x86)/microchip/xc32/v1.40/bin/bin/../../lib/gcc/pic32mx/4.8.3/../../../../pic32mx/lib\libpic32.a(vector47.o)
                              c:/program files (x86)/microchip/xc32/v1.40/bin/bin/../../lib/gcc/pic32mx/4.8.3/../../../../pic32mx/lib/./proc/32MX575F256L\default_isr_vectors.o (__vector_dispatch_47)
c:/program files (x86)/microchip/xc32/v1.40/bin/bin/../../lib/gcc/pic32mx/4.8.3/../../../../pic32mx/lib\libpic32.a(vector48.o)
                              c:/program files (x86)/microchip/xc32/v1.40/bin/bin/../../lib/gcc/pic32mx/4.8.3/../../../../pic32mx/lib/./proc/32MX575F256L\default_isr_vectors.o (__vector_dispatch_48)
c:/program files (x86)/microchip/xc32/v1.40/bin/bin/../../lib/gcc/pic32mx/4.8.3/../../../../pic32mx/lib\libpic32.a(vector49.o)
                              c:/program files (x86)/microchip/xc32/v1.40/bin/bin/../../lib/gcc/pic32mx/4.8.3/../../../../pic32mx/lib/./proc/32MX575F256L\default_isr_vectors.o (__vector_dispatch_49)
c:/program files (x86)/microchip/xc32/v1.40/bin/bin/../../lib/gcc/pic32mx/4.8.3/../../../../pic32mx/lib\libpic32.a(vector50.o)
                              c:/program files (x86)/microchip/xc32/v1.40/bin/bin/../../lib/gcc/pic32mx/4.8.3/../../../../pic32mx/lib/./proc/32MX575F256L\default_isr_vectors.o (__vector_dispatch_50)
c:/program files (x86)/microchip/xc32/v1.40/bin/bin/../../lib/gcc/pic32mx/4.8.3/../../../../pic32mx/lib\libpic32.a(vector51.o)
                              c:/program files (x86)/microchip/xc32/v1.40/bin/bin/../../lib/gcc/pic32mx/4.8.3/../../../../pic32mx/lib/./proc/32MX575F256L\default_isr_vectors.o (__vector_dispatch_51)
c:/program files (x86)/microchip/xc32/v1.40/bin/bin/../../lib/gcc/pic32mx/4.8.3/../../../../pic32mx/lib\libpic32.a(defaultinterrupt.o)
                              c:/program files (x86)/microchip/xc32/v1.40/bin/bin/../../lib/gcc/pic32mx/4.8.3/../../../../pic32mx/lib\libpic32.a(vector0.o) (_DefaultInterrupt)
c:/program files (x86)/microchip/xc32/v1.40/bin/bin/../../lib/gcc/pic32mx/4.8.3/../../../../pic32mx/lib\libm.a(fp32div.o)
                              build/default/production/_ext/1472/OpenADRClient.o (fpdiv)
c:/program files (x86)/microchip/xc32/v1.40/bin/bin/../../lib/gcc/pic32mx/4.8.3/../../../../pic32mx/lib\libm.a(fp32mul.o)
                              build/default/production/_ext/1472/OpenADRClient.o (fpmul)
c:/program files (x86)/microchip/xc32/v1.40/bin/bin/../../lib/gcc/pic32mx/4.8.3/../../../../pic32mx/lib\libm.a(fp32subadd.o)
                              build/default/production/_ext/1472/OpenADRClient.o (fpsub)
c:/program files (x86)/microchip/xc32/v1.40/bin/bin/../../lib/gcc/pic32mx/4.8.3/../../../../pic32mx/lib\libm.a(fpceil32.o)
                              build/default/production/_ext/1472/BasicDR.o (ceilf)
c:/program files (x86)/microchip/xc32/v1.40/bin/bin/../../lib/gcc/pic32mx/4.8.3/../../../../pic32mx/lib\libm.a(fpcmp.o)
                              build/default/production/_ext/1472/OpenADRClient.o (fpcmp)
c:/program files (x86)/microchip/xc32/v1.40/bin/bin/../../lib/gcc/pic32mx/4.8.3/../../../../pic32mx/lib\libm.a(fpfloo32.o)
                              build/default/production/_ext/1472/BasicDR.o (floorf)
c:/program files (x86)/microchip/xc32/v1.40/bin/bin/../../lib/gcc/pic32mx/4.8.3/../../../../pic32mx/lib\libm.a(fptoli.o)
                              build/default/production/_ext/1472/OpenADRClient.o (fptosi)
c:/program files (x86)/microchip/xc32/v1.40/bin/bin/../../lib/gcc/pic32mx/4.8.3/../../../../pic32mx/lib\libm.a(fptoul.o)
                              build/default/production/_ext/1472/BasicDR.o (fptoui)
c:/program files (x86)/microchip/xc32/v1.40/bin/bin/../../lib/gcc/pic32mx/4.8.3/../../../../pic32mx/lib\libm.a(sitofp.o)
                              build/default/production/_ext/1472/CustomHTTPApp.o (sitofp)
c:/program files (x86)/microchip/xc32/v1.40/bin/bin/../../lib/gcc/pic32mx/4.8.3/../../../../pic32mx/lib\libm.a(w_sqrtf.o)
                              build/default/production/_ext/1472/OpenADRClient.o (sqrtf)
c:/program files (x86)/microchip/xc32/v1.40/bin/bin/../../lib/gcc/pic32mx/4.8.3/../../../../pic32mx/lib\libm.a(fpsqrt32.o)
                              c:/program files (x86)/microchip/xc32/v1.40/bin/bin/../../lib/gcc/pic32mx/4.8.3/../../../../pic32mx/lib\libm.a(w_sqrtf.o) (__mchp_sqrtf)
c:/program files (x86)/microchip/xc32/v1.40/bin/bin/../../lib/gcc/pic32mx/4.8.3/../../../../pic32mx/lib\libm.a(s_lib_ver.o)
                              c:/program files (x86)/microchip/xc32/v1.40/bin/bin/../../lib/gcc/pic32mx/4.8.3/../../../../pic32mx/lib\libm.a(w_sqrtf.o) (math_errhandling)
c:/program files (x86)/microchip/xc32/v1.40/bin/bin/../../lib/gcc/pic32mx/4.8.3/../../../../pic32mx/lib\libm.a(fpexsqrt32.o)
                              c:/program files (x86)/microchip/xc32/v1.40/bin/bin/../../lib/gcc/pic32mx/4.8.3/../../../../pic32mx/lib\libm.a(fpsqrt32.o) (fpexsqrt)
c:/program files (x86)/microchip/xc32/v1.40/bin/bin/../../lib/gcc/pic32mx/4.8.3/../../../../pic32mx/lib\libc.a(atoi.o)
                              build/default/production/_ext/1472/CustomHTTPApp.o (atoi)
c:/program files (x86)/microchip/xc32/v1.40/bin/bin/../../lib/gcc/pic32mx/4.8.3/../../../../pic32mx/lib\libc.a(atol.o)
                              build/default/production/_ext/93166211/HTTP2.o (atol)
c:/program files (x86)/microchip/xc32/v1.40/bin/bin/../../lib/gcc/pic32mx/4.8.3/../../../../pic32mx/lib\libc.a(atoll.o)
                              build/default/production/_ext/1472/CustomHTTPApp.o (atoll)
c:/program files (x86)/microchip/xc32/v1.40/bin/bin/../../lib/gcc/pic32mx/4.8.3/../../../../pic32mx/lib\libc.a(ctime.o)
                              build/default/production/_ext/1472/OpenADRClient.o (localtime)
c:/program files (x86)/microchip/xc32/v1.40/bin/bin/../../lib/gcc/pic32mx/4.8.3/../../../../pic32mx/lib\libc.a(ctype.o)
                              build/default/production/_ext/388820833/WFConsoleMsgs.o (_ctype)
c:/program files (x86)/microchip/xc32/v1.40/bin/bin/../../lib/gcc/pic32mx/4.8.3/../../../../pic32mx/lib\libc.a(errno.o)
                              c:/program files (x86)/microchip/xc32/v1.40/bin/bin/../../lib/gcc/pic32mx/4.8.3/../../../../pic32mx/lib\libm.a(w_sqrtf.o) (errno)
c:/program files (x86)/microchip/xc32/v1.40/bin/bin/../../lib/gcc/pic32mx/4.8.3/../../../../pic32mx/lib\libc.a(mktime.o)
                              build/default/production/_ext/1472/OpenADRClient.o (mktime)
c:/program files (x86)/microchip/xc32/v1.40/bin/bin/../../lib/gcc/pic32mx/4.8.3/../../../../pic32mx/lib\libc.a(putchar.o)
                              build/default/production/_ext/1472/debugging.o (putchar)
c:/program files (x86)/microchip/xc32/v1.40/bin/bin/../../lib/gcc/pic32mx/4.8.3/../../../../pic32mx/lib\libc.a(puts.o)
                              build/default/production/_ext/1472/Main.o (puts)
c:/program files (x86)/microchip/xc32/v1.40/bin/bin/../../lib/gcc/pic32mx/4.8.3/../../../../pic32mx/lib\libc.a(strcat.o)
                              build/default/production/_ext/1472/OpenADRClient.o (strcat)
c:/program files (x86)/microchip/xc32/v1.40/bin/bin/../../lib/gcc/pic32mx/4.8.3/../../../../pic32mx/lib\libc.a(strchr.o)
                              build/default/production/_ext/1472/OpenADRClient.o (strchr)
c:/program files (x86)/microchip/xc32/v1.40/bin/bin/../../lib/gcc/pic32mx/4.8.3/../../../../pic32mx/lib\libc.a(strncmp.o)
                              build/default/production/_ext/1472/OpenADRClient.o (strncmp)
c:/program files (x86)/microchip/xc32/v1.40/bin/bin/../../lib/gcc/pic32mx/4.8.3/../../../../pic32mx/lib\libc.a(strncpy.o)
                              build/default/production/_ext/93166211/Helpers.o (strncpy)
c:/program files (x86)/microchip/xc32/v1.40/bin/bin/../../lib/gcc/pic32mx/4.8.3/../../../../pic32mx/lib\libc.a(strrchr.o)
                              build/default/production/_ext/1472/Assert.o (strrchr)
c:/program files (x86)/microchip/xc32/v1.40/bin/bin/../../lib/gcc/pic32mx/4.8.3/../../../../pic32mx/lib\libc.a(strstr.o)
                              build/default/production/_ext/1472/OpenADRClient.o (strstr)
c:/program files (x86)/microchip/xc32/v1.40/bin/bin/../../lib/gcc/pic32mx/4.8.3/../../../../pic32mx/lib\libc.a(strtok.o)
                              build/default/production/_ext/1472/OpenADRClient.o (strtok)
c:/program files (x86)/microchip/xc32/v1.40/bin/bin/../../lib/gcc/pic32mx/4.8.3/../../../../pic32mx/lib\libc.a(strtoll.o)
                              c:/program files (x86)/microchip/xc32/v1.40/bin/bin/../../lib/gcc/pic32mx/4.8.3/../../../../pic32mx/lib\libc.a(atoll.o) (strtoll)
c:/program files (x86)/microchip/xc32/v1.40/bin/bin/../../lib/gcc/pic32mx/4.8.3/../../../../pic32mx/lib\libc.a(atof.o)
                              build/default/production/_ext/1472/CustomHTTPApp.o (atof)
c:/program files (x86)/microchip/xc32/v1.40/bin/bin/../../lib/gcc/pic32mx/4.8.3/../../../../pic32mx/lib\libc.a(printf_cdnopsuxX.eo)
                              build/default/production/_ext/1472/Assert.o (_printf_cdnopsuxX)
c:/program files (x86)/microchip/xc32/v1.40/bin/bin/../../lib/gcc/pic32mx/4.8.3/../../../../pic32mx/lib\libc.a(printf_cdnopuxX.eo)
                              build/default/production/_ext/1472/i2c_master.o (_printf_cdnopuxX)
c:/program files (x86)/microchip/xc32/v1.40/bin/bin/../../lib/gcc/pic32mx/4.8.3/../../../../pic32mx/lib\libc.a(printf_s.eo)
                              build/default/production/_ext/1472/CustomHTTPApp.o (_printf_s)
c:/program files (x86)/microchip/xc32/v1.40/bin/bin/../../lib/gcc/pic32mx/4.8.3/../../../../pic32mx/lib\libc.a(sprintf_cdnopsuxX.eo)
                              build/default/production/_ext/388820833/WFDebugStrings.o (_sprintf_cdnopsuxX)
c:/program files (x86)/microchip/xc32/v1.40/bin/bin/../../lib/gcc/pic32mx/4.8.3/../../../../pic32mx/lib\libc.a(sprintf_cdnopuxX.eo)
                              build/default/production/_ext/93166211/ZeroconfMulticastDNS.o (_sprintf_cdnopuxX)
c:/program files (x86)/microchip/xc32/v1.40/bin/bin/../../lib/gcc/pic32mx/4.8.3/../../../../pic32mx/lib\libc.a(sscanf_cdfFnopsuxX.eo)
                              build/default/production/_ext/1472/OpenADRClient.o (_sscanf_cdfFnopsuxX)
c:/program files (x86)/microchip/xc32/v1.40/bin/bin/../../lib/gcc/pic32mx/4.8.3/../../../../pic32mx/lib\libc.a(sscanf_cdnopsuxX.eo)
                              build/default/production/_ext/1472/OpenADRClient.o (_sscanf_cdnopsuxX)
c:/program files (x86)/microchip/xc32/v1.40/bin/bin/../../lib/gcc/pic32mx/4.8.3/../../../../pic32mx/lib\libc.a(sscanf_cdnopuxX.eo)
                              build/default/production/_ext/1472/OpenADRClient.o (_sscanf_cdnopuxX)
c:/program files (x86)/microchip/xc32/v1.40/bin/bin/../../lib/gcc/pic32mx/4.8.3/../../../../pic32mx/lib\libc.a(_iob.o)
                              c:/program files (x86)/microchip/xc32/v1.40/bin/bin/../../lib/gcc/pic32mx/4.8.3/../../../../pic32mx/lib\libc.a(putchar.o) (_iob)
c:/program files (x86)/microchip/xc32/v1.40/bin/bin/../../lib/gcc/pic32mx/4.8.3/../../../../pic32mx/lib\libc.a(_fputc_simple.o)
                              c:/program files (x86)/microchip/xc32/v1.40/bin/bin/../../lib/gcc/pic32mx/4.8.3/../../../../pic32mx/lib\libc.a(putchar.o) (fputc)
c:/program files (x86)/microchip/xc32/v1.40/bin/bin/../../lib/gcc/pic32mx/4.8.3/../../../../pic32mx/lib\libc.a(ctypef.o)
                              c:/program files (x86)/microchip/xc32/v1.40/bin/bin/../../lib/gcc/pic32mx/4.8.3/../../../../pic32mx/lib\libc.a(strtoll.o) (toupper)
c:/program files (x86)/microchip/xc32/v1.40/bin/bin/../../lib/gcc/pic32mx/4.8.3/../../../../pic32mx/lib\libc.a(strcspn.o)
                              c:/program files (x86)/microchip/xc32/v1.40/bin/bin/../../lib/gcc/pic32mx/4.8.3/../../../../pic32mx/lib\libc.a(strtok.o) (strcspn)
c:/program files (x86)/microchip/xc32/v1.40/bin/bin/../../lib/gcc/pic32mx/4.8.3/../../../../pic32mx/lib\libc.a(strspn.o)
                              c:/program files (x86)/microchip/xc32/v1.40/bin/bin/../../lib/gcc/pic32mx/4.8.3/../../../../pic32mx/lib\libc.a(strtok.o) (strspn)
c:/program files (x86)/microchip/xc32/v1.40/bin/bin/../../lib/gcc/pic32mx/4.8.3/../../../../pic32mx/lib\libc.a(strtof.o)
                              c:/program files (x86)/microchip/xc32/v1.40/bin/bin/../../lib/gcc/pic32mx/4.8.3/../../../../pic32mx/lib\libc.a(atof.o) (strtof)
c:/program files (x86)/microchip/xc32/v1.40/bin/bin/../../lib/gcc/pic32mx/4.8.3/../../../../pic32mx/lib\libc.a(doprnt_cdnopsuxX.eo)
                              c:/program files (x86)/microchip/xc32/v1.40/bin/bin/../../lib/gcc/pic32mx/4.8.3/../../../../pic32mx/lib\libc.a(printf_cdnopsuxX.eo) (_vfprintf_cdnopsuxX)
c:/program files (x86)/microchip/xc32/v1.40/bin/bin/../../lib/gcc/pic32mx/4.8.3/../../../../pic32mx/lib\libc.a(doprnt_cdnopuxX.eo)
                              c:/program files (x86)/microchip/xc32/v1.40/bin/bin/../../lib/gcc/pic32mx/4.8.3/../../../../pic32mx/lib\libc.a(printf_cdnopuxX.eo) (_vfprintf_cdnopuxX)
c:/program files (x86)/microchip/xc32/v1.40/bin/bin/../../lib/gcc/pic32mx/4.8.3/../../../../pic32mx/lib\libc.a(doprnt_s.eo)
                              c:/program files (x86)/microchip/xc32/v1.40/bin/bin/../../lib/gcc/pic32mx/4.8.3/../../../../pic32mx/lib\libc.a(printf_s.eo) (_vfprintf_s)
c:/program files (x86)/microchip/xc32/v1.40/bin/bin/../../lib/gcc/pic32mx/4.8.3/../../../../pic32mx/lib\libc.a(doscan_cdfFnopsuxX.eo)
                              c:/program files (x86)/microchip/xc32/v1.40/bin/bin/../../lib/gcc/pic32mx/4.8.3/../../../../pic32mx/lib\libc.a(sscanf_cdfFnopsuxX.eo) (_vfscanf_cdfFnopsuxX)
c:/program files (x86)/microchip/xc32/v1.40/bin/bin/../../lib/gcc/pic32mx/4.8.3/../../../../pic32mx/lib\libc.a(doscan_cdnopsuxX.eo)
                              c:/program files (x86)/microchip/xc32/v1.40/bin/bin/../../lib/gcc/pic32mx/4.8.3/../../../../pic32mx/lib\libc.a(sscanf_cdnopsuxX.eo) (_vfscanf_cdnopsuxX)
c:/program files (x86)/microchip/xc32/v1.40/bin/bin/../../lib/gcc/pic32mx/4.8.3/../../../../pic32mx/lib\libc.a(doscan_cdnopuxX.eo)
                              c:/program files (x86)/microchip/xc32/v1.40/bin/bin/../../lib/gcc/pic32mx/4.8.3/../../../../pic32mx/lib\libc.a(sscanf_cdnopuxX.eo) (_vfscanf_cdnopuxX)
c:/program files (x86)/microchip/xc32/v1.40/bin/bin/../../lib/gcc/pic32mx/4.8.3/../../../../pic32mx/lib\libc.a(_flsbuf_simple.o)
                              c:/program files (x86)/microchip/xc32/v1.40/bin/bin/../../lib/gcc/pic32mx/4.8.3/../../../../pic32mx/lib\libc.a(_fputc_simple.o) (_flsbuf)
c:/program files (x86)/microchip/xc32/v1.40/bin/bin/../../lib/gcc/pic32mx/4.8.3/../../../../pic32mx/lib\libc.a(fgetc.o)
                              c:/program files (x86)/microchip/xc32/v1.40/bin/bin/../../lib/gcc/pic32mx/4.8.3/../../../../pic32mx/lib\libc.a(doscan_cdfFnopsuxX.eo) (fgetc)
c:/program files (x86)/microchip/xc32/v1.40/bin/bin/../../lib/gcc/pic32mx/4.8.3/../../../../pic32mx/lib\libc.a(strtod.o)
                              c:/program files (x86)/microchip/xc32/v1.40/bin/bin/../../lib/gcc/pic32mx/4.8.3/../../../../pic32mx/lib\libc.a(doscan_cdfFnopsuxX.eo) (strtod)
c:/program files (x86)/microchip/xc32/v1.40/bin/bin/../../lib/gcc/pic32mx/4.8.3/../../../../pic32mx/lib\libc.a(ungetc.o)
                              c:/program files (x86)/microchip/xc32/v1.40/bin/bin/../../lib/gcc/pic32mx/4.8.3/../../../../pic32mx/lib\libc.a(doscan_cdfFnopsuxX.eo) (ungetc)
c:/program files (x86)/microchip/xc32/v1.40/bin/bin/../../lib/gcc/pic32mx/4.8.3/../../../../pic32mx/lib\libc.a(filbuf.o)
                              c:/program files (x86)/microchip/xc32/v1.40/bin/bin/../../lib/gcc/pic32mx/4.8.3/../../../../pic32mx/lib\libc.a(fgetc.o) (_filbuf)
c:/program files (x86)/microchip/xc32/v1.40/bin/bin/../../lib/gcc/pic32mx/4.8.3/../../../../pic32mx/lib\libc.a(fflush.o)
                              c:/program files (x86)/microchip/xc32/v1.40/bin/bin/../../lib/gcc/pic32mx/4.8.3/../../../../pic32mx/lib\libc.a(filbuf.o) (fflush)
c:/program files (x86)/microchip/xc32/v1.40/bin/bin/../../lib/gcc/pic32mx/4.8.3/../../../../pic32mx/lib\libpic32.a(read.o)
                              c:/program files (x86)/microchip/xc32/v1.40/bin/bin/../../lib/gcc/pic32mx/4.8.3/../../../../pic32mx/lib\libc.a(filbuf.o) (read)
c:/program files (x86)/microchip/xc32/v1.40/bin/bin/../../lib/gcc/pic32mx/4.8.3/../../../../pic32mx/lib\libpic32.a(write.o)
                              c:/program files (x86)/microchip/xc32/v1.40/bin/bin/../../lib/gcc/pic32mx/4.8.3/../../../../pic32mx/lib\libc.a(_fputc_simple.o) (write)
c:/program files (x86)/microchip/xc32/v1.40/bin/bin/../../lib/gcc/pic32mx/4.8.3/../../../../pic32mx/lib\libpic32.a(xc32_uart.o)
                              c:/program files (x86)/microchip/xc32/v1.40/bin/bin/../../lib/gcc/pic32mx/4.8.3/../../../../pic32mx/lib\libpic32.a(read.o) (__XC_UART)
c:/program files (x86)/microchip/xc32/v1.40/bin/bin/../../lib/gcc/pic32mx/4.8.3/../../../../pic32mx/lib\libm.a(dptofp.o)
                              c:/program files (x86)/microchip/xc32/v1.40/bin/bin/../../lib/gcc/pic32mx/4.8.3/../../../../pic32mx/lib\libc.a(strtod.o) (dptofp)
c:/program files (x86)/microchip/xc32/v1.40/bin/bin/../../lib/gcc/pic32mx/4.8.3/../../../../pic32mx/lib\libm.a(fptodp.o)
                              c:/program files (x86)/microchip/xc32/v1.40/bin/bin/../../lib/gcc/pic32mx/4.8.3/../../../../pic32mx/lib\libc.a(doscan_cdfFnopsuxX.eo) (fptodp)
c:/program files (x86)/microchip/xc32/v1.40/bin/bin/../../lib/gcc/pic32mx/4.8.3/../../../../pic32mx/lib\libm.a(__strtod.o)
                              c:/program files (x86)/microchip/xc32/v1.40/bin/bin/../../lib/gcc/pic32mx/4.8.3/../../../../pic32mx/lib\libc.a(strtod.o) (__strtod)
c:/program files (x86)/microchip/xc32/v1.40/bin/bin/../../lib/gcc/pic32mx/4.8.3/../../../../pic32mx/lib\libm.a(__strtof.o)
                              c:/program files (x86)/microchip/xc32/v1.40/bin/bin/../../lib/gcc/pic32mx/4.8.3/../../../../pic32mx/lib\libc.a(strtof.o) (__strtof)
c:/program files (x86)/microchip/xc32/v1.40/bin/bin/../../lib/gcc/pic32mx/4.8.3/../../../../pic32mx/lib\libm.a(dp32div.o)
                              c:/program files (x86)/microchip/xc32/v1.40/bin/bin/../../lib/gcc/pic32mx/4.8.3/../../../../pic32mx/lib\libm.a(__strtod.o) (__divdf3)
c:/program files (x86)/microchip/xc32/v1.40/bin/bin/../../lib/gcc/pic32mx/4.8.3/../../../../pic32mx/lib\libm.a(dp32mul.o)
                              c:/program files (x86)/microchip/xc32/v1.40/bin/bin/../../lib/gcc/pic32mx/4.8.3/../../../../pic32mx/lib\libm.a(__strtod.o) (__muldf3)
c:/program files (x86)/microchip/xc32/v1.40/bin/bin/../../lib/gcc/pic32mx/4.8.3/../../../../pic32mx/lib\libm.a(dp32subadd.o)
                              c:/program files (x86)/microchip/xc32/v1.40/bin/bin/../../lib/gcc/pic32mx/4.8.3/../../../../pic32mx/lib\libm.a(__strtod.o) (__adddf3)
c:/program files (x86)/microchip/xc32/v1.40/bin/bin/../../lib/gcc/pic32mx/4.8.3/../../../../pic32mx/lib\libm.a(litodp.o)
                              c:/program files (x86)/microchip/xc32/v1.40/bin/bin/../../lib/gcc/pic32mx/4.8.3/../../../../pic32mx/lib\libm.a(__strtod.o) (__floatsidf)
c:/program files (x86)/microchip/xc32/v1.40/bin/bin/../../lib/gcc/pic32mx/4.8.3/../../../../pic32mx/lib\libm.a(negdf2.o)
                              c:/program files (x86)/microchip/xc32/v1.40/bin/bin/../../lib/gcc/pic32mx/4.8.3/../../../../pic32mx/lib\libm.a(__strtod.o) (__negdf2)
c:/program files (x86)/microchip/xc32/v1.40/bin/bin/../../lib/gcc/pic32mx/4.8.3/../../../../pic32mx/lib\libm.a(negsf2.o)
                              c:/program files (x86)/microchip/xc32/v1.40/bin/bin/../../lib/gcc/pic32mx/4.8.3/../../../../pic32mx/lib\libm.a(__strtof.o) (__negsf2)
c:/program files (x86)/microchip/xc32/v1.40/bin/bin/../../lib/gcc/pic32mx/4.8.3/../../../../pic32mx/lib\libe.a(_ldexp.o)
                              c:/program files (x86)/microchip/xc32/v1.40/bin/bin/../../lib/gcc/pic32mx/4.8.3/../../../../pic32mx/lib\libm.a(__strtod.o) (__ldexp)
c:/program files (x86)/microchip/xc32/v1.40/bin/bin/../../lib/gcc/pic32mx/4.8.3/../../../../pic32mx/lib\libe.a(_ldexpf.o)
                              c:/program files (x86)/microchip/xc32/v1.40/bin/bin/../../lib/gcc/pic32mx/4.8.3/../../../../pic32mx/lib\libm.a(__strtof.o) (__ldexpf)
c:/program files (x86)/microchip/xc32/v1.40/bin/bin/../../lib/gcc/pic32mx/4.8.3\libgcc.a(_lshrdi3.o)
                              c:/program files (x86)/microchip/xc32/v1.40/bin/bin/../../lib/gcc/pic32mx/4.8.3/../../../../pic32mx/lib\libe.a(_ldexp.o) (__lshrdi3)
c:/program files (x86)/microchip/xc32/v1.40/bin/bin/../../lib/gcc/pic32mx/4.8.3\libgcc.a(_ashldi3.o)
                              c:/program files (x86)/microchip/xc32/v1.40/bin/bin/../../lib/gcc/pic32mx/4.8.3/../../../../pic32mx/lib\libe.a(_ldexp.o) (__ashldi3)

Allocating common symbols
Common symbol       size              file

deviceType          0x2               build/default/production/_ext/1472/MCI_Common.o
RxMsgState          0x4               build/default/production/_ext/1472/EPRI_UARTLayer.o
currencyCode        0x2               build/default/production/_ext/1472/MCI_Common.o
curHTTPID           0x1               build/default/production/_ext/93166211/HTTP2.o
commodityResponse   0xf0              build/default/production/_ext/1472/BasicDR.o
NullRSBuf           0x1a              build/default/production/_ext/1472/EPRI_UARTLayer.o
eventModNumber      0x14              build/default/production/_ext/1472/OpenADRClient.o
setpoint2           0x2               build/default/production/_ext/1472/MCI_Common.o
UDPRxCount          0x2               build/default/production/_ext/93166211/UDP.o
programName         0x20              build/default/production/_ext/1472/OpenADRClient.o
UTCLastServerTime   0x4               build/default/production/_ext/1472/OpenADRClient.o
units               0x1               build/default/production/_ext/1472/MCI_Common.o
curHTTP             0x8c              build/default/production/_ext/93166211/HTTP2.o
RsBuf               0x1a              build/default/production/_ext/1472/OpenADRClient.o
setpoint1           0x2               build/default/production/_ext/1472/MCI_Common.o
httpStubs           0x10              build/default/production/_ext/93166211/HTTP2.o
SourceUnamePw       0x32              build/default/production/_ext/1472/OpenADRClient.o
tempbreakpoint      0x4               build/default/production/_ext/1472/OpenADRClient.o
TCPPutBuffer        0x3e8             build/default/production/_ext/1472/OpenADRClient.o
ExpectedAckType     0x1               build/default/production/_ext/1472/BasicDR.o
EncodedUNPW         0x4b              build/default/production/_ext/1472/OpenADRClient.o
operationModeValue  0x8               build/default/production/_ext/1472/OpenADRClient.o
FoundHTTPHeader     0x4               build/default/production/_ext/1472/OpenADRClient.o
nextPrice           0x4               build/default/production/_ext/1472/MCI_Common.o
WF_hibernate        0x2               build/default/production/_ext/388820833/WFMac_24G.o
DNS_IP_ADDR         0x4               build/default/production/_ext/1472/OpenADRClient.o
g_rxDtim            0x4               build/default/production/_ext/388820833/WFPowerSave.o
GetEventStateTimer  0x4               build/default/production/_ext/1472/OpenADRClient.o
notificationTime    0x28              build/default/production/_ext/1472/OpenADRClient.o
UDPTxCount          0x2               build/default/production/_ext/93166211/UDP.o
UTCTime             0x4               build/default/production/_ext/1472/OpenADRClient.o
IdleNormal          0x4               build/default/production/_ext/1472/EPRI_UARTLayer.o
SQueryTimer         0x4               build/default/production/_ext/1472/OpenADRClient.o
g_rxBufferLength    0x2               build/default/production/_ext/388820833/WFMac_24G.o
responseCode        0x1               build/default/production/_ext/1472/MCI_Common.o
eventType           0x4               build/default/production/_ext/1472/RESTAPI.o
AsyncRxRSBuf        0x1a              build/default/production/_ext/1472/EPRI_UARTLayer.o
LastServerTicks     0x4               build/default/production/_ext/1472/OpenADRClient.o
LengthOfContent     0x4               build/default/production/_ext/1472/OpenADRClient.o
CommTimer           0x4               build/default/production/_ext/1472/OpenADRClient.o
nCommodities        0x1               build/default/production/_ext/1472/MCI_Common.o
RawWindowState      0x2               build/default/production/_ext/388820833/WFDriverRaw_24G.o
UTCServerTime       0x4               build/default/production/_ext/1472/OpenADRClient.o
activeUDPSocket     0x1               build/default/production/_ext/93166211/UDP.o
tmTickDownTimeI     0x24              build/default/production/_ext/1472/TimeMonitor.o
UDPSocketInfo       0xe0              build/default/production/_ext/93166211/UDP.o
g_easyConfigCtx     0x94              build/default/production/_ext/388820833/WFEasyConfig.o
AsyncTxRSBuf        0x1a              build/default/production/_ext/1472/EPRI_UARTLayer.o
curOptouthash       0x4               build/default/production/_ext/1472/app_UCM.o
digitsAfterPoint    0x1               build/default/production/_ext/1472/MCI_Common.o
tzsec               0x4               build/default/production/_ext/1472/OpenADRClient.o
g_ScanCtx           0x6               build/default/production/_ext/388820833/WFEasyConfig.o
eventStateQ         0x2d0             build/default/production/_ext/1472/OpenADRClient.o
currentPrice        0x2               build/default/production/_ext/1472/MCI_Common.o
RawMoveState        0x8               build/default/production/_ext/388820833/WFDriverCom_24G.o
modeTimeSlot        0x14              build/default/production/_ext/1472/OpenADRClient.o
eventIdentifier     0x20              build/default/production/_ext/1472/OpenADRClient.o
Local_Time          0x4               build/default/production/_ext/1472/OpenADRClient.o
expirationTime      0x4               build/default/production/_ext/1472/MCI_Common.o
sbuf                0x28              build/default/production/_ext/1472/Main.o
TxMsgState          0x4               build/default/production/_ext/1472/EPRI_UARTLayer.o
eventStatus         0x8               build/default/production/_ext/1472/OpenADRClient.o
HTTPResponse        0x4               build/default/production/_ext/1472/OpenADRClient.o
startTime           0x28              build/default/production/_ext/1472/OpenADRClient.o
TCPpayload_buf      0x189c            build/default/production/_ext/1472/OpenADRClient.o
DebugCnt            0x1               build/default/production/_ext/1472/OpenADRClient.o
TCP_blackout        0x4               build/default/production/_ext/1472/OpenADRClient.o
remoteNode          0xa               build/default/production/_ext/93166211/StackTsk.o
GMTstr              0x32              build/default/production/_ext/1472/OpenADRClient.o
tmCallbackFunctionI
                    0x24              build/default/production/_ext/1472/TimeMonitor.o
RxBuf               0x12c             build/default/production/_ext/1472/EPRI_UARTLayer.o
ActiveEventID       0x20              build/default/production/_ext/1472/OpenADRClient.o
AppConfig           0x9a              build/default/production/_ext/1472/Main.o
currentOffset       0x1               build/default/production/_ext/1472/MCI_Common.o
rxmessage           0x12c             build/default/production/_ext/1472/EPRI_UARTLayer.o
RunningNormal       0x4               build/default/production/_ext/1472/EPRI_UARTLayer.o
currentTime         0x14              build/default/production/_ext/1472/OpenADRClient.o
HttpLocation        0x32              build/default/production/_ext/1472/OpenADRClient.o
eventStateID        0x20              build/default/production/_ext/1472/OpenADRClient.o
payloadptr          0x4               build/default/production/_ext/1472/OpenADRClient.o
timeOffset          0x14              build/default/production/_ext/1472/OpenADRClient.o
RelayMsgState       0x4               build/default/production/_ext/1472/BasicDR.o
DhcpIpPool          0x78              build/default/production/_ext/93166211/DHCPs.o
preScanResult       0xb54             build/default/production/_ext/388820833/WFEasyConfig.o
TCP_Message         0x4               build/default/production/_ext/1472/app_UCM.o
endTime             0x28              build/default/production/_ext/1472/OpenADRClient.o
LoadFactor          0x4               build/default/production/_ext/1472/OpenADRClient.o
commGoodOld         0x4               build/default/production/_ext/1472/OpenADRClient.o
lostlink_flag       0x4               build/default/production/_ext/1472/app_UCM.o
txmessage           0xa               build/default/production/_ext/1472/EPRI_UARTLayer.o
pbuf                0x78              build/default/production/_ext/1472/OpenADRClient.o
FoundHTTPBody       0x4               build/default/production/_ext/1472/OpenADRClient.o
commGood            0x4               build/default/production/_ext/1472/OpenADRClient.o
DelayTimer          0x4               build/default/production/_ext/1472/OpenADRClient.o
LL_MsgState         0x4               build/default/production/_ext/1472/LinkLayerMessaging.o

Microchip PIC32 Memory-Usage Report

kseg0 Program-Memory Usage
section                    address  length [bytes]      (dec)  Description
-------                 ----------  -------------------------  -----------
.rodata                 0x9d000000         0x7920       31008  Read-only const 
.text                   0x9d007920        0x133a0       78752  App's exec code 
.rodata                 0x9d01acc0          0xe88        3720  Read-only const 
.dinit                  0x9d01bb48          0xd50        3408   
.text                   0x9d01c898         0x4bd4       19412  App's exec code 
.text._vfprintf_cdnopsu 0x9d02146c          0xad0        2768   
.text                   0x9d021f3c         0x14cc        5324  App's exec code 
.text._vfscanf_cdfFnops 0x9d023408          0xa28        2600   
.text                   0x9d023e30         0x2f64       12132  App's exec code 
.text._vfscanf_cdnopsux 0x9d026d94          0x84c        2124   
.text._vfscanf_cdnopuxX 0x9d0275e0          0x84c        2124   
.rodata                 0x9d027e2c          0x7d4        2004  Read-only const 
.text                   0x9d028600          0x78c        1932  App's exec code 
.rodata                 0x9d028d8c          0x788        1928  Read-only const 
.text                   0x9d029514         0x1b1c        6940  App's exec code 
.rodata                 0x9d02b030          0x5a8        1448  Read-only const 
.text                   0x9d02b5d8          0x574        1396  App's exec code 
.rodata                 0x9d02bb4c          0x520        1312  Read-only const 
.text                   0x9d02c06c          0x4b8        1208  App's exec code 
.text.dp32mul           0x9d02c524          0x4b8        1208   
.text                   0x9d02c9dc          0xd48        3400  App's exec code 
.text.dp32subadd        0x9d02d724          0x430        1072   
.text                   0x9d02db54          0x3f0        1008  App's exec code 
.text.__strtod          0x9d02df44          0x3d0         976   
.text                   0x9d02e314          0x70c        1804  App's exec code 
.text.__strtof          0x9d02ea20          0x358         856   
.text                   0x9d02ed78          0x33c         828  App's exec code 
.text.dp32mul           0x9d02f0b4          0x32c         812   
.text                   0x9d02f3e0          0x5e8        1512  App's exec code 
.text.asctime           0x9d02f9c8          0x2e4         740   
.text                   0x9d02fcac          0x598        1432  App's exec code 
.text.strtoull          0x9d030244          0x2b0         688   
.text                   0x9d0304f4          0x534        1332  App's exec code 
.text.fpsubadd          0x9d030a28          0x278         632   
.text                   0x9d030ca0          0x6bc        1724  App's exec code 
.text.fp32div           0x9d03135c          0x230         560   
.text.mktime            0x9d03158c          0x1e0         480   
.rodata                 0x9d03176c          0x1bc         444  Read-only const 
.text.fp32mul           0x9d031928          0x1bc         444   
.text.gmtime            0x9d031ae4          0x1bc         444   
.text.strtoll           0x9d031ca0          0x1b8         440   
.text.libm              0x9d031e58          0x1ac         428   
.text.__ldexp           0x9d032004          0x1a8         424   
.text                   0x9d0321ac          0x4dc        1244  App's exec code 
.text._filbuf           0x9d032688          0x188         392   
.text                   0x9d032810          0x2d0         720  App's exec code 
.text.read              0x9d032ae0          0x158         344   
.text.fputc             0x9d032c38          0x144         324   
.text                   0x9d032d7c          0x278         632  App's exec code 
.text._flsbuf           0x9d032ff4          0x12c         300   
.text                   0x9d033120          0x344         836  App's exec code 
.rodata                 0x9d033464          0x210         528  Read-only const 
.text.fgetc             0x9d033674          0x104         260   
.text.__ldexpf          0x9d033778          0x104         260   
.text.dptofp            0x9d03387c          0x100         256   
.text.libm              0x9d03397c           0xfc         252   
.text                   0x9d033a78           0xf4         244  App's exec code 
.rodata                 0x9d033b6c           0xe8         232  Read-only const 
.text                   0x9d033c54           0xe4         228  App's exec code 
.text.general_exception 0x9d033d38           0xdc         220   
.text                   0x9d033e14          0x1a4         420  App's exec code 
.text.strtok            0x9d033fb8           0xd0         208   
.rodata                 0x9d034088          0x198         408  Read-only const 
.text                   0x9d034220           0xb4         180  App's exec code 
.text.libm              0x9d0342d4           0xb4         180   
.rodata                 0x9d034388           0xb0         176  Read-only const 
.text.libm              0x9d034438           0xb0         176   
.text.atol              0x9d0344e8           0xac         172   
.text.fptodp            0x9d034594           0xac         172   
.text                   0x9d034640           0xa8         168  App's exec code 
.text.atoi              0x9d0346e8           0xa8         168   
.text.range             0x9d034790          0x1f8         504   
.text.fflush            0x9d034988           0xa0         160   
.text.fpcmp             0x9d034a28           0x9c         156   
.text.write             0x9d034ac4           0x9c         156   
.text                   0x9d034b60          0x1c8         456  App's exec code 
.rodata                 0x9d034d28           0x90         144  Read-only const 
.text.strstr            0x9d034db8           0x90         144   
.text                   0x9d034e48          0x10c         268  App's exec code 
.text.UARTEnable        0x9d034f54           0x80         128   
.text.fptoli            0x9d034fd4           0x80         128   
.text.SoftReset         0x9d035054           0x7c         124   
.text.fptoul            0x9d0350d0           0x7c         124   
.text.litodp            0x9d03514c           0x78         120   
.text.IdleI2C2          0x9d0351c4           0x74         116   
.text.strncpy           0x9d035238           0x74         116   
.text.ungetc            0x9d0352ac           0x74         116   
.text.strncmp           0x9d035320           0x70         112   
.text.strcspn           0x9d035390           0x70         112   
.text.strspn            0x9d035400           0x70         112   
.rodata                 0x9d035470           0x68         104  Read-only const 
.text.sqrtf             0x9d0354d8           0x68         104   
.text.dylen.part.0      0x9d035540           0x68         104   
.text.strrchr           0x9d0355a8           0x68         104   
.text._sprintf_cdnopsux 0x9d035610           0x68         104   
.text.sitofp            0x9d035678           0x60          96   
.text.fputs             0x9d0356d8           0x60          96   
.text.wspace            0x9d035738          0x120         288   
.text.UARTSetDataRate   0x9d035858           0x5c          92   
.text.main_entry        0x9d0358b4           0x54          84   
.rodata                 0x9d035908           0xa8         168  Read-only const 
.text.I2CBusIsIdle      0x9d0359b0           0x54          84   
.text._sscanf_cdfFnopsu 0x9d035a04           0x54          84   
.rodata                 0x9d035a58           0x4c          76  Read-only const 
.text.putsUART1         0x9d035aa4           0x4c          76   
.text.putsUART2         0x9d035af0           0x4c          76   
.text                   0x9d035b3c           0x4c          76  App's exec code 
.rodata                 0x9d035b88           0x4c          76  Read-only const 
.text.I2CSetFrequency   0x9d035bd4           0x48          72   
.text._bootstrap_except 0x9d035c1c           0x48          72   
.vector_default         0x9d035c64           0x48          72   
.rodata                 0x9d035cac           0x48          72  Read-only const 
.text                   0x9d035cf4           0x44          68  App's exec code 
.text.I2CGetStatus      0x9d035d38           0x44          68   
.text.ctime             0x9d035d7c           0x44          68   
.text.puts              0x9d035dc0           0x44          68   
.text.strcat            0x9d035e04           0x44          68   
.text.INTSetVectorPrior 0x9d035e48           0x40          64   
.text.INTSetVectorSubPr 0x9d035e88           0x40          64   
.text.UARTGetDataRate   0x9d035ec8           0x40          64   
.text._printf_cdnopsuxX 0x9d035f08           0x40          64   
.text                   0x9d035f48           0x80         128  App's exec code 
.rodata                 0x9d035fc8           0x3c          60  Read-only const 
.text.INTEnable         0x9d036004           0x3c          60   
.text.UARTConfigure     0x9d036040           0x3c          60   
.text.UARTSetAddress    0x9d03607c           0x3c          60   
.text.localtime         0x9d0360b8           0x3c          60   
.text.INTEnableSystemMu 0x9d0360f4           0x34          52   
.text.UARTWatchForAddre 0x9d036128           0x34          52   
.text.I2CReceiverEnable 0x9d03615c           0x34          52   
.rodata                 0x9d036190           0x30          48  Read-only const 
.text.INTGetVectorPrior 0x9d0361c0           0x30          48   
.text.INTGetVectorSubPr 0x9d0361f0           0x30          48   
.text.I2CRepeatStart    0x9d036220           0x30          48   
.text.I2CStart          0x9d036250           0x30          48   
.text.INTClearFlag      0x9d036280           0x2c          44   
.text.INTSetFlag        0x9d0362ac           0x2c          44   
.text.INTGetFlag        0x9d0362d8           0x2c          44   
.text.INTGetEnable      0x9d036304           0x2c          44   
.text.strchr            0x9d036330           0x2c          44   
.text.UARTSetFifoMode   0x9d03635c           0x28          40   
.text.UARTSetLineContro 0x9d036384           0x28          40   
.text.I2CEnable         0x9d0363ac           0x28          40   
.text.strtod            0x9d0363d4           0x28          40   
.rodata                 0x9d0363fc           0x24          36  Read-only const 
.text                   0x9d036420           0x24          36  App's exec code 
.rodata                 0x9d036444           0x24          36  Read-only const 
.text.I2CByteWasAcknowl 0x9d036468           0x24          36   
.text.I2CStop           0x9d03648c           0x24          36   
.text.I2CTransmissionHa 0x9d0364b0           0x24          36   
.text.I2CTransmitterIsR 0x9d0364d4           0x24          36   
.text.tolower           0x9d0364f8           0x24          36   
.text.toupper           0x9d03651c           0x24          36   
.rodata                 0x9d036540           0x20          32  Read-only const 
.text.I2CGetByte        0x9d036560           0x20          32   
.text.I2CReceivedDataIs 0x9d036580           0x20          32   
.text.atoll             0x9d0365a0           0x20          32   
.text.putchar           0x9d0365c0           0x20          32   
.rodata                 0x9d0365e0           0x38          56  Read-only const 
.text.INTRestoreInterru 0x9d036618           0x1c          28   
.text.atof              0x9d036634           0x1c          28   
.text.strtof            0x9d036650           0x1c          28   
.text.strtodf           0x9d03666c           0x1c          28   
.text._dstrtod          0x9d036688           0x1c          28   
.text.negdf2            0x9d0366a4           0x1c          28   
.text.CheKseg0CacheOff  0x9d0366c0           0x18          24   
.text.CheKseg0CacheOn   0x9d0366d8           0x18          24   
.rodata                 0x9d0366f0           0x18          24  Read-only const 
.text                   0x9d036708           0x18          24  App's exec code 
.text.isalnum           0x9d036720           0x18          24   
.text.isalpha           0x9d036738           0x18          24   
.text.iscntrl           0x9d036750           0x18          24   
.text.isdigit           0x9d036768           0x18          24   
.text.isgraph           0x9d036780           0x18          24   
.text.islower           0x9d036798           0x18          24   
.text.isprint           0x9d0367b0           0x18          24   
.text.ispunct           0x9d0367c8           0x18          24   
.text.isspace           0x9d0367e0           0x18          24   
.text.isupper           0x9d0367f8           0x18          24   
.text.isxdigit          0x9d036810           0x18          24   
.rodata                 0x9d036828           0x40          64  Read-only const 
.text.negsf2            0x9d036868           0x14          20   
.rodata                 0x9d03687c           0x20          32  Read-only const 
.text.INTDisableInterru 0x9d03689c            0x8           8   
.text.INTEnableInterrup 0x9d0368a4            0x8           8   
.text._on_reset         0x9d0368ac            0x8           8   
.text._on_bootstrap     0x9d0368b4            0x8           8   
.text.isascii           0x9d0368bc            0x8           8   
.text.toascii           0x9d0368c4            0x8           8   
.text._tolower          0x9d0368cc            0x8           8   
.text._toupper          0x9d0368d4            0x8           8   
.rodata                 0x9d0368dc            0x4           4  Read-only const 
.rodata                 0x9d0368e0            0x1           1  Read-only const 
      Total kseg0_program_mem used  :     0x368e1      223457  85.2% of 0x40000

kseg0 Boot-Memory Usage
section                    address  length [bytes]      (dec)  Description
-------                 ----------  -------------------------  -----------
         Total kseg0_boot_mem used  :           0           0  <1% of 0x970

Exception-Memory Usage 
section                    address  length [bytes]      (dec)  Description
-------                 ----------  -------------------------  -----------
.app_excpt              0x9fc01180           0x10          16  General-Exception 
.vector_0               0x9fc01200            0x8           8  Interrupt Vector 0 
.vector_1               0x9fc01220            0x8           8  Interrupt Vector 1 
.vector_2               0x9fc01240            0x8           8  Interrupt Vector 2 
.vector_3               0x9fc01260            0x8           8  Interrupt Vector 3 
.vector_4               0x9fc01280            0x8           8  Interrupt Vector 4 
.vector_5               0x9fc012a0            0x8           8  Interrupt Vector 5 
.vector_6               0x9fc012c0            0x8           8  Interrupt Vector 6 
.vector_7               0x9fc012e0            0x8           8  Interrupt Vector 7 
.vector_8               0x9fc01300            0x8           8  Interrupt Vector 8 
.vector_9               0x9fc01320            0x8           8  Interrupt Vector 9 
.vector_10              0x9fc01340            0x8           8  Interrupt Vector 10 
.vector_11              0x9fc01360            0x8           8  Interrupt Vector 11 
.vector_12              0x9fc01380            0x8           8  Interrupt Vector 12 
.vector_13              0x9fc013a0            0x8           8  Interrupt Vector 13 
.vector_14              0x9fc013c0            0x8           8  Interrupt Vector 14 
.vector_15              0x9fc013e0            0x8           8  Interrupt Vector 15 
.vector_16              0x9fc01400            0x8           8  Interrupt Vector 16 
.vector_17              0x9fc01420            0x8           8  Interrupt Vector 17 
.vector_18              0x9fc01440            0x8           8  Interrupt Vector 18 
.vector_19              0x9fc01460            0x8           8  Interrupt Vector 19 
.vector_20              0x9fc01480            0x8           8  Interrupt Vector 20 
.vector_21              0x9fc014a0            0x8           8  Interrupt Vector 21 
.vector_22              0x9fc014c0            0x8           8  Interrupt Vector 22 
.vector_23              0x9fc014e0            0x8           8  Interrupt Vector 23 
.vector_24              0x9fc01500            0x8           8  Interrupt Vector 24 
.vector_25              0x9fc01520            0x8           8  Interrupt Vector 25 
.vector_26              0x9fc01540            0x8           8  Interrupt Vector 26 
.vector_27              0x9fc01560            0x8           8  Interrupt Vector 27 
.vector_28              0x9fc01580            0x8           8  Interrupt Vector 28 
.vector_29              0x9fc015a0            0x8           8  Interrupt Vector 29 
.vector_30              0x9fc015c0            0x8           8  Interrupt Vector 30 
.vector_31              0x9fc015e0            0x8           8  Interrupt Vector 31 
.vector_32              0x9fc01600            0x8           8  Interrupt Vector 32 
.vector_33              0x9fc01620            0x8           8  Interrupt Vector 33 
.vector_34              0x9fc01640            0x8           8  Interrupt Vector 34 
.vector_35              0x9fc01660            0x8           8  Interrupt Vector 35 
.vector_36              0x9fc01680            0x8           8  Interrupt Vector 36 
.vector_37              0x9fc016a0            0x8           8  Interrupt Vector 37 
.vector_38              0x9fc016c0            0x8           8  Interrupt Vector 38 
.vector_39              0x9fc016e0            0x8           8  Interrupt Vector 39 
.vector_40              0x9fc01700            0x8           8  Interrupt Vector 40 
.vector_41              0x9fc01720            0x8           8  Interrupt Vector 41 
.vector_42              0x9fc01740            0x8           8  Interrupt Vector 42 
.vector_43              0x9fc01760            0x8           8  Interrupt Vector 43 
.vector_44              0x9fc01780            0x8           8  Interrupt Vector 44 
.vector_45              0x9fc017a0            0x8           8  Interrupt Vector 45 
.vector_46              0x9fc017c0            0x8           8  Interrupt Vector 46 
.vector_47              0x9fc017e0            0x8           8  Interrupt Vector 47 
.vector_48              0x9fc01800            0x8           8  Interrupt Vector 48 
.vector_49              0x9fc01820            0x8           8  Interrupt Vector 49 
.vector_50              0x9fc01840            0x8           8  Interrupt Vector 50 
.vector_51              0x9fc01860            0x8           8  Interrupt Vector 51 
          Total exception_mem used  :       0x1b0         432  10.5% of 0x1000

kseg1 Boot-Memory Usage
section                    address  length [bytes]      (dec)  Description
-------                 ----------  -------------------------  -----------
.reset                  0xbfc00000          0x1f4         500  Reset handler 
.bev_excpt              0xbfc00380           0x10          16  BEV-Exception 
         Total kseg1_boot_mem used  :       0x204         516  44.2% of 0x490
        --------------------------------------------------------------------------
         Total Program Memory used  :     0x36c95      224405  83.2% of 0x41e00
        --------------------------------------------------------------------------


kseg1 Data-Memory Usage
section                    address  length [bytes]      (dec)  Description
-------                 ----------  -------------------------  -----------
.sdata                  0xa0000000          0x1d4         468  Small init data 
.sbss                   0xa00001d4          0x2e0         736  Small uninit data 
.bss                    0xa00004b8         0x34b8       13496  Uninitialized data 
.bss                    0xa0003970          0x360         864  Uninitialized data 
.data                   0xa0003cd0          0x6b8        1720  Initialized data 
.bss                    0xa0004388          0x1cc         460  Uninitialized data 
.data                   0xa0004554           0xa4         164  Initialized data 
.bss                    0xa00045f8          0x1fc         508  Uninitialized data 
.data.math_errhandling_ 0xa00047f4            0x4           4   
.bss.errno              0xa00047f8            0x4           4   
.bss                    0xa00047fc           0x10          16  Uninitialized data 
         Total kseg1_data_mem used  :      0x4808       18440  28.1% of 0x10000
        --------------------------------------------------------------------------
            Total Data Memory used  :      0x4808       18440  28.1% of 0x10000
        --------------------------------------------------------------------------


Dynamic Data-Memory Reservation
section                    address  length [bytes]      (dec)  Description
-------                 ----------  -------------------------  -----------
heap                    0xa0004818           0x10          16  Reserved for heap 
stack                   0xa0004840         0xb7b8       47032  Reserved for stack 

        --------------------------------------------------------------------------

Discarded input sections

 .reginfo       0x00000000       0x18 c:/program files (x86)/microchip/xc32/v1.40/bin/bin/../../lib/gcc/pic32mx/4.8.3/../../../../pic32mx/lib\debug-exception-return.o
 .reginfo       0x00000000       0x18 build/default/production/_ext/93166211/Announce.o
 .reginfo       0x00000000       0x18 build/default/production/_ext/93166211/ARCFOUR.o
 .reginfo       0x00000000       0x18 build/default/production/_ext/93166211/ARP.o
 .reginfo       0x00000000       0x18 build/default/production/_ext/93166211/AutoIP.o
 .reginfo       0x00000000       0x18 build/default/production/_ext/93166211/BerkeleyAPI.o
 .reginfo       0x00000000       0x18 build/default/production/_ext/93166211/BigInt.o
 .reginfo       0x00000000       0x18 build/default/production/_ext/93166211/BigInt_helper_PIC32.o
 .reginfo       0x00000000       0x18 build/default/production/_ext/93166211/Delay.o
 .reginfo       0x00000000       0x18 build/default/production/_ext/93166211/DNS.o
 .reginfo       0x00000000       0x18 build/default/production/_ext/93166211/DNSs.o
 .reginfo       0x00000000       0x18 build/default/production/_ext/93166211/DynDNS.o
 .reginfo       0x00000000       0x18 build/default/production/_ext/93166211/FileSystem.o
 .reginfo       0x00000000       0x18 build/default/production/_ext/93166211/FTP.o
 .reginfo       0x00000000       0x18 build/default/production/_ext/93166211/Hashes.o
 .reginfo       0x00000000       0x18 build/default/production/_ext/93166211/Helpers.o
 .reginfo       0x00000000       0x18 build/default/production/_ext/93166211/HTTP2.o
 .reginfo       0x00000000       0x18 build/default/production/_ext/93166211/ICMP.o
 .reginfo       0x00000000       0x18 build/default/production/_ext/93166211/IP.o
 .reginfo       0x00000000       0x18 build/default/production/_ext/93166211/LCDBlocking.o
 .reginfo       0x00000000       0x18 build/default/production/_ext/93166211/MPFS2.o
 .reginfo       0x00000000       0x18 build/default/production/_ext/93166211/NBNS.o
 .reginfo       0x00000000       0x18 build/default/production/_ext/93166211/Random.o
 .reginfo       0x00000000       0x18 build/default/production/_ext/93166211/Reboot.o
 .reginfo       0x00000000       0x18 build/default/production/_ext/93166211/RSA.o
 .reginfo       0x00000000       0x18 build/default/production/_ext/93166211/SMTP.o
 .reginfo       0x00000000       0x18 build/default/production/_ext/93166211/SNMP.o
 .reginfo       0x00000000       0x18 build/default/production/_ext/93166211/SNMPv3.o
 .reginfo       0x00000000       0x18 build/default/production/_ext/93166211/SNMPv3USM.o
 .reginfo       0x00000000       0x18 build/default/production/_ext/93166211/SNTP.o
 .reginfo       0x00000000       0x18 build/default/production/_ext/93166211/SPIEEPROM.o
 .reginfo       0x00000000       0x18 build/default/production/_ext/93166211/SPIFlash.o
 .reginfo       0x00000000       0x18 build/default/production/_ext/93166211/SPIRAM.o
 .reginfo       0x00000000       0x18 build/default/production/_ext/93166211/SSL.o
 .reginfo       0x00000000       0x18 build/default/production/_ext/93166211/StackTsk.o
 .reginfo       0x00000000       0x18 build/default/production/_ext/93166211/TCP.o
 .reginfo       0x00000000       0x18 build/default/production/_ext/93166211/TCPPerformanceTest.o
 .reginfo       0x00000000       0x18 build/default/production/_ext/93166211/Telnet.o
 .reginfo       0x00000000       0x18 build/default/production/_ext/93166211/TFTPc.o
 .reginfo       0x00000000       0x18 build/default/production/_ext/93166211/Tick.o
 .reginfo       0x00000000       0x18 build/default/production/_ext/93166211/UART2TCPBridge.o
 .reginfo       0x00000000       0x18 build/default/production/_ext/93166211/UDP.o
 .reginfo       0x00000000       0x18 build/default/production/_ext/93166211/UDPPerformanceTest.o
 .reginfo       0x00000000       0x18 build/default/production/_ext/93166211/ZeroconfHelper.o
 .reginfo       0x00000000       0x18 build/default/production/_ext/93166211/ZeroconfLinkLocal.o
 .reginfo       0x00000000       0x18 build/default/production/_ext/93166211/ZeroconfMulticastDNS.o
 .reginfo       0x00000000       0x18 build/default/production/_ext/93166211/DHCP.o
 .reginfo       0x00000000       0x18 build/default/production/_ext/93166211/DHCPs.o
 .reginfo       0x00000000       0x18 build/default/production/_ext/388820833/WF_Eint.o
 .reginfo       0x00000000       0x18 build/default/production/_ext/388820833/WF_pbkdf2.o
 .reginfo       0x00000000       0x18 build/default/production/_ext/388820833/WFConnectionAlgorithm.o
 .reginfo       0x00000000       0x18 build/default/production/_ext/388820833/WFConnectionManager.o
 .reginfo       0x00000000       0x18 build/default/production/_ext/388820833/WFConnectionProfile.o
 .reginfo       0x00000000       0x18 build/default/production/_ext/388820833/WFConsole.o
 .reginfo       0x00000000       0x18 build/default/production/_ext/388820833/WFConsoleIfconfig.o
 .reginfo       0x00000000       0x18 build/default/production/_ext/388820833/WFConsoleIwconfig.o
 .reginfo       0x00000000       0x18 build/default/production/_ext/388820833/WFConsoleIwpriv.o
 .reginfo       0x00000000       0x18 build/default/production/_ext/388820833/WFConsoleMsgHandler.o
 .reginfo       0x00000000       0x18 build/default/production/_ext/388820833/WFConsoleMsgs.o
 .reginfo       0x00000000       0x18 build/default/production/_ext/388820833/WFDataTxRx.o
 .reginfo       0x00000000       0x18 build/default/production/_ext/388820833/WFDebugStrings.o
 .reginfo       0x00000000       0x18 build/default/production/_ext/388820833/WFEasyConfig.o
 .reginfo       0x00000000       0x18 build/default/production/_ext/388820833/WFEventHandler.o
 .reginfo       0x00000000       0x18 build/default/production/_ext/388820833/WFInit.o
 .reginfo       0x00000000       0x18 build/default/production/_ext/388820833/WFPowerSave.o
 .reginfo       0x00000000       0x18 build/default/production/_ext/388820833/WFScan.o
 .reginfo       0x00000000       0x18 build/default/production/_ext/388820833/WFTxPower.o
 .reginfo       0x00000000       0x18 build/default/production/_ext/388820833/WF_Spi.o
 .reginfo       0x00000000       0x18 build/default/production/_ext/388820833/WFDriverCom_24G.o
 .reginfo       0x00000000       0x18 build/default/production/_ext/388820833/WFDriverRaw_24G.o
 .reginfo       0x00000000       0x18 build/default/production/_ext/388820833/WFMac_24G.o
 .reginfo       0x00000000       0x18 build/default/production/_ext/388820833/WFMgmtMsg_24G.o
 .reginfo       0x00000000       0x18 build/default/production/_ext/388820833/WFParamMsg_24G.o
 .reginfo       0x00000000       0x18 build/default/production/_ext/1472/Main.o
 .reginfo       0x00000000       0x18 build/default/production/_ext/1472/CustomHTTPApp.o
 .reginfo       0x00000000       0x18 build/default/production/_ext/1472/WF_Config.o
 .reginfo       0x00000000       0x18 build/default/production/_ext/1472/WifiGDemoMPFSImg.o
 .reginfo       0x00000000       0x18 build/default/production/_ext/1472/i2c_master.o
 .reginfo       0x00000000       0x18 build/default/production/_ext/1472/OpenADRClient.o
 .reginfo       0x00000000       0x18 build/default/production/_ext/1472/INTiMain.o
 .reginfo       0x00000000       0x18 build/default/production/_ext/1472/UARTiMain.o
 .reginfo       0x00000000       0x18 build/default/production/_ext/1472/TimeMonitor.o
 .reginfo       0x00000000       0x18 build/default/production/_ext/1472/EPRI_UARTLayer.o
 .reginfo       0x00000000       0x18 build/default/production/_ext/1472/app_UCM.o
 .reginfo       0x00000000       0x18 build/default/production/_ext/1472/Assert.o
 .reginfo       0x00000000       0x18 build/default/production/_ext/1472/EPRI_SPILayer.o
 .reginfo       0x00000000       0x18 build/default/production/_ext/1472/MCI_Common.o
 .reginfo       0x00000000       0x18 build/default/production/_ext/1472/LinkLayerMessaging.o
 .reginfo       0x00000000       0x18 build/default/production/_ext/1472/BasicDR.o
 .reginfo       0x00000000       0x18 build/default/production/_ext/1472/debugging.o
 .reginfo       0x00000000       0x18 build/default/production/_ext/1472/RESTAPI.o
 .reginfo       0x00000000       0x18 c:/program files (x86)/microchip/xc32/v1.40/bin/bin/../../lib/gcc/pic32mx/4.8.3/../../../../pic32mx/lib/./proc/32MX575F256L\default_isr_vectors.o
 .discard       0x00000000       0xd0 c:/program files (x86)/microchip/xc32/v1.40/bin/bin/../../lib/gcc/pic32mx/4.8.3/../../../../pic32mx/lib/./proc/32MX575F256L\default_isr_vectors.o
 .reginfo       0x00000000       0x18 c:/program files (x86)/microchip/xc32/v1.40/bin/bin/../../lib/gcc/pic32mx/4.8.3/../../../../pic32mx/lib\pic32_software_reset.o
 .reginfo       0x00000000       0x18 c:/program files (x86)/microchip/xc32/v1.40/bin/bin/../../lib/gcc/pic32mx/4.8.3/../../../../pic32mx/lib/./proc/32MX575F256L\processor.o
 .reginfo       0x00000000       0x18 c:/program files (x86)/microchip/xc32/v1.40/bin/bin/../../lib/gcc/pic32mx/4.8.3/../../../../pic32mx/lib\libmchp_peripheral_32MX575F256L.a(soft_reset_lib.o)
 .reginfo       0x00000000       0x18 c:/program files (x86)/microchip/xc32/v1.40/bin/bin/../../lib/gcc/pic32mx/4.8.3/../../../../pic32mx/lib\libmchp_peripheral_32MX575F256L.a(pcache.o)
 .reginfo       0x00000000       0x18 c:/program files (x86)/microchip/xc32/v1.40/bin/bin/../../lib/gcc/pic32mx/4.8.3/../../../../pic32mx/lib\libmchp_peripheral_32MX575F256L.a(int_disable_interrupts_lib.o)
 .reginfo       0x00000000       0x18 c:/program files (x86)/microchip/xc32/v1.40/bin/bin/../../lib/gcc/pic32mx/4.8.3/../../../../pic32mx/lib\libmchp_peripheral_32MX575F256L.a(int_restore_interrupts_lib.o)
 .reginfo       0x00000000       0x18 c:/program files (x86)/microchip/xc32/v1.40/bin/bin/../../lib/gcc/pic32mx/4.8.3/../../../../pic32mx/lib\libmchp_peripheral_32MX575F256L.a(int_enable_mv_int_lib.o)
 .reginfo       0x00000000       0x18 c:/program files (x86)/microchip/xc32/v1.40/bin/bin/../../lib/gcc/pic32mx/4.8.3/../../../../pic32mx/lib\libmchp_peripheral_32MX575F256L.a(int_tbl_lib.o)
 .reginfo       0x00000000       0x18 c:/program files (x86)/microchip/xc32/v1.40/bin/bin/../../lib/gcc/pic32mx/4.8.3/../../../../pic32mx/lib\libmchp_peripheral_32MX575F256L.a(uart_lib.o)
 .reginfo       0x00000000       0x18 c:/program files (x86)/microchip/xc32/v1.40/bin/bin/../../lib/gcc/pic32mx/4.8.3/../../../../pic32mx/lib\libmchp_peripheral_32MX575F256L.a(puts_uartx_lib_legacy.o)
 .reginfo       0x00000000       0x18 c:/program files (x86)/microchip/xc32/v1.40/bin/bin/../../lib/gcc/pic32mx/4.8.3/../../../../pic32mx/lib\libmchp_peripheral_32MX575F256L.a(idle_i2c2_lib_legacy.o)
 .reginfo       0x00000000       0x18 c:/program files (x86)/microchip/xc32/v1.40/bin/bin/../../lib/gcc/pic32mx/4.8.3/../../../../pic32mx/lib\libmchp_peripheral_32MX575F256L.a(I2CPrivate.o)
 .reginfo       0x00000000       0x18 c:/program files (x86)/microchip/xc32/v1.40/bin/bin/../../lib/gcc/pic32mx/4.8.3/../../../../pic32mx/lib\libmchp_peripheral_32MX575F256L.a(I2CBusIsIdle.o)
 .reginfo       0x00000000       0x18 c:/program files (x86)/microchip/xc32/v1.40/bin/bin/../../lib/gcc/pic32mx/4.8.3/../../../../pic32mx/lib\libmchp_peripheral_32MX575F256L.a(I2CByteWasAcknowledged.o)
 .reginfo       0x00000000       0x18 c:/program files (x86)/microchip/xc32/v1.40/bin/bin/../../lib/gcc/pic32mx/4.8.3/../../../../pic32mx/lib\libmchp_peripheral_32MX575F256L.a(I2CEnable.o)
 .reginfo       0x00000000       0x18 c:/program files (x86)/microchip/xc32/v1.40/bin/bin/../../lib/gcc/pic32mx/4.8.3/../../../../pic32mx/lib\libmchp_peripheral_32MX575F256L.a(I2CGetByte.o)
 .reginfo       0x00000000       0x18 c:/program files (x86)/microchip/xc32/v1.40/bin/bin/../../lib/gcc/pic32mx/4.8.3/../../../../pic32mx/lib\libmchp_peripheral_32MX575F256L.a(I2CGetStatus.o)
 .reginfo       0x00000000       0x18 c:/program files (x86)/microchip/xc32/v1.40/bin/bin/../../lib/gcc/pic32mx/4.8.3/../../../../pic32mx/lib\libmchp_peripheral_32MX575F256L.a(I2CReceivedDataIsAvailable.o)
 .reginfo       0x00000000       0x18 c:/program files (x86)/microchip/xc32/v1.40/bin/bin/../../lib/gcc/pic32mx/4.8.3/../../../../pic32mx/lib\libmchp_peripheral_32MX575F256L.a(I2CReceiverEnable.o)
 .reginfo       0x00000000       0x18 c:/program files (x86)/microchip/xc32/v1.40/bin/bin/../../lib/gcc/pic32mx/4.8.3/../../../../pic32mx/lib\libmchp_peripheral_32MX575F256L.a(I2CRepeatStart.o)
 .reginfo       0x00000000       0x18 c:/program files (x86)/microchip/xc32/v1.40/bin/bin/../../lib/gcc/pic32mx/4.8.3/../../../../pic32mx/lib\libmchp_peripheral_32MX575F256L.a(I2CSetFrequency.o)
 .reginfo       0x00000000       0x18 c:/program files (x86)/microchip/xc32/v1.40/bin/bin/../../lib/gcc/pic32mx/4.8.3/../../../../pic32mx/lib\libmchp_peripheral_32MX575F256L.a(I2CStart.o)
 .reginfo       0x00000000       0x18 c:/program files (x86)/microchip/xc32/v1.40/bin/bin/../../lib/gcc/pic32mx/4.8.3/../../../../pic32mx/lib\libmchp_peripheral_32MX575F256L.a(I2CStop.o)
 .reginfo       0x00000000       0x18 c:/program files (x86)/microchip/xc32/v1.40/bin/bin/../../lib/gcc/pic32mx/4.8.3/../../../../pic32mx/lib\libmchp_peripheral_32MX575F256L.a(I2CTransmissionHasCompleted.o)
 .reginfo       0x00000000       0x18 c:/program files (x86)/microchip/xc32/v1.40/bin/bin/../../lib/gcc/pic32mx/4.8.3/../../../../pic32mx/lib\libmchp_peripheral_32MX575F256L.a(I2CTransmitterIsReady.o)
 .reginfo       0x00000000       0x18 c:/program files (x86)/microchip/xc32/v1.40/bin/bin/../../lib/gcc/pic32mx/4.8.3/../../../../pic32mx/lib\libmchp_peripheral_32MX575F256L.a(int_enable_interrupts_lib.o)
 .reginfo       0x00000000       0x18 c:/program files (x86)/microchip/xc32/v1.40/bin/bin/../../lib/gcc/pic32mx/4.8.3\libgcc.a(_udivdi3.o)
 .reginfo       0x00000000       0x18 c:/program files (x86)/microchip/xc32/v1.40/bin/bin/../../lib/gcc/pic32mx/4.8.3\libgcc.a(_umoddi3.o)
 .reginfo       0x00000000       0x18 c:/program files (x86)/microchip/xc32/v1.40/bin/bin/../../lib/gcc/pic32mx/4.8.3\libgcc.a(floatunsisf.o)
 .reginfo       0x00000000       0x18 c:/program files (x86)/microchip/xc32/v1.40/bin/bin/../../lib/gcc/pic32mx/4.8.3/../../../../pic32mx/lib\libpic32.a(memcmp.o)
 .reginfo       0x00000000       0x18 c:/program files (x86)/microchip/xc32/v1.40/bin/bin/../../lib/gcc/pic32mx/4.8.3/../../../../pic32mx/lib\libpic32.a(memcpy.o)
 .reginfo       0x00000000       0x18 c:/program files (x86)/microchip/xc32/v1.40/bin/bin/../../lib/gcc/pic32mx/4.8.3/../../../../pic32mx/lib\libpic32.a(memset.o)
 .reginfo       0x00000000       0x18 c:/program files (x86)/microchip/xc32/v1.40/bin/bin/../../lib/gcc/pic32mx/4.8.3/../../../../pic32mx/lib\libpic32.a(strcmp.o)
 .reginfo       0x00000000       0x18 c:/program files (x86)/microchip/xc32/v1.40/bin/bin/../../lib/gcc/pic32mx/4.8.3/../../../../pic32mx/lib\libpic32.a(strcpy.o)
 .reginfo       0x00000000       0x18 c:/program files (x86)/microchip/xc32/v1.40/bin/bin/../../lib/gcc/pic32mx/4.8.3/../../../../pic32mx/lib\libpic32.a(strlen.o)
 .reginfo       0x00000000       0x18 c:/program files (x86)/microchip/xc32/v1.40/bin/bin/../../lib/gcc/pic32mx/4.8.3/../../../../pic32mx/lib\libpic32.a(default-bootstrap-exception-handler.o)
 .reginfo       0x00000000       0x18 c:/program files (x86)/microchip/xc32/v1.40/bin/bin/../../lib/gcc/pic32mx/4.8.3/../../../../pic32mx/lib\libpic32.a(default-on-reset.o)
 .reginfo       0x00000000       0x18 c:/program files (x86)/microchip/xc32/v1.40/bin/bin/../../lib/gcc/pic32mx/4.8.3/../../../../pic32mx/lib\libpic32.a(default-on-bootstrap.o)
 .reginfo       0x00000000       0x18 c:/program files (x86)/microchip/xc32/v1.40/bin/bin/../../lib/gcc/pic32mx/4.8.3/../../../../pic32mx/lib\libpic32.a(default-nmi-handler.o)
 .reginfo       0x00000000       0x18 c:/program files (x86)/microchip/xc32/v1.40/bin/bin/../../lib/gcc/pic32mx/4.8.3/../../../../pic32mx/lib\libpic32.a(general-exception.o)
 .reginfo       0x00000000       0x18 c:/program files (x86)/microchip/xc32/v1.40/bin/bin/../../lib/gcc/pic32mx/4.8.3/../../../../pic32mx/lib\libpic32.a(vector0.o)
 .reginfo       0x00000000       0x18 c:/program files (x86)/microchip/xc32/v1.40/bin/bin/../../lib/gcc/pic32mx/4.8.3/../../../../pic32mx/lib\libpic32.a(vector1.o)
 .reginfo       0x00000000       0x18 c:/program files (x86)/microchip/xc32/v1.40/bin/bin/../../lib/gcc/pic32mx/4.8.3/../../../../pic32mx/lib\libpic32.a(vector2.o)
 .reginfo       0x00000000       0x18 c:/program files (x86)/microchip/xc32/v1.40/bin/bin/../../lib/gcc/pic32mx/4.8.3/../../../../pic32mx/lib\libpic32.a(vector3.o)
 .reginfo       0x00000000       0x18 c:/program files (x86)/microchip/xc32/v1.40/bin/bin/../../lib/gcc/pic32mx/4.8.3/../../../../pic32mx/lib\libpic32.a(vector5.o)
 .reginfo       0x00000000       0x18 c:/program files (x86)/microchip/xc32/v1.40/bin/bin/../../lib/gcc/pic32mx/4.8.3/../../../../pic32mx/lib\libpic32.a(vector6.o)
 .reginfo       0x00000000       0x18 c:/program files (x86)/microchip/xc32/v1.40/bin/bin/../../lib/gcc/pic32mx/4.8.3/../../../../pic32mx/lib\libpic32.a(vector7.o)
 .reginfo       0x00000000       0x18 c:/program files (x86)/microchip/xc32/v1.40/bin/bin/../../lib/gcc/pic32mx/4.8.3/../../../../pic32mx/lib\libpic32.a(vector9.o)
 .reginfo       0x00000000       0x18 c:/program files (x86)/microchip/xc32/v1.40/bin/bin/../../lib/gcc/pic32mx/4.8.3/../../../../pic32mx/lib\libpic32.a(vector10.o)
 .reginfo       0x00000000       0x18 c:/program files (x86)/microchip/xc32/v1.40/bin/bin/../../lib/gcc/pic32mx/4.8.3/../../../../pic32mx/lib\libpic32.a(vector11.o)
 .reginfo       0x00000000       0x18 c:/program files (x86)/microchip/xc32/v1.40/bin/bin/../../lib/gcc/pic32mx/4.8.3/../../../../pic32mx/lib\libpic32.a(vector12.o)
 .reginfo       0x00000000       0x18 c:/program files (x86)/microchip/xc32/v1.40/bin/bin/../../lib/gcc/pic32mx/4.8.3/../../../../pic32mx/lib\libpic32.a(vector13.o)
 .reginfo       0x00000000       0x18 c:/program files (x86)/microchip/xc32/v1.40/bin/bin/../../lib/gcc/pic32mx/4.8.3/../../../../pic32mx/lib\libpic32.a(vector14.o)
 .reginfo       0x00000000       0x18 c:/program files (x86)/microchip/xc32/v1.40/bin/bin/../../lib/gcc/pic32mx/4.8.3/../../../../pic32mx/lib\libpic32.a(vector16.o)
 .reginfo       0x00000000       0x18 c:/program files (x86)/microchip/xc32/v1.40/bin/bin/../../lib/gcc/pic32mx/4.8.3/../../../../pic32mx/lib\libpic32.a(vector17.o)
 .reginfo       0x00000000       0x18 c:/program files (x86)/microchip/xc32/v1.40/bin/bin/../../lib/gcc/pic32mx/4.8.3/../../../../pic32mx/lib\libpic32.a(vector18.o)
 .reginfo       0x00000000       0x18 c:/program files (x86)/microchip/xc32/v1.40/bin/bin/../../lib/gcc/pic32mx/4.8.3/../../../../pic32mx/lib\libpic32.a(vector19.o)
 .reginfo       0x00000000       0x18 c:/program files (x86)/microchip/xc32/v1.40/bin/bin/../../lib/gcc/pic32mx/4.8.3/../../../../pic32mx/lib\libpic32.a(vector20.o)
 .reginfo       0x00000000       0x18 c:/program files (x86)/microchip/xc32/v1.40/bin/bin/../../lib/gcc/pic32mx/4.8.3/../../../../pic32mx/lib\libpic32.a(vector21.o)
 .reginfo       0x00000000       0x18 c:/program files (x86)/microchip/xc32/v1.40/bin/bin/../../lib/gcc/pic32mx/4.8.3/../../../../pic32mx/lib\libpic32.a(vector22.o)
 .reginfo       0x00000000       0x18 c:/program files (x86)/microchip/xc32/v1.40/bin/bin/../../lib/gcc/pic32mx/4.8.3/../../../../pic32mx/lib\libpic32.a(vector23.o)
 .reginfo       0x00000000       0x18 c:/program files (x86)/microchip/xc32/v1.40/bin/bin/../../lib/gcc/pic32mx/4.8.3/../../../../pic32mx/lib\libpic32.a(vector25.o)
 .reginfo       0x00000000       0x18 c:/program files (x86)/microchip/xc32/v1.40/bin/bin/../../lib/gcc/pic32mx/4.8.3/../../../../pic32mx/lib\libpic32.a(vector26.o)
 .reginfo       0x00000000       0x18 c:/program files (x86)/microchip/xc32/v1.40/bin/bin/../../lib/gcc/pic32mx/4.8.3/../../../../pic32mx/lib\libpic32.a(vector27.o)
 .reginfo       0x00000000       0x18 c:/program files (x86)/microchip/xc32/v1.40/bin/bin/../../lib/gcc/pic32mx/4.8.3/../../../../pic32mx/lib\libpic32.a(vector28.o)
 .reginfo       0x00000000       0x18 c:/program files (x86)/microchip/xc32/v1.40/bin/bin/../../lib/gcc/pic32mx/4.8.3/../../../../pic32mx/lib\libpic32.a(vector29.o)
 .reginfo       0x00000000       0x18 c:/program files (x86)/microchip/xc32/v1.40/bin/bin/../../lib/gcc/pic32mx/4.8.3/../../../../pic32mx/lib\libpic32.a(vector30.o)
 .reginfo       0x00000000       0x18 c:/program files (x86)/microchip/xc32/v1.40/bin/bin/../../lib/gcc/pic32mx/4.8.3/../../../../pic32mx/lib\libpic32.a(vector31.o)
 .reginfo       0x00000000       0x18 c:/program files (x86)/microchip/xc32/v1.40/bin/bin/../../lib/gcc/pic32mx/4.8.3/../../../../pic32mx/lib\libpic32.a(vector33.o)
 .reginfo       0x00000000       0x18 c:/program files (x86)/microchip/xc32/v1.40/bin/bin/../../lib/gcc/pic32mx/4.8.3/../../../../pic32mx/lib\libpic32.a(vector34.o)
 .reginfo       0x00000000       0x18 c:/program files (x86)/microchip/xc32/v1.40/bin/bin/../../lib/gcc/pic32mx/4.8.3/../../../../pic32mx/lib\libpic32.a(vector35.o)
 .reginfo       0x00000000       0x18 c:/program files (x86)/microchip/xc32/v1.40/bin/bin/../../lib/gcc/pic32mx/4.8.3/../../../../pic32mx/lib\libpic32.a(vector36.o)
 .reginfo       0x00000000       0x18 c:/program files (x86)/microchip/xc32/v1.40/bin/bin/../../lib/gcc/pic32mx/4.8.3/../../../../pic32mx/lib\libpic32.a(vector37.o)
 .reginfo       0x00000000       0x18 c:/program files (x86)/microchip/xc32/v1.40/bin/bin/../../lib/gcc/pic32mx/4.8.3/../../../../pic32mx/lib\libpic32.a(vector38.o)
 .reginfo       0x00000000       0x18 c:/program files (x86)/microchip/xc32/v1.40/bin/bin/../../lib/gcc/pic32mx/4.8.3/../../../../pic32mx/lib\libpic32.a(vector39.o)
 .reginfo       0x00000000       0x18 c:/program files (x86)/microchip/xc32/v1.40/bin/bin/../../lib/gcc/pic32mx/4.8.3/../../../../pic32mx/lib\libpic32.a(vector40.o)
 .reginfo       0x00000000       0x18 c:/program files (x86)/microchip/xc32/v1.40/bin/bin/../../lib/gcc/pic32mx/4.8.3/../../../../pic32mx/lib\libpic32.a(vector41.o)
 .reginfo       0x00000000       0x18 c:/program files (x86)/microchip/xc32/v1.40/bin/bin/../../lib/gcc/pic32mx/4.8.3/../../../../pic32mx/lib\libpic32.a(vector42.o)
 .reginfo       0x00000000       0x18 c:/program files (x86)/microchip/xc32/v1.40/bin/bin/../../lib/gcc/pic32mx/4.8.3/../../../../pic32mx/lib\libpic32.a(vector43.o)
 .reginfo       0x00000000       0x18 c:/program files (x86)/microchip/xc32/v1.40/bin/bin/../../lib/gcc/pic32mx/4.8.3/../../../../pic32mx/lib\libpic32.a(vector44.o)
 .reginfo       0x00000000       0x18 c:/program files (x86)/microchip/xc32/v1.40/bin/bin/../../lib/gcc/pic32mx/4.8.3/../../../../pic32mx/lib\libpic32.a(vector45.o)
 .reginfo       0x00000000       0x18 c:/program files (x86)/microchip/xc32/v1.40/bin/bin/../../lib/gcc/pic32mx/4.8.3/../../../../pic32mx/lib\libpic32.a(vector46.o)
 .reginfo       0x00000000       0x18 c:/program files (x86)/microchip/xc32/v1.40/bin/bin/../../lib/gcc/pic32mx/4.8.3/../../../../pic32mx/lib\libpic32.a(vector47.o)
 .reginfo       0x00000000       0x18 c:/program files (x86)/microchip/xc32/v1.40/bin/bin/../../lib/gcc/pic32mx/4.8.3/../../../../pic32mx/lib\libpic32.a(vector48.o)
 .reginfo       0x00000000       0x18 c:/program files (x86)/microchip/xc32/v1.40/bin/bin/../../lib/gcc/pic32mx/4.8.3/../../../../pic32mx/lib\libpic32.a(vector49.o)
 .reginfo       0x00000000       0x18 c:/program files (x86)/microchip/xc32/v1.40/bin/bin/../../lib/gcc/pic32mx/4.8.3/../../../../pic32mx/lib\libpic32.a(vector50.o)
 .reginfo       0x00000000       0x18 c:/program files (x86)/microchip/xc32/v1.40/bin/bin/../../lib/gcc/pic32mx/4.8.3/../../../../pic32mx/lib\libpic32.a(vector51.o)
 .reginfo       0x00000000       0x18 c:/program files (x86)/microchip/xc32/v1.40/bin/bin/../../lib/gcc/pic32mx/4.8.3/../../../../pic32mx/lib\libpic32.a(defaultinterrupt.o)
 .reginfo       0x00000000       0x18 c:/program files (x86)/microchip/xc32/v1.40/bin/bin/../../lib/gcc/pic32mx/4.8.3/../../../../pic32mx/lib\libm.a(fp32div.o)
 .reginfo       0x00000000       0x18 c:/program files (x86)/microchip/xc32/v1.40/bin/bin/../../lib/gcc/pic32mx/4.8.3/../../../../pic32mx/lib\libm.a(fp32mul.o)
 .reginfo       0x00000000       0x18 c:/program files (x86)/microchip/xc32/v1.40/bin/bin/../../lib/gcc/pic32mx/4.8.3/../../../../pic32mx/lib\libm.a(fp32subadd.o)
 .reginfo       0x00000000       0x18 c:/program files (x86)/microchip/xc32/v1.40/bin/bin/../../lib/gcc/pic32mx/4.8.3/../../../../pic32mx/lib\libm.a(fpceil32.o)
 .reginfo       0x00000000       0x18 c:/program files (x86)/microchip/xc32/v1.40/bin/bin/../../lib/gcc/pic32mx/4.8.3/../../../../pic32mx/lib\libm.a(fpcmp.o)
 .reginfo       0x00000000       0x18 c:/program files (x86)/microchip/xc32/v1.40/bin/bin/../../lib/gcc/pic32mx/4.8.3/../../../../pic32mx/lib\libm.a(fpfloo32.o)
 .reginfo       0x00000000       0x18 c:/program files (x86)/microchip/xc32/v1.40/bin/bin/../../lib/gcc/pic32mx/4.8.3/../../../../pic32mx/lib\libm.a(fptoli.o)
 .reginfo       0x00000000       0x18 c:/program files (x86)/microchip/xc32/v1.40/bin/bin/../../lib/gcc/pic32mx/4.8.3/../../../../pic32mx/lib\libm.a(fptoul.o)
 .reginfo       0x00000000       0x18 c:/program files (x86)/microchip/xc32/v1.40/bin/bin/../../lib/gcc/pic32mx/4.8.3/../../../../pic32mx/lib\libm.a(sitofp.o)
 .reginfo       0x00000000       0x18 c:/program files (x86)/microchip/xc32/v1.40/bin/bin/../../lib/gcc/pic32mx/4.8.3/../../../../pic32mx/lib\libm.a(w_sqrtf.o)
 .reginfo       0x00000000       0x18 c:/program files (x86)/microchip/xc32/v1.40/bin/bin/../../lib/gcc/pic32mx/4.8.3/../../../../pic32mx/lib\libm.a(fpsqrt32.o)
 .reginfo       0x00000000       0x18 c:/program files (x86)/microchip/xc32/v1.40/bin/bin/../../lib/gcc/pic32mx/4.8.3/../../../../pic32mx/lib\libm.a(s_lib_ver.o)
 .reginfo       0x00000000       0x18 c:/program files (x86)/microchip/xc32/v1.40/bin/bin/../../lib/gcc/pic32mx/4.8.3/../../../../pic32mx/lib\libm.a(fpexsqrt32.o)
 .reginfo       0x00000000       0x18 c:/program files (x86)/microchip/xc32/v1.40/bin/bin/../../lib/gcc/pic32mx/4.8.3/../../../../pic32mx/lib\libc.a(atoi.o)
 .reginfo       0x00000000       0x18 c:/program files (x86)/microchip/xc32/v1.40/bin/bin/../../lib/gcc/pic32mx/4.8.3/../../../../pic32mx/lib\libc.a(atol.o)
 .reginfo       0x00000000       0x18 c:/program files (x86)/microchip/xc32/v1.40/bin/bin/../../lib/gcc/pic32mx/4.8.3/../../../../pic32mx/lib\libc.a(atoll.o)
 .reginfo       0x00000000       0x18 c:/program files (x86)/microchip/xc32/v1.40/bin/bin/../../lib/gcc/pic32mx/4.8.3/../../../../pic32mx/lib\libc.a(ctime.o)
 .reginfo       0x00000000       0x18 c:/program files (x86)/microchip/xc32/v1.40/bin/bin/../../lib/gcc/pic32mx/4.8.3/../../../../pic32mx/lib\libc.a(ctype.o)
 .reginfo       0x00000000       0x18 c:/program files (x86)/microchip/xc32/v1.40/bin/bin/../../lib/gcc/pic32mx/4.8.3/../../../../pic32mx/lib\libc.a(errno.o)
 .reginfo       0x00000000       0x18 c:/program files (x86)/microchip/xc32/v1.40/bin/bin/../../lib/gcc/pic32mx/4.8.3/../../../../pic32mx/lib\libc.a(mktime.o)
 .reginfo       0x00000000       0x18 c:/program files (x86)/microchip/xc32/v1.40/bin/bin/../../lib/gcc/pic32mx/4.8.3/../../../../pic32mx/lib\libc.a(putchar.o)
 .reginfo       0x00000000       0x18 c:/program files (x86)/microchip/xc32/v1.40/bin/bin/../../lib/gcc/pic32mx/4.8.3/../../../../pic32mx/lib\libc.a(puts.o)
 .reginfo       0x00000000       0x18 c:/program files (x86)/microchip/xc32/v1.40/bin/bin/../../lib/gcc/pic32mx/4.8.3/../../../../pic32mx/lib\libc.a(strcat.o)
 .reginfo       0x00000000       0x18 c:/program files (x86)/microchip/xc32/v1.40/bin/bin/../../lib/gcc/pic32mx/4.8.3/../../../../pic32mx/lib\libc.a(strchr.o)
 .reginfo       0x00000000       0x18 c:/program files (x86)/microchip/xc32/v1.40/bin/bin/../../lib/gcc/pic32mx/4.8.3/../../../../pic32mx/lib\libc.a(strncmp.o)
 .reginfo       0x00000000       0x18 c:/program files (x86)/microchip/xc32/v1.40/bin/bin/../../lib/gcc/pic32mx/4.8.3/../../../../pic32mx/lib\libc.a(strncpy.o)
 .reginfo       0x00000000       0x18 c:/program files (x86)/microchip/xc32/v1.40/bin/bin/../../lib/gcc/pic32mx/4.8.3/../../../../pic32mx/lib\libc.a(strrchr.o)
 .reginfo       0x00000000       0x18 c:/program files (x86)/microchip/xc32/v1.40/bin/bin/../../lib/gcc/pic32mx/4.8.3/../../../../pic32mx/lib\libc.a(strstr.o)
 .reginfo       0x00000000       0x18 c:/program files (x86)/microchip/xc32/v1.40/bin/bin/../../lib/gcc/pic32mx/4.8.3/../../../../pic32mx/lib\libc.a(strtok.o)
 .reginfo       0x00000000       0x18 c:/program files (x86)/microchip/xc32/v1.40/bin/bin/../../lib/gcc/pic32mx/4.8.3/../../../../pic32mx/lib\libc.a(strtoll.o)
 .reginfo       0x00000000       0x18 c:/program files (x86)/microchip/xc32/v1.40/bin/bin/../../lib/gcc/pic32mx/4.8.3/../../../../pic32mx/lib\libc.a(atof.o)
 .reginfo       0x00000000       0x18 c:/program files (x86)/microchip/xc32/v1.40/bin/bin/../../lib/gcc/pic32mx/4.8.3/../../../../pic32mx/lib\libc.a(printf_cdnopsuxX.eo)
 .reginfo       0x00000000       0x18 c:/program files (x86)/microchip/xc32/v1.40/bin/bin/../../lib/gcc/pic32mx/4.8.3/../../../../pic32mx/lib\libc.a(sprintf_cdnopsuxX.eo)
 .reginfo       0x00000000       0x18 c:/program files (x86)/microchip/xc32/v1.40/bin/bin/../../lib/gcc/pic32mx/4.8.3/../../../../pic32mx/lib\libc.a(sscanf_cdfFnopsuxX.eo)
 .reginfo       0x00000000       0x18 c:/program files (x86)/microchip/xc32/v1.40/bin/bin/../../lib/gcc/pic32mx/4.8.3/../../../../pic32mx/lib\libc.a(_iob.o)
 .reginfo       0x00000000       0x18 c:/program files (x86)/microchip/xc32/v1.40/bin/bin/../../lib/gcc/pic32mx/4.8.3/../../../../pic32mx/lib\libc.a(_fputc_simple.o)
 .reginfo       0x00000000       0x18 c:/program files (x86)/microchip/xc32/v1.40/bin/bin/../../lib/gcc/pic32mx/4.8.3/../../../../pic32mx/lib\libc.a(ctypef.o)
 .reginfo       0x00000000       0x18 c:/program files (x86)/microchip/xc32/v1.40/bin/bin/../../lib/gcc/pic32mx/4.8.3/../../../../pic32mx/lib\libc.a(strcspn.o)
 .reginfo       0x00000000       0x18 c:/program files (x86)/microchip/xc32/v1.40/bin/bin/../../lib/gcc/pic32mx/4.8.3/../../../../pic32mx/lib\libc.a(strspn.o)
 .reginfo       0x00000000       0x18 c:/program files (x86)/microchip/xc32/v1.40/bin/bin/../../lib/gcc/pic32mx/4.8.3/../../../../pic32mx/lib\libc.a(strtof.o)
 .reginfo       0x00000000       0x18 c:/program files (x86)/microchip/xc32/v1.40/bin/bin/../../lib/gcc/pic32mx/4.8.3/../../../../pic32mx/lib\libc.a(doprnt_cdnopsuxX.eo)
 .reginfo       0x00000000       0x18 c:/program files (x86)/microchip/xc32/v1.40/bin/bin/../../lib/gcc/pic32mx/4.8.3/../../../../pic32mx/lib\libc.a(doscan_cdfFnopsuxX.eo)
 .reginfo       0x00000000       0x18 c:/program files (x86)/microchip/xc32/v1.40/bin/bin/../../lib/gcc/pic32mx/4.8.3/../../../../pic32mx/lib\libc.a(doscan_cdnopsuxX.eo)
 .reginfo       0x00000000       0x18 c:/program files (x86)/microchip/xc32/v1.40/bin/bin/../../lib/gcc/pic32mx/4.8.3/../../../../pic32mx/lib\libc.a(doscan_cdnopuxX.eo)
 .reginfo       0x00000000       0x18 c:/program files (x86)/microchip/xc32/v1.40/bin/bin/../../lib/gcc/pic32mx/4.8.3/../../../../pic32mx/lib\libc.a(_flsbuf_simple.o)
 .reginfo       0x00000000       0x18 c:/program files (x86)/microchip/xc32/v1.40/bin/bin/../../lib/gcc/pic32mx/4.8.3/../../../../pic32mx/lib\libc.a(fgetc.o)
 .reginfo       0x00000000       0x18 c:/program files (x86)/microchip/xc32/v1.40/bin/bin/../../lib/gcc/pic32mx/4.8.3/../../../../pic32mx/lib\libc.a(strtod.o)
 .reginfo       0x00000000       0x18 c:/program files (x86)/microchip/xc32/v1.40/bin/bin/../../lib/gcc/pic32mx/4.8.3/../../../../pic32mx/lib\libc.a(ungetc.o)
 .reginfo       0x00000000       0x18 c:/program files (x86)/microchip/xc32/v1.40/bin/bin/../../lib/gcc/pic32mx/4.8.3/../../../../pic32mx/lib\libc.a(filbuf.o)
 .reginfo       0x00000000       0x18 c:/program files (x86)/microchip/xc32/v1.40/bin/bin/../../lib/gcc/pic32mx/4.8.3/../../../../pic32mx/lib\libc.a(fflush.o)
 .reginfo       0x00000000       0x18 c:/program files (x86)/microchip/xc32/v1.40/bin/bin/../../lib/gcc/pic32mx/4.8.3/../../../../pic32mx/lib\libpic32.a(read.o)
 .reginfo       0x00000000       0x18 c:/program files (x86)/microchip/xc32/v1.40/bin/bin/../../lib/gcc/pic32mx/4.8.3/../../../../pic32mx/lib\libpic32.a(write.o)
 .reginfo       0x00000000       0x18 c:/program files (x86)/microchip/xc32/v1.40/bin/bin/../../lib/gcc/pic32mx/4.8.3/../../../../pic32mx/lib\libpic32.a(xc32_uart.o)
 .reginfo       0x00000000       0x18 c:/program files (x86)/microchip/xc32/v1.40/bin/bin/../../lib/gcc/pic32mx/4.8.3/../../../../pic32mx/lib\libm.a(dptofp.o)
 .reginfo       0x00000000       0x18 c:/program files (x86)/microchip/xc32/v1.40/bin/bin/../../lib/gcc/pic32mx/4.8.3/../../../../pic32mx/lib\libm.a(fptodp.o)
 .reginfo       0x00000000       0x18 c:/program files (x86)/microchip/xc32/v1.40/bin/bin/../../lib/gcc/pic32mx/4.8.3/../../../../pic32mx/lib\libm.a(__strtod.o)
 .reginfo       0x00000000       0x18 c:/program files (x86)/microchip/xc32/v1.40/bin/bin/../../lib/gcc/pic32mx/4.8.3/../../../../pic32mx/lib\libm.a(__strtof.o)
 .reginfo       0x00000000       0x18 c:/program files (x86)/microchip/xc32/v1.40/bin/bin/../../lib/gcc/pic32mx/4.8.3/../../../../pic32mx/lib\libm.a(dp32div.o)
 .reginfo       0x00000000       0x18 c:/program files (x86)/microchip/xc32/v1.40/bin/bin/../../lib/gcc/pic32mx/4.8.3/../../../../pic32mx/lib\libm.a(dp32mul.o)
 .reginfo       0x00000000       0x18 c:/program files (x86)/microchip/xc32/v1.40/bin/bin/../../lib/gcc/pic32mx/4.8.3/../../../../pic32mx/lib\libm.a(dp32subadd.o)
 .reginfo       0x00000000       0x18 c:/program files (x86)/microchip/xc32/v1.40/bin/bin/../../lib/gcc/pic32mx/4.8.3/../../../../pic32mx/lib\libm.a(litodp.o)
 .reginfo       0x00000000       0x18 c:/program files (x86)/microchip/xc32/v1.40/bin/bin/../../lib/gcc/pic32mx/4.8.3/../../../../pic32mx/lib\libm.a(negdf2.o)
 .reginfo       0x00000000       0x18 c:/program files (x86)/microchip/xc32/v1.40/bin/bin/../../lib/gcc/pic32mx/4.8.3/../../../../pic32mx/lib\libm.a(negsf2.o)
 .reginfo       0x00000000       0x18 c:/program files (x86)/microchip/xc32/v1.40/bin/bin/../../lib/gcc/pic32mx/4.8.3/../../../../pic32mx/lib\libe.a(_ldexp.o)
 .reginfo       0x00000000       0x18 c:/program files (x86)/microchip/xc32/v1.40/bin/bin/../../lib/gcc/pic32mx/4.8.3/../../../../pic32mx/lib\libe.a(_ldexpf.o)
 .reginfo       0x00000000       0x18 c:/program files (x86)/microchip/xc32/v1.40/bin/bin/../../lib/gcc/pic32mx/4.8.3\libgcc.a(_lshrdi3.o)
 .reginfo       0x00000000       0x18 c:/program files (x86)/microchip/xc32/v1.40/bin/bin/../../lib/gcc/pic32mx/4.8.3\libgcc.a(_ashldi3.o)

Memory Configuration

Name             Origin             Length             Attributes
kseg0_program_mem 0x9d000000         0x00040000         xr
kseg0_boot_mem   0x9fc00490         0x00000970
exception_mem    0x9fc01000         0x00001000
kseg1_boot_mem   0xbfc00000         0x00000490
debug_exec_mem   0xbfc02000         0x00000ff0
config3          0xbfc02ff0         0x00000004
config2          0xbfc02ff4         0x00000004
config1          0xbfc02ff8         0x00000004
config0          0xbfc02ffc         0x00000004
kseg1_data_mem   0xa0000000         0x00010000         w !x
sfrs             0xbf800000         0x00100000
configsfrs       0xbfc02ff0         0x00000010
*default*        0x00000000         0xffffffff

Linker script and memory map

LOAD c:/program files (x86)/microchip/xc32/v1.40/bin/bin/../../lib/gcc/pic32mx/4.8.3/../../../../pic32mx/lib/./proc/32MX575F256L/crt0_mips32r2.o
LOAD c:/program files (x86)/microchip/xc32/v1.40/bin/bin/../../lib/gcc/pic32mx/4.8.3/../../../../pic32mx/lib\debug-exception-return.o
LOAD build/default/production/_ext/93166211/Announce.o
LOAD build/default/production/_ext/93166211/ARCFOUR.o
LOAD build/default/production/_ext/93166211/ARP.o
LOAD build/default/production/_ext/93166211/AutoIP.o
LOAD build/default/production/_ext/93166211/BerkeleyAPI.o
LOAD build/default/production/_ext/93166211/BigInt.o
LOAD build/default/production/_ext/93166211/BigInt_helper_PIC32.o
LOAD build/default/production/_ext/93166211/Delay.o
LOAD build/default/production/_ext/93166211/DNS.o
LOAD build/default/production/_ext/93166211/DNSs.o
LOAD build/default/production/_ext/93166211/DynDNS.o
LOAD build/default/production/_ext/93166211/FileSystem.o
LOAD build/default/production/_ext/93166211/FTP.o
LOAD build/default/production/_ext/93166211/Hashes.o
LOAD build/default/production/_ext/93166211/Helpers.o
LOAD build/default/production/_ext/93166211/HTTP2.o
LOAD build/default/production/_ext/93166211/ICMP.o
LOAD build/default/production/_ext/93166211/IP.o
LOAD build/default/production/_ext/93166211/LCDBlocking.o
LOAD build/default/production/_ext/93166211/MPFS2.o
LOAD build/default/production/_ext/93166211/NBNS.o
LOAD build/default/production/_ext/93166211/Random.o
LOAD build/default/production/_ext/93166211/Reboot.o
LOAD build/default/production/_ext/93166211/RSA.o
LOAD build/default/production/_ext/93166211/SMTP.o
LOAD build/default/production/_ext/93166211/SNMP.o
LOAD build/default/production/_ext/93166211/SNMPv3.o
LOAD build/default/production/_ext/93166211/SNMPv3USM.o
LOAD build/default/production/_ext/93166211/SNTP.o
LOAD build/default/production/_ext/93166211/SPIEEPROM.o
LOAD build/default/production/_ext/93166211/SPIFlash.o
LOAD build/default/production/_ext/93166211/SPIRAM.o
LOAD build/default/production/_ext/93166211/SSL.o
LOAD build/default/production/_ext/93166211/StackTsk.o
LOAD build/default/production/_ext/93166211/TCP.o
LOAD build/default/production/_ext/93166211/TCPPerformanceTest.o
LOAD build/default/production/_ext/93166211/Telnet.o
LOAD build/default/production/_ext/93166211/TFTPc.o
LOAD build/default/production/_ext/93166211/Tick.o
LOAD build/default/production/_ext/93166211/UART2TCPBridge.o
LOAD build/default/production/_ext/93166211/UDP.o
LOAD build/default/production/_ext/93166211/UDPPerformanceTest.o
LOAD build/default/production/_ext/93166211/ZeroconfHelper.o
LOAD build/default/production/_ext/93166211/ZeroconfLinkLocal.o
LOAD build/default/production/_ext/93166211/ZeroconfMulticastDNS.o
LOAD build/default/production/_ext/93166211/DHCP.o
LOAD build/default/production/_ext/93166211/DHCPs.o
LOAD build/default/production/_ext/388820833/WF_Eint.o
LOAD build/default/production/_ext/388820833/WF_pbkdf2.o
LOAD build/default/production/_ext/388820833/WFConnectionAlgorithm.o
LOAD build/default/production/_ext/388820833/WFConnectionManager.o
LOAD build/default/production/_ext/388820833/WFConnectionProfile.o
LOAD build/default/production/_ext/388820833/WFConsole.o
LOAD build/default/production/_ext/388820833/WFConsoleIfconfig.o
LOAD build/default/production/_ext/388820833/WFConsoleIwconfig.o
LOAD build/default/production/_ext/388820833/WFConsoleIwpriv.o
LOAD build/default/production/_ext/388820833/WFConsoleMsgHandler.o
LOAD build/default/production/_ext/388820833/WFConsoleMsgs.o
LOAD build/default/production/_ext/388820833/WFDataTxRx.o
LOAD build/default/production/_ext/388820833/WFDebugStrings.o
LOAD build/default/production/_ext/388820833/WFEasyConfig.o
LOAD build/default/production/_ext/388820833/WFEventHandler.o
LOAD build/default/production/_ext/388820833/WFInit.o
LOAD build/default/production/_ext/388820833/WFPowerSave.o
LOAD build/default/production/_ext/388820833/WFScan.o
LOAD build/default/production/_ext/388820833/WFTxPower.o
LOAD build/default/production/_ext/388820833/WF_Spi.o
LOAD build/default/production/_ext/388820833/WFDriverCom_24G.o
LOAD build/default/production/_ext/388820833/WFDriverRaw_24G.o
LOAD build/default/production/_ext/388820833/WFMac_24G.o
LOAD build/default/production/_ext/388820833/WFMgmtMsg_24G.o
LOAD build/default/production/_ext/388820833/WFParamMsg_24G.o
LOAD build/default/production/_ext/1472/Main.o
LOAD build/default/production/_ext/1472/CustomHTTPApp.o
LOAD build/default/production/_ext/1472/WF_Config.o
LOAD build/default/production/_ext/1472/WifiGDemoMPFSImg.o
LOAD build/default/production/_ext/1472/i2c_master.o
LOAD build/default/production/_ext/1472/OpenADRClient.o
LOAD build/default/production/_ext/1472/INTiMain.o
LOAD build/default/production/_ext/1472/UARTiMain.o
LOAD build/default/production/_ext/1472/TimeMonitor.o
LOAD build/default/production/_ext/1472/EPRI_UARTLayer.o
LOAD build/default/production/_ext/1472/app_UCM.o
LOAD build/default/production/_ext/1472/Assert.o
LOAD build/default/production/_ext/1472/EPRI_SPILayer.o
LOAD build/default/production/_ext/1472/MCI_Common.o
LOAD build/default/production/_ext/1472/LinkLayerMessaging.o
LOAD build/default/production/_ext/1472/BasicDR.o
LOAD build/default/production/_ext/1472/debugging.o
LOAD build/default/production/_ext/1472/RESTAPI.o
                0x00000001                __MPLAB_BUILD = 0x1
LOAD c:/program files (x86)/microchip/xc32/v1.40/bin/bin/../../lib/gcc/pic32mx/4.8.3/../../../../pic32mx/lib/./proc/32MX575F256L\default_isr_vectors.o
LOAD c:/program files (x86)/microchip/xc32/v1.40/bin/bin/../../lib/gcc/pic32mx/4.8.3/../../../../pic32mx/lib\pic32_software_reset.o
                0x00000400                PROVIDE (_min_stack_size, 0x400)
LOAD c:/program files (x86)/microchip/xc32/v1.40/bin/bin/../../lib/gcc/pic32mx/4.8.3/../../../../pic32mx/lib/./proc/32MX575F256L\processor.o
START GROUP
LOAD c:/program files (x86)/microchip/xc32/v1.40/bin/bin/../../lib/gcc/pic32mx/4.8.3/../../../../pic32mx/lib\libmchp_peripheral.a
END GROUP
START GROUP
LOAD c:/program files (x86)/microchip/xc32/v1.40/bin/bin/../../lib/gcc/pic32mx/4.8.3/../../../../pic32mx/lib\libmchp_peripheral_32MX575F256L.a
END GROUP
                0x00000001                PROVIDE (_vector_spacing, 0x1)
                0x9fc01000                _ebase_address = 0x9fc01000
                0xbfc00000                _RESET_ADDR = 0xbfc00000
                0xbfc00380                _BEV_EXCPT_ADDR = 0xbfc00380
                0xbfc00480                _DBG_EXCPT_ADDR = 0xbfc00480
                0xbfc02000                _DBG_CODE_ADDR = 0xbfc02000
                0x00000ff0                _DBG_CODE_SIZE = 0xff0
                0x9fc01180                _GEN_EXCPT_ADDR = (_ebase_address + 0x180)

.config_BFC02FF0
 *(.config_BFC02FF0)

.config_BFC02FF4
                0xbfc02ff4        0x4
 *(.config_BFC02FF4)
 .config_BFC02FF4
                0xbfc02ff4        0x4 build/default/production/_ext/1472/Main.o

.config_BFC02FF8
                0xbfc02ff8        0x4
 *(.config_BFC02FF8)
 .config_BFC02FF8
                0xbfc02ff8        0x4 build/default/production/_ext/1472/Main.o

.config_BFC02FFC
                0xbfc02ffc        0x4
 *(.config_BFC02FFC)
 .config_BFC02FFC
                0xbfc02ffc        0x4 build/default/production/_ext/1472/Main.o
                0xbfc02000                PROVIDE (_DBG_CODE_ADDR, 0xbfc02000)
                0x00000ff0                PROVIDE (_DBG_CODE_SIZE, 0xff0)

.reset          0xbfc00000      0x1f4
 *(.reset)
 .reset         0xbfc00000        0x8 c:/program files (x86)/microchip/xc32/v1.40/bin/bin/../../lib/gcc/pic32mx/4.8.3/../../../../pic32mx/lib/./proc/32MX575F256L/crt0_mips32r2.o
                0xbfc00000                _reset
 *(.reset.startup)
 .reset.startup
                0xbfc00008      0x1ec c:/program files (x86)/microchip/xc32/v1.40/bin/bin/../../lib/gcc/pic32mx/4.8.3/../../../../pic32mx/lib/./proc/32MX575F256L/crt0_mips32r2.o

.bev_excpt      0xbfc00380       0x10
 *(.bev_handler)
 .bev_handler   0xbfc00380       0x10 c:/program files (x86)/microchip/xc32/v1.40/bin/bin/../../lib/gcc/pic32mx/4.8.3/../../../../pic32mx/lib/./proc/32MX575F256L/crt0_mips32r2.o

.dbg_excpt      0xbfc00480        0x0
                0xbfc00480                . = (. + DEFINED (_DEBUGGER)?0x8:0x0)

.dbg_code       0xbfc02000        0x0
                0xbfc02000                . = (. + DEFINED (_DEBUGGER)?_DBG_CODE_SIZE:0x0)

.app_excpt      0x9fc01180       0x10
 *(.gen_handler)
 .gen_handler   0x9fc01180       0x10 c:/program files (x86)/microchip/xc32/v1.40/bin/bin/../../lib/gcc/pic32mx/4.8.3/../../../../pic32mx/lib/./proc/32MX575F256L/crt0_mips32r2.o

.vector_0       0x9fc01200        0x8
 *(.vector_0)
 .vector_0      0x9fc01200        0x8 c:/program files (x86)/microchip/xc32/v1.40/bin/bin/../../lib/gcc/pic32mx/4.8.3/../../../../pic32mx/lib\libpic32.a(vector0.o)
                0x9fc01200                __vector_dispatch_0
                0x00000001                ASSERT (((_vector_spacing == 0x0) || (SIZEOF (.vector_0) <= (_vector_spacing << 0x5))), function at exception vector 0 too large)

.vector_1       0x9fc01220        0x8
 *(.vector_1)
 .vector_1      0x9fc01220        0x8 c:/program files (x86)/microchip/xc32/v1.40/bin/bin/../../lib/gcc/pic32mx/4.8.3/../../../../pic32mx/lib\libpic32.a(vector1.o)
                0x9fc01220                __vector_dispatch_1
                0x00000001                ASSERT (((_vector_spacing == 0x0) || (SIZEOF (.vector_1) <= (_vector_spacing << 0x5))), function at exception vector 1 too large)

.vector_2       0x9fc01240        0x8
 *(.vector_2)
 .vector_2      0x9fc01240        0x8 c:/program files (x86)/microchip/xc32/v1.40/bin/bin/../../lib/gcc/pic32mx/4.8.3/../../../../pic32mx/lib\libpic32.a(vector2.o)
                0x9fc01240                __vector_dispatch_2
                0x00000001                ASSERT (((_vector_spacing == 0x0) || (SIZEOF (.vector_2) <= (_vector_spacing << 0x5))), function at exception vector 2 too large)

.vector_3       0x9fc01260        0x8
 *(.vector_3)
 .vector_3      0x9fc01260        0x8 c:/program files (x86)/microchip/xc32/v1.40/bin/bin/../../lib/gcc/pic32mx/4.8.3/../../../../pic32mx/lib\libpic32.a(vector3.o)
                0x9fc01260                __vector_dispatch_3
                0x00000001                ASSERT (((_vector_spacing == 0x0) || (SIZEOF (.vector_3) <= (_vector_spacing << 0x5))), function at exception vector 3 too large)

.vector_4       0x9fc01280        0x8
 *(.vector_4)
 .vector_4      0x9fc01280        0x8 build/default/production/_ext/93166211/Tick.o
                0x9fc01280                __vector_dispatch_4
                0x00000001                ASSERT (((_vector_spacing == 0x0) || (SIZEOF (.vector_4) <= (_vector_spacing << 0x5))), function at exception vector 4 too large)

.vector_5       0x9fc012a0        0x8
 *(.vector_5)
 .vector_5      0x9fc012a0        0x8 c:/program files (x86)/microchip/xc32/v1.40/bin/bin/../../lib/gcc/pic32mx/4.8.3/../../../../pic32mx/lib\libpic32.a(vector5.o)
                0x9fc012a0                __vector_dispatch_5
                0x00000001                ASSERT (((_vector_spacing == 0x0) || (SIZEOF (.vector_5) <= (_vector_spacing << 0x5))), function at exception vector 5 too large)

.vector_6       0x9fc012c0        0x8
 *(.vector_6)
 .vector_6      0x9fc012c0        0x8 c:/program files (x86)/microchip/xc32/v1.40/bin/bin/../../lib/gcc/pic32mx/4.8.3/../../../../pic32mx/lib\libpic32.a(vector6.o)
                0x9fc012c0                __vector_dispatch_6
                0x00000001                ASSERT (((_vector_spacing == 0x0) || (SIZEOF (.vector_6) <= (_vector_spacing << 0x5))), function at exception vector 6 too large)

.vector_7       0x9fc012e0        0x8
 *(.vector_7)
 .vector_7      0x9fc012e0        0x8 c:/program files (x86)/microchip/xc32/v1.40/bin/bin/../../lib/gcc/pic32mx/4.8.3/../../../../pic32mx/lib\libpic32.a(vector7.o)
                0x9fc012e0                __vector_dispatch_7
                0x00000001                ASSERT (((_vector_spacing == 0x0) || (SIZEOF (.vector_7) <= (_vector_spacing << 0x5))), function at exception vector 7 too large)

.vector_8       0x9fc01300        0x8
 *(.vector_8)
 .vector_8      0x9fc01300        0x8 build/default/production/_ext/1472/TimeMonitor.o
                0x9fc01300                __vector_dispatch_8
                0x00000001                ASSERT (((_vector_spacing == 0x0) || (SIZEOF (.vector_8) <= (_vector_spacing << 0x5))), function at exception vector 8 too large)

.vector_9       0x9fc01320        0x8
 *(.vector_9)
 .vector_9      0x9fc01320        0x8 c:/program files (x86)/microchip/xc32/v1.40/bin/bin/../../lib/gcc/pic32mx/4.8.3/../../../../pic32mx/lib\libpic32.a(vector9.o)
                0x9fc01320                __vector_dispatch_9
                0x00000001                ASSERT (((_vector_spacing == 0x0) || (SIZEOF (.vector_9) <= (_vector_spacing << 0x5))), function at exception vector 9 too large)

.vector_10      0x9fc01340        0x8
 *(.vector_10)
 .vector_10     0x9fc01340        0x8 c:/program files (x86)/microchip/xc32/v1.40/bin/bin/../../lib/gcc/pic32mx/4.8.3/../../../../pic32mx/lib\libpic32.a(vector10.o)
                0x9fc01340                __vector_dispatch_10
                0x00000001                ASSERT (((_vector_spacing == 0x0) || (SIZEOF (.vector_10) <= (_vector_spacing << 0x5))), function at exception vector 10 too large)

.vector_11      0x9fc01360        0x8
 *(.vector_11)
 .vector_11     0x9fc01360        0x8 c:/program files (x86)/microchip/xc32/v1.40/bin/bin/../../lib/gcc/pic32mx/4.8.3/../../../../pic32mx/lib\libpic32.a(vector11.o)
                0x9fc01360                __vector_dispatch_11
                0x00000001                ASSERT (((_vector_spacing == 0x0) || (SIZEOF (.vector_11) <= (_vector_spacing << 0x5))), function at exception vector 11 too large)

.vector_12      0x9fc01380        0x8
 *(.vector_12)
 .vector_12     0x9fc01380        0x8 c:/program files (x86)/microchip/xc32/v1.40/bin/bin/../../lib/gcc/pic32mx/4.8.3/../../../../pic32mx/lib\libpic32.a(vector12.o)
                0x9fc01380                __vector_dispatch_12
                0x00000001                ASSERT (((_vector_spacing == 0x0) || (SIZEOF (.vector_12) <= (_vector_spacing << 0x5))), function at exception vector 12 too large)

.vector_13      0x9fc013a0        0x8
 *(.vector_13)
 .vector_13     0x9fc013a0        0x8 c:/program files (x86)/microchip/xc32/v1.40/bin/bin/../../lib/gcc/pic32mx/4.8.3/../../../../pic32mx/lib\libpic32.a(vector13.o)
                0x9fc013a0                __vector_dispatch_13
                0x00000001                ASSERT (((_vector_spacing == 0x0) || (SIZEOF (.vector_13) <= (_vector_spacing << 0x5))), function at exception vector 13 too large)

.vector_14      0x9fc013c0        0x8
 *(.vector_14)
 .vector_14     0x9fc013c0        0x8 c:/program files (x86)/microchip/xc32/v1.40/bin/bin/../../lib/gcc/pic32mx/4.8.3/../../../../pic32mx/lib\libpic32.a(vector14.o)
                0x9fc013c0                __vector_dispatch_14
                0x00000001                ASSERT (((_vector_spacing == 0x0) || (SIZEOF (.vector_14) <= (_vector_spacing << 0x5))), function at exception vector 14 too large)

.vector_15      0x9fc013e0        0x8
 *(.vector_15)
 .vector_15     0x9fc013e0        0x8 build/default/production/_ext/388820833/WF_Eint.o
                0x9fc013e0                __vector_dispatch_15
                0x00000001                ASSERT (((_vector_spacing == 0x0) || (SIZEOF (.vector_15) <= (_vector_spacing << 0x5))), function at exception vector 15 too large)

.vector_16      0x9fc01400        0x8
 *(.vector_16)
 .vector_16     0x9fc01400        0x8 c:/program files (x86)/microchip/xc32/v1.40/bin/bin/../../lib/gcc/pic32mx/4.8.3/../../../../pic32mx/lib\libpic32.a(vector16.o)
                0x9fc01400                __vector_dispatch_16
                0x00000001                ASSERT (((_vector_spacing == 0x0) || (SIZEOF (.vector_16) <= (_vector_spacing << 0x5))), function at exception vector 16 too large)

.vector_17      0x9fc01420        0x8
 *(.vector_17)
 .vector_17     0x9fc01420        0x8 c:/program files (x86)/microchip/xc32/v1.40/bin/bin/../../lib/gcc/pic32mx/4.8.3/../../../../pic32mx/lib\libpic32.a(vector17.o)
                0x9fc01420                __vector_dispatch_17
                0x00000001                ASSERT (((_vector_spacing == 0x0) || (SIZEOF (.vector_17) <= (_vector_spacing << 0x5))), function at exception vector 17 too large)

.vector_18      0x9fc01440        0x8
 *(.vector_18)
 .vector_18     0x9fc01440        0x8 c:/program files (x86)/microchip/xc32/v1.40/bin/bin/../../lib/gcc/pic32mx/4.8.3/../../../../pic32mx/lib\libpic32.a(vector18.o)
                0x9fc01440                __vector_dispatch_18
                0x00000001                ASSERT (((_vector_spacing == 0x0) || (SIZEOF (.vector_18) <= (_vector_spacing << 0x5))), function at exception vector 18 too large)

.vector_19      0x9fc01460        0x8
 *(.vector_19)
 .vector_19     0x9fc01460        0x8 c:/program files (x86)/microchip/xc32/v1.40/bin/bin/../../lib/gcc/pic32mx/4.8.3/../../../../pic32mx/lib\libpic32.a(vector19.o)
                0x9fc01460                __vector_dispatch_19
                0x00000001                ASSERT (((_vector_spacing == 0x0) || (SIZEOF (.vector_19) <= (_vector_spacing << 0x5))), function at exception vector 19 too large)

.vector_20      0x9fc01480        0x8
 *(.vector_20)
 .vector_20     0x9fc01480        0x8 c:/program files (x86)/microchip/xc32/v1.40/bin/bin/../../lib/gcc/pic32mx/4.8.3/../../../../pic32mx/lib\libpic32.a(vector20.o)
                0x9fc01480                __vector_dispatch_20
                0x00000001                ASSERT (((_vector_spacing == 0x0) || (SIZEOF (.vector_20) <= (_vector_spacing << 0x5))), function at exception vector 20 too large)

.vector_21      0x9fc014a0        0x8
 *(.vector_21)
 .vector_21     0x9fc014a0        0x8 c:/program files (x86)/microchip/xc32/v1.40/bin/bin/../../lib/gcc/pic32mx/4.8.3/../../../../pic32mx/lib\libpic32.a(vector21.o)
                0x9fc014a0                __vector_dispatch_21
                0x00000001                ASSERT (((_vector_spacing == 0x0) || (SIZEOF (.vector_21) <= (_vector_spacing << 0x5))), function at exception vector 21 too large)

.vector_22      0x9fc014c0        0x8
 *(.vector_22)
 .vector_22     0x9fc014c0        0x8 c:/program files (x86)/microchip/xc32/v1.40/bin/bin/../../lib/gcc/pic32mx/4.8.3/../../../../pic32mx/lib\libpic32.a(vector22.o)
                0x9fc014c0                __vector_dispatch_22
                0x00000001                ASSERT (((_vector_spacing == 0x0) || (SIZEOF (.vector_22) <= (_vector_spacing << 0x5))), function at exception vector 22 too large)

.vector_23      0x9fc014e0        0x8
 *(.vector_23)
 .vector_23     0x9fc014e0        0x8 c:/program files (x86)/microchip/xc32/v1.40/bin/bin/../../lib/gcc/pic32mx/4.8.3/../../../../pic32mx/lib\libpic32.a(vector23.o)
                0x9fc014e0                __vector_dispatch_23
                0x00000001                ASSERT (((_vector_spacing == 0x0) || (SIZEOF (.vector_23) <= (_vector_spacing << 0x5))), function at exception vector 23 too large)

.vector_24      0x9fc01500        0x8
 *(.vector_24)
 .vector_24     0x9fc01500        0x8 build/default/production/_ext/1472/INTiMain.o
                0x9fc01500                __vector_dispatch_24
                0x00000001                ASSERT (((_vector_spacing == 0x0) || (SIZEOF (.vector_24) <= (_vector_spacing << 0x5))), function at exception vector 24 too large)

.vector_25      0x9fc01520        0x8
 *(.vector_25)
 .vector_25     0x9fc01520        0x8 c:/program files (x86)/microchip/xc32/v1.40/bin/bin/../../lib/gcc/pic32mx/4.8.3/../../../../pic32mx/lib\libpic32.a(vector25.o)
                0x9fc01520                __vector_dispatch_25
                0x00000001                ASSERT (((_vector_spacing == 0x0) || (SIZEOF (.vector_25) <= (_vector_spacing << 0x5))), function at exception vector 25 too large)

.vector_26      0x9fc01540        0x8
 *(.vector_26)
 .vector_26     0x9fc01540        0x8 c:/program files (x86)/microchip/xc32/v1.40/bin/bin/../../lib/gcc/pic32mx/4.8.3/../../../../pic32mx/lib\libpic32.a(vector26.o)
                0x9fc01540                __vector_dispatch_26
                0x00000001                ASSERT (((_vector_spacing == 0x0) || (SIZEOF (.vector_26) <= (_vector_spacing << 0x5))), function at exception vector 26 too large)

.vector_27      0x9fc01560        0x8
 *(.vector_27)
 .vector_27     0x9fc01560        0x8 c:/program files (x86)/microchip/xc32/v1.40/bin/bin/../../lib/gcc/pic32mx/4.8.3/../../../../pic32mx/lib\libpic32.a(vector27.o)
                0x9fc01560                __vector_dispatch_27
                0x00000001                ASSERT (((_vector_spacing == 0x0) || (SIZEOF (.vector_27) <= (_vector_spacing << 0x5))), function at exception vector 27 too large)

.vector_28      0x9fc01580        0x8
 *(.vector_28)
 .vector_28     0x9fc01580        0x8 c:/program files (x86)/microchip/xc32/v1.40/bin/bin/../../lib/gcc/pic32mx/4.8.3/../../../../pic32mx/lib\libpic32.a(vector28.o)
                0x9fc01580                __vector_dispatch_28
                0x00000001                ASSERT (((_vector_spacing == 0x0) || (SIZEOF (.vector_28) <= (_vector_spacing << 0x5))), function at exception vector 28 too large)

.vector_29      0x9fc015a0        0x8
 *(.vector_29)
 .vector_29     0x9fc015a0        0x8 c:/program files (x86)/microchip/xc32/v1.40/bin/bin/../../lib/gcc/pic32mx/4.8.3/../../../../pic32mx/lib\libpic32.a(vector29.o)
                0x9fc015a0                __vector_dispatch_29
                0x00000001                ASSERT (((_vector_spacing == 0x0) || (SIZEOF (.vector_29) <= (_vector_spacing << 0x5))), function at exception vector 29 too large)

.vector_30      0x9fc015c0        0x8
 *(.vector_30)
 .vector_30     0x9fc015c0        0x8 c:/program files (x86)/microchip/xc32/v1.40/bin/bin/../../lib/gcc/pic32mx/4.8.3/../../../../pic32mx/lib\libpic32.a(vector30.o)
                0x9fc015c0                __vector_dispatch_30
                0x00000001                ASSERT (((_vector_spacing == 0x0) || (SIZEOF (.vector_30) <= (_vector_spacing << 0x5))), function at exception vector 30 too large)

.vector_31      0x9fc015e0        0x8
 *(.vector_31)
 .vector_31     0x9fc015e0        0x8 c:/program files (x86)/microchip/xc32/v1.40/bin/bin/../../lib/gcc/pic32mx/4.8.3/../../../../pic32mx/lib\libpic32.a(vector31.o)
                0x9fc015e0                __vector_dispatch_31
                0x00000001                ASSERT (((_vector_spacing == 0x0) || (SIZEOF (.vector_31) <= (_vector_spacing << 0x5))), function at exception vector 31 too large)

.vector_32      0x9fc01600        0x8
 *(.vector_32)
 .vector_32     0x9fc01600        0x8 build/default/production/_ext/1472/INTiMain.o
                0x9fc01600                __vector_dispatch_32
                0x00000001                ASSERT (((_vector_spacing == 0x0) || (SIZEOF (.vector_32) <= (_vector_spacing << 0x5))), function at exception vector 32 too large)

.vector_33      0x9fc01620        0x8
 *(.vector_33)
 .vector_33     0x9fc01620        0x8 c:/program files (x86)/microchip/xc32/v1.40/bin/bin/../../lib/gcc/pic32mx/4.8.3/../../../../pic32mx/lib\libpic32.a(vector33.o)
                0x9fc01620                __vector_dispatch_33
                0x00000001                ASSERT (((_vector_spacing == 0x0) || (SIZEOF (.vector_33) <= (_vector_spacing << 0x5))), function at exception vector 33 too large)

.vector_34      0x9fc01640        0x8
 *(.vector_34)
 .vector_34     0x9fc01640        0x8 c:/program files (x86)/microchip/xc32/v1.40/bin/bin/../../lib/gcc/pic32mx/4.8.3/../../../../pic32mx/lib\libpic32.a(vector34.o)
                0x9fc01640                __vector_dispatch_34
                0x00000001                ASSERT (((_vector_spacing == 0x0) || (SIZEOF (.vector_34) <= (_vector_spacing << 0x5))), function at exception vector 34 too large)

.vector_35      0x9fc01660        0x8
 *(.vector_35)
 .vector_35     0x9fc01660        0x8 c:/program files (x86)/microchip/xc32/v1.40/bin/bin/../../lib/gcc/pic32mx/4.8.3/../../../../pic32mx/lib\libpic32.a(vector35.o)
                0x9fc01660                __vector_dispatch_35
                0x00000001                ASSERT (((_vector_spacing == 0x0) || (SIZEOF (.vector_35) <= (_vector_spacing << 0x5))), function at exception vector 35 too large)

.vector_36      0x9fc01680        0x8
 *(.vector_36)
 .vector_36     0x9fc01680        0x8 c:/program files (x86)/microchip/xc32/v1.40/bin/bin/../../lib/gcc/pic32mx/4.8.3/../../../../pic32mx/lib\libpic32.a(vector36.o)
                0x9fc01680                __vector_dispatch_36
                0x00000001                ASSERT (((_vector_spacing == 0x0) || (SIZEOF (.vector_36) <= (_vector_spacing << 0x5))), function at exception vector 36 too large)

.vector_37      0x9fc016a0        0x8
 *(.vector_37)
 .vector_37     0x9fc016a0        0x8 c:/program files (x86)/microchip/xc32/v1.40/bin/bin/../../lib/gcc/pic32mx/4.8.3/../../../../pic32mx/lib\libpic32.a(vector37.o)
                0x9fc016a0                __vector_dispatch_37
                0x00000001                ASSERT (((_vector_spacing == 0x0) || (SIZEOF (.vector_37) <= (_vector_spacing << 0x5))), function at exception vector 37 too large)

.vector_38      0x9fc016c0        0x8
 *(.vector_38)
 .vector_38     0x9fc016c0        0x8 c:/program files (x86)/microchip/xc32/v1.40/bin/bin/../../lib/gcc/pic32mx/4.8.3/../../../../pic32mx/lib\libpic32.a(vector38.o)
                0x9fc016c0                __vector_dispatch_38
                0x00000001                ASSERT (((_vector_spacing == 0x0) || (SIZEOF (.vector_38) <= (_vector_spacing << 0x5))), function at exception vector 38 too large)

.vector_39      0x9fc016e0        0x8
 *(.vector_39)
 .vector_39     0x9fc016e0        0x8 c:/program files (x86)/microchip/xc32/v1.40/bin/bin/../../lib/gcc/pic32mx/4.8.3/../../../../pic32mx/lib\libpic32.a(vector39.o)
                0x9fc016e0                __vector_dispatch_39
                0x00000001                ASSERT (((_vector_spacing == 0x0) || (SIZEOF (.vector_39) <= (_vector_spacing << 0x5))), function at exception vector 39 too large)

.vector_40      0x9fc01700        0x8
 *(.vector_40)
 .vector_40     0x9fc01700        0x8 c:/program files (x86)/microchip/xc32/v1.40/bin/bin/../../lib/gcc/pic32mx/4.8.3/../../../../pic32mx/lib\libpic32.a(vector40.o)
                0x9fc01700                __vector_dispatch_40
                0x00000001                ASSERT (((_vector_spacing == 0x0) || (SIZEOF (.vector_40) <= (_vector_spacing << 0x5))), function at exception vector 40 too large)

.vector_41      0x9fc01720        0x8
 *(.vector_41)
 .vector_41     0x9fc01720        0x8 c:/program files (x86)/microchip/xc32/v1.40/bin/bin/../../lib/gcc/pic32mx/4.8.3/../../../../pic32mx/lib\libpic32.a(vector41.o)
                0x9fc01720                __vector_dispatch_41
                0x00000001                ASSERT (((_vector_spacing == 0x0) || (SIZEOF (.vector_41) <= (_vector_spacing << 0x5))), function at exception vector 41 too large)

.vector_42      0x9fc01740        0x8
 *(.vector_42)
 .vector_42     0x9fc01740        0x8 c:/program files (x86)/microchip/xc32/v1.40/bin/bin/../../lib/gcc/pic32mx/4.8.3/../../../../pic32mx/lib\libpic32.a(vector42.o)
                0x9fc01740                __vector_dispatch_42
                0x00000001                ASSERT (((_vector_spacing == 0x0) || (SIZEOF (.vector_42) <= (_vector_spacing << 0x5))), function at exception vector 42 too large)

.vector_43      0x9fc01760        0x8
 *(.vector_43)
 .vector_43     0x9fc01760        0x8 c:/program files (x86)/microchip/xc32/v1.40/bin/bin/../../lib/gcc/pic32mx/4.8.3/../../../../pic32mx/lib\libpic32.a(vector43.o)
                0x9fc01760                __vector_dispatch_43
                0x00000001                ASSERT (((_vector_spacing == 0x0) || (SIZEOF (.vector_43) <= (_vector_spacing << 0x5))), function at exception vector 43 too large)

.vector_44      0x9fc01780        0x8
 *(.vector_44)
 .vector_44     0x9fc01780        0x8 c:/program files (x86)/microchip/xc32/v1.40/bin/bin/../../lib/gcc/pic32mx/4.8.3/../../../../pic32mx/lib\libpic32.a(vector44.o)
                0x9fc01780                __vector_dispatch_44
                0x00000001                ASSERT (((_vector_spacing == 0x0) || (SIZEOF (.vector_44) <= (_vector_spacing << 0x5))), function at exception vector 44 too large)

.vector_45      0x9fc017a0        0x8
 *(.vector_45)
 .vector_45     0x9fc017a0        0x8 c:/program files (x86)/microchip/xc32/v1.40/bin/bin/../../lib/gcc/pic32mx/4.8.3/../../../../pic32mx/lib\libpic32.a(vector45.o)
                0x9fc017a0                __vector_dispatch_45
                0x00000001                ASSERT (((_vector_spacing == 0x0) || (SIZEOF (.vector_45) <= (_vector_spacing << 0x5))), function at exception vector 45 too large)

.vector_46      0x9fc017c0        0x8
 *(.vector_46)
 .vector_46     0x9fc017c0        0x8 c:/program files (x86)/microchip/xc32/v1.40/bin/bin/../../lib/gcc/pic32mx/4.8.3/../../../../pic32mx/lib\libpic32.a(vector46.o)
                0x9fc017c0                __vector_dispatch_46
                0x00000001                ASSERT (((_vector_spacing == 0x0) || (SIZEOF (.vector_46) <= (_vector_spacing << 0x5))), function at exception vector 46 too large)

.vector_47      0x9fc017e0        0x8
 *(.vector_47)
 .vector_47     0x9fc017e0        0x8 c:/program files (x86)/microchip/xc32/v1.40/bin/bin/../../lib/gcc/pic32mx/4.8.3/../../../../pic32mx/lib\libpic32.a(vector47.o)
                0x9fc017e0                __vector_dispatch_47
                0x00000001                ASSERT (((_vector_spacing == 0x0) || (SIZEOF (.vector_47) <= (_vector_spacing << 0x5))), function at exception vector 47 too large)

.vector_48      0x9fc01800        0x8
 *(.vector_48)
 .vector_48     0x9fc01800        0x8 c:/program files (x86)/microchip/xc32/v1.40/bin/bin/../../lib/gcc/pic32mx/4.8.3/../../../../pic32mx/lib\libpic32.a(vector48.o)
                0x9fc01800                __vector_dispatch_48
                0x00000001                ASSERT (((_vector_spacing == 0x0) || (SIZEOF (.vector_48) <= (_vector_spacing << 0x5))), function at exception vector 48 too large)

.vector_49      0x9fc01820        0x8
 *(.vector_49)
 .vector_49     0x9fc01820        0x8 c:/program files (x86)/microchip/xc32/v1.40/bin/bin/../../lib/gcc/pic32mx/4.8.3/../../../../pic32mx/lib\libpic32.a(vector49.o)
                0x9fc01820                __vector_dispatch_49
                0x00000001                ASSERT (((_vector_spacing == 0x0) || (SIZEOF (.vector_49) <= (_vector_spacing << 0x5))), function at exception vector 49 too large)

.vector_50      0x9fc01840        0x8
 *(.vector_50)
 .vector_50     0x9fc01840        0x8 c:/program files (x86)/microchip/xc32/v1.40/bin/bin/../../lib/gcc/pic32mx/4.8.3/../../../../pic32mx/lib\libpic32.a(vector50.o)
                0x9fc01840                __vector_dispatch_50
                0x00000001                ASSERT (((_vector_spacing == 0x0) || (SIZEOF (.vector_50) <= (_vector_spacing << 0x5))), function at exception vector 50 too large)

.vector_51      0x9fc01860        0x8
 *(.vector_51)
 .vector_51     0x9fc01860        0x8 c:/program files (x86)/microchip/xc32/v1.40/bin/bin/../../lib/gcc/pic32mx/4.8.3/../../../../pic32mx/lib\libpic32.a(vector51.o)
                0x9fc01860                __vector_dispatch_51
                0x00000001                ASSERT (((_vector_spacing == 0x0) || (SIZEOF (.vector_51) <= (_vector_spacing << 0x5))), function at exception vector 51 too large)

.vector_52      0x9fc01880        0x0
 *(.vector_52)
                0x00000001                ASSERT (((_vector_spacing == 0x0) || (SIZEOF (.vector_52) <= (_vector_spacing << 0x5))), function at exception vector 52 too large)

.vector_53      0x9fc018a0        0x0
 *(.vector_53)
                0x00000001                ASSERT (((_vector_spacing == 0x0) || (SIZEOF (.vector_53) <= (_vector_spacing << 0x5))), function at exception vector 53 too large)

.vector_54      0x9fc018c0        0x0
 *(.vector_54)
                0x00000001                ASSERT (((_vector_spacing == 0x0) || (SIZEOF (.vector_54) <= (_vector_spacing << 0x5))), function at exception vector 54 too large)

.vector_55      0x9fc018e0        0x0
 *(.vector_55)
                0x00000001                ASSERT (((_vector_spacing == 0x0) || (SIZEOF (.vector_55) <= (_vector_spacing << 0x5))), function at exception vector 55 too large)

.vector_56      0x9fc01900        0x0
 *(.vector_56)
                0x00000001                ASSERT (((_vector_spacing == 0x0) || (SIZEOF (.vector_56) <= (_vector_spacing << 0x5))), function at exception vector 56 too large)

.vector_57      0x9fc01920        0x0
 *(.vector_57)
                0x00000001                ASSERT (((_vector_spacing == 0x0) || (SIZEOF (.vector_57) <= (_vector_spacing << 0x5))), function at exception vector 57 too large)

.vector_58      0x9fc01940        0x0
 *(.vector_58)
                0x00000001                ASSERT (((_vector_spacing == 0x0) || (SIZEOF (.vector_58) <= (_vector_spacing << 0x5))), function at exception vector 58 too large)

.vector_59      0x9fc01960        0x0
 *(.vector_59)
                0x00000001                ASSERT (((_vector_spacing == 0x0) || (SIZEOF (.vector_59) <= (_vector_spacing << 0x5))), function at exception vector 59 too large)

.vector_60      0x9fc01980        0x0
 *(.vector_60)
                0x00000001                ASSERT (((_vector_spacing == 0x0) || (SIZEOF (.vector_60) <= (_vector_spacing << 0x5))), function at exception vector 60 too large)

.vector_61      0x9fc019a0        0x0
 *(.vector_61)
                0x00000001                ASSERT (((_vector_spacing == 0x0) || (SIZEOF (.vector_61) <= (_vector_spacing << 0x5))), function at exception vector 61 too large)

.vector_62      0x9fc019c0        0x0
 *(.vector_62)
                0x00000001                ASSERT (((_vector_spacing == 0x0) || (SIZEOF (.vector_62) <= (_vector_spacing << 0x5))), function at exception vector 62 too large)

.vector_63      0x9fc019e0        0x0
 *(.vector_63)
                0x00000001                ASSERT (((_vector_spacing == 0x0) || (SIZEOF (.vector_63) <= (_vector_spacing << 0x5))), function at exception vector 63 too large)

.startup
 *(.startup)

.text           0x9d000000        0x0
 *(.stub .gnu.linkonce.t.*)
 *(.text.*personality*)
 *(.mips16.fn.*)
 *(.mips16.call.*)
 *(.gnu.warning)
                0x9d000000                . = ALIGN (0x4)

.init           0x9d000000        0x0
 *crti.o(.init)
 *crtbegin.o(.init)
 *(EXCLUDE_FILE(*crtn.o *crtend?.o *crtend.o) .init)
 *crtend.o(.init)
 *crtn.o(.init)
                0x9d000000                . = ALIGN (0x4)

.fini           0x9d000000        0x0
 *(.fini)
                0x9d000000                . = ALIGN (0x4)

.preinit_array  0x9d000000        0x0
                0x9d000000                PROVIDE (__preinit_array_start, .)
 *(.preinit_array)
                0x9d000000                PROVIDE (__preinit_array_end, .)
                0x9d000000                . = ALIGN (0x4)

.init_array     0x9d000000        0x0
                0x9d000000                PROVIDE (__init_array_start, .)
 *(SORT(.init_array.*))
 *(.init_array)
                0x9d000000                PROVIDE (__init_array_end, .)
                0x9d000000                . = ALIGN (0x4)

.fini_array     0x9d000000        0x0
                0x9d000000                PROVIDE (__fini_array_start, .)
 *(SORT(.fini_array.*))
 *(.fini_array)
                0x9d000000                PROVIDE (__fini_array_end, .)
                0x9d000000                . = ALIGN (0x4)

.ctors          0x9d000000        0x0
 *crtbegin.o(.ctors)
 *crtbegin?.o(.ctors)
 *(EXCLUDE_FILE(*crtend?.o *crtend.o) .ctors)
 *(SORT(.ctors.*))
 *(.ctors)
                0x9d000000                . = ALIGN (0x4)

.dtors          0x9d000000        0x0
 *crtbegin.o(.dtors)
 *crtbegin?.o(.dtors)
 *(EXCLUDE_FILE(*crtend?.o *crtend.o) .dtors)
 *(SORT(.dtors.*))
 *(.dtors)
                0x9d000000                . = ALIGN (0x4)

.rodata         0x9d000000        0x0
 *(.gnu.linkonce.r.*)
 *(.rodata1)
                0x9d000000                . = ALIGN (0x4)

.sdata2         0x9fc00490        0x0
 *(.sdata2 .sdata2.* .gnu.linkonce.s2.*)
                0x9fc00490                . = ALIGN (0x4)

.sbss2          0x9fc00490        0x0
 *(.sbss2 .sbss2.* .gnu.linkonce.sb2.*)
                0x9fc00490                . = ALIGN (0x4)

.eh_frame_hdr
 *(.eh_frame_hdr)
                0x9fc00490                . = ALIGN (0x4)

.eh_frame
 *(.eh_frame)
                0x9fc00490                . = ALIGN (0x4)

.gcc_except_table
 *(.gcc_except_table .gcc_except_table.*)
                0x9fc00490                . = ALIGN (0x4)

.dbg_data       0xa0000000        0x0
                0xa0000000                . = (. + DEFINED (_DEBUGGER)?0x200:0x0)

.jcr            0xa0000000        0x0
 *(.jcr)
                0xa0000000                . = ALIGN (0x4)

.eh_frame
 *(.eh_frame)
                0xa0000000                . = ALIGN (0x4)

.gcc_except_table
 *(.gcc_except_table .gcc_except_table.*)
                0xa0000000                . = ALIGN (0x4)

.persist        0xa0000000        0x0
                0xa0000000                _persist_begin = .
 *(.persist .persist.*)
 *(.pbss .pbss.*)
                0xa0000000                . = ALIGN (0x4)
                0xa0000000                _persist_end = .

.data           0xa0000000        0x0
 *(.gnu.linkonce.d.*)
 *(.data1)
                0xa0000000                . = ALIGN (0x4)
                0xa0000000                . = .
                0xa0007ff0                _gp = (ALIGN (0x10) + 0x7ff0)

.got            0xa0000000        0x0
 *(.got.plt)
 *(.got)
                0xa0000000                . = ALIGN (0x4)

.sdata          0xa0000000      0x1d4
                0xa0000000                _sdata_begin = .
 *(.sdata .sdata.* .gnu.linkonce.s.*)
 .sdata         0xa0000000        0x8 build/default/production/_ext/93166211/DNS.o
 .sdata         0xa0000008        0x1 build/default/production/_ext/93166211/DNSs.o
 *fill*         0xa0000009        0x3 
 .sdata         0xa000000c        0x4 build/default/production/_ext/93166211/Helpers.o
 .sdata         0xa0000010        0x1 build/default/production/_ext/93166211/Reboot.o
 .sdata         0xa0000011        0x2 build/default/production/_ext/93166211/TCP.o
 .sdata         0xa0000013        0x2 build/default/production/_ext/93166211/UDP.o
 .sdata         0xa0000015        0x1 build/default/production/_ext/93166211/ZeroconfHelper.o
                0xa0000015                zeroconf_dbg_level
 *fill*         0xa0000016        0x2 
 .sdata         0xa0000018        0x8 build/default/production/_ext/93166211/ZeroconfLinkLocal.o
 .sdata         0xa0000020        0x8 build/default/production/_ext/93166211/ZeroconfMulticastDNS.o
                0xa0000020                CONST_STR_local
                0xa0000024                mDNS_socket
 .sdata         0xa0000028        0xc build/default/production/_ext/93166211/DHCPs.o
                0xa000002c                bDHCPServerEnabled
 .sdata         0xa0000034        0x1 build/default/production/_ext/388820833/WFConnectionAlgorithm.o
 .sdata         0xa0000035        0x1 build/default/production/_ext/388820833/WFPowerSave.o
 .sdata         0xa0000036        0x1 build/default/production/_ext/1472/Main.o
                0xa0000036                g_prescan_waiting
 *fill*         0xa0000037        0x1 
 .sdata         0xa0000038        0x4 build/default/production/_ext/1472/CustomHTTPApp.o
 .sdata         0xa000003c       0xa8 build/default/production/_ext/1472/OpenADRClient.o
                0xa000003c                strAvailabilityStatus
                0xa0000044                ServerPort
                0xa0000048                AvgPrice
                0xa000004c                LowPrice
                0xa0000050                HighPrice
                0xa0000054                SpecialPrice
                0xa0000058                SmartClient
                0xa000005c                PollRate
                0xa0000094                operationModeScheduleText
                0xa0000098                eventStatusText
                0xa000009c                operationModeValueText
                0xa00000a0                eventStateIDText
                0xa00000a4                eventIdentifierText
                0xa00000a8                eventModNumberText
                0xa00000ac                programNameText
                0xa00000b0                currentTimeText
                0xa00000b4                drEventDataText
                0xa00000b8                noteTimeText
                0xa00000bc                startTimeText
                0xa00000c0                endTimeText
                0xa00000c4                PriceAbsoluteText
                0xa00000c8                LoadAmountText
                0xa00000cc                PriceMultipleText
                0xa00000d0                eventIIText
                0xa00000d4                valueText
                0xa00000d8                timeOffsetText
                0xa00000dc                modeTimeSlotText
                0xa00000e0                hrefText
 .sdata         0xa00000e4        0x4 build/default/production/_ext/1472/TimeMonitor.o
                0xa00000e4                tmMillisecondsPerTick
 .sdata         0xa00000e8        0x8 build/default/production/_ext/1472/app_UCM.o
                0xa00000e8                active_flag
                0xa00000ec                spi_timeout
 .sdata         0xa00000f0       0xa4 build/default/production/_ext/1472/MCI_Common.o
                0xa00000f0                TimeSyncMsg
                0xa00000f8                ShedCommand
                0xa0000100                EndShedCommand
                0xa0000108                RequestPowerLevel
                0xa0000110                PresentRelativePrice
                0xa0000118                NextPeriodRelativePrice
                0xa0000120                TimeRemainingInPresentPricePeriod
                0xa0000128                CriticalPeakEvent
                0xa0000130                GridEmergency
                0xa0000138                QueryOpState
                0xa0000140                PresentRelPrice
                0xa0000148                OutsideCommGood
                0xa0000150                OutsideCommLost
                0xa0000158                LoadUp
                0xa0000160                TimeSync
                0xa0000168                GetEnergyPrice
                0xa0000170                GetCommodityReadGeneral
                0xa0000178                GetTemperatureOffset
                0xa0000180                GetSetPoint
                0xa0000188                codeByte
                0xa000018c                dl_ack
                0xa0000190                dl_nak
 .sdata         0xa0000194       0x38 build/default/production/_ext/1472/LinkLayerMessaging.o
                0xa0000194                LINKMSG_RequestDifferentPowerMode
                0xa000019c                LINKMSG_RequestDifferentBitRate
                0xa00001a4                LINKMSG_QueryMaximumPayloadLength
                0xa00001ac                LINKMSG_ResponseMaximumPayloadLength
                0xa00001b4                LINKMSG_QueryGetSGDSlotNumber
                0xa00001bc                LINKMSG_QueryGetAvailableSlotNumbers
                0xa00001c4                LINKMSG_SendNextCommandToSlot
 .sdata         0xa00001cc        0x4 build/default/production/_ext/1472/debugging.o
                0xa00001cc                debugwserial
 .sdata         0xa00001d0        0x4 c:/program files (x86)/microchip/xc32/v1.40/bin/bin/../../lib/gcc/pic32mx/4.8.3/../../../../pic32mx/lib\libpic32.a(xc32_uart.o)
                0xa00001d0                __XC_UART
                0xa00001d4                . = ALIGN (0x4)
                0xa00001d4                _sdata_end = .

.lit8
 *(.lit8)

.lit4
 *(.lit4)
                0xa00001d4                . = ALIGN (0x4)
                0xa00001d4                _data_end = .
                0xa00001d4                _bss_begin = .

.sbss           0xa00001d4      0x2e0
                0xa00001d4                _sbss_begin = .
 *(.dynsbss)
 *(.sbss .sbss.* .gnu.linkonce.sb.*)
 .sbss          0xa00001d4        0x8 build/default/production/_ext/93166211/Announce.o
 .sbss          0xa00001dc        0x4 build/default/production/_ext/93166211/ARP.o
 .sbss          0xa00001e0       0x14 build/default/production/_ext/93166211/DNS.o
 .sbss          0xa00001f4        0x1 build/default/production/_ext/93166211/DNSs.o
 *fill*         0xa00001f5        0x1 
 .sbss          0xa00001f6        0x4 build/default/production/_ext/93166211/IP.o
 *fill*         0xa00001fa        0x2 
 .sbss          0xa00001fc        0x8 build/default/production/_ext/93166211/MPFS2.o
 .sbss          0xa0000204        0x8 build/default/production/_ext/93166211/NBNS.o
 .sbss          0xa000020c        0x8 build/default/production/_ext/93166211/SPIFlash.o
 .sbss          0xa0000214       0x10 build/default/production/_ext/93166211/StackTsk.o
                0xa0000218                g_DhcpRenew
                0xa000021c                g_DhcpRetryTimer
 *fill*         0xa0000224        0x4 
 .sbss          0xa0000228       0x10 build/default/production/_ext/93166211/Tick.o
 .sbss          0xa0000238        0x8 build/default/production/_ext/93166211/UDP.o
 .sbss          0xa0000240       0x30 build/default/production/_ext/93166211/ZeroconfLinkLocal.o
                0xa0000240                zcll_state
                0xa0000244                zcll_dhcp_substate
 .sbss          0xa0000270        0x8 build/default/production/_ext/93166211/ZeroconfMulticastDNS.o
                0xa0000270                mDNS_responder_state
 .sbss          0xa0000278        0x4 build/default/production/_ext/93166211/DHCP.o
                0xa0000278                DHCPClientInitializedOnce
 .sbss          0xa000027c        0xc build/default/production/_ext/93166211/DHCPs.o
 .sbss          0xa0000288        0x4 build/default/production/_ext/388820833/WFConnectionManager.o
 .sbss          0xa000028c        0xc build/default/production/_ext/388820833/WFPowerSave.o
 .sbss          0xa0000298        0x1 build/default/production/_ext/388820833/WF_Spi.o
 *fill*         0xa0000299        0x3 
 .sbss          0xa000029c       0x28 build/default/production/_ext/388820833/WFDriverCom_24G.o
                0xa00002b4                g_DhcpSuccessful
                0xa00002b8                g_WiFiConnectionChanged
                0xa00002bc                g_WiFiConnection
                0xa00002c0                g_dhcpInProgress
 .sbss          0xa00002c4        0x8 build/default/production/_ext/388820833/WFDriverRaw_24G.o
                0xa00002c4                g_HostRAWDataPacketReceived
                0xa00002c8                g_RawIndexPastEnd
 .sbss          0xa00002cc       0x14 build/default/production/_ext/388820833/WFMac_24G.o
 .sbss          0xa00002e0        0xc build/default/production/_ext/388820833/WFMgmtMsg_24G.o
                0xa00002e4                g_WaitingForMgmtResponse
 .sbss          0xa00002ec       0x10 build/default/production/_ext/1472/Main.o
                0xa00002ee                g_scan_done
 .sbss          0xa00002fc        0xc build/default/production/_ext/1472/CustomHTTPApp.o
 .sbss          0xa0000308       0x4c build/default/production/_ext/1472/OpenADRClient.o
                0xa0000308                OpMode
                0xa000030c                InvalidSocketReboot
                0xa0000310                DNSTimer
                0xa0000314                ClientTypeKnown
                0xa0000318                RequestedClientType
                0xa000031c                RequestedPriceAbs
                0xa0000320                SupportsPriceAbs
                0xa0000324                PriceAbsSupportKnown
                0xa0000328                RequestedPriceRel
                0xa000032c                SupportsPriceRel
                0xa0000330                PriceRelSupportKnown
                0xa0000334                ResetSGD
                0xa0000338                CommandType
                0xa000033c                SmartQuery
                0xa000034c                OpenADR_TCPState
                0xa0000350                OpenADR_MsgState
 .sbss          0xa0000354        0x8 build/default/production/_ext/1472/INTiMain.o
                0xa0000354                UART2RxCallbackFunction
                0xa0000358                SPI3RxCallbackFunction
 .sbss          0xa000035c        0x8 build/default/production/_ext/1472/UARTiMain.o
 .sbss          0xa0000364        0x8 build/default/production/_ext/1472/TimeMonitor.o
                0xa0000364                tmTimeMonitorClock
                0xa0000368                tmTickDownTimeIndex0
 .sbss          0xa000036c       0x20 build/default/production/_ext/1472/EPRI_UARTLayer.o
                0xa000036c                OK_TO_READ_232
                0xa0000370                position_counter
                0xa0000374                numBytes
                0xa0000378                RxBytesReceived
                0xa000037c                OverRide
                0xa0000380                OptOutEvent
                0xa0000384                OptInEvent
                0xa0000388                UARTLock
 .sbss          0xa000038c       0x48 build/default/production/_ext/1472/app_UCM.o
                0xa000038c                SendToServerTimeout
                0xa0000390                MainSysTickTimer
                0xa0000394                MainSystemUNIXTime
                0xa0000398                WriteBackTimer
                0xa000039c                SendToServer
                0xa00003a0                SendOptOut
                0xa00003a4                HANMsg_Rdy2Process
                0xa00003a8                SendLocalHB
                0xa00003a9                eventInProgress
                0xa00003ac                SendCancelCommand
                0xa00003b0                cancelCommandCtr
                0xa00003b4                cancelCommand
                0xa00003b5                TryGetNextEvent
                0xa00003b8                MainResetTimer
                0xa00003bc                gRespRec
                0xa00003c0                ZG_Con_Timer
                0xa00003c4                SPI_Watch_Timer
                0xa00003c8                Scheduling
                0xa00003d0                TCPCommState
 .sbss          0xa00003d4        0x8 build/default/production/_ext/1472/MCI_Common.o
                0xa00003d4                httpCode
                0xa00003d8                ResponseReadyFlag
 .sbss          0xa00003dc        0x1 build/default/production/_ext/1472/BasicDR.o
                0xa00003dc                nOptions
 *(.scommon)
 .scommon       0xa00003dd        0x1 build/default/production/_ext/93166211/HTTP2.o
                0xa00003dd                curHTTPID
 .scommon       0xa00003de        0x5 build/default/production/_ext/93166211/UDP.o
                0xa00003de                UDPRxCount
                0xa00003e0                UDPTxCount
                0xa00003e2                activeUDPSocket
 *fill*         0xa00003e3        0x1 
 .scommon       0xa00003e4        0x6 build/default/production/_ext/388820833/WFEasyConfig.o
                0xa00003e4                g_ScanCtx
 *fill*         0xa00003ea        0x2 
 .scommon       0xa00003ec        0x4 build/default/production/_ext/388820833/WFPowerSave.o
                0xa00003ec                g_rxDtim
 .scommon       0xa00003f0        0x8 build/default/production/_ext/388820833/WFDriverCom_24G.o
                0xa00003f0                RawMoveState
 .scommon       0xa00003f8        0x2 build/default/production/_ext/388820833/WFDriverRaw_24G.o
                0xa00003f8                RawWindowState
 *fill*         0xa00003fa        0x2 
 .scommon       0xa00003fc        0x4 build/default/production/_ext/388820833/WFMac_24G.o
                0xa00003fc                WF_hibernate
                0xa00003fe                g_rxBufferLength
 .scommon       0xa0000400       0x68 build/default/production/_ext/1472/OpenADRClient.o
                0xa0000400                UTCLastServerTime
                0xa0000404                tempbreakpoint
                0xa0000408                operationModeValue
                0xa0000410                FoundHTTPHeader
                0xa0000414                DNS_IP_ADDR
                0xa0000418                GetEventStateTimer
                0xa000041c                UTCTime
                0xa0000420                SQueryTimer
                0xa0000424                LastServerTicks
                0xa0000428                LengthOfContent
                0xa000042c                CommTimer
                0xa0000430                UTCServerTime
                0xa0000434                tzsec
                0xa0000438                Local_Time
                0xa000043c                eventStatus
                0xa0000444                HTTPResponse
                0xa0000448                DebugCnt
                0xa000044c                TCP_blackout
                0xa0000450                payloadptr
                0xa0000454                LoadFactor
                0xa0000458                commGoodOld
                0xa000045c                FoundHTTPBody
                0xa0000460                commGood
                0xa0000464                DelayTimer
 .scommon       0xa0000468       0x10 build/default/production/_ext/1472/EPRI_UARTLayer.o
                0xa0000468                RxMsgState
                0xa000046c                IdleNormal
                0xa0000470                TxMsgState
                0xa0000474                RunningNormal
 .scommon       0xa0000478        0xc build/default/production/_ext/1472/app_UCM.o
                0xa0000478                curOptouthash
                0xa000047c                TCP_Message
                0xa0000480                lostlink_flag
 .scommon       0xa0000484       0x1d build/default/production/_ext/1472/MCI_Common.o
                0xa0000484                deviceType
                0xa0000486                currencyCode
                0xa0000488                setpoint2
                0xa000048a                units
                0xa000048c                setpoint1
                0xa0000490                nextPrice
                0xa0000494                responseCode
                0xa0000495                nCommodities
                0xa0000496                digitsAfterPoint
                0xa0000498                currentPrice
                0xa000049c                expirationTime
                0xa00004a0                currentOffset
 *fill*         0xa00004a1        0x3 
 .scommon       0xa00004a4        0x4 build/default/production/_ext/1472/LinkLayerMessaging.o
                0xa00004a4                LL_MsgState
 .scommon       0xa00004a8        0x8 build/default/production/_ext/1472/BasicDR.o
                0xa00004a8                ExpectedAckType
                0xa00004ac                RelayMsgState
 .scommon       0xa00004b0        0x4 build/default/production/_ext/1472/RESTAPI.o
                0xa00004b0                eventType
                0xa00004b4                _sbss_end = .
                0xa00004b4                . = ALIGN (0x4)

.bss            0xa00004b8     0x34b8
 *(.dynbss)
 *(COMMON)
 COMMON         0xa00004b8       0x9c build/default/production/_ext/93166211/HTTP2.o
                0xa00004b8                curHTTP
                0xa0000544                httpStubs
 COMMON         0xa0000554        0xa build/default/production/_ext/93166211/StackTsk.o
                0xa0000554                remoteNode
 *fill*         0xa000055e        0x2 
 COMMON         0xa0000560       0xe0 build/default/production/_ext/93166211/UDP.o
                0xa0000560                UDPSocketInfo
 COMMON         0xa0000640       0x78 build/default/production/_ext/93166211/DHCPs.o
                0xa0000640                DhcpIpPool
 COMMON         0xa00006b8      0xbe8 build/default/production/_ext/388820833/WFEasyConfig.o
                0xa00006b8                g_easyConfigCtx
                0xa000074c                preScanResult
 COMMON         0xa00012a0       0xc2 build/default/production/_ext/1472/Main.o
                0xa00012a0                sbuf
                0xa00012c8                AppConfig
 *fill*         0xa0001362        0x2 
 COMMON         0xa0001364     0x2218 build/default/production/_ext/1472/OpenADRClient.o
                0xa0001364                eventModNumber
                0xa0001378                programName
                0xa0001398                RsBuf
                0xa00013b4                SourceUnamePw
                0xa00013e8                TCPPutBuffer
                0xa00017d0                EncodedUNPW
                0xa000181c                notificationTime
                0xa0001844                eventStateQ
                0xa0001b14                modeTimeSlot
                0xa0001b28                eventIdentifier
                0xa0001b48                startTime
                0xa0001b70                TCPpayload_buf
                0xa000340c                GMTstr
                0xa0003440                ActiveEventID
                0xa0003460                currentTime
                0xa0003474                HttpLocation
                0xa00034a8                eventStateID
                0xa00034c8                timeOffset
                0xa00034dc                endTime
                0xa0003504                pbuf
 COMMON         0xa000357c       0x48 build/default/production/_ext/1472/TimeMonitor.o
                0xa000357c                tmTickDownTimeI
                0xa00035a0                tmCallbackFunctionI
 COMMON         0xa00035c4      0x2b6 build/default/production/_ext/1472/EPRI_UARTLayer.o
                0xa00035c4                NullRSBuf
                0xa00035e0                AsyncRxRSBuf
                0xa00035fc                AsyncTxRSBuf
                0xa0003618                RxBuf
                0xa0003744                rxmessage
                0xa0003870                txmessage
 *fill*         0xa000387a        0x6 
 COMMON         0xa0003880       0xf0 build/default/production/_ext/1472/BasicDR.o
                0xa0003880                commodityResponse
                0xa0003970                . = ALIGN ((. != 0x0)?0x4:0x1)
                0xa0003970                . = ALIGN (0x4)
                0xa0003970                _end = .
                0xa0003970                _bss_end = .
                0x00010000                _bmxdudba_address = 0x10000
                0x00010000                _bmxdupba_address = 0x10000

/DISCARD/
 *(.pdr)
 *(.rel.dyn)
 *(.note.GNU-stack)
 *(.note.GNU-stack)
 *(.gnu_debuglink)
 *(.gnu.lto_*)
 *(.discard)

.gptab.sdata
 *(.gptab.data)
 *(.gptab.sdata)

.gptab.sbss
 *(.gptab.bss)
 *(.gptab.sbss)

.mdebug.abi32   0xa0003970        0x0
 *(.mdebug.abi32)
 .mdebug.abi32  0xa0003970        0x0 build/default/production/_ext/93166211/Announce.o
 .mdebug.abi32  0xa0003970        0x0 build/default/production/_ext/93166211/ARCFOUR.o
 .mdebug.abi32  0xa0003970        0x0 build/default/production/_ext/93166211/ARP.o
 .mdebug.abi32  0xa0003970        0x0 build/default/production/_ext/93166211/AutoIP.o
 .mdebug.abi32  0xa0003970        0x0 build/default/production/_ext/93166211/BerkeleyAPI.o
 .mdebug.abi32  0xa0003970        0x0 build/default/production/_ext/93166211/BigInt.o
 .mdebug.abi32  0xa0003970        0x0 build/default/production/_ext/93166211/Delay.o
 .mdebug.abi32  0xa0003970        0x0 build/default/production/_ext/93166211/DNS.o
 .mdebug.abi32  0xa0003970        0x0 build/default/production/_ext/93166211/DNSs.o
 .mdebug.abi32  0xa0003970        0x0 build/default/production/_ext/93166211/DynDNS.o
 .mdebug.abi32  0xa0003970        0x0 build/default/production/_ext/93166211/FileSystem.o
 .mdebug.abi32  0xa0003970        0x0 build/default/production/_ext/93166211/FTP.o
 .mdebug.abi32  0xa0003970        0x0 build/default/production/_ext/93166211/Hashes.o
 .mdebug.abi32  0xa0003970        0x0 build/default/production/_ext/93166211/Helpers.o
 .mdebug.abi32  0xa0003970        0x0 build/default/production/_ext/93166211/HTTP2.o
 .mdebug.abi32  0xa0003970        0x0 build/default/production/_ext/93166211/ICMP.o
 .mdebug.abi32  0xa0003970        0x0 build/default/production/_ext/93166211/IP.o
 .mdebug.abi32  0xa0003970        0x0 build/default/production/_ext/93166211/LCDBlocking.o
 .mdebug.abi32  0xa0003970        0x0 build/default/production/_ext/93166211/MPFS2.o
 .mdebug.abi32  0xa0003970        0x0 build/default/production/_ext/93166211/NBNS.o
 .mdebug.abi32  0xa0003970        0x0 build/default/production/_ext/93166211/Random.o
 .mdebug.abi32  0xa0003970        0x0 build/default/production/_ext/93166211/Reboot.o
 .mdebug.abi32  0xa0003970        0x0 build/default/production/_ext/93166211/RSA.o
 .mdebug.abi32  0xa0003970        0x0 build/default/production/_ext/93166211/SMTP.o
 .mdebug.abi32  0xa0003970        0x0 build/default/production/_ext/93166211/SNMP.o
 .mdebug.abi32  0xa0003970        0x0 build/default/production/_ext/93166211/SNMPv3.o
 .mdebug.abi32  0xa0003970        0x0 build/default/production/_ext/93166211/SNMPv3USM.o
 .mdebug.abi32  0xa0003970        0x0 build/default/production/_ext/93166211/SNTP.o
 .mdebug.abi32  0xa0003970        0x0 build/default/production/_ext/93166211/SPIEEPROM.o
 .mdebug.abi32  0xa0003970        0x0 build/default/production/_ext/93166211/SPIFlash.o
 .mdebug.abi32  0xa0003970        0x0 build/default/production/_ext/93166211/SPIRAM.o
 .mdebug.abi32  0xa0003970        0x0 build/default/production/_ext/93166211/SSL.o
 .mdebug.abi32  0xa0003970        0x0 build/default/production/_ext/93166211/StackTsk.o
 .mdebug.abi32  0xa0003970        0x0 build/default/production/_ext/93166211/TCP.o
 .mdebug.abi32  0xa0003970        0x0 build/default/production/_ext/93166211/TCPPerformanceTest.o
 .mdebug.abi32  0xa0003970        0x0 build/default/production/_ext/93166211/Telnet.o
 .mdebug.abi32  0xa0003970        0x0 build/default/production/_ext/93166211/TFTPc.o
 .mdebug.abi32  0xa0003970        0x0 build/default/production/_ext/93166211/Tick.o
 .mdebug.abi32  0xa0003970        0x0 build/default/production/_ext/93166211/UART2TCPBridge.o
 .mdebug.abi32  0xa0003970        0x0 build/default/production/_ext/93166211/UDP.o
 .mdebug.abi32  0xa0003970        0x0 build/default/production/_ext/93166211/UDPPerformanceTest.o
 .mdebug.abi32  0xa0003970        0x0 build/default/production/_ext/93166211/ZeroconfHelper.o
 .mdebug.abi32  0xa0003970        0x0 build/default/production/_ext/93166211/ZeroconfLinkLocal.o
 .mdebug.abi32  0xa0003970        0x0 build/default/production/_ext/93166211/ZeroconfMulticastDNS.o
 .mdebug.abi32  0xa0003970        0x0 build/default/production/_ext/93166211/DHCP.o
 .mdebug.abi32  0xa0003970        0x0 build/default/production/_ext/93166211/DHCPs.o
 .mdebug.abi32  0xa0003970        0x0 build/default/production/_ext/388820833/WF_Eint.o
 .mdebug.abi32  0xa0003970        0x0 build/default/production/_ext/388820833/WF_pbkdf2.o
 .mdebug.abi32  0xa0003970        0x0 build/default/production/_ext/388820833/WFConnectionAlgorithm.o
 .mdebug.abi32  0xa0003970        0x0 build/default/production/_ext/388820833/WFConnectionManager.o
 .mdebug.abi32  0xa0003970        0x0 build/default/production/_ext/388820833/WFConnectionProfile.o
 .mdebug.abi32  0xa0003970        0x0 build/default/production/_ext/388820833/WFConsole.o
 .mdebug.abi32  0xa0003970        0x0 build/default/production/_ext/388820833/WFConsoleIfconfig.o
 .mdebug.abi32  0xa0003970        0x0 build/default/production/_ext/388820833/WFConsoleIwconfig.o
 .mdebug.abi32  0xa0003970        0x0 build/default/production/_ext/388820833/WFConsoleIwpriv.o
 .mdebug.abi32  0xa0003970        0x0 build/default/production/_ext/388820833/WFConsoleMsgHandler.o
 .mdebug.abi32  0xa0003970        0x0 build/default/production/_ext/388820833/WFConsoleMsgs.o
 .mdebug.abi32  0xa0003970        0x0 build/default/production/_ext/388820833/WFDataTxRx.o
 .mdebug.abi32  0xa0003970        0x0 build/default/production/_ext/388820833/WFDebugStrings.o
 .mdebug.abi32  0xa0003970        0x0 build/default/production/_ext/388820833/WFEasyConfig.o
 .mdebug.abi32  0xa0003970        0x0 build/default/production/_ext/388820833/WFEventHandler.o
 .mdebug.abi32  0xa0003970        0x0 build/default/production/_ext/388820833/WFInit.o
 .mdebug.abi32  0xa0003970        0x0 build/default/production/_ext/388820833/WFPowerSave.o
 .mdebug.abi32  0xa0003970        0x0 build/default/production/_ext/388820833/WFScan.o
 .mdebug.abi32  0xa0003970        0x0 build/default/production/_ext/388820833/WFTxPower.o
 .mdebug.abi32  0xa0003970        0x0 build/default/production/_ext/388820833/WF_Spi.o
 .mdebug.abi32  0xa0003970        0x0 build/default/production/_ext/388820833/WFDriverCom_24G.o
 .mdebug.abi32  0xa0003970        0x0 build/default/production/_ext/388820833/WFDriverRaw_24G.o
 .mdebug.abi32  0xa0003970        0x0 build/default/production/_ext/388820833/WFMac_24G.o
 .mdebug.abi32  0xa0003970        0x0 build/default/production/_ext/388820833/WFMgmtMsg_24G.o
 .mdebug.abi32  0xa0003970        0x0 build/default/production/_ext/388820833/WFParamMsg_24G.o
 .mdebug.abi32  0xa0003970        0x0 build/default/production/_ext/1472/Main.o
 .mdebug.abi32  0xa0003970        0x0 build/default/production/_ext/1472/CustomHTTPApp.o
 .mdebug.abi32  0xa0003970        0x0 build/default/production/_ext/1472/WF_Config.o
 .mdebug.abi32  0xa0003970        0x0 build/default/production/_ext/1472/WifiGDemoMPFSImg.o
 .mdebug.abi32  0xa0003970        0x0 build/default/production/_ext/1472/i2c_master.o
 .mdebug.abi32  0xa0003970        0x0 build/default/production/_ext/1472/OpenADRClient.o
 .mdebug.abi32  0xa0003970        0x0 build/default/production/_ext/1472/INTiMain.o
 .mdebug.abi32  0xa0003970        0x0 build/default/production/_ext/1472/UARTiMain.o
 .mdebug.abi32  0xa0003970        0x0 build/default/production/_ext/1472/TimeMonitor.o
 .mdebug.abi32  0xa0003970        0x0 build/default/production/_ext/1472/EPRI_UARTLayer.o
 .mdebug.abi32  0xa0003970        0x0 build/default/production/_ext/1472/app_UCM.o
 .mdebug.abi32  0xa0003970        0x0 build/default/production/_ext/1472/Assert.o
 .mdebug.abi32  0xa0003970        0x0 build/default/production/_ext/1472/EPRI_SPILayer.o
 .mdebug.abi32  0xa0003970        0x0 build/default/production/_ext/1472/MCI_Common.o
 .mdebug.abi32  0xa0003970        0x0 build/default/production/_ext/1472/LinkLayerMessaging.o
 .mdebug.abi32  0xa0003970        0x0 build/default/production/_ext/1472/BasicDR.o
 .mdebug.abi32  0xa0003970        0x0 build/default/production/_ext/1472/debugging.o
 .mdebug.abi32  0xa0003970        0x0 build/default/production/_ext/1472/RESTAPI.o
 .mdebug.abi32  0xa0003970        0x0 c:/program files (x86)/microchip/xc32/v1.40/bin/bin/../../lib/gcc/pic32mx/4.8.3/../../../../pic32mx/lib\libmchp_peripheral_32MX575F256L.a(soft_reset_lib.o)
 .mdebug.abi32  0xa0003970        0x0 c:/program files (x86)/microchip/xc32/v1.40/bin/bin/../../lib/gcc/pic32mx/4.8.3/../../../../pic32mx/lib\libmchp_peripheral_32MX575F256L.a(pcache.o)
 .mdebug.abi32  0xa0003970        0x0 c:/program files (x86)/microchip/xc32/v1.40/bin/bin/../../lib/gcc/pic32mx/4.8.3/../../../../pic32mx/lib\libmchp_peripheral_32MX575F256L.a(int_disable_interrupts_lib.o)
 .mdebug.abi32  0xa0003970        0x0 c:/program files (x86)/microchip/xc32/v1.40/bin/bin/../../lib/gcc/pic32mx/4.8.3/../../../../pic32mx/lib\libmchp_peripheral_32MX575F256L.a(int_restore_interrupts_lib.o)
 .mdebug.abi32  0xa0003970        0x0 c:/program files (x86)/microchip/xc32/v1.40/bin/bin/../../lib/gcc/pic32mx/4.8.3/../../../../pic32mx/lib\libmchp_peripheral_32MX575F256L.a(int_enable_mv_int_lib.o)
 .mdebug.abi32  0xa0003970        0x0 c:/program files (x86)/microchip/xc32/v1.40/bin/bin/../../lib/gcc/pic32mx/4.8.3/../../../../pic32mx/lib\libmchp_peripheral_32MX575F256L.a(int_tbl_lib.o)
 .mdebug.abi32  0xa0003970        0x0 c:/program files (x86)/microchip/xc32/v1.40/bin/bin/../../lib/gcc/pic32mx/4.8.3/../../../../pic32mx/lib\libmchp_peripheral_32MX575F256L.a(uart_lib.o)
 .mdebug.abi32  0xa0003970        0x0 c:/program files (x86)/microchip/xc32/v1.40/bin/bin/../../lib/gcc/pic32mx/4.8.3/../../../../pic32mx/lib\libmchp_peripheral_32MX575F256L.a(puts_uartx_lib_legacy.o)
 .mdebug.abi32  0xa0003970        0x0 c:/program files (x86)/microchip/xc32/v1.40/bin/bin/../../lib/gcc/pic32mx/4.8.3/../../../../pic32mx/lib\libmchp_peripheral_32MX575F256L.a(idle_i2c2_lib_legacy.o)
 .mdebug.abi32  0xa0003970        0x0 c:/program files (x86)/microchip/xc32/v1.40/bin/bin/../../lib/gcc/pic32mx/4.8.3/../../../../pic32mx/lib\libmchp_peripheral_32MX575F256L.a(I2CPrivate.o)
 .mdebug.abi32  0xa0003970        0x0 c:/program files (x86)/microchip/xc32/v1.40/bin/bin/../../lib/gcc/pic32mx/4.8.3/../../../../pic32mx/lib\libmchp_peripheral_32MX575F256L.a(I2CBusIsIdle.o)
 .mdebug.abi32  0xa0003970        0x0 c:/program files (x86)/microchip/xc32/v1.40/bin/bin/../../lib/gcc/pic32mx/4.8.3/../../../../pic32mx/lib\libmchp_peripheral_32MX575F256L.a(I2CByteWasAcknowledged.o)
 .mdebug.abi32  0xa0003970        0x0 c:/program files (x86)/microchip/xc32/v1.40/bin/bin/../../lib/gcc/pic32mx/4.8.3/../../../../pic32mx/lib\libmchp_peripheral_32MX575F256L.a(I2CEnable.o)
 .mdebug.abi32  0xa0003970        0x0 c:/program files (x86)/microchip/xc32/v1.40/bin/bin/../../lib/gcc/pic32mx/4.8.3/../../../../pic32mx/lib\libmchp_peripheral_32MX575F256L.a(I2CGetByte.o)
 .mdebug.abi32  0xa0003970        0x0 c:/program files (x86)/microchip/xc32/v1.40/bin/bin/../../lib/gcc/pic32mx/4.8.3/../../../../pic32mx/lib\libmchp_peripheral_32MX575F256L.a(I2CGetStatus.o)
 .mdebug.abi32  0xa0003970        0x0 c:/program files (x86)/microchip/xc32/v1.40/bin/bin/../../lib/gcc/pic32mx/4.8.3/../../../../pic32mx/lib\libmchp_peripheral_32MX575F256L.a(I2CReceivedDataIsAvailable.o)
 .mdebug.abi32  0xa0003970        0x0 c:/program files (x86)/microchip/xc32/v1.40/bin/bin/../../lib/gcc/pic32mx/4.8.3/../../../../pic32mx/lib\libmchp_peripheral_32MX575F256L.a(I2CReceiverEnable.o)
 .mdebug.abi32  0xa0003970        0x0 c:/program files (x86)/microchip/xc32/v1.40/bin/bin/../../lib/gcc/pic32mx/4.8.3/../../../../pic32mx/lib\libmchp_peripheral_32MX575F256L.a(I2CRepeatStart.o)
 .mdebug.abi32  0xa0003970        0x0 c:/program files (x86)/microchip/xc32/v1.40/bin/bin/../../lib/gcc/pic32mx/4.8.3/../../../../pic32mx/lib\libmchp_peripheral_32MX575F256L.a(I2CSetFrequency.o)
 .mdebug.abi32  0xa0003970        0x0 c:/program files (x86)/microchip/xc32/v1.40/bin/bin/../../lib/gcc/pic32mx/4.8.3/../../../../pic32mx/lib\libmchp_peripheral_32MX575F256L.a(I2CStart.o)
 .mdebug.abi32  0xa0003970        0x0 c:/program files (x86)/microchip/xc32/v1.40/bin/bin/../../lib/gcc/pic32mx/4.8.3/../../../../pic32mx/lib\libmchp_peripheral_32MX575F256L.a(I2CStop.o)
 .mdebug.abi32  0xa0003970        0x0 c:/program files (x86)/microchip/xc32/v1.40/bin/bin/../../lib/gcc/pic32mx/4.8.3/../../../../pic32mx/lib\libmchp_peripheral_32MX575F256L.a(I2CTransmissionHasCompleted.o)
 .mdebug.abi32  0xa0003970        0x0 c:/program files (x86)/microchip/xc32/v1.40/bin/bin/../../lib/gcc/pic32mx/4.8.3/../../../../pic32mx/lib\libmchp_peripheral_32MX575F256L.a(I2CTransmitterIsReady.o)
 .mdebug.abi32  0xa0003970        0x0 c:/program files (x86)/microchip/xc32/v1.40/bin/bin/../../lib/gcc/pic32mx/4.8.3/../../../../pic32mx/lib\libmchp_peripheral_32MX575F256L.a(int_enable_interrupts_lib.o)
 .mdebug.abi32  0xa0003970        0x0 c:/program files (x86)/microchip/xc32/v1.40/bin/bin/../../lib/gcc/pic32mx/4.8.3\libgcc.a(_udivdi3.o)
 .mdebug.abi32  0xa0003970        0x0 c:/program files (x86)/microchip/xc32/v1.40/bin/bin/../../lib/gcc/pic32mx/4.8.3\libgcc.a(_umoddi3.o)
 .mdebug.abi32  0xa0003970        0x0 c:/program files (x86)/microchip/xc32/v1.40/bin/bin/../../lib/gcc/pic32mx/4.8.3\libgcc.a(floatunsisf.o)
 .mdebug.abi32  0xa0003970        0x0 c:/program files (x86)/microchip/xc32/v1.40/bin/bin/../../lib/gcc/pic32mx/4.8.3/../../../../pic32mx/lib\libpic32.a(default-bootstrap-exception-handler.o)
 .mdebug.abi32  0xa0003970        0x0 c:/program files (x86)/microchip/xc32/v1.40/bin/bin/../../lib/gcc/pic32mx/4.8.3/../../../../pic32mx/lib\libpic32.a(default-on-reset.o)
 .mdebug.abi32  0xa0003970        0x0 c:/program files (x86)/microchip/xc32/v1.40/bin/bin/../../lib/gcc/pic32mx/4.8.3/../../../../pic32mx/lib\libpic32.a(default-on-bootstrap.o)
 .mdebug.abi32  0xa0003970        0x0 c:/program files (x86)/microchip/xc32/v1.40/bin/bin/../../lib/gcc/pic32mx/4.8.3/../../../../pic32mx/lib\libpic32.a(defaultinterrupt.o)
 .mdebug.abi32  0xa0003970        0x0 c:/program files (x86)/microchip/xc32/v1.40/bin/bin/../../lib/gcc/pic32mx/4.8.3/../../../../pic32mx/lib\libm.a(w_sqrtf.o)
 .mdebug.abi32  0xa0003970        0x0 c:/program files (x86)/microchip/xc32/v1.40/bin/bin/../../lib/gcc/pic32mx/4.8.3/../../../../pic32mx/lib\libm.a(s_lib_ver.o)
 .mdebug.abi32  0xa0003970        0x0 c:/program files (x86)/microchip/xc32/v1.40/bin/bin/../../lib/gcc/pic32mx/4.8.3/../../../../pic32mx/lib\libc.a(atoi.o)
 .mdebug.abi32  0xa0003970        0x0 c:/program files (x86)/microchip/xc32/v1.40/bin/bin/../../lib/gcc/pic32mx/4.8.3/../../../../pic32mx/lib\libc.a(atol.o)
 .mdebug.abi32  0xa0003970        0x0 c:/program files (x86)/microchip/xc32/v1.40/bin/bin/../../lib/gcc/pic32mx/4.8.3/../../../../pic32mx/lib\libc.a(atoll.o)
 .mdebug.abi32  0xa0003970        0x0 c:/program files (x86)/microchip/xc32/v1.40/bin/bin/../../lib/gcc/pic32mx/4.8.3/../../../../pic32mx/lib\libc.a(ctime.o)
 .mdebug.abi32  0xa0003970        0x0 c:/program files (x86)/microchip/xc32/v1.40/bin/bin/../../lib/gcc/pic32mx/4.8.3/../../../../pic32mx/lib\libc.a(ctype.o)
 .mdebug.abi32  0xa0003970        0x0 c:/program files (x86)/microchip/xc32/v1.40/bin/bin/../../lib/gcc/pic32mx/4.8.3/../../../../pic32mx/lib\libc.a(errno.o)
 .mdebug.abi32  0xa0003970        0x0 c:/program files (x86)/microchip/xc32/v1.40/bin/bin/../../lib/gcc/pic32mx/4.8.3/../../../../pic32mx/lib\libc.a(mktime.o)
 .mdebug.abi32  0xa0003970        0x0 c:/program files (x86)/microchip/xc32/v1.40/bin/bin/../../lib/gcc/pic32mx/4.8.3/../../../../pic32mx/lib\libc.a(putchar.o)
 .mdebug.abi32  0xa0003970        0x0 c:/program files (x86)/microchip/xc32/v1.40/bin/bin/../../lib/gcc/pic32mx/4.8.3/../../../../pic32mx/lib\libc.a(puts.o)
 .mdebug.abi32  0xa0003970        0x0 c:/program files (x86)/microchip/xc32/v1.40/bin/bin/../../lib/gcc/pic32mx/4.8.3/../../../../pic32mx/lib\libc.a(strcat.o)
 .mdebug.abi32  0xa0003970        0x0 c:/program files (x86)/microchip/xc32/v1.40/bin/bin/../../lib/gcc/pic32mx/4.8.3/../../../../pic32mx/lib\libc.a(strchr.o)
 .mdebug.abi32  0xa0003970        0x0 c:/program files (x86)/microchip/xc32/v1.40/bin/bin/../../lib/gcc/pic32mx/4.8.3/../../../../pic32mx/lib\libc.a(strncmp.o)
 .mdebug.abi32  0xa0003970        0x0 c:/program files (x86)/microchip/xc32/v1.40/bin/bin/../../lib/gcc/pic32mx/4.8.3/../../../../pic32mx/lib\libc.a(strncpy.o)
 .mdebug.abi32  0xa0003970        0x0 c:/program files (x86)/microchip/xc32/v1.40/bin/bin/../../lib/gcc/pic32mx/4.8.3/../../../../pic32mx/lib\libc.a(strrchr.o)
 .mdebug.abi32  0xa0003970        0x0 c:/program files (x86)/microchip/xc32/v1.40/bin/bin/../../lib/gcc/pic32mx/4.8.3/../../../../pic32mx/lib\libc.a(strstr.o)
 .mdebug.abi32  0xa0003970        0x0 c:/program files (x86)/microchip/xc32/v1.40/bin/bin/../../lib/gcc/pic32mx/4.8.3/../../../../pic32mx/lib\libc.a(strtok.o)
 .mdebug.abi32  0xa0003970        0x0 c:/program files (x86)/microchip/xc32/v1.40/bin/bin/../../lib/gcc/pic32mx/4.8.3/../../../../pic32mx/lib\libc.a(strtoll.o)
 .mdebug.abi32  0xa0003970        0x0 c:/program files (x86)/microchip/xc32/v1.40/bin/bin/../../lib/gcc/pic32mx/4.8.3/../../../../pic32mx/lib\libc.a(atof.o)
 .mdebug.abi32  0xa0003970        0x0 c:/program files (x86)/microchip/xc32/v1.40/bin/bin/../../lib/gcc/pic32mx/4.8.3/../../../../pic32mx/lib\libc.a(printf_cdnopsuxX.eo)
 .mdebug.abi32  0xa0003970        0x0 c:/program files (x86)/microchip/xc32/v1.40/bin/bin/../../lib/gcc/pic32mx/4.8.3/../../../../pic32mx/lib\libc.a(sprintf_cdnopsuxX.eo)
 .mdebug.abi32  0xa0003970        0x0 c:/program files (x86)/microchip/xc32/v1.40/bin/bin/../../lib/gcc/pic32mx/4.8.3/../../../../pic32mx/lib\libc.a(sscanf_cdfFnopsuxX.eo)
 .mdebug.abi32  0xa0003970        0x0 c:/program files (x86)/microchip/xc32/v1.40/bin/bin/../../lib/gcc/pic32mx/4.8.3/../../../../pic32mx/lib\libc.a(_iob.o)
 .mdebug.abi32  0xa0003970        0x0 c:/program files (x86)/microchip/xc32/v1.40/bin/bin/../../lib/gcc/pic32mx/4.8.3/../../../../pic32mx/lib\libc.a(_fputc_simple.o)
 .mdebug.abi32  0xa0003970        0x0 c:/program files (x86)/microchip/xc32/v1.40/bin/bin/../../lib/gcc/pic32mx/4.8.3/../../../../pic32mx/lib\libc.a(ctypef.o)
 .mdebug.abi32  0xa0003970        0x0 c:/program files (x86)/microchip/xc32/v1.40/bin/bin/../../lib/gcc/pic32mx/4.8.3/../../../../pic32mx/lib\libc.a(strcspn.o)
 .mdebug.abi32  0xa0003970        0x0 c:/program files (x86)/microchip/xc32/v1.40/bin/bin/../../lib/gcc/pic32mx/4.8.3/../../../../pic32mx/lib\libc.a(strspn.o)
 .mdebug.abi32  0xa0003970        0x0 c:/program files (x86)/microchip/xc32/v1.40/bin/bin/../../lib/gcc/pic32mx/4.8.3/../../../../pic32mx/lib\libc.a(strtof.o)
 .mdebug.abi32  0xa0003970        0x0 c:/program files (x86)/microchip/xc32/v1.40/bin/bin/../../lib/gcc/pic32mx/4.8.3/../../../../pic32mx/lib\libc.a(doprnt_cdnopsuxX.eo)
 .mdebug.abi32  0xa0003970        0x0 c:/program files (x86)/microchip/xc32/v1.40/bin/bin/../../lib/gcc/pic32mx/4.8.3/../../../../pic32mx/lib\libc.a(doscan_cdfFnopsuxX.eo)
 .mdebug.abi32  0xa0003970        0x0 c:/program files (x86)/microchip/xc32/v1.40/bin/bin/../../lib/gcc/pic32mx/4.8.3/../../../../pic32mx/lib\libc.a(doscan_cdnopsuxX.eo)
 .mdebug.abi32  0xa0003970        0x0 c:/program files (x86)/microchip/xc32/v1.40/bin/bin/../../lib/gcc/pic32mx/4.8.3/../../../../pic32mx/lib\libc.a(doscan_cdnopuxX.eo)
 .mdebug.abi32  0xa0003970        0x0 c:/program files (x86)/microchip/xc32/v1.40/bin/bin/../../lib/gcc/pic32mx/4.8.3/../../../../pic32mx/lib\libc.a(_flsbuf_simple.o)
 .mdebug.abi32  0xa0003970        0x0 c:/program files (x86)/microchip/xc32/v1.40/bin/bin/../../lib/gcc/pic32mx/4.8.3/../../../../pic32mx/lib\libc.a(fgetc.o)
 .mdebug.abi32  0xa0003970        0x0 c:/program files (x86)/microchip/xc32/v1.40/bin/bin/../../lib/gcc/pic32mx/4.8.3/../../../../pic32mx/lib\libc.a(strtod.o)
 .mdebug.abi32  0xa0003970        0x0 c:/program files (x86)/microchip/xc32/v1.40/bin/bin/../../lib/gcc/pic32mx/4.8.3/../../../../pic32mx/lib\libc.a(ungetc.o)
 .mdebug.abi32  0xa0003970        0x0 c:/program files (x86)/microchip/xc32/v1.40/bin/bin/../../lib/gcc/pic32mx/4.8.3/../../../../pic32mx/lib\libc.a(filbuf.o)
 .mdebug.abi32  0xa0003970        0x0 c:/program files (x86)/microchip/xc32/v1.40/bin/bin/../../lib/gcc/pic32mx/4.8.3/../../../../pic32mx/lib\libc.a(fflush.o)
 .mdebug.abi32  0xa0003970        0x0 c:/program files (x86)/microchip/xc32/v1.40/bin/bin/../../lib/gcc/pic32mx/4.8.3/../../../../pic32mx/lib\libpic32.a(read.o)
 .mdebug.abi32  0xa0003970        0x0 c:/program files (x86)/microchip/xc32/v1.40/bin/bin/../../lib/gcc/pic32mx/4.8.3/../../../../pic32mx/lib\libpic32.a(write.o)
 .mdebug.abi32  0xa0003970        0x0 c:/program files (x86)/microchip/xc32/v1.40/bin/bin/../../lib/gcc/pic32mx/4.8.3/../../../../pic32mx/lib\libpic32.a(xc32_uart.o)
 .mdebug.abi32  0xa0003970        0x0 c:/program files (x86)/microchip/xc32/v1.40/bin/bin/../../lib/gcc/pic32mx/4.8.3/../../../../pic32mx/lib\libm.a(__strtod.o)
 .mdebug.abi32  0xa0003970        0x0 c:/program files (x86)/microchip/xc32/v1.40/bin/bin/../../lib/gcc/pic32mx/4.8.3/../../../../pic32mx/lib\libm.a(__strtof.o)
 .mdebug.abi32  0xa0003970        0x0 c:/program files (x86)/microchip/xc32/v1.40/bin/bin/../../lib/gcc/pic32mx/4.8.3/../../../../pic32mx/lib\libe.a(_ldexp.o)
 .mdebug.abi32  0xa0003970        0x0 c:/program files (x86)/microchip/xc32/v1.40/bin/bin/../../lib/gcc/pic32mx/4.8.3/../../../../pic32mx/lib\libe.a(_ldexpf.o)
 .mdebug.abi32  0xa0003970        0x0 c:/program files (x86)/microchip/xc32/v1.40/bin/bin/../../lib/gcc/pic32mx/4.8.3\libgcc.a(_lshrdi3.o)
 .mdebug.abi32  0xa0003970        0x0 c:/program files (x86)/microchip/xc32/v1.40/bin/bin/../../lib/gcc/pic32mx/4.8.3\libgcc.a(_ashldi3.o)

.mdebug.abiN32
 *(.mdebug.abiN32)

.mdebug.abi64
 *(.mdebug.abi64)

.mdebug.abiO64
 *(.mdebug.abiO64)

.mdebug.eabi32
 *(.mdebug.eabi32)

.mdebug.eabi64
 *(.mdebug.eabi64)

.gcc_compiled_long32
 *(.gcc_compiled_long32)

.gcc_compiled_long64
 *(.gcc_compiled_long64)

.stab
 *(.stab)

.stabstr
 *(.stabstr)

.stab.excl
 *(.stab.excl)

.stab.exclstr
 *(.stab.exclstr)

.stab.index
 *(.stab.index)

.stab.indexstr
 *(.stab.indexstr)

.comment        0x00000000      0x31c
 *(.comment)
 .comment       0x00000000       0x3c build/default/production/_ext/93166211/Announce.o
                                 0x3d (size before relaxing)
 .comment       0x00000000       0x3d build/default/production/_ext/93166211/ARCFOUR.o
 .comment       0x00000000       0x3d build/default/production/_ext/93166211/ARP.o
 .comment       0x00000000       0x3d build/default/production/_ext/93166211/AutoIP.o
 .comment       0x00000000       0x3d build/default/production/_ext/93166211/BerkeleyAPI.o
 .comment       0x00000000       0x3d build/default/production/_ext/93166211/BigInt.o
 .comment       0x00000000       0x3d build/default/production/_ext/93166211/Delay.o
 .comment       0x00000000       0x3d build/default/production/_ext/93166211/DNS.o
 .comment       0x00000000       0x3d build/default/production/_ext/93166211/DNSs.o
 .comment       0x00000000       0x3d build/default/production/_ext/93166211/DynDNS.o
 .comment       0x00000000       0x3d build/default/production/_ext/93166211/FileSystem.o
 .comment       0x00000000       0x3d build/default/production/_ext/93166211/FTP.o
 .comment       0x00000000       0x3d build/default/production/_ext/93166211/Hashes.o
 .comment       0x00000000       0x3d build/default/production/_ext/93166211/Helpers.o
 .comment       0x00000000       0x3d build/default/production/_ext/93166211/HTTP2.o
 .comment       0x00000000       0x3d build/default/production/_ext/93166211/ICMP.o
 .comment       0x00000000       0x3d build/default/production/_ext/93166211/IP.o
 .comment       0x00000000       0x3d build/default/production/_ext/93166211/LCDBlocking.o
 .comment       0x00000000       0x3d build/default/production/_ext/93166211/MPFS2.o
 .comment       0x00000000       0x3d build/default/production/_ext/93166211/NBNS.o
 .comment       0x00000000       0x3d build/default/production/_ext/93166211/Random.o
 .comment       0x00000000       0x3d build/default/production/_ext/93166211/Reboot.o
 .comment       0x00000000       0x3d build/default/production/_ext/93166211/RSA.o
 .comment       0x00000000       0x3d build/default/production/_ext/93166211/SMTP.o
 .comment       0x00000000       0x3d build/default/production/_ext/93166211/SNMP.o
 .comment       0x00000000       0x3d build/default/production/_ext/93166211/SNMPv3.o
 .comment       0x00000000       0x3d build/default/production/_ext/93166211/SNMPv3USM.o
 .comment       0x00000000       0x3d build/default/production/_ext/93166211/SNTP.o
 .comment       0x00000000       0x3d build/default/production/_ext/93166211/SPIEEPROM.o
 .comment       0x00000000       0x3d build/default/production/_ext/93166211/SPIFlash.o
 .comment       0x00000000       0x3d build/default/production/_ext/93166211/SPIRAM.o
 .comment       0x00000000       0x3d build/default/production/_ext/93166211/SSL.o
 .comment       0x00000000       0x3d build/default/production/_ext/93166211/StackTsk.o
 .comment       0x00000000       0x3d build/default/production/_ext/93166211/TCP.o
 .comment       0x00000000       0x3d build/default/production/_ext/93166211/TCPPerformanceTest.o
 .comment       0x00000000       0x3d build/default/production/_ext/93166211/Telnet.o
 .comment       0x00000000       0x3d build/default/production/_ext/93166211/TFTPc.o
 .comment       0x00000000       0x3d build/default/production/_ext/93166211/Tick.o
 .comment       0x00000000       0x3d build/default/production/_ext/93166211/UART2TCPBridge.o
 .comment       0x00000000       0x3d build/default/production/_ext/93166211/UDP.o
 .comment       0x00000000       0x3d build/default/production/_ext/93166211/UDPPerformanceTest.o
 .comment       0x00000000       0x3d build/default/production/_ext/93166211/ZeroconfHelper.o
 .comment       0x00000000       0x3d build/default/production/_ext/93166211/ZeroconfLinkLocal.o
 .comment       0x00000000       0x3d build/default/production/_ext/93166211/ZeroconfMulticastDNS.o
 .comment       0x00000000       0x3d build/default/production/_ext/93166211/DHCP.o
 .comment       0x00000000       0x3d build/default/production/_ext/93166211/DHCPs.o
 .comment       0x00000000       0x3d build/default/production/_ext/388820833/WF_Eint.o
 .comment       0x00000000       0x3d build/default/production/_ext/388820833/WF_pbkdf2.o
 .comment       0x00000000       0x3d build/default/production/_ext/388820833/WFConnectionAlgorithm.o
 .comment       0x00000000       0x3d build/default/production/_ext/388820833/WFConnectionManager.o
 .comment       0x00000000       0x3d build/default/production/_ext/388820833/WFConnectionProfile.o
 .comment       0x00000000       0x3d build/default/production/_ext/388820833/WFConsole.o
 .comment       0x00000000       0x3d build/default/production/_ext/388820833/WFConsoleIfconfig.o
 .comment       0x00000000       0x3d build/default/production/_ext/388820833/WFConsoleIwconfig.o
 .comment       0x00000000       0x3d build/default/production/_ext/388820833/WFConsoleIwpriv.o
 .comment       0x00000000       0x3d build/default/production/_ext/388820833/WFConsoleMsgHandler.o
 .comment       0x00000000       0x3d build/default/production/_ext/388820833/WFConsoleMsgs.o
 .comment       0x00000000       0x3d build/default/production/_ext/388820833/WFDataTxRx.o
 .comment       0x00000000       0x3d build/default/production/_ext/388820833/WFDebugStrings.o
 .comment       0x00000000       0x3d build/default/production/_ext/388820833/WFEasyConfig.o
 .comment       0x00000000       0x3d build/default/production/_ext/388820833/WFEventHandler.o
 .comment       0x00000000       0x3d build/default/production/_ext/388820833/WFInit.o
 .comment       0x00000000       0x3d build/default/production/_ext/388820833/WFPowerSave.o
 .comment       0x00000000       0x3d build/default/production/_ext/388820833/WFScan.o
 .comment       0x00000000       0x3d build/default/production/_ext/388820833/WFTxPower.o
 .comment       0x00000000       0x3d build/default/production/_ext/388820833/WF_Spi.o
 .comment       0x00000000       0x3d build/default/production/_ext/388820833/WFDriverCom_24G.o
 .comment       0x00000000       0x3d build/default/production/_ext/388820833/WFDriverRaw_24G.o
 .comment       0x00000000       0x3d build/default/production/_ext/388820833/WFMac_24G.o
 .comment       0x00000000       0x3d build/default/production/_ext/388820833/WFMgmtMsg_24G.o
 .comment       0x00000000       0x3d build/default/production/_ext/388820833/WFParamMsg_24G.o
 .comment       0x00000000       0x3d build/default/production/_ext/1472/Main.o
 .comment       0x00000000       0x3d build/default/production/_ext/1472/CustomHTTPApp.o
 .comment       0x00000000       0x3d build/default/production/_ext/1472/WF_Config.o
 .comment       0x00000000       0x3d build/default/production/_ext/1472/WifiGDemoMPFSImg.o
 .comment       0x00000000       0x3d build/default/production/_ext/1472/i2c_master.o
 .comment       0x00000000       0x3d build/default/production/_ext/1472/OpenADRClient.o
 .comment       0x00000000       0x3d build/default/production/_ext/1472/INTiMain.o
 .comment       0x00000000       0x3d build/default/production/_ext/1472/UARTiMain.o
 .comment       0x00000000       0x3d build/default/production/_ext/1472/TimeMonitor.o
 .comment       0x00000000       0x3d build/default/production/_ext/1472/EPRI_UARTLayer.o
 .comment       0x00000000       0x3d build/default/production/_ext/1472/app_UCM.o
 .comment       0x00000000       0x3d build/default/production/_ext/1472/Assert.o
 .comment       0x00000000       0x3d build/default/production/_ext/1472/EPRI_SPILayer.o
 .comment       0x00000000       0x3d build/default/production/_ext/1472/MCI_Common.o
 .comment       0x00000000       0x3d build/default/production/_ext/1472/LinkLayerMessaging.o
 .comment       0x00000000       0x3d build/default/production/_ext/1472/BasicDR.o
 .comment       0x00000000       0x3d build/default/production/_ext/1472/debugging.o
 .comment       0x00000000       0x3d build/default/production/_ext/1472/RESTAPI.o
 .comment       0x00000000       0x3d c:/program files (x86)/microchip/xc32/v1.40/bin/bin/../../lib/gcc/pic32mx/4.8.3/../../../../pic32mx/lib\libmchp_peripheral_32MX575F256L.a(soft_reset_lib.o)
 .comment       0x00000000       0x3d c:/program files (x86)/microchip/xc32/v1.40/bin/bin/../../lib/gcc/pic32mx/4.8.3/../../../../pic32mx/lib\libmchp_peripheral_32MX575F256L.a(pcache.o)
 .comment       0x00000000       0x3d c:/program files (x86)/microchip/xc32/v1.40/bin/bin/../../lib/gcc/pic32mx/4.8.3/../../../../pic32mx/lib\libmchp_peripheral_32MX575F256L.a(int_disable_interrupts_lib.o)
 .comment       0x00000000       0x3d c:/program files (x86)/microchip/xc32/v1.40/bin/bin/../../lib/gcc/pic32mx/4.8.3/../../../../pic32mx/lib\libmchp_peripheral_32MX575F256L.a(int_restore_interrupts_lib.o)
 .comment       0x00000000       0x3d c:/program files (x86)/microchip/xc32/v1.40/bin/bin/../../lib/gcc/pic32mx/4.8.3/../../../../pic32mx/lib\libmchp_peripheral_32MX575F256L.a(int_enable_mv_int_lib.o)
 .comment       0x00000000       0x3d c:/program files (x86)/microchip/xc32/v1.40/bin/bin/../../lib/gcc/pic32mx/4.8.3/../../../../pic32mx/lib\libmchp_peripheral_32MX575F256L.a(int_tbl_lib.o)
 .comment       0x00000000       0x3d c:/program files (x86)/microchip/xc32/v1.40/bin/bin/../../lib/gcc/pic32mx/4.8.3/../../../../pic32mx/lib\libmchp_peripheral_32MX575F256L.a(uart_lib.o)
 .comment       0x00000000       0x3d c:/program files (x86)/microchip/xc32/v1.40/bin/bin/../../lib/gcc/pic32mx/4.8.3/../../../../pic32mx/lib\libmchp_peripheral_32MX575F256L.a(puts_uartx_lib_legacy.o)
 .comment       0x00000000       0x3d c:/program files (x86)/microchip/xc32/v1.40/bin/bin/../../lib/gcc/pic32mx/4.8.3/../../../../pic32mx/lib\libmchp_peripheral_32MX575F256L.a(idle_i2c2_lib_legacy.o)
 .comment       0x00000000       0x3d c:/program files (x86)/microchip/xc32/v1.40/bin/bin/../../lib/gcc/pic32mx/4.8.3/../../../../pic32mx/lib\libmchp_peripheral_32MX575F256L.a(I2CPrivate.o)
 .comment       0x00000000       0x3d c:/program files (x86)/microchip/xc32/v1.40/bin/bin/../../lib/gcc/pic32mx/4.8.3/../../../../pic32mx/lib\libmchp_peripheral_32MX575F256L.a(I2CBusIsIdle.o)
 .comment       0x00000000       0x3d c:/program files (x86)/microchip/xc32/v1.40/bin/bin/../../lib/gcc/pic32mx/4.8.3/../../../../pic32mx/lib\libmchp_peripheral_32MX575F256L.a(I2CByteWasAcknowledged.o)
 .comment       0x00000000       0x3d c:/program files (x86)/microchip/xc32/v1.40/bin/bin/../../lib/gcc/pic32mx/4.8.3/../../../../pic32mx/lib\libmchp_peripheral_32MX575F256L.a(I2CEnable.o)
 .comment       0x00000000       0x3d c:/program files (x86)/microchip/xc32/v1.40/bin/bin/../../lib/gcc/pic32mx/4.8.3/../../../../pic32mx/lib\libmchp_peripheral_32MX575F256L.a(I2CGetByte.o)
 .comment       0x00000000       0x3d c:/program files (x86)/microchip/xc32/v1.40/bin/bin/../../lib/gcc/pic32mx/4.8.3/../../../../pic32mx/lib\libmchp_peripheral_32MX575F256L.a(I2CGetStatus.o)
 .comment       0x00000000       0x3d c:/program files (x86)/microchip/xc32/v1.40/bin/bin/../../lib/gcc/pic32mx/4.8.3/../../../../pic32mx/lib\libmchp_peripheral_32MX575F256L.a(I2CReceivedDataIsAvailable.o)
 .comment       0x00000000       0x3d c:/program files (x86)/microchip/xc32/v1.40/bin/bin/../../lib/gcc/pic32mx/4.8.3/../../../../pic32mx/lib\libmchp_peripheral_32MX575F256L.a(I2CReceiverEnable.o)
 .comment       0x00000000       0x3d c:/program files (x86)/microchip/xc32/v1.40/bin/bin/../../lib/gcc/pic32mx/4.8.3/../../../../pic32mx/lib\libmchp_peripheral_32MX575F256L.a(I2CRepeatStart.o)
 .comment       0x00000000       0x3d c:/program files (x86)/microchip/xc32/v1.40/bin/bin/../../lib/gcc/pic32mx/4.8.3/../../../../pic32mx/lib\libmchp_peripheral_32MX575F256L.a(I2CSetFrequency.o)
 .comment       0x00000000       0x3d c:/program files (x86)/microchip/xc32/v1.40/bin/bin/../../lib/gcc/pic32mx/4.8.3/../../../../pic32mx/lib\libmchp_peripheral_32MX575F256L.a(I2CStart.o)
 .comment       0x00000000       0x3d c:/program files (x86)/microchip/xc32/v1.40/bin/bin/../../lib/gcc/pic32mx/4.8.3/../../../../pic32mx/lib\libmchp_peripheral_32MX575F256L.a(I2CStop.o)
 .comment       0x00000000       0x3d c:/program files (x86)/microchip/xc32/v1.40/bin/bin/../../lib/gcc/pic32mx/4.8.3/../../../../pic32mx/lib\libmchp_peripheral_32MX575F256L.a(I2CTransmissionHasCompleted.o)
 .comment       0x00000000       0x3d c:/program files (x86)/microchip/xc32/v1.40/bin/bin/../../lib/gcc/pic32mx/4.8.3/../../../../pic32mx/lib\libmchp_peripheral_32MX575F256L.a(I2CTransmitterIsReady.o)
 .comment       0x00000000       0x3d c:/program files (x86)/microchip/xc32/v1.40/bin/bin/../../lib/gcc/pic32mx/4.8.3/../../../../pic32mx/lib\libmchp_peripheral_32MX575F256L.a(int_enable_interrupts_lib.o)
 .comment       0x00000000       0x3d c:/program files (x86)/microchip/xc32/v1.40/bin/bin/../../lib/gcc/pic32mx/4.8.3\libgcc.a(_udivdi3.o)
 .comment       0x00000000       0x3d c:/program files (x86)/microchip/xc32/v1.40/bin/bin/../../lib/gcc/pic32mx/4.8.3\libgcc.a(_umoddi3.o)
 .comment       0x00000000       0x3d c:/program files (x86)/microchip/xc32/v1.40/bin/bin/../../lib/gcc/pic32mx/4.8.3\libgcc.a(floatunsisf.o)
 .comment       0x0000003c       0x18 c:/program files (x86)/microchip/xc32/v1.40/bin/bin/../../lib/gcc/pic32mx/4.8.3/../../../../pic32mx/lib\libpic32.a(memcmp.o)
                                 0x19 (size before relaxing)
 .comment       0x00000054       0x18 c:/program files (x86)/microchip/xc32/v1.40/bin/bin/../../lib/gcc/pic32mx/4.8.3/../../../../pic32mx/lib\libpic32.a(memset.o)
                                 0x19 (size before relaxing)
 .comment       0x0000006c       0x55 c:/program files (x86)/microchip/xc32/v1.40/bin/bin/../../lib/gcc/pic32mx/4.8.3/../../../../pic32mx/lib\libpic32.a(strcmp.o)
                                 0x56 (size before relaxing)
 .comment       0x000000c1       0x19 c:/program files (x86)/microchip/xc32/v1.40/bin/bin/../../lib/gcc/pic32mx/4.8.3/../../../../pic32mx/lib\libpic32.a(strcpy.o)
                                 0x1a (size before relaxing)
 .comment       0x000000da       0x19 c:/program files (x86)/microchip/xc32/v1.40/bin/bin/../../lib/gcc/pic32mx/4.8.3/../../../../pic32mx/lib\libpic32.a(strlen.o)
                                 0x1a (size before relaxing)
 .comment       0x00000000       0x3d c:/program files (x86)/microchip/xc32/v1.40/bin/bin/../../lib/gcc/pic32mx/4.8.3/../../../../pic32mx/lib\libpic32.a(default-bootstrap-exception-handler.o)
 .comment       0x00000000       0x3d c:/program files (x86)/microchip/xc32/v1.40/bin/bin/../../lib/gcc/pic32mx/4.8.3/../../../../pic32mx/lib\libpic32.a(default-on-reset.o)
 .comment       0x00000000       0x3d c:/program files (x86)/microchip/xc32/v1.40/bin/bin/../../lib/gcc/pic32mx/4.8.3/../../../../pic32mx/lib\libpic32.a(default-on-bootstrap.o)
 .comment       0x00000000       0x3d c:/program files (x86)/microchip/xc32/v1.40/bin/bin/../../lib/gcc/pic32mx/4.8.3/../../../../pic32mx/lib\libpic32.a(defaultinterrupt.o)
 .comment       0x00000000       0x3d c:/program files (x86)/microchip/xc32/v1.40/bin/bin/../../lib/gcc/pic32mx/4.8.3/../../../../pic32mx/lib\libm.a(w_sqrtf.o)
 .comment       0x00000000       0x3d c:/program files (x86)/microchip/xc32/v1.40/bin/bin/../../lib/gcc/pic32mx/4.8.3/../../../../pic32mx/lib\libm.a(s_lib_ver.o)
 .comment       0x00000000       0x3d c:/program files (x86)/microchip/xc32/v1.40/bin/bin/../../lib/gcc/pic32mx/4.8.3/../../../../pic32mx/lib\libc.a(atoi.o)
 .comment       0x00000000       0x3d c:/program files (x86)/microchip/xc32/v1.40/bin/bin/../../lib/gcc/pic32mx/4.8.3/../../../../pic32mx/lib\libc.a(atol.o)
 .comment       0x00000000       0x3d c:/program files (x86)/microchip/xc32/v1.40/bin/bin/../../lib/gcc/pic32mx/4.8.3/../../../../pic32mx/lib\libc.a(atoll.o)
 .comment       0x00000000       0x3d c:/program files (x86)/microchip/xc32/v1.40/bin/bin/../../lib/gcc/pic32mx/4.8.3/../../../../pic32mx/lib\libc.a(ctime.o)
 .comment       0x000000f3       0x4e c:/program files (x86)/microchip/xc32/v1.40/bin/bin/../../lib/gcc/pic32mx/4.8.3/../../../../pic32mx/lib\libc.a(ctype.o)
                                 0x8b (size before relaxing)
 .comment       0x00000000       0x3d c:/program files (x86)/microchip/xc32/v1.40/bin/bin/../../lib/gcc/pic32mx/4.8.3/../../../../pic32mx/lib\libc.a(errno.o)
 .comment       0x00000000       0x3d c:/program files (x86)/microchip/xc32/v1.40/bin/bin/../../lib/gcc/pic32mx/4.8.3/../../../../pic32mx/lib\libc.a(mktime.o)
 .comment       0x00000000       0x3d c:/program files (x86)/microchip/xc32/v1.40/bin/bin/../../lib/gcc/pic32mx/4.8.3/../../../../pic32mx/lib\libc.a(putchar.o)
 .comment       0x00000000       0x3d c:/program files (x86)/microchip/xc32/v1.40/bin/bin/../../lib/gcc/pic32mx/4.8.3/../../../../pic32mx/lib\libc.a(puts.o)
 .comment       0x00000000       0x3d c:/program files (x86)/microchip/xc32/v1.40/bin/bin/../../lib/gcc/pic32mx/4.8.3/../../../../pic32mx/lib\libc.a(strcat.o)
 .comment       0x00000000       0x3d c:/program files (x86)/microchip/xc32/v1.40/bin/bin/../../lib/gcc/pic32mx/4.8.3/../../../../pic32mx/lib\libc.a(strchr.o)
 .comment       0x00000000       0x3d c:/program files (x86)/microchip/xc32/v1.40/bin/bin/../../lib/gcc/pic32mx/4.8.3/../../../../pic32mx/lib\libc.a(strncmp.o)
 .comment       0x00000000       0x3d c:/program files (x86)/microchip/xc32/v1.40/bin/bin/../../lib/gcc/pic32mx/4.8.3/../../../../pic32mx/lib\libc.a(strncpy.o)
 .comment       0x00000000       0x3d c:/program files (x86)/microchip/xc32/v1.40/bin/bin/../../lib/gcc/pic32mx/4.8.3/../../../../pic32mx/lib\libc.a(strrchr.o)
 .comment       0x00000000       0x3d c:/program files (x86)/microchip/xc32/v1.40/bin/bin/../../lib/gcc/pic32mx/4.8.3/../../../../pic32mx/lib\libc.a(strstr.o)
 .comment       0x00000000       0x3d c:/program files (x86)/microchip/xc32/v1.40/bin/bin/../../lib/gcc/pic32mx/4.8.3/../../../../pic32mx/lib\libc.a(strtok.o)
 .comment       0x00000000       0x3d c:/program files (x86)/microchip/xc32/v1.40/bin/bin/../../lib/gcc/pic32mx/4.8.3/../../../../pic32mx/lib\libc.a(strtoll.o)
 .comment       0x00000000       0x3d c:/program files (x86)/microchip/xc32/v1.40/bin/bin/../../lib/gcc/pic32mx/4.8.3/../../../../pic32mx/lib\libc.a(atof.o)
 .comment       0x00000000       0x3d c:/program files (x86)/microchip/xc32/v1.40/bin/bin/../../lib/gcc/pic32mx/4.8.3/../../../../pic32mx/lib\libc.a(printf_cdnopsuxX.eo)
 .comment       0x00000000       0x3d c:/program files (x86)/microchip/xc32/v1.40/bin/bin/../../lib/gcc/pic32mx/4.8.3/../../../../pic32mx/lib\libc.a(sprintf_cdnopsuxX.eo)
 .comment       0x00000000       0x3d c:/program files (x86)/microchip/xc32/v1.40/bin/bin/../../lib/gcc/pic32mx/4.8.3/../../../../pic32mx/lib\libc.a(sscanf_cdfFnopsuxX.eo)
 .comment       0x00000000       0x3d c:/program files (x86)/microchip/xc32/v1.40/bin/bin/../../lib/gcc/pic32mx/4.8.3/../../../../pic32mx/lib\libc.a(_iob.o)
 .comment       0x00000000       0x3d c:/program files (x86)/microchip/xc32/v1.40/bin/bin/../../lib/gcc/pic32mx/4.8.3/../../../../pic32mx/lib\libc.a(_fputc_simple.o)
 .comment       0x00000141       0x4f c:/program files (x86)/microchip/xc32/v1.40/bin/bin/../../lib/gcc/pic32mx/4.8.3/../../../../pic32mx/lib\libc.a(ctypef.o)
                                 0x8c (size before relaxing)
 .comment       0x00000000       0x3d c:/program files (x86)/microchip/xc32/v1.40/bin/bin/../../lib/gcc/pic32mx/4.8.3/../../../../pic32mx/lib\libc.a(strcspn.o)
 .comment       0x00000000       0x3d c:/program files (x86)/microchip/xc32/v1.40/bin/bin/../../lib/gcc/pic32mx/4.8.3/../../../../pic32mx/lib\libc.a(strspn.o)
 .comment       0x00000000       0x3d c:/program files (x86)/microchip/xc32/v1.40/bin/bin/../../lib/gcc/pic32mx/4.8.3/../../../../pic32mx/lib\libc.a(strtof.o)
 .comment       0x00000000       0x3d c:/program files (x86)/microchip/xc32/v1.40/bin/bin/../../lib/gcc/pic32mx/4.8.3/../../../../pic32mx/lib\libc.a(doprnt_cdnopsuxX.eo)
 .comment       0x00000000       0x3d c:/program files (x86)/microchip/xc32/v1.40/bin/bin/../../lib/gcc/pic32mx/4.8.3/../../../../pic32mx/lib\libc.a(doscan_cdfFnopsuxX.eo)
 .comment       0x00000000       0x3d c:/program files (x86)/microchip/xc32/v1.40/bin/bin/../../lib/gcc/pic32mx/4.8.3/../../../../pic32mx/lib\libc.a(doscan_cdnopsuxX.eo)
 .comment       0x00000000       0x3d c:/program files (x86)/microchip/xc32/v1.40/bin/bin/../../lib/gcc/pic32mx/4.8.3/../../../../pic32mx/lib\libc.a(doscan_cdnopuxX.eo)
 .comment       0x00000000       0x3d c:/program files (x86)/microchip/xc32/v1.40/bin/bin/../../lib/gcc/pic32mx/4.8.3/../../../../pic32mx/lib\libc.a(_flsbuf_simple.o)
 .comment       0x00000000       0x3d c:/program files (x86)/microchip/xc32/v1.40/bin/bin/../../lib/gcc/pic32mx/4.8.3/../../../../pic32mx/lib\libc.a(fgetc.o)
 .comment       0x00000000       0x3d c:/program files (x86)/microchip/xc32/v1.40/bin/bin/../../lib/gcc/pic32mx/4.8.3/../../../../pic32mx/lib\libc.a(strtod.o)
 .comment       0x00000000       0x3d c:/program files (x86)/microchip/xc32/v1.40/bin/bin/../../lib/gcc/pic32mx/4.8.3/../../../../pic32mx/lib\libc.a(ungetc.o)
 .comment       0x00000000       0x3d c:/program files (x86)/microchip/xc32/v1.40/bin/bin/../../lib/gcc/pic32mx/4.8.3/../../../../pic32mx/lib\libc.a(filbuf.o)
 .comment       0x00000000       0x3d c:/program files (x86)/microchip/xc32/v1.40/bin/bin/../../lib/gcc/pic32mx/4.8.3/../../../../pic32mx/lib\libc.a(fflush.o)
 .comment       0x00000000       0x3d c:/program files (x86)/microchip/xc32/v1.40/bin/bin/../../lib/gcc/pic32mx/4.8.3/../../../../pic32mx/lib\libpic32.a(read.o)
 .comment       0x00000000       0x3d c:/program files (x86)/microchip/xc32/v1.40/bin/bin/../../lib/gcc/pic32mx/4.8.3/../../../../pic32mx/lib\libpic32.a(write.o)
 .comment       0x00000000       0x3d c:/program files (x86)/microchip/xc32/v1.40/bin/bin/../../lib/gcc/pic32mx/4.8.3/../../../../pic32mx/lib\libpic32.a(xc32_uart.o)
 .comment       0x00000190       0x9d c:/program files (x86)/microchip/xc32/v1.40/bin/bin/../../lib/gcc/pic32mx/4.8.3/../../../../pic32mx/lib\libm.a(__strtod.o)
                                 0xda (size before relaxing)
 .comment       0x0000022d       0x4f c:/program files (x86)/microchip/xc32/v1.40/bin/bin/../../lib/gcc/pic32mx/4.8.3/../../../../pic32mx/lib\libm.a(__strtof.o)
                                 0xda (size before relaxing)
 .comment       0x0000027c       0x50 c:/program files (x86)/microchip/xc32/v1.40/bin/bin/../../lib/gcc/pic32mx/4.8.3/../../../../pic32mx/lib\libe.a(_ldexp.o)
                                 0xdb (size before relaxing)
 .comment       0x000002cc       0x50 c:/program files (x86)/microchip/xc32/v1.40/bin/bin/../../lib/gcc/pic32mx/4.8.3/../../../../pic32mx/lib\libe.a(_ldexpf.o)
                                 0xdb (size before relaxing)
 .comment       0x00000000       0x3d c:/program files (x86)/microchip/xc32/v1.40/bin/bin/../../lib/gcc/pic32mx/4.8.3\libgcc.a(_lshrdi3.o)
 .comment       0x00000000       0x3d c:/program files (x86)/microchip/xc32/v1.40/bin/bin/../../lib/gcc/pic32mx/4.8.3\libgcc.a(_ashldi3.o)

.debug
 *(.debug)

.line
 *(.line)

.debug_srcinfo
 *(.debug_srcinfo)

.debug_sfnames
 *(.debug_sfnames)

.debug_aranges  0x00000000     0x14a8
 *(.debug_aranges)
 .debug_aranges
                0x00000000       0x20 build/default/production/_ext/93166211/Announce.o
 .debug_aranges
                0x00000020       0x18 build/default/production/_ext/93166211/ARCFOUR.o
 .debug_aranges
                0x00000038       0x20 build/default/production/_ext/93166211/ARP.o
 .debug_aranges
                0x00000058       0x18 build/default/production/_ext/93166211/AutoIP.o
 .debug_aranges
                0x00000070       0x18 build/default/production/_ext/93166211/BerkeleyAPI.o
 .debug_aranges
                0x00000088       0x18 build/default/production/_ext/93166211/BigInt.o
 .debug_aranges
                0x000000a0       0x20 build/default/production/_ext/93166211/Delay.o
 .debug_aranges
                0x000000c0       0x20 build/default/production/_ext/93166211/DNS.o
 .debug_aranges
                0x000000e0       0x20 build/default/production/_ext/93166211/DNSs.o
 .debug_aranges
                0x00000100       0x18 build/default/production/_ext/93166211/DynDNS.o
 .debug_aranges
                0x00000118       0x18 build/default/production/_ext/93166211/FileSystem.o
 .debug_aranges
                0x00000130       0x18 build/default/production/_ext/93166211/FTP.o
 .debug_aranges
                0x00000148       0x18 build/default/production/_ext/93166211/Hashes.o
 .debug_aranges
                0x00000160       0x20 build/default/production/_ext/93166211/Helpers.o
 .debug_aranges
                0x00000180       0x20 build/default/production/_ext/93166211/HTTP2.o
 .debug_aranges
                0x000001a0       0x20 build/default/production/_ext/93166211/ICMP.o
 .debug_aranges
                0x000001c0       0x20 build/default/production/_ext/93166211/IP.o
 .debug_aranges
                0x000001e0       0x18 build/default/production/_ext/93166211/LCDBlocking.o
 .debug_aranges
                0x000001f8       0x20 build/default/production/_ext/93166211/MPFS2.o
 .debug_aranges
                0x00000218       0x20 build/default/production/_ext/93166211/NBNS.o
 .debug_aranges
                0x00000238       0x18 build/default/production/_ext/93166211/Random.o
 .debug_aranges
                0x00000250       0x20 build/default/production/_ext/93166211/Reboot.o
 .debug_aranges
                0x00000270       0x18 build/default/production/_ext/93166211/RSA.o
 .debug_aranges
                0x00000288       0x18 build/default/production/_ext/93166211/SMTP.o
 .debug_aranges
                0x000002a0       0x18 build/default/production/_ext/93166211/SNMP.o
 .debug_aranges
                0x000002b8       0x18 build/default/production/_ext/93166211/SNMPv3.o
 .debug_aranges
                0x000002d0       0x18 build/default/production/_ext/93166211/SNMPv3USM.o
 .debug_aranges
                0x000002e8       0x18 build/default/production/_ext/93166211/SNTP.o
 .debug_aranges
                0x00000300       0x18 build/default/production/_ext/93166211/SPIEEPROM.o
 .debug_aranges
                0x00000318       0x20 build/default/production/_ext/93166211/SPIFlash.o
 .debug_aranges
                0x00000338       0x18 build/default/production/_ext/93166211/SPIRAM.o
 .debug_aranges
                0x00000350       0x18 build/default/production/_ext/93166211/SSL.o
 .debug_aranges
                0x00000368       0x20 build/default/production/_ext/93166211/StackTsk.o
 .debug_aranges
                0x00000388       0x20 build/default/production/_ext/93166211/TCP.o
 .debug_aranges
                0x000003a8       0x18 build/default/production/_ext/93166211/TCPPerformanceTest.o
 .debug_aranges
                0x000003c0       0x18 build/default/production/_ext/93166211/Telnet.o
 .debug_aranges
                0x000003d8       0x18 build/default/production/_ext/93166211/TFTPc.o
 .debug_aranges
                0x000003f0       0x20 build/default/production/_ext/93166211/Tick.o
 .debug_aranges
                0x00000410       0x18 build/default/production/_ext/93166211/UART2TCPBridge.o
 .debug_aranges
                0x00000428       0x20 build/default/production/_ext/93166211/UDP.o
 .debug_aranges
                0x00000448       0x18 build/default/production/_ext/93166211/UDPPerformanceTest.o
 .debug_aranges
                0x00000460       0x20 build/default/production/_ext/93166211/ZeroconfHelper.o
 .debug_aranges
                0x00000480       0x20 build/default/production/_ext/93166211/ZeroconfLinkLocal.o
 .debug_aranges
                0x000004a0       0x20 build/default/production/_ext/93166211/ZeroconfMulticastDNS.o
 .debug_aranges
                0x000004c0       0x20 build/default/production/_ext/93166211/DHCP.o
 .debug_aranges
                0x000004e0       0x20 build/default/production/_ext/93166211/DHCPs.o
 .debug_aranges
                0x00000500       0x20 build/default/production/_ext/388820833/WF_Eint.o
 .debug_aranges
                0x00000520       0x20 build/default/production/_ext/388820833/WF_pbkdf2.o
 .debug_aranges
                0x00000540       0x20 build/default/production/_ext/388820833/WFConnectionAlgorithm.o
 .debug_aranges
                0x00000560       0x20 build/default/production/_ext/388820833/WFConnectionManager.o
 .debug_aranges
                0x00000580       0x20 build/default/production/_ext/388820833/WFConnectionProfile.o
 .debug_aranges
                0x000005a0       0x18 build/default/production/_ext/388820833/WFConsole.o
 .debug_aranges
                0x000005b8       0x18 build/default/production/_ext/388820833/WFConsoleIfconfig.o
 .debug_aranges
                0x000005d0       0x18 build/default/production/_ext/388820833/WFConsoleIwconfig.o
 .debug_aranges
                0x000005e8       0x18 build/default/production/_ext/388820833/WFConsoleIwpriv.o
 .debug_aranges
                0x00000600       0x20 build/default/production/_ext/388820833/WFConsoleMsgHandler.o
 .debug_aranges
                0x00000620       0x20 build/default/production/_ext/388820833/WFConsoleMsgs.o
 .debug_aranges
                0x00000640       0x18 build/default/production/_ext/388820833/WFDataTxRx.o
 .debug_aranges
                0x00000658       0x20 build/default/production/_ext/388820833/WFDebugStrings.o
 .debug_aranges
                0x00000678       0x20 build/default/production/_ext/388820833/WFEasyConfig.o
 .debug_aranges
                0x00000698       0x20 build/default/production/_ext/388820833/WFEventHandler.o
 .debug_aranges
                0x000006b8       0x20 build/default/production/_ext/388820833/WFInit.o
 .debug_aranges
                0x000006d8       0x20 build/default/production/_ext/388820833/WFPowerSave.o
 .debug_aranges
                0x000006f8       0x20 build/default/production/_ext/388820833/WFScan.o
 .debug_aranges
                0x00000718       0x20 build/default/production/_ext/388820833/WFTxPower.o
 .debug_aranges
                0x00000738       0x20 build/default/production/_ext/388820833/WF_Spi.o
 .debug_aranges
                0x00000758       0x20 build/default/production/_ext/388820833/WFDriverCom_24G.o
 .debug_aranges
                0x00000778       0x20 build/default/production/_ext/388820833/WFDriverRaw_24G.o
 .debug_aranges
                0x00000798       0x20 build/default/production/_ext/388820833/WFMac_24G.o
 .debug_aranges
                0x000007b8       0x20 build/default/production/_ext/388820833/WFMgmtMsg_24G.o
 .debug_aranges
                0x000007d8       0x20 build/default/production/_ext/388820833/WFParamMsg_24G.o
 .debug_aranges
                0x000007f8       0x20 build/default/production/_ext/1472/Main.o
 .debug_aranges
                0x00000818       0x20 build/default/production/_ext/1472/CustomHTTPApp.o
 .debug_aranges
                0x00000838       0x20 build/default/production/_ext/1472/WF_Config.o
 .debug_aranges
                0x00000858       0x18 build/default/production/_ext/1472/WifiGDemoMPFSImg.o
 .debug_aranges
                0x00000870       0x20 build/default/production/_ext/1472/i2c_master.o
 .debug_aranges
                0x00000890       0x20 build/default/production/_ext/1472/OpenADRClient.o
 .debug_aranges
                0x000008b0       0x20 build/default/production/_ext/1472/INTiMain.o
 .debug_aranges
                0x000008d0       0x20 build/default/production/_ext/1472/UARTiMain.o
 .debug_aranges
                0x000008f0       0x20 build/default/production/_ext/1472/TimeMonitor.o
 .debug_aranges
                0x00000910       0x20 build/default/production/_ext/1472/EPRI_UARTLayer.o
 .debug_aranges
                0x00000930       0x20 build/default/production/_ext/1472/app_UCM.o
 .debug_aranges
                0x00000950       0x20 build/default/production/_ext/1472/Assert.o
 .debug_aranges
                0x00000970       0x20 build/default/production/_ext/1472/MCI_Common.o
 .debug_aranges
                0x00000990       0x20 build/default/production/_ext/1472/LinkLayerMessaging.o
 .debug_aranges
                0x000009b0       0x20 build/default/production/_ext/1472/BasicDR.o
 .debug_aranges
                0x000009d0       0x20 build/default/production/_ext/1472/debugging.o
 .debug_aranges
                0x000009f0       0x20 build/default/production/_ext/1472/RESTAPI.o
 .debug_aranges
                0x00000a10       0x20 c:/program files (x86)/microchip/xc32/v1.40/bin/bin/../../lib/gcc/pic32mx/4.8.3/../../../../pic32mx/lib\libmchp_peripheral_32MX575F256L.a(soft_reset_lib.o)
 .debug_aranges
                0x00000a30       0x28 c:/program files (x86)/microchip/xc32/v1.40/bin/bin/../../lib/gcc/pic32mx/4.8.3/../../../../pic32mx/lib\libmchp_peripheral_32MX575F256L.a(pcache.o)
 .debug_aranges
                0x00000a58       0x20 c:/program files (x86)/microchip/xc32/v1.40/bin/bin/../../lib/gcc/pic32mx/4.8.3/../../../../pic32mx/lib\libmchp_peripheral_32MX575F256L.a(int_disable_interrupts_lib.o)
 .debug_aranges
                0x00000a78       0x20 c:/program files (x86)/microchip/xc32/v1.40/bin/bin/../../lib/gcc/pic32mx/4.8.3/../../../../pic32mx/lib\libmchp_peripheral_32MX575F256L.a(int_restore_interrupts_lib.o)
 .debug_aranges
                0x00000a98       0x20 c:/program files (x86)/microchip/xc32/v1.40/bin/bin/../../lib/gcc/pic32mx/4.8.3/../../../../pic32mx/lib\libmchp_peripheral_32MX575F256L.a(int_enable_mv_int_lib.o)
 .debug_aranges
                0x00000ab8       0x60 c:/program files (x86)/microchip/xc32/v1.40/bin/bin/../../lib/gcc/pic32mx/4.8.3/../../../../pic32mx/lib\libmchp_peripheral_32MX575F256L.a(int_tbl_lib.o)
 .debug_aranges
                0x00000b18       0x58 c:/program files (x86)/microchip/xc32/v1.40/bin/bin/../../lib/gcc/pic32mx/4.8.3/../../../../pic32mx/lib\libmchp_peripheral_32MX575F256L.a(uart_lib.o)
 .debug_aranges
                0x00000b70       0x28 c:/program files (x86)/microchip/xc32/v1.40/bin/bin/../../lib/gcc/pic32mx/4.8.3/../../../../pic32mx/lib\libmchp_peripheral_32MX575F256L.a(puts_uartx_lib_legacy.o)
 .debug_aranges
                0x00000b98       0x20 c:/program files (x86)/microchip/xc32/v1.40/bin/bin/../../lib/gcc/pic32mx/4.8.3/../../../../pic32mx/lib\libmchp_peripheral_32MX575F256L.a(idle_i2c2_lib_legacy.o)
 .debug_aranges
                0x00000bb8       0x20 c:/program files (x86)/microchip/xc32/v1.40/bin/bin/../../lib/gcc/pic32mx/4.8.3/../../../../pic32mx/lib\libmchp_peripheral_32MX575F256L.a(I2CBusIsIdle.o)
 .debug_aranges
                0x00000bd8       0x20 c:/program files (x86)/microchip/xc32/v1.40/bin/bin/../../lib/gcc/pic32mx/4.8.3/../../../../pic32mx/lib\libmchp_peripheral_32MX575F256L.a(I2CByteWasAcknowledged.o)
 .debug_aranges
                0x00000bf8       0x20 c:/program files (x86)/microchip/xc32/v1.40/bin/bin/../../lib/gcc/pic32mx/4.8.3/../../../../pic32mx/lib\libmchp_peripheral_32MX575F256L.a(I2CEnable.o)
 .debug_aranges
                0x00000c18       0x20 c:/program files (x86)/microchip/xc32/v1.40/bin/bin/../../lib/gcc/pic32mx/4.8.3/../../../../pic32mx/lib\libmchp_peripheral_32MX575F256L.a(I2CGetByte.o)
 .debug_aranges
                0x00000c38       0x20 c:/program files (x86)/microchip/xc32/v1.40/bin/bin/../../lib/gcc/pic32mx/4.8.3/../../../../pic32mx/lib\libmchp_peripheral_32MX575F256L.a(I2CGetStatus.o)
 .debug_aranges
                0x00000c58       0x20 c:/program files (x86)/microchip/xc32/v1.40/bin/bin/../../lib/gcc/pic32mx/4.8.3/../../../../pic32mx/lib\libmchp_peripheral_32MX575F256L.a(I2CReceivedDataIsAvailable.o)
 .debug_aranges
                0x00000c78       0x20 c:/program files (x86)/microchip/xc32/v1.40/bin/bin/../../lib/gcc/pic32mx/4.8.3/../../../../pic32mx/lib\libmchp_peripheral_32MX575F256L.a(I2CReceiverEnable.o)
 .debug_aranges
                0x00000c98       0x20 c:/program files (x86)/microchip/xc32/v1.40/bin/bin/../../lib/gcc/pic32mx/4.8.3/../../../../pic32mx/lib\libmchp_peripheral_32MX575F256L.a(I2CRepeatStart.o)
 .debug_aranges
                0x00000cb8       0x20 c:/program files (x86)/microchip/xc32/v1.40/bin/bin/../../lib/gcc/pic32mx/4.8.3/../../../../pic32mx/lib\libmchp_peripheral_32MX575F256L.a(I2CSetFrequency.o)
 .debug_aranges
                0x00000cd8       0x20 c:/program files (x86)/microchip/xc32/v1.40/bin/bin/../../lib/gcc/pic32mx/4.8.3/../../../../pic32mx/lib\libmchp_peripheral_32MX575F256L.a(I2CStart.o)
 .debug_aranges
                0x00000cf8       0x20 c:/program files (x86)/microchip/xc32/v1.40/bin/bin/../../lib/gcc/pic32mx/4.8.3/../../../../pic32mx/lib\libmchp_peripheral_32MX575F256L.a(I2CStop.o)
 .debug_aranges
                0x00000d18       0x20 c:/program files (x86)/microchip/xc32/v1.40/bin/bin/../../lib/gcc/pic32mx/4.8.3/../../../../pic32mx/lib\libmchp_peripheral_32MX575F256L.a(I2CTransmissionHasCompleted.o)
 .debug_aranges
                0x00000d38       0x20 c:/program files (x86)/microchip/xc32/v1.40/bin/bin/../../lib/gcc/pic32mx/4.8.3/../../../../pic32mx/lib\libmchp_peripheral_32MX575F256L.a(I2CTransmitterIsReady.o)
 .debug_aranges
                0x00000d58       0x20 c:/program files (x86)/microchip/xc32/v1.40/bin/bin/../../lib/gcc/pic32mx/4.8.3/../../../../pic32mx/lib\libmchp_peripheral_32MX575F256L.a(int_enable_interrupts_lib.o)
 .debug_aranges
                0x00000d78       0x20 c:/program files (x86)/microchip/xc32/v1.40/bin/bin/../../lib/gcc/pic32mx/4.8.3\libgcc.a(_udivdi3.o)
 .debug_aranges
                0x00000d98       0x20 c:/program files (x86)/microchip/xc32/v1.40/bin/bin/../../lib/gcc/pic32mx/4.8.3\libgcc.a(_umoddi3.o)
 .debug_aranges
                0x00000db8       0x20 c:/program files (x86)/microchip/xc32/v1.40/bin/bin/../../lib/gcc/pic32mx/4.8.3\libgcc.a(floatunsisf.o)
 .debug_aranges
                0x00000dd8       0x20 c:/program files (x86)/microchip/xc32/v1.40/bin/bin/../../lib/gcc/pic32mx/4.8.3/../../../../pic32mx/lib\libpic32.a(default-bootstrap-exception-handler.o)
 .debug_aranges
                0x00000df8       0x20 c:/program files (x86)/microchip/xc32/v1.40/bin/bin/../../lib/gcc/pic32mx/4.8.3/../../../../pic32mx/lib\libpic32.a(default-on-reset.o)
 .debug_aranges
                0x00000e18       0x20 c:/program files (x86)/microchip/xc32/v1.40/bin/bin/../../lib/gcc/pic32mx/4.8.3/../../../../pic32mx/lib\libpic32.a(default-on-bootstrap.o)
 .debug_aranges
                0x00000e38       0x20 c:/program files (x86)/microchip/xc32/v1.40/bin/bin/../../lib/gcc/pic32mx/4.8.3/../../../../pic32mx/lib\libpic32.a(defaultinterrupt.o)
 .debug_aranges
                0x00000e58       0x20 c:/program files (x86)/microchip/xc32/v1.40/bin/bin/../../lib/gcc/pic32mx/4.8.3/../../../../pic32mx/lib\libm.a(w_sqrtf.o)
 .debug_aranges
                0x00000e78       0x20 c:/program files (x86)/microchip/xc32/v1.40/bin/bin/../../lib/gcc/pic32mx/4.8.3/../../../../pic32mx/lib\libc.a(atoi.o)
 .debug_aranges
                0x00000e98       0x20 c:/program files (x86)/microchip/xc32/v1.40/bin/bin/../../lib/gcc/pic32mx/4.8.3/../../../../pic32mx/lib\libc.a(atol.o)
 .debug_aranges
                0x00000eb8       0x20 c:/program files (x86)/microchip/xc32/v1.40/bin/bin/../../lib/gcc/pic32mx/4.8.3/../../../../pic32mx/lib\libc.a(atoll.o)
 .debug_aranges
                0x00000ed8       0x40 c:/program files (x86)/microchip/xc32/v1.40/bin/bin/../../lib/gcc/pic32mx/4.8.3/../../../../pic32mx/lib\libc.a(ctime.o)
 .debug_aranges
                0x00000f18       0x20 c:/program files (x86)/microchip/xc32/v1.40/bin/bin/../../lib/gcc/pic32mx/4.8.3/../../../../pic32mx/lib\libc.a(mktime.o)
 .debug_aranges
                0x00000f38       0x20 c:/program files (x86)/microchip/xc32/v1.40/bin/bin/../../lib/gcc/pic32mx/4.8.3/../../../../pic32mx/lib\libc.a(putchar.o)
 .debug_aranges
                0x00000f58       0x28 c:/program files (x86)/microchip/xc32/v1.40/bin/bin/../../lib/gcc/pic32mx/4.8.3/../../../../pic32mx/lib\libc.a(puts.o)
 .debug_aranges
                0x00000f80       0x20 c:/program files (x86)/microchip/xc32/v1.40/bin/bin/../../lib/gcc/pic32mx/4.8.3/../../../../pic32mx/lib\libc.a(strcat.o)
 .debug_aranges
                0x00000fa0       0x20 c:/program files (x86)/microchip/xc32/v1.40/bin/bin/../../lib/gcc/pic32mx/4.8.3/../../../../pic32mx/lib\libc.a(strchr.o)
 .debug_aranges
                0x00000fc0       0x20 c:/program files (x86)/microchip/xc32/v1.40/bin/bin/../../lib/gcc/pic32mx/4.8.3/../../../../pic32mx/lib\libc.a(strncmp.o)
 .debug_aranges
                0x00000fe0       0x20 c:/program files (x86)/microchip/xc32/v1.40/bin/bin/../../lib/gcc/pic32mx/4.8.3/../../../../pic32mx/lib\libc.a(strncpy.o)
 .debug_aranges
                0x00001000       0x20 c:/program files (x86)/microchip/xc32/v1.40/bin/bin/../../lib/gcc/pic32mx/4.8.3/../../../../pic32mx/lib\libc.a(strrchr.o)
 .debug_aranges
                0x00001020       0x20 c:/program files (x86)/microchip/xc32/v1.40/bin/bin/../../lib/gcc/pic32mx/4.8.3/../../../../pic32mx/lib\libc.a(strstr.o)
 .debug_aranges
                0x00001040       0x20 c:/program files (x86)/microchip/xc32/v1.40/bin/bin/../../lib/gcc/pic32mx/4.8.3/../../../../pic32mx/lib\libc.a(strtok.o)
 .debug_aranges
                0x00001060       0x28 c:/program files (x86)/microchip/xc32/v1.40/bin/bin/../../lib/gcc/pic32mx/4.8.3/../../../../pic32mx/lib\libc.a(strtoll.o)
 .debug_aranges
                0x00001088       0x20 c:/program files (x86)/microchip/xc32/v1.40/bin/bin/../../lib/gcc/pic32mx/4.8.3/../../../../pic32mx/lib\libc.a(atof.o)
 .debug_aranges
                0x000010a8       0x20 c:/program files (x86)/microchip/xc32/v1.40/bin/bin/../../lib/gcc/pic32mx/4.8.3/../../../../pic32mx/lib\libc.a(printf_cdnopsuxX.eo)
 .debug_aranges
                0x000010c8       0x20 c:/program files (x86)/microchip/xc32/v1.40/bin/bin/../../lib/gcc/pic32mx/4.8.3/../../../../pic32mx/lib\libc.a(sprintf_cdnopsuxX.eo)
 .debug_aranges
                0x000010e8       0x20 c:/program files (x86)/microchip/xc32/v1.40/bin/bin/../../lib/gcc/pic32mx/4.8.3/../../../../pic32mx/lib\libc.a(sscanf_cdfFnopsuxX.eo)
 .debug_aranges
                0x00001108       0x20 c:/program files (x86)/microchip/xc32/v1.40/bin/bin/../../lib/gcc/pic32mx/4.8.3/../../../../pic32mx/lib\libc.a(_fputc_simple.o)
 .debug_aranges
                0x00001128       0xa0 c:/program files (x86)/microchip/xc32/v1.40/bin/bin/../../lib/gcc/pic32mx/4.8.3/../../../../pic32mx/lib\libc.a(ctypef.o)
 .debug_aranges
                0x000011c8       0x20 c:/program files (x86)/microchip/xc32/v1.40/bin/bin/../../lib/gcc/pic32mx/4.8.3/../../../../pic32mx/lib\libc.a(strcspn.o)
 .debug_aranges
                0x000011e8       0x20 c:/program files (x86)/microchip/xc32/v1.40/bin/bin/../../lib/gcc/pic32mx/4.8.3/../../../../pic32mx/lib\libc.a(strspn.o)
 .debug_aranges
                0x00001208       0x28 c:/program files (x86)/microchip/xc32/v1.40/bin/bin/../../lib/gcc/pic32mx/4.8.3/../../../../pic32mx/lib\libc.a(strtof.o)
 .debug_aranges
                0x00001230       0x20 c:/program files (x86)/microchip/xc32/v1.40/bin/bin/../../lib/gcc/pic32mx/4.8.3/../../../../pic32mx/lib\libc.a(doprnt_cdnopsuxX.eo)
 .debug_aranges
                0x00001250       0x30 c:/program files (x86)/microchip/xc32/v1.40/bin/bin/../../lib/gcc/pic32mx/4.8.3/../../../../pic32mx/lib\libc.a(doscan_cdfFnopsuxX.eo)
 .debug_aranges
                0x00001280       0x30 c:/program files (x86)/microchip/xc32/v1.40/bin/bin/../../lib/gcc/pic32mx/4.8.3/../../../../pic32mx/lib\libc.a(doscan_cdnopsuxX.eo)
 .debug_aranges
                0x000012b0       0x30 c:/program files (x86)/microchip/xc32/v1.40/bin/bin/../../lib/gcc/pic32mx/4.8.3/../../../../pic32mx/lib\libc.a(doscan_cdnopuxX.eo)
 .debug_aranges
                0x000012e0       0x20 c:/program files (x86)/microchip/xc32/v1.40/bin/bin/../../lib/gcc/pic32mx/4.8.3/../../../../pic32mx/lib\libc.a(_flsbuf_simple.o)
 .debug_aranges
                0x00001300       0x20 c:/program files (x86)/microchip/xc32/v1.40/bin/bin/../../lib/gcc/pic32mx/4.8.3/../../../../pic32mx/lib\libc.a(fgetc.o)
 .debug_aranges
                0x00001320       0x28 c:/program files (x86)/microchip/xc32/v1.40/bin/bin/../../lib/gcc/pic32mx/4.8.3/../../../../pic32mx/lib\libc.a(strtod.o)
 .debug_aranges
                0x00001348       0x20 c:/program files (x86)/microchip/xc32/v1.40/bin/bin/../../lib/gcc/pic32mx/4.8.3/../../../../pic32mx/lib\libc.a(ungetc.o)
 .debug_aranges
                0x00001368       0x20 c:/program files (x86)/microchip/xc32/v1.40/bin/bin/../../lib/gcc/pic32mx/4.8.3/../../../../pic32mx/lib\libc.a(filbuf.o)
 .debug_aranges
                0x00001388       0x20 c:/program files (x86)/microchip/xc32/v1.40/bin/bin/../../lib/gcc/pic32mx/4.8.3/../../../../pic32mx/lib\libc.a(fflush.o)
 .debug_aranges
                0x000013a8       0x20 c:/program files (x86)/microchip/xc32/v1.40/bin/bin/../../lib/gcc/pic32mx/4.8.3/../../../../pic32mx/lib\libpic32.a(read.o)
 .debug_aranges
                0x000013c8       0x20 c:/program files (x86)/microchip/xc32/v1.40/bin/bin/../../lib/gcc/pic32mx/4.8.3/../../../../pic32mx/lib\libpic32.a(write.o)
 .debug_aranges
                0x000013e8       0x20 c:/program files (x86)/microchip/xc32/v1.40/bin/bin/../../lib/gcc/pic32mx/4.8.3/../../../../pic32mx/lib\libm.a(__strtod.o)
 .debug_aranges
                0x00001408       0x20 c:/program files (x86)/microchip/xc32/v1.40/bin/bin/../../lib/gcc/pic32mx/4.8.3/../../../../pic32mx/lib\libm.a(__strtof.o)
 .debug_aranges
                0x00001428       0x20 c:/program files (x86)/microchip/xc32/v1.40/bin/bin/../../lib/gcc/pic32mx/4.8.3/../../../../pic32mx/lib\libe.a(_ldexp.o)
 .debug_aranges
                0x00001448       0x20 c:/program files (x86)/microchip/xc32/v1.40/bin/bin/../../lib/gcc/pic32mx/4.8.3/../../../../pic32mx/lib\libe.a(_ldexpf.o)
 .debug_aranges
                0x00001468       0x20 c:/program files (x86)/microchip/xc32/v1.40/bin/bin/../../lib/gcc/pic32mx/4.8.3\libgcc.a(_lshrdi3.o)
 .debug_aranges
                0x00001488       0x20 c:/program files (x86)/microchip/xc32/v1.40/bin/bin/../../lib/gcc/pic32mx/4.8.3\libgcc.a(_ashldi3.o)

.debug_pubnames
 *(.debug_pubnames)

.debug_info     0x00000000    0x93814
 *(.debug_info .gnu.linkonce.wi.*)
 .debug_info    0x00000000     0x1c0f build/default/production/_ext/93166211/Announce.o
 .debug_info    0x00001c0f      0xd88 build/default/production/_ext/93166211/ARCFOUR.o
 .debug_info    0x00002997     0x1cd7 build/default/production/_ext/93166211/ARP.o
 .debug_info    0x0000466e      0xd87 build/default/production/_ext/93166211/AutoIP.o
 .debug_info    0x000053f5      0xd8c build/default/production/_ext/93166211/BerkeleyAPI.o
 .debug_info    0x00006181      0xd87 build/default/production/_ext/93166211/BigInt.o
 .debug_info    0x00006f08      0xe70 build/default/production/_ext/93166211/Delay.o
 .debug_info    0x00007d78     0x24b7 build/default/production/_ext/93166211/DNS.o
 .debug_info    0x0000a22f     0x1c78 build/default/production/_ext/93166211/DNSs.o
 .debug_info    0x0000bea7      0xd87 build/default/production/_ext/93166211/DynDNS.o
 .debug_info    0x0000cc2e      0xd8b build/default/production/_ext/93166211/FileSystem.o
 .debug_info    0x0000d9b9      0xd84 build/default/production/_ext/93166211/FTP.o
 .debug_info    0x0000e73d      0xd87 build/default/production/_ext/93166211/Hashes.o
 .debug_info    0x0000f4c4     0x212d build/default/production/_ext/93166211/Helpers.o
 .debug_info    0x000115f1     0x3218 build/default/production/_ext/93166211/HTTP2.o
 .debug_info    0x00014809     0x15a4 build/default/production/_ext/93166211/ICMP.o
 .debug_info    0x00015dad     0x1acd build/default/production/_ext/93166211/IP.o
 .debug_info    0x0001787a      0xd8c build/default/production/_ext/93166211/LCDBlocking.o
 .debug_info    0x00018606     0x17c0 build/default/production/_ext/93166211/MPFS2.o
 .debug_info    0x00019dc6     0x1f1c build/default/production/_ext/93166211/NBNS.o
 .debug_info    0x0001bce2      0xd87 build/default/production/_ext/93166211/Random.o
 .debug_info    0x0001ca69     0x185e build/default/production/_ext/93166211/Reboot.o
 .debug_info    0x0001e2c7      0xd84 build/default/production/_ext/93166211/RSA.o
 .debug_info    0x0001f04b      0xd85 build/default/production/_ext/93166211/SMTP.o
 .debug_info    0x0001fdd0      0xd85 build/default/production/_ext/93166211/SNMP.o
 .debug_info    0x00020b55      0xd87 build/default/production/_ext/93166211/SNMPv3.o
 .debug_info    0x000218dc      0xd8a build/default/production/_ext/93166211/SNMPv3USM.o
 .debug_info    0x00022666      0xd85 build/default/production/_ext/93166211/SNTP.o
 .debug_info    0x000233eb      0xd8a build/default/production/_ext/93166211/SPIEEPROM.o
 .debug_info    0x00024175     0x1a9a build/default/production/_ext/93166211/SPIFlash.o
 .debug_info    0x00025c0f      0xd87 build/default/production/_ext/93166211/SPIRAM.o
 .debug_info    0x00026996      0xd84 build/default/production/_ext/93166211/SSL.o
 .debug_info    0x0002771a     0x1c8e build/default/production/_ext/93166211/StackTsk.o
 .debug_info    0x000293a8     0x4114 build/default/production/_ext/93166211/TCP.o
 .debug_info    0x0002d4bc      0xd93 build/default/production/_ext/93166211/TCPPerformanceTest.o
 .debug_info    0x0002e24f      0xd87 build/default/production/_ext/93166211/Telnet.o
 .debug_info    0x0002efd6      0xd86 build/default/production/_ext/93166211/TFTPc.o
 .debug_info    0x0002fd5c     0x187c build/default/production/_ext/93166211/Tick.o
 .debug_info    0x000315d8      0xd8f build/default/production/_ext/93166211/UART2TCPBridge.o
 .debug_info    0x00032367     0x2416 build/default/production/_ext/93166211/UDP.o
 .debug_info    0x0003477d      0xd93 build/default/production/_ext/93166211/UDPPerformanceTest.o
 .debug_info    0x00035510      0xe7d build/default/production/_ext/93166211/ZeroconfHelper.o
 .debug_info    0x0003638d     0x2307 build/default/production/_ext/93166211/ZeroconfLinkLocal.o
 .debug_info    0x00038694     0x4c1e build/default/production/_ext/93166211/ZeroconfMulticastDNS.o
 .debug_info    0x0003d2b2     0x2a0b build/default/production/_ext/93166211/DHCP.o
 .debug_info    0x0003fcbd     0x2d47 build/default/production/_ext/93166211/DHCPs.o
 .debug_info    0x00042a04     0x1bf4 build/default/production/_ext/388820833/WF_Eint.o
 .debug_info    0x000445f8     0x1caf build/default/production/_ext/388820833/WF_pbkdf2.o
 .debug_info    0x000462a7     0x299c build/default/production/_ext/388820833/WFConnectionAlgorithm.o
 .debug_info    0x00048c43     0x1be1 build/default/production/_ext/388820833/WFConnectionManager.o
 .debug_info    0x0004a824     0x2795 build/default/production/_ext/388820833/WFConnectionProfile.o
 .debug_info    0x0004cfb9      0xd8f build/default/production/_ext/388820833/WFConsole.o
 .debug_info    0x0004dd48      0xd97 build/default/production/_ext/388820833/WFConsoleIfconfig.o
 .debug_info    0x0004eadf      0xd97 build/default/production/_ext/388820833/WFConsoleIwconfig.o
 .debug_info    0x0004f876      0xd95 build/default/production/_ext/388820833/WFConsoleIwpriv.o
 .debug_info    0x0005060b      0xfb3 build/default/production/_ext/388820833/WFConsoleMsgHandler.o
 .debug_info    0x000515be     0x12c7 build/default/production/_ext/388820833/WFConsoleMsgs.o
 .debug_info    0x00052885      0xd90 build/default/production/_ext/388820833/WFDataTxRx.o
 .debug_info    0x00053615     0x2427 build/default/production/_ext/388820833/WFDebugStrings.o
 .debug_info    0x00055a3c     0x21ef build/default/production/_ext/388820833/WFEasyConfig.o
 .debug_info    0x00057c2b     0x16c3 build/default/production/_ext/388820833/WFEventHandler.o
 .debug_info    0x000592ee     0x1ac3 build/default/production/_ext/388820833/WFInit.o
 .debug_info    0x0005adb1     0x1b2d build/default/production/_ext/388820833/WFPowerSave.o
 .debug_info    0x0005c8de     0x1555 build/default/production/_ext/388820833/WFScan.o
 .debug_info    0x0005de33     0x165e build/default/production/_ext/388820833/WFTxPower.o
 .debug_info    0x0005f491     0x191b build/default/production/_ext/388820833/WF_Spi.o
 .debug_info    0x00060dac     0x314d build/default/production/_ext/388820833/WFDriverCom_24G.o
 .debug_info    0x00063ef9     0x19c9 build/default/production/_ext/388820833/WFDriverRaw_24G.o
 .debug_info    0x000658c2     0x301c build/default/production/_ext/388820833/WFMac_24G.o
 .debug_info    0x000688de     0x17ee build/default/production/_ext/388820833/WFMgmtMsg_24G.o
 .debug_info    0x0006a0cc     0x274c build/default/production/_ext/388820833/WFParamMsg_24G.o
 .debug_info    0x0006c818     0x435a build/default/production/_ext/1472/Main.o
 .debug_info    0x00070b72     0x4d58 build/default/production/_ext/1472/CustomHTTPApp.o
 .debug_info    0x000758ca     0x2203 build/default/production/_ext/1472/WF_Config.o
 .debug_info    0x00077acd      0xdb8 build/default/production/_ext/1472/WifiGDemoMPFSImg.o
 .debug_info    0x00078885     0x1ed3 build/default/production/_ext/1472/i2c_master.o
 .debug_info    0x0007a758     0x5b4b build/default/production/_ext/1472/OpenADRClient.o
 .debug_info    0x000802a3     0x1668 build/default/production/_ext/1472/INTiMain.o
 .debug_info    0x0008190b     0x1666 build/default/production/_ext/1472/UARTiMain.o
 .debug_info    0x00082f71     0x16e7 build/default/production/_ext/1472/TimeMonitor.o
 .debug_info    0x00084658     0x24af build/default/production/_ext/1472/EPRI_UARTLayer.o
 .debug_info    0x00086b07     0x116b build/default/production/_ext/1472/app_UCM.o
 .debug_info    0x00087c72      0xf2b build/default/production/_ext/1472/Assert.o
 .debug_info    0x00088b9d     0x158d build/default/production/_ext/1472/MCI_Common.o
 .debug_info    0x0008a12a     0x1555 build/default/production/_ext/1472/LinkLayerMessaging.o
 .debug_info    0x0008b67f     0x2edc build/default/production/_ext/1472/BasicDR.o
 .debug_info    0x0008e55b      0x386 build/default/production/_ext/1472/debugging.o
 .debug_info    0x0008e8e1      0x3f7 build/default/production/_ext/1472/RESTAPI.o
 .debug_info    0x0008ecd8       0xb0 c:/program files (x86)/microchip/xc32/v1.40/bin/bin/../../lib/gcc/pic32mx/4.8.3/../../../../pic32mx/lib\libmchp_peripheral_32MX575F256L.a(soft_reset_lib.o)
 .debug_info    0x0008ed88       0xbe c:/program files (x86)/microchip/xc32/v1.40/bin/bin/../../lib/gcc/pic32mx/4.8.3/../../../../pic32mx/lib\libmchp_peripheral_32MX575F256L.a(pcache.o)
 .debug_info    0x0008ee46       0xb4 c:/program files (x86)/microchip/xc32/v1.40/bin/bin/../../lib/gcc/pic32mx/4.8.3/../../../../pic32mx/lib\libmchp_peripheral_32MX575F256L.a(int_disable_interrupts_lib.o)
 .debug_info    0x0008eefa       0xb4 c:/program files (x86)/microchip/xc32/v1.40/bin/bin/../../lib/gcc/pic32mx/4.8.3/../../../../pic32mx/lib\libmchp_peripheral_32MX575F256L.a(int_restore_interrupts_lib.o)
 .debug_info    0x0008efae       0xba c:/program files (x86)/microchip/xc32/v1.40/bin/bin/../../lib/gcc/pic32mx/4.8.3/../../../../pic32mx/lib\libmchp_peripheral_32MX575F256L.a(int_enable_mv_int_lib.o)
 .debug_info    0x0008f068      0x19c c:/program files (x86)/microchip/xc32/v1.40/bin/bin/../../lib/gcc/pic32mx/4.8.3/../../../../pic32mx/lib\libmchp_peripheral_32MX575F256L.a(int_tbl_lib.o)
 .debug_info    0x0008f204      0x17a c:/program files (x86)/microchip/xc32/v1.40/bin/bin/../../lib/gcc/pic32mx/4.8.3/../../../../pic32mx/lib\libmchp_peripheral_32MX575F256L.a(uart_lib.o)
 .debug_info    0x0008f37e       0xbe c:/program files (x86)/microchip/xc32/v1.40/bin/bin/../../lib/gcc/pic32mx/4.8.3/../../../../pic32mx/lib\libmchp_peripheral_32MX575F256L.a(puts_uartx_lib_legacy.o)
 .debug_info    0x0008f43c       0xa2 c:/program files (x86)/microchip/xc32/v1.40/bin/bin/../../lib/gcc/pic32mx/4.8.3/../../../../pic32mx/lib\libmchp_peripheral_32MX575F256L.a(idle_i2c2_lib_legacy.o)
 .debug_info    0x0008f4de       0x9e c:/program files (x86)/microchip/xc32/v1.40/bin/bin/../../lib/gcc/pic32mx/4.8.3/../../../../pic32mx/lib\libmchp_peripheral_32MX575F256L.a(I2CBusIsIdle.o)
 .debug_info    0x0008f57c       0xb2 c:/program files (x86)/microchip/xc32/v1.40/bin/bin/../../lib/gcc/pic32mx/4.8.3/../../../../pic32mx/lib\libmchp_peripheral_32MX575F256L.a(I2CByteWasAcknowledged.o)
 .debug_info    0x0008f62e       0x98 c:/program files (x86)/microchip/xc32/v1.40/bin/bin/../../lib/gcc/pic32mx/4.8.3/../../../../pic32mx/lib\libmchp_peripheral_32MX575F256L.a(I2CEnable.o)
 .debug_info    0x0008f6c6       0x9a c:/program files (x86)/microchip/xc32/v1.40/bin/bin/../../lib/gcc/pic32mx/4.8.3/../../../../pic32mx/lib\libmchp_peripheral_32MX575F256L.a(I2CGetByte.o)
 .debug_info    0x0008f760       0x9e c:/program files (x86)/microchip/xc32/v1.40/bin/bin/../../lib/gcc/pic32mx/4.8.3/../../../../pic32mx/lib\libmchp_peripheral_32MX575F256L.a(I2CGetStatus.o)
 .debug_info    0x0008f7fe       0xba c:/program files (x86)/microchip/xc32/v1.40/bin/bin/../../lib/gcc/pic32mx/4.8.3/../../../../pic32mx/lib\libmchp_peripheral_32MX575F256L.a(I2CReceivedDataIsAvailable.o)
 .debug_info    0x0008f8b8       0xa8 c:/program files (x86)/microchip/xc32/v1.40/bin/bin/../../lib/gcc/pic32mx/4.8.3/../../../../pic32mx/lib\libmchp_peripheral_32MX575F256L.a(I2CReceiverEnable.o)
 .debug_info    0x0008f960       0xa2 c:/program files (x86)/microchip/xc32/v1.40/bin/bin/../../lib/gcc/pic32mx/4.8.3/../../../../pic32mx/lib\libmchp_peripheral_32MX575F256L.a(I2CRepeatStart.o)
 .debug_info    0x0008fa02       0xa4 c:/program files (x86)/microchip/xc32/v1.40/bin/bin/../../lib/gcc/pic32mx/4.8.3/../../../../pic32mx/lib\libmchp_peripheral_32MX575F256L.a(I2CSetFrequency.o)
 .debug_info    0x0008faa6       0x96 c:/program files (x86)/microchip/xc32/v1.40/bin/bin/../../lib/gcc/pic32mx/4.8.3/../../../../pic32mx/lib\libmchp_peripheral_32MX575F256L.a(I2CStart.o)
 .debug_info    0x0008fb3c       0x94 c:/program files (x86)/microchip/xc32/v1.40/bin/bin/../../lib/gcc/pic32mx/4.8.3/../../../../pic32mx/lib\libmchp_peripheral_32MX575F256L.a(I2CStop.o)
 .debug_info    0x0008fbd0       0xbc c:/program files (x86)/microchip/xc32/v1.40/bin/bin/../../lib/gcc/pic32mx/4.8.3/../../../../pic32mx/lib\libmchp_peripheral_32MX575F256L.a(I2CTransmissionHasCompleted.o)
 .debug_info    0x0008fc8c       0xb0 c:/program files (x86)/microchip/xc32/v1.40/bin/bin/../../lib/gcc/pic32mx/4.8.3/../../../../pic32mx/lib\libmchp_peripheral_32MX575F256L.a(I2CTransmitterIsReady.o)
 .debug_info    0x0008fd3c       0xb2 c:/program files (x86)/microchip/xc32/v1.40/bin/bin/../../lib/gcc/pic32mx/4.8.3/../../../../pic32mx/lib\libmchp_peripheral_32MX575F256L.a(int_enable_interrupts_lib.o)
 .debug_info    0x0008fdee      0x74f c:/program files (x86)/microchip/xc32/v1.40/bin/bin/../../lib/gcc/pic32mx/4.8.3\libgcc.a(_udivdi3.o)
 .debug_info    0x0009053d      0x78c c:/program files (x86)/microchip/xc32/v1.40/bin/bin/../../lib/gcc/pic32mx/4.8.3\libgcc.a(_umoddi3.o)
 .debug_info    0x00090cc9      0x11f c:/program files (x86)/microchip/xc32/v1.40/bin/bin/../../lib/gcc/pic32mx/4.8.3\libgcc.a(floatunsisf.o)
 .debug_info    0x00090de8       0xe3 c:/program files (x86)/microchip/xc32/v1.40/bin/bin/../../lib/gcc/pic32mx/4.8.3/../../../../pic32mx/lib\libpic32.a(default-bootstrap-exception-handler.o)
 .debug_info    0x00090ecb       0xbd c:/program files (x86)/microchip/xc32/v1.40/bin/bin/../../lib/gcc/pic32mx/4.8.3/../../../../pic32mx/lib\libpic32.a(default-on-reset.o)
 .debug_info    0x00090f88       0xc5 c:/program files (x86)/microchip/xc32/v1.40/bin/bin/../../lib/gcc/pic32mx/4.8.3/../../../../pic32mx/lib\libpic32.a(default-on-bootstrap.o)
 .debug_info    0x0009104d       0xd7 c:/program files (x86)/microchip/xc32/v1.40/bin/bin/../../lib/gcc/pic32mx/4.8.3/../../../../pic32mx/lib\libpic32.a(defaultinterrupt.o)
 .debug_info    0x00091124       0xad c:/program files (x86)/microchip/xc32/v1.40/bin/bin/../../lib/gcc/pic32mx/4.8.3/../../../../pic32mx/lib\libm.a(w_sqrtf.o)
 .debug_info    0x000911d1       0xb2 c:/program files (x86)/microchip/xc32/v1.40/bin/bin/../../lib/gcc/pic32mx/4.8.3/../../../../pic32mx/lib\libc.a(atoi.o)
 .debug_info    0x00091283       0xb2 c:/program files (x86)/microchip/xc32/v1.40/bin/bin/../../lib/gcc/pic32mx/4.8.3/../../../../pic32mx/lib\libc.a(atol.o)
 .debug_info    0x00091335       0xb4 c:/program files (x86)/microchip/xc32/v1.40/bin/bin/../../lib/gcc/pic32mx/4.8.3/../../../../pic32mx/lib\libc.a(atoll.o)
 .debug_info    0x000913e9      0x124 c:/program files (x86)/microchip/xc32/v1.40/bin/bin/../../lib/gcc/pic32mx/4.8.3/../../../../pic32mx/lib\libc.a(ctime.o)
 .debug_info    0x0009150d       0xf8 c:/program files (x86)/microchip/xc32/v1.40/bin/bin/../../lib/gcc/pic32mx/4.8.3/../../../../pic32mx/lib\libc.a(mktime.o)
 .debug_info    0x00091605       0xb8 c:/program files (x86)/microchip/xc32/v1.40/bin/bin/../../lib/gcc/pic32mx/4.8.3/../../../../pic32mx/lib\libc.a(putchar.o)
 .debug_info    0x000916bd       0xc7 c:/program files (x86)/microchip/xc32/v1.40/bin/bin/../../lib/gcc/pic32mx/4.8.3/../../../../pic32mx/lib\libc.a(puts.o)
 .debug_info    0x00091784       0xb6 c:/program files (x86)/microchip/xc32/v1.40/bin/bin/../../lib/gcc/pic32mx/4.8.3/../../../../pic32mx/lib\libc.a(strcat.o)
 .debug_info    0x0009183a       0xb6 c:/program files (x86)/microchip/xc32/v1.40/bin/bin/../../lib/gcc/pic32mx/4.8.3/../../../../pic32mx/lib\libc.a(strchr.o)
 .debug_info    0x000918f0       0xb8 c:/program files (x86)/microchip/xc32/v1.40/bin/bin/../../lib/gcc/pic32mx/4.8.3/../../../../pic32mx/lib\libc.a(strncmp.o)
 .debug_info    0x000919a8       0xb8 c:/program files (x86)/microchip/xc32/v1.40/bin/bin/../../lib/gcc/pic32mx/4.8.3/../../../../pic32mx/lib\libc.a(strncpy.o)
 .debug_info    0x00091a60       0xb8 c:/program files (x86)/microchip/xc32/v1.40/bin/bin/../../lib/gcc/pic32mx/4.8.3/../../../../pic32mx/lib\libc.a(strrchr.o)
 .debug_info    0x00091b18       0xb6 c:/program files (x86)/microchip/xc32/v1.40/bin/bin/../../lib/gcc/pic32mx/4.8.3/../../../../pic32mx/lib\libc.a(strstr.o)
 .debug_info    0x00091bce       0xb6 c:/program files (x86)/microchip/xc32/v1.40/bin/bin/../../lib/gcc/pic32mx/4.8.3/../../../../pic32mx/lib\libc.a(strtok.o)
 .debug_info    0x00091c84       0xd0 c:/program files (x86)/microchip/xc32/v1.40/bin/bin/../../lib/gcc/pic32mx/4.8.3/../../../../pic32mx/lib\libc.a(strtoll.o)
 .debug_info    0x00091d54       0xb2 c:/program files (x86)/microchip/xc32/v1.40/bin/bin/../../lib/gcc/pic32mx/4.8.3/../../../../pic32mx/lib\libc.a(atof.o)
 .debug_info    0x00091e06       0xc1 c:/program files (x86)/microchip/xc32/v1.40/bin/bin/../../lib/gcc/pic32mx/4.8.3/../../../../pic32mx/lib\libc.a(printf_cdnopsuxX.eo)
 .debug_info    0x00091ec7       0xc3 c:/program files (x86)/microchip/xc32/v1.40/bin/bin/../../lib/gcc/pic32mx/4.8.3/../../../../pic32mx/lib\libc.a(sprintf_cdnopsuxX.eo)
 .debug_info    0x00091f8a       0xc3 c:/program files (x86)/microchip/xc32/v1.40/bin/bin/../../lib/gcc/pic32mx/4.8.3/../../../../pic32mx/lib\libc.a(sscanf_cdfFnopsuxX.eo)
 .debug_info    0x0009204d       0xb4 c:/program files (x86)/microchip/xc32/v1.40/bin/bin/../../lib/gcc/pic32mx/4.8.3/../../../../pic32mx/lib\libc.a(_fputc_simple.o)
 .debug_info    0x00092101      0x22a c:/program files (x86)/microchip/xc32/v1.40/bin/bin/../../lib/gcc/pic32mx/4.8.3/../../../../pic32mx/lib\libc.a(ctypef.o)
 .debug_info    0x0009232b       0xb8 c:/program files (x86)/microchip/xc32/v1.40/bin/bin/../../lib/gcc/pic32mx/4.8.3/../../../../pic32mx/lib\libc.a(strcspn.o)
 .debug_info    0x000923e3       0xb6 c:/program files (x86)/microchip/xc32/v1.40/bin/bin/../../lib/gcc/pic32mx/4.8.3/../../../../pic32mx/lib\libc.a(strspn.o)
 .debug_info    0x00092499       0xe5 c:/program files (x86)/microchip/xc32/v1.40/bin/bin/../../lib/gcc/pic32mx/4.8.3/../../../../pic32mx/lib\libc.a(strtof.o)
 .debug_info    0x0009257e       0xc4 c:/program files (x86)/microchip/xc32/v1.40/bin/bin/../../lib/gcc/pic32mx/4.8.3/../../../../pic32mx/lib\libc.a(doprnt_cdnopsuxX.eo)
 .debug_info    0x00092642       0xed c:/program files (x86)/microchip/xc32/v1.40/bin/bin/../../lib/gcc/pic32mx/4.8.3/../../../../pic32mx/lib\libc.a(doscan_cdfFnopsuxX.eo)
 .debug_info    0x0009272f       0xeb c:/program files (x86)/microchip/xc32/v1.40/bin/bin/../../lib/gcc/pic32mx/4.8.3/../../../../pic32mx/lib\libc.a(doscan_cdnopsuxX.eo)
 .debug_info    0x0009281a       0xea c:/program files (x86)/microchip/xc32/v1.40/bin/bin/../../lib/gcc/pic32mx/4.8.3/../../../../pic32mx/lib\libc.a(doscan_cdnopuxX.eo)
 .debug_info    0x00092904       0xb7 c:/program files (x86)/microchip/xc32/v1.40/bin/bin/../../lib/gcc/pic32mx/4.8.3/../../../../pic32mx/lib\libc.a(_flsbuf_simple.o)
 .debug_info    0x000929bb       0xb4 c:/program files (x86)/microchip/xc32/v1.40/bin/bin/../../lib/gcc/pic32mx/4.8.3/../../../../pic32mx/lib\libc.a(fgetc.o)
 .debug_info    0x00092a6f       0xe6 c:/program files (x86)/microchip/xc32/v1.40/bin/bin/../../lib/gcc/pic32mx/4.8.3/../../../../pic32mx/lib\libc.a(strtod.o)
 .debug_info    0x00092b55       0xb6 c:/program files (x86)/microchip/xc32/v1.40/bin/bin/../../lib/gcc/pic32mx/4.8.3/../../../../pic32mx/lib\libc.a(ungetc.o)
 .debug_info    0x00092c0b       0xb7 c:/program files (x86)/microchip/xc32/v1.40/bin/bin/../../lib/gcc/pic32mx/4.8.3/../../../../pic32mx/lib\libc.a(filbuf.o)
 .debug_info    0x00092cc2       0xb6 c:/program files (x86)/microchip/xc32/v1.40/bin/bin/../../lib/gcc/pic32mx/4.8.3/../../../../pic32mx/lib\libc.a(fflush.o)
 .debug_info    0x00092d78       0xac c:/program files (x86)/microchip/xc32/v1.40/bin/bin/../../lib/gcc/pic32mx/4.8.3/../../../../pic32mx/lib\libpic32.a(read.o)
 .debug_info    0x00092e24       0xae c:/program files (x86)/microchip/xc32/v1.40/bin/bin/../../lib/gcc/pic32mx/4.8.3/../../../../pic32mx/lib\libpic32.a(write.o)
 .debug_info    0x00092ed2       0xc7 c:/program files (x86)/microchip/xc32/v1.40/bin/bin/../../lib/gcc/pic32mx/4.8.3/../../../../pic32mx/lib\libm.a(__strtod.o)
 .debug_info    0x00092f99       0xc7 c:/program files (x86)/microchip/xc32/v1.40/bin/bin/../../lib/gcc/pic32mx/4.8.3/../../../../pic32mx/lib\libm.a(__strtof.o)
 .debug_info    0x00093060       0xc8 c:/program files (x86)/microchip/xc32/v1.40/bin/bin/../../lib/gcc/pic32mx/4.8.3/../../../../pic32mx/lib\libe.a(_ldexp.o)
 .debug_info    0x00093128       0xc9 c:/program files (x86)/microchip/xc32/v1.40/bin/bin/../../lib/gcc/pic32mx/4.8.3/../../../../pic32mx/lib\libe.a(_ldexpf.o)
 .debug_info    0x000931f1      0x310 c:/program files (x86)/microchip/xc32/v1.40/bin/bin/../../lib/gcc/pic32mx/4.8.3\libgcc.a(_lshrdi3.o)
 .debug_info    0x00093501      0x313 c:/program files (x86)/microchip/xc32/v1.40/bin/bin/../../lib/gcc/pic32mx/4.8.3\libgcc.a(_ashldi3.o)

.debug_abbrev   0x00000000     0xd2f9
 *(.debug_abbrev)
 .debug_abbrev  0x00000000      0x278 build/default/production/_ext/93166211/Announce.o
 .debug_abbrev  0x00000278      0x118 build/default/production/_ext/93166211/ARCFOUR.o
 .debug_abbrev  0x00000390      0x377 build/default/production/_ext/93166211/ARP.o
 .debug_abbrev  0x00000707      0x118 build/default/production/_ext/93166211/AutoIP.o
 .debug_abbrev  0x0000081f      0x118 build/default/production/_ext/93166211/BerkeleyAPI.o
 .debug_abbrev  0x00000937      0x118 build/default/production/_ext/93166211/BigInt.o
 .debug_abbrev  0x00000a4f      0x187 build/default/production/_ext/93166211/Delay.o
 .debug_abbrev  0x00000bd6      0x2f3 build/default/production/_ext/93166211/DNS.o
 .debug_abbrev  0x00000ec9      0x2ce build/default/production/_ext/93166211/DNSs.o
 .debug_abbrev  0x00001197      0x118 build/default/production/_ext/93166211/DynDNS.o
 .debug_abbrev  0x000012af      0x118 build/default/production/_ext/93166211/FileSystem.o
 .debug_abbrev  0x000013c7      0x118 build/default/production/_ext/93166211/FTP.o
 .debug_abbrev  0x000014df      0x118 build/default/production/_ext/93166211/Hashes.o
 .debug_abbrev  0x000015f7      0x296 build/default/production/_ext/93166211/Helpers.o
 .debug_abbrev  0x0000188d      0x3fa build/default/production/_ext/93166211/HTTP2.o
 .debug_abbrev  0x00001c87      0x21d build/default/production/_ext/93166211/ICMP.o
 .debug_abbrev  0x00001ea4      0x296 build/default/production/_ext/93166211/IP.o
 .debug_abbrev  0x0000213a      0x118 build/default/production/_ext/93166211/LCDBlocking.o
 .debug_abbrev  0x00002252      0x2f1 build/default/production/_ext/93166211/MPFS2.o
 .debug_abbrev  0x00002543      0x2b3 build/default/production/_ext/93166211/NBNS.o
 .debug_abbrev  0x000027f6      0x118 build/default/production/_ext/93166211/Random.o
 .debug_abbrev  0x0000290e      0x1ca build/default/production/_ext/93166211/Reboot.o
 .debug_abbrev  0x00002ad8      0x118 build/default/production/_ext/93166211/RSA.o
 .debug_abbrev  0x00002bf0      0x118 build/default/production/_ext/93166211/SMTP.o
 .debug_abbrev  0x00002d08      0x118 build/default/production/_ext/93166211/SNMP.o
 .debug_abbrev  0x00002e20      0x118 build/default/production/_ext/93166211/SNMPv3.o
 .debug_abbrev  0x00002f38      0x118 build/default/production/_ext/93166211/SNMPv3USM.o
 .debug_abbrev  0x00003050      0x118 build/default/production/_ext/93166211/SNTP.o
 .debug_abbrev  0x00003168      0x118 build/default/production/_ext/93166211/SPIEEPROM.o
 .debug_abbrev  0x00003280      0x2a8 build/default/production/_ext/93166211/SPIFlash.o
 .debug_abbrev  0x00003528      0x118 build/default/production/_ext/93166211/SPIRAM.o
 .debug_abbrev  0x00003640      0x118 build/default/production/_ext/93166211/SSL.o
 .debug_abbrev  0x00003758      0x276 build/default/production/_ext/93166211/StackTsk.o
 .debug_abbrev  0x000039ce      0x415 build/default/production/_ext/93166211/TCP.o
 .debug_abbrev  0x00003de3      0x118 build/default/production/_ext/93166211/TCPPerformanceTest.o
 .debug_abbrev  0x00003efb      0x118 build/default/production/_ext/93166211/Telnet.o
 .debug_abbrev  0x00004013      0x118 build/default/production/_ext/93166211/TFTPc.o
 .debug_abbrev  0x0000412b      0x20d build/default/production/_ext/93166211/Tick.o
 .debug_abbrev  0x00004338      0x118 build/default/production/_ext/93166211/UART2TCPBridge.o
 .debug_abbrev  0x00004450      0x3d4 build/default/production/_ext/93166211/UDP.o
 .debug_abbrev  0x00004824      0x118 build/default/production/_ext/93166211/UDPPerformanceTest.o
 .debug_abbrev  0x0000493c      0x176 build/default/production/_ext/93166211/ZeroconfHelper.o
 .debug_abbrev  0x00004ab2      0x369 build/default/production/_ext/93166211/ZeroconfLinkLocal.o
 .debug_abbrev  0x00004e1b      0x4ad build/default/production/_ext/93166211/ZeroconfMulticastDNS.o
 .debug_abbrev  0x000052c8      0x374 build/default/production/_ext/93166211/DHCP.o
 .debug_abbrev  0x0000563c      0x3ca build/default/production/_ext/93166211/DHCPs.o
 .debug_abbrev  0x00005a06      0x17e build/default/production/_ext/388820833/WF_Eint.o
 .debug_abbrev  0x00005b84      0x345 build/default/production/_ext/388820833/WF_pbkdf2.o
 .debug_abbrev  0x00005ec9      0x357 build/default/production/_ext/388820833/WFConnectionAlgorithm.o
 .debug_abbrev  0x00006220      0x311 build/default/production/_ext/388820833/WFConnectionManager.o
 .debug_abbrev  0x00006531      0x2c4 build/default/production/_ext/388820833/WFConnectionProfile.o
 .debug_abbrev  0x000067f5      0x118 build/default/production/_ext/388820833/WFConsole.o
 .debug_abbrev  0x0000690d      0x118 build/default/production/_ext/388820833/WFConsoleIfconfig.o
 .debug_abbrev  0x00006a25      0x118 build/default/production/_ext/388820833/WFConsoleIwconfig.o
 .debug_abbrev  0x00006b3d      0x118 build/default/production/_ext/388820833/WFConsoleIwpriv.o
 .debug_abbrev  0x00006c55      0x1cb build/default/production/_ext/388820833/WFConsoleMsgHandler.o
 .debug_abbrev  0x00006e20      0x1d7 build/default/production/_ext/388820833/WFConsoleMsgs.o
 .debug_abbrev  0x00006ff7      0x118 build/default/production/_ext/388820833/WFDataTxRx.o
 .debug_abbrev  0x0000710f      0x316 build/default/production/_ext/388820833/WFDebugStrings.o
 .debug_abbrev  0x00007425      0x372 build/default/production/_ext/388820833/WFEasyConfig.o
 .debug_abbrev  0x00007797      0x29e build/default/production/_ext/388820833/WFEventHandler.o
 .debug_abbrev  0x00007a35      0x238 build/default/production/_ext/388820833/WFInit.o
 .debug_abbrev  0x00007c6d      0x370 build/default/production/_ext/388820833/WFPowerSave.o
 .debug_abbrev  0x00007fdd      0x23f build/default/production/_ext/388820833/WFScan.o
 .debug_abbrev  0x0000821c      0x232 build/default/production/_ext/388820833/WFTxPower.o
 .debug_abbrev  0x0000844e      0x23f build/default/production/_ext/388820833/WF_Spi.o
 .debug_abbrev  0x0000868d      0x413 build/default/production/_ext/388820833/WFDriverCom_24G.o
 .debug_abbrev  0x00008aa0      0x21d build/default/production/_ext/388820833/WFDriverRaw_24G.o
 .debug_abbrev  0x00008cbd      0x40f build/default/production/_ext/388820833/WFMac_24G.o
 .debug_abbrev  0x000090cc      0x317 build/default/production/_ext/388820833/WFMgmtMsg_24G.o
 .debug_abbrev  0x000093e3      0x29d build/default/production/_ext/388820833/WFParamMsg_24G.o
 .debug_abbrev  0x00009680      0x536 build/default/production/_ext/1472/Main.o
 .debug_abbrev  0x00009bb6      0x477 build/default/production/_ext/1472/CustomHTTPApp.o
 .debug_abbrev  0x0000a02d      0x2d1 build/default/production/_ext/1472/WF_Config.o
 .debug_abbrev  0x0000a2fe      0x132 build/default/production/_ext/1472/WifiGDemoMPFSImg.o
 .debug_abbrev  0x0000a430      0x339 build/default/production/_ext/1472/i2c_master.o
 .debug_abbrev  0x0000a769      0x3d4 build/default/production/_ext/1472/OpenADRClient.o
 .debug_abbrev  0x0000ab3d      0x20b build/default/production/_ext/1472/INTiMain.o
 .debug_abbrev  0x0000ad48      0x2b8 build/default/production/_ext/1472/UARTiMain.o
 .debug_abbrev  0x0000b000      0x1cc build/default/production/_ext/1472/TimeMonitor.o
 .debug_abbrev  0x0000b1cc      0x3cc build/default/production/_ext/1472/EPRI_UARTLayer.o
 .debug_abbrev  0x0000b598      0x1a2 build/default/production/_ext/1472/app_UCM.o
 .debug_abbrev  0x0000b73a      0x1ac build/default/production/_ext/1472/Assert.o
 .debug_abbrev  0x0000b8e6      0x21f build/default/production/_ext/1472/MCI_Common.o
 .debug_abbrev  0x0000bb05      0x21f build/default/production/_ext/1472/LinkLayerMessaging.o
 .debug_abbrev  0x0000bd24      0x378 build/default/production/_ext/1472/BasicDR.o
 .debug_abbrev  0x0000c09c      0x108 build/default/production/_ext/1472/debugging.o
 .debug_abbrev  0x0000c1a4       0xf3 build/default/production/_ext/1472/RESTAPI.o
 .debug_abbrev  0x0000c297       0x37 c:/program files (x86)/microchip/xc32/v1.40/bin/bin/../../lib/gcc/pic32mx/4.8.3/../../../../pic32mx/lib\libmchp_peripheral_32MX575F256L.a(soft_reset_lib.o)
 .debug_abbrev  0x0000c2ce       0x28 c:/program files (x86)/microchip/xc32/v1.40/bin/bin/../../lib/gcc/pic32mx/4.8.3/../../../../pic32mx/lib\libmchp_peripheral_32MX575F256L.a(pcache.o)
 .debug_abbrev  0x0000c2f6       0x28 c:/program files (x86)/microchip/xc32/v1.40/bin/bin/../../lib/gcc/pic32mx/4.8.3/../../../../pic32mx/lib\libmchp_peripheral_32MX575F256L.a(int_disable_interrupts_lib.o)
 .debug_abbrev  0x0000c31e       0x28 c:/program files (x86)/microchip/xc32/v1.40/bin/bin/../../lib/gcc/pic32mx/4.8.3/../../../../pic32mx/lib\libmchp_peripheral_32MX575F256L.a(int_restore_interrupts_lib.o)
 .debug_abbrev  0x0000c346       0x28 c:/program files (x86)/microchip/xc32/v1.40/bin/bin/../../lib/gcc/pic32mx/4.8.3/../../../../pic32mx/lib\libmchp_peripheral_32MX575F256L.a(int_enable_mv_int_lib.o)
 .debug_abbrev  0x0000c36e       0x28 c:/program files (x86)/microchip/xc32/v1.40/bin/bin/../../lib/gcc/pic32mx/4.8.3/../../../../pic32mx/lib\libmchp_peripheral_32MX575F256L.a(int_tbl_lib.o)
 .debug_abbrev  0x0000c396       0x3e c:/program files (x86)/microchip/xc32/v1.40/bin/bin/../../lib/gcc/pic32mx/4.8.3/../../../../pic32mx/lib\libmchp_peripheral_32MX575F256L.a(uart_lib.o)
 .debug_abbrev  0x0000c3d4       0x28 c:/program files (x86)/microchip/xc32/v1.40/bin/bin/../../lib/gcc/pic32mx/4.8.3/../../../../pic32mx/lib\libmchp_peripheral_32MX575F256L.a(puts_uartx_lib_legacy.o)
 .debug_abbrev  0x0000c3fc       0x28 c:/program files (x86)/microchip/xc32/v1.40/bin/bin/../../lib/gcc/pic32mx/4.8.3/../../../../pic32mx/lib\libmchp_peripheral_32MX575F256L.a(idle_i2c2_lib_legacy.o)
 .debug_abbrev  0x0000c424       0x28 c:/program files (x86)/microchip/xc32/v1.40/bin/bin/../../lib/gcc/pic32mx/4.8.3/../../../../pic32mx/lib\libmchp_peripheral_32MX575F256L.a(I2CBusIsIdle.o)
 .debug_abbrev  0x0000c44c       0x28 c:/program files (x86)/microchip/xc32/v1.40/bin/bin/../../lib/gcc/pic32mx/4.8.3/../../../../pic32mx/lib\libmchp_peripheral_32MX575F256L.a(I2CByteWasAcknowledged.o)
 .debug_abbrev  0x0000c474       0x28 c:/program files (x86)/microchip/xc32/v1.40/bin/bin/../../lib/gcc/pic32mx/4.8.3/../../../../pic32mx/lib\libmchp_peripheral_32MX575F256L.a(I2CEnable.o)
 .debug_abbrev  0x0000c49c       0x28 c:/program files (x86)/microchip/xc32/v1.40/bin/bin/../../lib/gcc/pic32mx/4.8.3/../../../../pic32mx/lib\libmchp_peripheral_32MX575F256L.a(I2CGetByte.o)
 .debug_abbrev  0x0000c4c4       0x28 c:/program files (x86)/microchip/xc32/v1.40/bin/bin/../../lib/gcc/pic32mx/4.8.3/../../../../pic32mx/lib\libmchp_peripheral_32MX575F256L.a(I2CGetStatus.o)
 .debug_abbrev  0x0000c4ec       0x28 c:/program files (x86)/microchip/xc32/v1.40/bin/bin/../../lib/gcc/pic32mx/4.8.3/../../../../pic32mx/lib\libmchp_peripheral_32MX575F256L.a(I2CReceivedDataIsAvailable.o)
 .debug_abbrev  0x0000c514       0x28 c:/program files (x86)/microchip/xc32/v1.40/bin/bin/../../lib/gcc/pic32mx/4.8.3/../../../../pic32mx/lib\libmchp_peripheral_32MX575F256L.a(I2CReceiverEnable.o)
 .debug_abbrev  0x0000c53c       0x28 c:/program files (x86)/microchip/xc32/v1.40/bin/bin/../../lib/gcc/pic32mx/4.8.3/../../../../pic32mx/lib\libmchp_peripheral_32MX575F256L.a(I2CRepeatStart.o)
 .debug_abbrev  0x0000c564       0x28 c:/program files (x86)/microchip/xc32/v1.40/bin/bin/../../lib/gcc/pic32mx/4.8.3/../../../../pic32mx/lib\libmchp_peripheral_32MX575F256L.a(I2CSetFrequency.o)
 .debug_abbrev  0x0000c58c       0x28 c:/program files (x86)/microchip/xc32/v1.40/bin/bin/../../lib/gcc/pic32mx/4.8.3/../../../../pic32mx/lib\libmchp_peripheral_32MX575F256L.a(I2CStart.o)
 .debug_abbrev  0x0000c5b4       0x28 c:/program files (x86)/microchip/xc32/v1.40/bin/bin/../../lib/gcc/pic32mx/4.8.3/../../../../pic32mx/lib\libmchp_peripheral_32MX575F256L.a(I2CStop.o)
 .debug_abbrev  0x0000c5dc       0x28 c:/program files (x86)/microchip/xc32/v1.40/bin/bin/../../lib/gcc/pic32mx/4.8.3/../../../../pic32mx/lib\libmchp_peripheral_32MX575F256L.a(I2CTransmissionHasCompleted.o)
 .debug_abbrev  0x0000c604       0x28 c:/program files (x86)/microchip/xc32/v1.40/bin/bin/../../lib/gcc/pic32mx/4.8.3/../../../../pic32mx/lib\libmchp_peripheral_32MX575F256L.a(I2CTransmitterIsReady.o)
 .debug_abbrev  0x0000c62c       0x28 c:/program files (x86)/microchip/xc32/v1.40/bin/bin/../../lib/gcc/pic32mx/4.8.3/../../../../pic32mx/lib\libmchp_peripheral_32MX575F256L.a(int_enable_interrupts_lib.o)
 .debug_abbrev  0x0000c654      0x138 c:/program files (x86)/microchip/xc32/v1.40/bin/bin/../../lib/gcc/pic32mx/4.8.3\libgcc.a(_udivdi3.o)
 .debug_abbrev  0x0000c78c      0x147 c:/program files (x86)/microchip/xc32/v1.40/bin/bin/../../lib/gcc/pic32mx/4.8.3\libgcc.a(_umoddi3.o)
 .debug_abbrev  0x0000c8d3       0x62 c:/program files (x86)/microchip/xc32/v1.40/bin/bin/../../lib/gcc/pic32mx/4.8.3\libgcc.a(floatunsisf.o)
 .debug_abbrev  0x0000c935       0x28 c:/program files (x86)/microchip/xc32/v1.40/bin/bin/../../lib/gcc/pic32mx/4.8.3/../../../../pic32mx/lib\libpic32.a(default-bootstrap-exception-handler.o)
 .debug_abbrev  0x0000c95d       0x28 c:/program files (x86)/microchip/xc32/v1.40/bin/bin/../../lib/gcc/pic32mx/4.8.3/../../../../pic32mx/lib\libpic32.a(default-on-reset.o)
 .debug_abbrev  0x0000c985       0x28 c:/program files (x86)/microchip/xc32/v1.40/bin/bin/../../lib/gcc/pic32mx/4.8.3/../../../../pic32mx/lib\libpic32.a(default-on-bootstrap.o)
 .debug_abbrev  0x0000c9ad       0x28 c:/program files (x86)/microchip/xc32/v1.40/bin/bin/../../lib/gcc/pic32mx/4.8.3/../../../../pic32mx/lib\libpic32.a(defaultinterrupt.o)
 .debug_abbrev  0x0000c9d5       0x28 c:/program files (x86)/microchip/xc32/v1.40/bin/bin/../../lib/gcc/pic32mx/4.8.3/../../../../pic32mx/lib\libm.a(w_sqrtf.o)
 .debug_abbrev  0x0000c9fd       0x28 c:/program files (x86)/microchip/xc32/v1.40/bin/bin/../../lib/gcc/pic32mx/4.8.3/../../../../pic32mx/lib\libc.a(atoi.o)
 .debug_abbrev  0x0000ca25       0x28 c:/program files (x86)/microchip/xc32/v1.40/bin/bin/../../lib/gcc/pic32mx/4.8.3/../../../../pic32mx/lib\libc.a(atol.o)
 .debug_abbrev  0x0000ca4d       0x28 c:/program files (x86)/microchip/xc32/v1.40/bin/bin/../../lib/gcc/pic32mx/4.8.3/../../../../pic32mx/lib\libc.a(atoll.o)
 .debug_abbrev  0x0000ca75       0x7a c:/program files (x86)/microchip/xc32/v1.40/bin/bin/../../lib/gcc/pic32mx/4.8.3/../../../../pic32mx/lib\libc.a(ctime.o)
 .debug_abbrev  0x0000caef       0x35 c:/program files (x86)/microchip/xc32/v1.40/bin/bin/../../lib/gcc/pic32mx/4.8.3/../../../../pic32mx/lib\libc.a(mktime.o)
 .debug_abbrev  0x0000cb24       0x28 c:/program files (x86)/microchip/xc32/v1.40/bin/bin/../../lib/gcc/pic32mx/4.8.3/../../../../pic32mx/lib\libc.a(putchar.o)
 .debug_abbrev  0x0000cb4c       0x28 c:/program files (x86)/microchip/xc32/v1.40/bin/bin/../../lib/gcc/pic32mx/4.8.3/../../../../pic32mx/lib\libc.a(puts.o)
 .debug_abbrev  0x0000cb74       0x28 c:/program files (x86)/microchip/xc32/v1.40/bin/bin/../../lib/gcc/pic32mx/4.8.3/../../../../pic32mx/lib\libc.a(strcat.o)
 .debug_abbrev  0x0000cb9c       0x28 c:/program files (x86)/microchip/xc32/v1.40/bin/bin/../../lib/gcc/pic32mx/4.8.3/../../../../pic32mx/lib\libc.a(strchr.o)
 .debug_abbrev  0x0000cbc4       0x28 c:/program files (x86)/microchip/xc32/v1.40/bin/bin/../../lib/gcc/pic32mx/4.8.3/../../../../pic32mx/lib\libc.a(strncmp.o)
 .debug_abbrev  0x0000cbec       0x28 c:/program files (x86)/microchip/xc32/v1.40/bin/bin/../../lib/gcc/pic32mx/4.8.3/../../../../pic32mx/lib\libc.a(strncpy.o)
 .debug_abbrev  0x0000cc14       0x28 c:/program files (x86)/microchip/xc32/v1.40/bin/bin/../../lib/gcc/pic32mx/4.8.3/../../../../pic32mx/lib\libc.a(strrchr.o)
 .debug_abbrev  0x0000cc3c       0x28 c:/program files (x86)/microchip/xc32/v1.40/bin/bin/../../lib/gcc/pic32mx/4.8.3/../../../../pic32mx/lib\libc.a(strstr.o)
 .debug_abbrev  0x0000cc64       0x28 c:/program files (x86)/microchip/xc32/v1.40/bin/bin/../../lib/gcc/pic32mx/4.8.3/../../../../pic32mx/lib\libc.a(strtok.o)
 .debug_abbrev  0x0000cc8c       0x28 c:/program files (x86)/microchip/xc32/v1.40/bin/bin/../../lib/gcc/pic32mx/4.8.3/../../../../pic32mx/lib\libc.a(strtoll.o)
 .debug_abbrev  0x0000ccb4       0x28 c:/program files (x86)/microchip/xc32/v1.40/bin/bin/../../lib/gcc/pic32mx/4.8.3/../../../../pic32mx/lib\libc.a(atof.o)
 .debug_abbrev  0x0000ccdc       0x28 c:/program files (x86)/microchip/xc32/v1.40/bin/bin/../../lib/gcc/pic32mx/4.8.3/../../../../pic32mx/lib\libc.a(printf_cdnopsuxX.eo)
 .debug_abbrev  0x0000cd04       0x28 c:/program files (x86)/microchip/xc32/v1.40/bin/bin/../../lib/gcc/pic32mx/4.8.3/../../../../pic32mx/lib\libc.a(sprintf_cdnopsuxX.eo)
 .debug_abbrev  0x0000cd2c       0x28 c:/program files (x86)/microchip/xc32/v1.40/bin/bin/../../lib/gcc/pic32mx/4.8.3/../../../../pic32mx/lib\libc.a(sscanf_cdfFnopsuxX.eo)
 .debug_abbrev  0x0000cd54       0x28 c:/program files (x86)/microchip/xc32/v1.40/bin/bin/../../lib/gcc/pic32mx/4.8.3/../../../../pic32mx/lib\libc.a(_fputc_simple.o)
 .debug_abbrev  0x0000cd7c       0x28 c:/program files (x86)/microchip/xc32/v1.40/bin/bin/../../lib/gcc/pic32mx/4.8.3/../../../../pic32mx/lib\libc.a(ctypef.o)
 .debug_abbrev  0x0000cda4       0x28 c:/program files (x86)/microchip/xc32/v1.40/bin/bin/../../lib/gcc/pic32mx/4.8.3/../../../../pic32mx/lib\libc.a(strcspn.o)
 .debug_abbrev  0x0000cdcc       0x28 c:/program files (x86)/microchip/xc32/v1.40/bin/bin/../../lib/gcc/pic32mx/4.8.3/../../../../pic32mx/lib\libc.a(strspn.o)
 .debug_abbrev  0x0000cdf4       0x4f c:/program files (x86)/microchip/xc32/v1.40/bin/bin/../../lib/gcc/pic32mx/4.8.3/../../../../pic32mx/lib\libc.a(strtof.o)
 .debug_abbrev  0x0000ce43       0x28 c:/program files (x86)/microchip/xc32/v1.40/bin/bin/../../lib/gcc/pic32mx/4.8.3/../../../../pic32mx/lib\libc.a(doprnt_cdnopsuxX.eo)
 .debug_abbrev  0x0000ce6b       0x3c c:/program files (x86)/microchip/xc32/v1.40/bin/bin/../../lib/gcc/pic32mx/4.8.3/../../../../pic32mx/lib\libc.a(doscan_cdfFnopsuxX.eo)
 .debug_abbrev  0x0000cea7       0x3c c:/program files (x86)/microchip/xc32/v1.40/bin/bin/../../lib/gcc/pic32mx/4.8.3/../../../../pic32mx/lib\libc.a(doscan_cdnopsuxX.eo)
 .debug_abbrev  0x0000cee3       0x3c c:/program files (x86)/microchip/xc32/v1.40/bin/bin/../../lib/gcc/pic32mx/4.8.3/../../../../pic32mx/lib\libc.a(doscan_cdnopuxX.eo)
 .debug_abbrev  0x0000cf1f       0x28 c:/program files (x86)/microchip/xc32/v1.40/bin/bin/../../lib/gcc/pic32mx/4.8.3/../../../../pic32mx/lib\libc.a(_flsbuf_simple.o)
 .debug_abbrev  0x0000cf47       0x28 c:/program files (x86)/microchip/xc32/v1.40/bin/bin/../../lib/gcc/pic32mx/4.8.3/../../../../pic32mx/lib\libc.a(fgetc.o)
 .debug_abbrev  0x0000cf6f       0x4f c:/program files (x86)/microchip/xc32/v1.40/bin/bin/../../lib/gcc/pic32mx/4.8.3/../../../../pic32mx/lib\libc.a(strtod.o)
 .debug_abbrev  0x0000cfbe       0x28 c:/program files (x86)/microchip/xc32/v1.40/bin/bin/../../lib/gcc/pic32mx/4.8.3/../../../../pic32mx/lib\libc.a(ungetc.o)
 .debug_abbrev  0x0000cfe6       0x28 c:/program files (x86)/microchip/xc32/v1.40/bin/bin/../../lib/gcc/pic32mx/4.8.3/../../../../pic32mx/lib\libc.a(filbuf.o)
 .debug_abbrev  0x0000d00e       0x28 c:/program files (x86)/microchip/xc32/v1.40/bin/bin/../../lib/gcc/pic32mx/4.8.3/../../../../pic32mx/lib\libc.a(fflush.o)
 .debug_abbrev  0x0000d036       0x28 c:/program files (x86)/microchip/xc32/v1.40/bin/bin/../../lib/gcc/pic32mx/4.8.3/../../../../pic32mx/lib\libpic32.a(read.o)
 .debug_abbrev  0x0000d05e       0x28 c:/program files (x86)/microchip/xc32/v1.40/bin/bin/../../lib/gcc/pic32mx/4.8.3/../../../../pic32mx/lib\libpic32.a(write.o)
 .debug_abbrev  0x0000d086       0x35 c:/program files (x86)/microchip/xc32/v1.40/bin/bin/../../lib/gcc/pic32mx/4.8.3/../../../../pic32mx/lib\libm.a(__strtod.o)
 .debug_abbrev  0x0000d0bb       0x35 c:/program files (x86)/microchip/xc32/v1.40/bin/bin/../../lib/gcc/pic32mx/4.8.3/../../../../pic32mx/lib\libm.a(__strtof.o)
 .debug_abbrev  0x0000d0f0       0x35 c:/program files (x86)/microchip/xc32/v1.40/bin/bin/../../lib/gcc/pic32mx/4.8.3/../../../../pic32mx/lib\libe.a(_ldexp.o)
 .debug_abbrev  0x0000d125       0x35 c:/program files (x86)/microchip/xc32/v1.40/bin/bin/../../lib/gcc/pic32mx/4.8.3/../../../../pic32mx/lib\libe.a(_ldexpf.o)
 .debug_abbrev  0x0000d15a       0xd7 c:/program files (x86)/microchip/xc32/v1.40/bin/bin/../../lib/gcc/pic32mx/4.8.3\libgcc.a(_lshrdi3.o)
 .debug_abbrev  0x0000d231       0xc8 c:/program files (x86)/microchip/xc32/v1.40/bin/bin/../../lib/gcc/pic32mx/4.8.3\libgcc.a(_ashldi3.o)

.debug_line     0x00000000     0xfd62
 *(.debug_line)
 .debug_line    0x00000000      0x251 build/default/production/_ext/93166211/Announce.o
 .debug_line    0x00000251      0x11e build/default/production/_ext/93166211/ARCFOUR.o
 .debug_line    0x0000036f      0x385 build/default/production/_ext/93166211/ARP.o
 .debug_line    0x000006f4      0x11e build/default/production/_ext/93166211/AutoIP.o
 .debug_line    0x00000812      0x11e build/default/production/_ext/93166211/BerkeleyAPI.o
 .debug_line    0x00000930      0x11e build/default/production/_ext/93166211/BigInt.o
 .debug_line    0x00000a4e      0x190 build/default/production/_ext/93166211/Delay.o
 .debug_line    0x00000bde      0x34a build/default/production/_ext/93166211/DNS.o
 .debug_line    0x00000f28      0x266 build/default/production/_ext/93166211/DNSs.o
 .debug_line    0x0000118e      0x11e build/default/production/_ext/93166211/DynDNS.o
 .debug_line    0x000012ac      0x11e build/default/production/_ext/93166211/FileSystem.o
 .debug_line    0x000013ca      0x11e build/default/production/_ext/93166211/FTP.o
 .debug_line    0x000014e8      0x11e build/default/production/_ext/93166211/Hashes.o
 .debug_line    0x00001606      0x32a build/default/production/_ext/93166211/Helpers.o
 .debug_line    0x00001930      0x5ae build/default/production/_ext/93166211/HTTP2.o
 .debug_line    0x00001ede      0x20b build/default/production/_ext/93166211/ICMP.o
 .debug_line    0x000020e9      0x24c build/default/production/_ext/93166211/IP.o
 .debug_line    0x00002335      0x11e build/default/production/_ext/93166211/LCDBlocking.o
 .debug_line    0x00002453      0x39b build/default/production/_ext/93166211/MPFS2.o
 .debug_line    0x000027ee      0x2c2 build/default/production/_ext/93166211/NBNS.o
 .debug_line    0x00002ab0      0x11e build/default/production/_ext/93166211/Random.o
 .debug_line    0x00002bce      0x21d build/default/production/_ext/93166211/Reboot.o
 .debug_line    0x00002deb      0x11e build/default/production/_ext/93166211/RSA.o
 .debug_line    0x00002f09      0x11e build/default/production/_ext/93166211/SMTP.o
 .debug_line    0x00003027      0x11e build/default/production/_ext/93166211/SNMP.o
 .debug_line    0x00003145      0x11e build/default/production/_ext/93166211/SNMPv3.o
 .debug_line    0x00003263      0x11e build/default/production/_ext/93166211/SNMPv3USM.o
 .debug_line    0x00003381      0x11e build/default/production/_ext/93166211/SNTP.o
 .debug_line    0x0000349f      0x11e build/default/production/_ext/93166211/SPIEEPROM.o
 .debug_line    0x000035bd      0x394 build/default/production/_ext/93166211/SPIFlash.o
 .debug_line    0x00003951      0x11e build/default/production/_ext/93166211/SPIRAM.o
 .debug_line    0x00003a6f      0x11e build/default/production/_ext/93166211/SSL.o
 .debug_line    0x00003b8d      0x354 build/default/production/_ext/93166211/StackTsk.o
 .debug_line    0x00003ee1      0xa0f build/default/production/_ext/93166211/TCP.o
 .debug_line    0x000048f0      0x11e build/default/production/_ext/93166211/TCPPerformanceTest.o
 .debug_line    0x00004a0e      0x11e build/default/production/_ext/93166211/Telnet.o
 .debug_line    0x00004b2c      0x11e build/default/production/_ext/93166211/TFTPc.o
 .debug_line    0x00004c4a      0x1d5 build/default/production/_ext/93166211/Tick.o
 .debug_line    0x00004e1f      0x11e build/default/production/_ext/93166211/UART2TCPBridge.o
 .debug_line    0x00004f3d      0x3c0 build/default/production/_ext/93166211/UDP.o
 .debug_line    0x000052fd      0x11e build/default/production/_ext/93166211/UDPPerformanceTest.o
 .debug_line    0x0000541b      0x1f5 build/default/production/_ext/93166211/ZeroconfHelper.o
 .debug_line    0x00005610      0x40d build/default/production/_ext/93166211/ZeroconfLinkLocal.o
 .debug_line    0x00005a1d      0x7ca build/default/production/_ext/93166211/ZeroconfMulticastDNS.o
 .debug_line    0x000061e7      0x427 build/default/production/_ext/93166211/DHCP.o
 .debug_line    0x0000660e      0x41d build/default/production/_ext/93166211/DHCPs.o
 .debug_line    0x00006a2b      0x1c3 build/default/production/_ext/388820833/WF_Eint.o
 .debug_line    0x00006bee      0x363 build/default/production/_ext/388820833/WF_pbkdf2.o
 .debug_line    0x00006f51      0x345 build/default/production/_ext/388820833/WFConnectionAlgorithm.o
 .debug_line    0x00007296      0x264 build/default/production/_ext/388820833/WFConnectionManager.o
 .debug_line    0x000074fa      0x2f1 build/default/production/_ext/388820833/WFConnectionProfile.o
 .debug_line    0x000077eb      0x11e build/default/production/_ext/388820833/WFConsole.o
 .debug_line    0x00007909      0x11e build/default/production/_ext/388820833/WFConsoleIfconfig.o
 .debug_line    0x00007a27      0x11e build/default/production/_ext/388820833/WFConsoleIwconfig.o
 .debug_line    0x00007b45      0x11e build/default/production/_ext/388820833/WFConsoleIwpriv.o
 .debug_line    0x00007c63      0x265 build/default/production/_ext/388820833/WFConsoleMsgHandler.o
 .debug_line    0x00007ec8      0x272 build/default/production/_ext/388820833/WFConsoleMsgs.o
 .debug_line    0x0000813a      0x11e build/default/production/_ext/388820833/WFDataTxRx.o
 .debug_line    0x00008258      0x3cb build/default/production/_ext/388820833/WFDebugStrings.o
 .debug_line    0x00008623      0x3cc build/default/production/_ext/388820833/WFEasyConfig.o
 .debug_line    0x000089ef      0x2c0 build/default/production/_ext/388820833/WFEventHandler.o
 .debug_line    0x00008caf      0x297 build/default/production/_ext/388820833/WFInit.o
 .debug_line    0x00008f46      0x27e build/default/production/_ext/388820833/WFPowerSave.o
 .debug_line    0x000091c4      0x220 build/default/production/_ext/388820833/WFScan.o
 .debug_line    0x000093e4      0x20f build/default/production/_ext/388820833/WFTxPower.o
 .debug_line    0x000095f3      0x22f build/default/production/_ext/388820833/WF_Spi.o
 .debug_line    0x00009822      0x38e build/default/production/_ext/388820833/WFDriverCom_24G.o
 .debug_line    0x00009bb0      0x354 build/default/production/_ext/388820833/WFDriverRaw_24G.o
 .debug_line    0x00009f04      0x431 build/default/production/_ext/388820833/WFMac_24G.o
 .debug_line    0x0000a335      0x32f build/default/production/_ext/388820833/WFMgmtMsg_24G.o
 .debug_line    0x0000a664      0x2d2 build/default/production/_ext/388820833/WFParamMsg_24G.o
 .debug_line    0x0000a936      0x5b4 build/default/production/_ext/1472/Main.o
 .debug_line    0x0000aeea      0x713 build/default/production/_ext/1472/CustomHTTPApp.o
 .debug_line    0x0000b5fd      0x337 build/default/production/_ext/1472/WF_Config.o
 .debug_line    0x0000b934      0x169 build/default/production/_ext/1472/WifiGDemoMPFSImg.o
 .debug_line    0x0000ba9d      0x314 build/default/production/_ext/1472/i2c_master.o
 .debug_line    0x0000bdb1      0x82e build/default/production/_ext/1472/OpenADRClient.o
 .debug_line    0x0000c5df      0x1d0 build/default/production/_ext/1472/INTiMain.o
 .debug_line    0x0000c7af      0x1fc build/default/production/_ext/1472/UARTiMain.o
 .debug_line    0x0000c9ab      0x1ed build/default/production/_ext/1472/TimeMonitor.o
 .debug_line    0x0000cb98      0x360 build/default/production/_ext/1472/EPRI_UARTLayer.o
 .debug_line    0x0000cef8      0x18f build/default/production/_ext/1472/app_UCM.o
 .debug_line    0x0000d087      0x1d2 build/default/production/_ext/1472/Assert.o
 .debug_line    0x0000d259        0x0 build/default/production/_ext/1472/EPRI_SPILayer.o
 .debug_line    0x0000d259      0x1a4 build/default/production/_ext/1472/MCI_Common.o
 .debug_line    0x0000d3fd      0x1e8 build/default/production/_ext/1472/LinkLayerMessaging.o
 .debug_line    0x0000d5e5      0x40d build/default/production/_ext/1472/BasicDR.o
 .debug_line    0x0000d9f2       0xd0 build/default/production/_ext/1472/debugging.o
 .debug_line    0x0000dac2       0xdf build/default/production/_ext/1472/RESTAPI.o
 .debug_line    0x0000dba1       0xab c:/program files (x86)/microchip/xc32/v1.40/bin/bin/../../lib/gcc/pic32mx/4.8.3/../../../../pic32mx/lib\libmchp_peripheral_32MX575F256L.a(soft_reset_lib.o)
 .debug_line    0x0000dc4c       0x5f c:/program files (x86)/microchip/xc32/v1.40/bin/bin/../../lib/gcc/pic32mx/4.8.3/../../../../pic32mx/lib\libmchp_peripheral_32MX575F256L.a(pcache.o)
 .debug_line    0x0000dcab       0x70 c:/program files (x86)/microchip/xc32/v1.40/bin/bin/../../lib/gcc/pic32mx/4.8.3/../../../../pic32mx/lib\libmchp_peripheral_32MX575F256L.a(int_disable_interrupts_lib.o)
 .debug_line    0x0000dd1b       0x70 c:/program files (x86)/microchip/xc32/v1.40/bin/bin/../../lib/gcc/pic32mx/4.8.3/../../../../pic32mx/lib\libmchp_peripheral_32MX575F256L.a(int_restore_interrupts_lib.o)
 .debug_line    0x0000dd8b       0x6b c:/program files (x86)/microchip/xc32/v1.40/bin/bin/../../lib/gcc/pic32mx/4.8.3/../../../../pic32mx/lib\libmchp_peripheral_32MX575F256L.a(int_enable_mv_int_lib.o)
 .debug_line    0x0000ddf6       0x61 c:/program files (x86)/microchip/xc32/v1.40/bin/bin/../../lib/gcc/pic32mx/4.8.3/../../../../pic32mx/lib\libmchp_peripheral_32MX575F256L.a(int_tbl_lib.o)
 .debug_line    0x0000de57       0x5f c:/program files (x86)/microchip/xc32/v1.40/bin/bin/../../lib/gcc/pic32mx/4.8.3/../../../../pic32mx/lib\libmchp_peripheral_32MX575F256L.a(uart_lib.o)
 .debug_line    0x0000deb6       0x6c c:/program files (x86)/microchip/xc32/v1.40/bin/bin/../../lib/gcc/pic32mx/4.8.3/../../../../pic32mx/lib\libmchp_peripheral_32MX575F256L.a(puts_uartx_lib_legacy.o)
 .debug_line    0x0000df22       0x6a c:/program files (x86)/microchip/xc32/v1.40/bin/bin/../../lib/gcc/pic32mx/4.8.3/../../../../pic32mx/lib\libmchp_peripheral_32MX575F256L.a(idle_i2c2_lib_legacy.o)
 .debug_line    0x0000df8c        0x0 c:/program files (x86)/microchip/xc32/v1.40/bin/bin/../../lib/gcc/pic32mx/4.8.3/../../../../pic32mx/lib\libmchp_peripheral_32MX575F256L.a(I2CPrivate.o)
 .debug_line    0x0000df8c       0x62 c:/program files (x86)/microchip/xc32/v1.40/bin/bin/../../lib/gcc/pic32mx/4.8.3/../../../../pic32mx/lib\libmchp_peripheral_32MX575F256L.a(I2CBusIsIdle.o)
 .debug_line    0x0000dfee       0x6c c:/program files (x86)/microchip/xc32/v1.40/bin/bin/../../lib/gcc/pic32mx/4.8.3/../../../../pic32mx/lib\libmchp_peripheral_32MX575F256L.a(I2CByteWasAcknowledged.o)
 .debug_line    0x0000e05a       0x5f c:/program files (x86)/microchip/xc32/v1.40/bin/bin/../../lib/gcc/pic32mx/4.8.3/../../../../pic32mx/lib\libmchp_peripheral_32MX575F256L.a(I2CEnable.o)
 .debug_line    0x0000e0b9       0x60 c:/program files (x86)/microchip/xc32/v1.40/bin/bin/../../lib/gcc/pic32mx/4.8.3/../../../../pic32mx/lib\libmchp_peripheral_32MX575F256L.a(I2CGetByte.o)
 .debug_line    0x0000e119       0x62 c:/program files (x86)/microchip/xc32/v1.40/bin/bin/../../lib/gcc/pic32mx/4.8.3/../../../../pic32mx/lib\libmchp_peripheral_32MX575F256L.a(I2CGetStatus.o)
 .debug_line    0x0000e17b       0x70 c:/program files (x86)/microchip/xc32/v1.40/bin/bin/../../lib/gcc/pic32mx/4.8.3/../../../../pic32mx/lib\libmchp_peripheral_32MX575F256L.a(I2CReceivedDataIsAvailable.o)
 .debug_line    0x0000e1eb       0x67 c:/program files (x86)/microchip/xc32/v1.40/bin/bin/../../lib/gcc/pic32mx/4.8.3/../../../../pic32mx/lib\libmchp_peripheral_32MX575F256L.a(I2CReceiverEnable.o)
 .debug_line    0x0000e252       0x64 c:/program files (x86)/microchip/xc32/v1.40/bin/bin/../../lib/gcc/pic32mx/4.8.3/../../../../pic32mx/lib\libmchp_peripheral_32MX575F256L.a(I2CRepeatStart.o)
 .debug_line    0x0000e2b6       0x65 c:/program files (x86)/microchip/xc32/v1.40/bin/bin/../../lib/gcc/pic32mx/4.8.3/../../../../pic32mx/lib\libmchp_peripheral_32MX575F256L.a(I2CSetFrequency.o)
 .debug_line    0x0000e31b       0x5e c:/program files (x86)/microchip/xc32/v1.40/bin/bin/../../lib/gcc/pic32mx/4.8.3/../../../../pic32mx/lib\libmchp_peripheral_32MX575F256L.a(I2CStart.o)
 .debug_line    0x0000e379       0x5d c:/program files (x86)/microchip/xc32/v1.40/bin/bin/../../lib/gcc/pic32mx/4.8.3/../../../../pic32mx/lib\libmchp_peripheral_32MX575F256L.a(I2CStop.o)
 .debug_line    0x0000e3d6       0x71 c:/program files (x86)/microchip/xc32/v1.40/bin/bin/../../lib/gcc/pic32mx/4.8.3/../../../../pic32mx/lib\libmchp_peripheral_32MX575F256L.a(I2CTransmissionHasCompleted.o)
 .debug_line    0x0000e447       0x6b c:/program files (x86)/microchip/xc32/v1.40/bin/bin/../../lib/gcc/pic32mx/4.8.3/../../../../pic32mx/lib\libmchp_peripheral_32MX575F256L.a(I2CTransmitterIsReady.o)
 .debug_line    0x0000e4b2       0x6f c:/program files (x86)/microchip/xc32/v1.40/bin/bin/../../lib/gcc/pic32mx/4.8.3/../../../../pic32mx/lib\libmchp_peripheral_32MX575F256L.a(int_enable_interrupts_lib.o)
 .debug_line    0x0000e521       0xed c:/program files (x86)/microchip/xc32/v1.40/bin/bin/../../lib/gcc/pic32mx/4.8.3\libgcc.a(_udivdi3.o)
 .debug_line    0x0000e60e       0xff c:/program files (x86)/microchip/xc32/v1.40/bin/bin/../../lib/gcc/pic32mx/4.8.3\libgcc.a(_umoddi3.o)
 .debug_line    0x0000e70d       0x8a c:/program files (x86)/microchip/xc32/v1.40/bin/bin/../../lib/gcc/pic32mx/4.8.3\libgcc.a(floatunsisf.o)
 .debug_line    0x0000e797       0x97 c:/program files (x86)/microchip/xc32/v1.40/bin/bin/../../lib/gcc/pic32mx/4.8.3/../../../../pic32mx/lib\libpic32.a(default-bootstrap-exception-handler.o)
 .debug_line    0x0000e82e       0x84 c:/program files (x86)/microchip/xc32/v1.40/bin/bin/../../lib/gcc/pic32mx/4.8.3/../../../../pic32mx/lib\libpic32.a(default-on-reset.o)
 .debug_line    0x0000e8b2       0x88 c:/program files (x86)/microchip/xc32/v1.40/bin/bin/../../lib/gcc/pic32mx/4.8.3/../../../../pic32mx/lib\libpic32.a(default-on-bootstrap.o)
 .debug_line    0x0000e93a       0x96 c:/program files (x86)/microchip/xc32/v1.40/bin/bin/../../lib/gcc/pic32mx/4.8.3/../../../../pic32mx/lib\libpic32.a(defaultinterrupt.o)
 .debug_line    0x0000e9d0       0x78 c:/program files (x86)/microchip/xc32/v1.40/bin/bin/../../lib/gcc/pic32mx/4.8.3/../../../../pic32mx/lib\libm.a(w_sqrtf.o)
 .debug_line    0x0000ea48        0x0 c:/program files (x86)/microchip/xc32/v1.40/bin/bin/../../lib/gcc/pic32mx/4.8.3/../../../../pic32mx/lib\libm.a(s_lib_ver.o)
 .debug_line    0x0000ea48       0x6e c:/program files (x86)/microchip/xc32/v1.40/bin/bin/../../lib/gcc/pic32mx/4.8.3/../../../../pic32mx/lib\libc.a(atoi.o)
 .debug_line    0x0000eab6       0x6e c:/program files (x86)/microchip/xc32/v1.40/bin/bin/../../lib/gcc/pic32mx/4.8.3/../../../../pic32mx/lib\libc.a(atol.o)
 .debug_line    0x0000eb24       0x6f c:/program files (x86)/microchip/xc32/v1.40/bin/bin/../../lib/gcc/pic32mx/4.8.3/../../../../pic32mx/lib\libc.a(atoll.o)
 .debug_line    0x0000eb93       0x6f c:/program files (x86)/microchip/xc32/v1.40/bin/bin/../../lib/gcc/pic32mx/4.8.3/../../../../pic32mx/lib\libc.a(ctime.o)
 .debug_line    0x0000ec02        0x0 c:/program files (x86)/microchip/xc32/v1.40/bin/bin/../../lib/gcc/pic32mx/4.8.3/../../../../pic32mx/lib\libc.a(ctype.o)
 .debug_line    0x0000ec02        0x0 c:/program files (x86)/microchip/xc32/v1.40/bin/bin/../../lib/gcc/pic32mx/4.8.3/../../../../pic32mx/lib\libc.a(errno.o)
 .debug_line    0x0000ec02       0x70 c:/program files (x86)/microchip/xc32/v1.40/bin/bin/../../lib/gcc/pic32mx/4.8.3/../../../../pic32mx/lib\libc.a(mktime.o)
 .debug_line    0x0000ec72       0x71 c:/program files (x86)/microchip/xc32/v1.40/bin/bin/../../lib/gcc/pic32mx/4.8.3/../../../../pic32mx/lib\libc.a(putchar.o)
 .debug_line    0x0000ece3       0x6e c:/program files (x86)/microchip/xc32/v1.40/bin/bin/../../lib/gcc/pic32mx/4.8.3/../../../../pic32mx/lib\libc.a(puts.o)
 .debug_line    0x0000ed51       0x70 c:/program files (x86)/microchip/xc32/v1.40/bin/bin/../../lib/gcc/pic32mx/4.8.3/../../../../pic32mx/lib\libc.a(strcat.o)
 .debug_line    0x0000edc1       0x70 c:/program files (x86)/microchip/xc32/v1.40/bin/bin/../../lib/gcc/pic32mx/4.8.3/../../../../pic32mx/lib\libc.a(strchr.o)
 .debug_line    0x0000ee31       0x71 c:/program files (x86)/microchip/xc32/v1.40/bin/bin/../../lib/gcc/pic32mx/4.8.3/../../../../pic32mx/lib\libc.a(strncmp.o)
 .debug_line    0x0000eea2       0x71 c:/program files (x86)/microchip/xc32/v1.40/bin/bin/../../lib/gcc/pic32mx/4.8.3/../../../../pic32mx/lib\libc.a(strncpy.o)
 .debug_line    0x0000ef13       0x71 c:/program files (x86)/microchip/xc32/v1.40/bin/bin/../../lib/gcc/pic32mx/4.8.3/../../../../pic32mx/lib\libc.a(strrchr.o)
 .debug_line    0x0000ef84       0x70 c:/program files (x86)/microchip/xc32/v1.40/bin/bin/../../lib/gcc/pic32mx/4.8.3/../../../../pic32mx/lib\libc.a(strstr.o)
 .debug_line    0x0000eff4       0x70 c:/program files (x86)/microchip/xc32/v1.40/bin/bin/../../lib/gcc/pic32mx/4.8.3/../../../../pic32mx/lib\libc.a(strtok.o)
 .debug_line    0x0000f064       0x71 c:/program files (x86)/microchip/xc32/v1.40/bin/bin/../../lib/gcc/pic32mx/4.8.3/../../../../pic32mx/lib\libc.a(strtoll.o)
 .debug_line    0x0000f0d5       0x6e c:/program files (x86)/microchip/xc32/v1.40/bin/bin/../../lib/gcc/pic32mx/4.8.3/../../../../pic32mx/lib\libc.a(atof.o)
 .debug_line    0x0000f143       0x70 c:/program files (x86)/microchip/xc32/v1.40/bin/bin/../../lib/gcc/pic32mx/4.8.3/../../../../pic32mx/lib\libc.a(printf_cdnopsuxX.eo)
 .debug_line    0x0000f1b3       0x71 c:/program files (x86)/microchip/xc32/v1.40/bin/bin/../../lib/gcc/pic32mx/4.8.3/../../../../pic32mx/lib\libc.a(sprintf_cdnopsuxX.eo)
 .debug_line    0x0000f224       0x70 c:/program files (x86)/microchip/xc32/v1.40/bin/bin/../../lib/gcc/pic32mx/4.8.3/../../../../pic32mx/lib\libc.a(sscanf_cdfFnopsuxX.eo)
 .debug_line    0x0000f294        0x0 c:/program files (x86)/microchip/xc32/v1.40/bin/bin/../../lib/gcc/pic32mx/4.8.3/../../../../pic32mx/lib\libc.a(_iob.o)
 .debug_line    0x0000f294       0x6f c:/program files (x86)/microchip/xc32/v1.40/bin/bin/../../lib/gcc/pic32mx/4.8.3/../../../../pic32mx/lib\libc.a(_fputc_simple.o)
 .debug_line    0x0000f303       0x70 c:/program files (x86)/microchip/xc32/v1.40/bin/bin/../../lib/gcc/pic32mx/4.8.3/../../../../pic32mx/lib\libc.a(ctypef.o)
 .debug_line    0x0000f373       0x71 c:/program files (x86)/microchip/xc32/v1.40/bin/bin/../../lib/gcc/pic32mx/4.8.3/../../../../pic32mx/lib\libc.a(strcspn.o)
 .debug_line    0x0000f3e4       0x70 c:/program files (x86)/microchip/xc32/v1.40/bin/bin/../../lib/gcc/pic32mx/4.8.3/../../../../pic32mx/lib\libc.a(strspn.o)
 .debug_line    0x0000f454       0x70 c:/program files (x86)/microchip/xc32/v1.40/bin/bin/../../lib/gcc/pic32mx/4.8.3/../../../../pic32mx/lib\libc.a(strtof.o)
 .debug_line    0x0000f4c4       0x70 c:/program files (x86)/microchip/xc32/v1.40/bin/bin/../../lib/gcc/pic32mx/4.8.3/../../../../pic32mx/lib\libc.a(doprnt_cdnopsuxX.eo)
 .debug_line    0x0000f534       0x70 c:/program files (x86)/microchip/xc32/v1.40/bin/bin/../../lib/gcc/pic32mx/4.8.3/../../../../pic32mx/lib\libc.a(doscan_cdfFnopsuxX.eo)
 .debug_line    0x0000f5a4       0x70 c:/program files (x86)/microchip/xc32/v1.40/bin/bin/../../lib/gcc/pic32mx/4.8.3/../../../../pic32mx/lib\libc.a(doscan_cdnopsuxX.eo)
 .debug_line    0x0000f614       0x70 c:/program files (x86)/microchip/xc32/v1.40/bin/bin/../../lib/gcc/pic32mx/4.8.3/../../../../pic32mx/lib\libc.a(doscan_cdnopuxX.eo)
 .debug_line    0x0000f684       0x70 c:/program files (x86)/microchip/xc32/v1.40/bin/bin/../../lib/gcc/pic32mx/4.8.3/../../../../pic32mx/lib\libc.a(_flsbuf_simple.o)
 .debug_line    0x0000f6f4       0x6f c:/program files (x86)/microchip/xc32/v1.40/bin/bin/../../lib/gcc/pic32mx/4.8.3/../../../../pic32mx/lib\libc.a(fgetc.o)
 .debug_line    0x0000f763       0x70 c:/program files (x86)/microchip/xc32/v1.40/bin/bin/../../lib/gcc/pic32mx/4.8.3/../../../../pic32mx/lib\libc.a(strtod.o)
 .debug_line    0x0000f7d3       0x70 c:/program files (x86)/microchip/xc32/v1.40/bin/bin/../../lib/gcc/pic32mx/4.8.3/../../../../pic32mx/lib\libc.a(ungetc.o)
 .debug_line    0x0000f843       0x70 c:/program files (x86)/microchip/xc32/v1.40/bin/bin/../../lib/gcc/pic32mx/4.8.3/../../../../pic32mx/lib\libc.a(filbuf.o)
 .debug_line    0x0000f8b3       0x70 c:/program files (x86)/microchip/xc32/v1.40/bin/bin/../../lib/gcc/pic32mx/4.8.3/../../../../pic32mx/lib\libc.a(fflush.o)
 .debug_line    0x0000f923       0x78 c:/program files (x86)/microchip/xc32/v1.40/bin/bin/../../lib/gcc/pic32mx/4.8.3/../../../../pic32mx/lib\libpic32.a(read.o)
 .debug_line    0x0000f99b       0x79 c:/program files (x86)/microchip/xc32/v1.40/bin/bin/../../lib/gcc/pic32mx/4.8.3/../../../../pic32mx/lib\libpic32.a(write.o)
 .debug_line    0x0000fa14        0x0 c:/program files (x86)/microchip/xc32/v1.40/bin/bin/../../lib/gcc/pic32mx/4.8.3/../../../../pic32mx/lib\libpic32.a(xc32_uart.o)
 .debug_line    0x0000fa14       0x79 c:/program files (x86)/microchip/xc32/v1.40/bin/bin/../../lib/gcc/pic32mx/4.8.3/../../../../pic32mx/lib\libm.a(__strtod.o)
 .debug_line    0x0000fa8d       0x79 c:/program files (x86)/microchip/xc32/v1.40/bin/bin/../../lib/gcc/pic32mx/4.8.3/../../../../pic32mx/lib\libm.a(__strtof.o)
 .debug_line    0x0000fb06       0x93 c:/program files (x86)/microchip/xc32/v1.40/bin/bin/../../lib/gcc/pic32mx/4.8.3/../../../../pic32mx/lib\libe.a(_ldexp.o)
 .debug_line    0x0000fb99       0x93 c:/program files (x86)/microchip/xc32/v1.40/bin/bin/../../lib/gcc/pic32mx/4.8.3/../../../../pic32mx/lib\libe.a(_ldexpf.o)
 .debug_line    0x0000fc2c       0x9b c:/program files (x86)/microchip/xc32/v1.40/bin/bin/../../lib/gcc/pic32mx/4.8.3\libgcc.a(_lshrdi3.o)
 .debug_line    0x0000fcc7       0x9b c:/program files (x86)/microchip/xc32/v1.40/bin/bin/../../lib/gcc/pic32mx/4.8.3\libgcc.a(_ashldi3.o)

.debug_frame    0x00000000     0x4abc
 *(.debug_frame)
 .debug_frame   0x00000000       0x48 build/default/production/_ext/93166211/Announce.o
 .debug_frame   0x00000048       0xe8 build/default/production/_ext/93166211/ARP.o
 .debug_frame   0x00000130       0x40 build/default/production/_ext/93166211/Delay.o
 .debug_frame   0x00000170       0xb0 build/default/production/_ext/93166211/DNS.o
 .debug_frame   0x00000220       0x34 build/default/production/_ext/93166211/DNSs.o
 .debug_frame   0x00000254      0x150 build/default/production/_ext/93166211/Helpers.o
 .debug_frame   0x000003a4      0x170 build/default/production/_ext/93166211/HTTP2.o
 .debug_frame   0x00000514       0x2c build/default/production/_ext/93166211/ICMP.o
 .debug_frame   0x00000540       0x80 build/default/production/_ext/93166211/IP.o
 .debug_frame   0x000005c0      0x1f4 build/default/production/_ext/93166211/MPFS2.o
 .debug_frame   0x000007b4       0x34 build/default/production/_ext/93166211/NBNS.o
 .debug_frame   0x000007e8       0x28 build/default/production/_ext/93166211/Reboot.o
 .debug_frame   0x00000810       0xe0 build/default/production/_ext/93166211/SPIFlash.o
 .debug_frame   0x000008f0       0x78 build/default/production/_ext/93166211/StackTsk.o
 .debug_frame   0x00000968      0x39c build/default/production/_ext/93166211/TCP.o
 .debug_frame   0x00000d04       0xb0 build/default/production/_ext/93166211/Tick.o
 .debug_frame   0x00000db4      0x1a8 build/default/production/_ext/93166211/UDP.o
 .debug_frame   0x00000f5c       0x2c build/default/production/_ext/93166211/ZeroconfHelper.o
 .debug_frame   0x00000f88       0x9c build/default/production/_ext/93166211/ZeroconfLinkLocal.o
 .debug_frame   0x00001024      0x230 build/default/production/_ext/93166211/ZeroconfMulticastDNS.o
 .debug_frame   0x00001254       0xfc build/default/production/_ext/93166211/DHCP.o
 .debug_frame   0x00001350       0x70 build/default/production/_ext/93166211/DHCPs.o
 .debug_frame   0x000013c0       0xe8 build/default/production/_ext/388820833/WF_Eint.o
 .debug_frame   0x000014a8      0x150 build/default/production/_ext/388820833/WF_pbkdf2.o
 .debug_frame   0x000015f8      0x3b8 build/default/production/_ext/388820833/WFConnectionAlgorithm.o
 .debug_frame   0x000019b0       0xc8 build/default/production/_ext/388820833/WFConnectionManager.o
 .debug_frame   0x00001a78      0x27c build/default/production/_ext/388820833/WFConnectionProfile.o
 .debug_frame   0x00001cf4       0x30 build/default/production/_ext/388820833/WFConsoleMsgHandler.o
 .debug_frame   0x00001d24       0x40 build/default/production/_ext/388820833/WFConsoleMsgs.o
 .debug_frame   0x00001d64       0xb8 build/default/production/_ext/388820833/WFDebugStrings.o
 .debug_frame   0x00001e1c       0xb4 build/default/production/_ext/388820833/WFEasyConfig.o
 .debug_frame   0x00001ed0       0x2c build/default/production/_ext/388820833/WFEventHandler.o
 .debug_frame   0x00001efc       0x28 build/default/production/_ext/388820833/WFInit.o
 .debug_frame   0x00001f24      0x128 build/default/production/_ext/388820833/WFPowerSave.o
 .debug_frame   0x0000204c       0x40 build/default/production/_ext/388820833/WFScan.o
 .debug_frame   0x0000208c       0x58 build/default/production/_ext/388820833/WFTxPower.o
 .debug_frame   0x000020e4       0x60 build/default/production/_ext/388820833/WF_Spi.o
 .debug_frame   0x00002144      0x178 build/default/production/_ext/388820833/WFDriverCom_24G.o
 .debug_frame   0x000022bc      0x2b0 build/default/production/_ext/388820833/WFDriverRaw_24G.o
 .debug_frame   0x0000256c      0x2cc build/default/production/_ext/388820833/WFMac_24G.o
 .debug_frame   0x00002838       0x90 build/default/production/_ext/388820833/WFMgmtMsg_24G.o
 .debug_frame   0x000028c8      0x25c build/default/production/_ext/388820833/WFParamMsg_24G.o
 .debug_frame   0x00002b24       0xa4 build/default/production/_ext/1472/Main.o
 .debug_frame   0x00002bc8      0x2bc build/default/production/_ext/1472/CustomHTTPApp.o
 .debug_frame   0x00002e84       0x4c build/default/production/_ext/1472/WF_Config.o
 .debug_frame   0x00002ed0       0xd8 build/default/production/_ext/1472/i2c_master.o
 .debug_frame   0x00002fa8      0x394 build/default/production/_ext/1472/OpenADRClient.o
 .debug_frame   0x0000333c       0xe0 build/default/production/_ext/1472/INTiMain.o
 .debug_frame   0x0000341c       0x64 build/default/production/_ext/1472/UARTiMain.o
 .debug_frame   0x00003480      0x114 build/default/production/_ext/1472/TimeMonitor.o
 .debug_frame   0x00003594      0x150 build/default/production/_ext/1472/EPRI_UARTLayer.o
 .debug_frame   0x000036e4       0x38 build/default/production/_ext/1472/app_UCM.o
 .debug_frame   0x0000371c       0x50 build/default/production/_ext/1472/Assert.o
 .debug_frame   0x0000376c       0x70 build/default/production/_ext/1472/MCI_Common.o
 .debug_frame   0x000037dc       0xf0 build/default/production/_ext/1472/LinkLayerMessaging.o
 .debug_frame   0x000038cc      0x324 build/default/production/_ext/1472/BasicDR.o
 .debug_frame   0x00003bf0       0x48 build/default/production/_ext/1472/debugging.o
 .debug_frame   0x00003c38       0x28 build/default/production/_ext/1472/RESTAPI.o
 .debug_frame   0x00003c60       0x28 c:/program files (x86)/microchip/xc32/v1.40/bin/bin/../../lib/gcc/pic32mx/4.8.3/../../../../pic32mx/lib\libmchp_peripheral_32MX575F256L.a(soft_reset_lib.o)
 .debug_frame   0x00003c88       0x30 c:/program files (x86)/microchip/xc32/v1.40/bin/bin/../../lib/gcc/pic32mx/4.8.3/../../../../pic32mx/lib\libmchp_peripheral_32MX575F256L.a(pcache.o)
 .debug_frame   0x00003cb8       0x20 c:/program files (x86)/microchip/xc32/v1.40/bin/bin/../../lib/gcc/pic32mx/4.8.3/../../../../pic32mx/lib\libmchp_peripheral_32MX575F256L.a(int_disable_interrupts_lib.o)
 .debug_frame   0x00003cd8       0x20 c:/program files (x86)/microchip/xc32/v1.40/bin/bin/../../lib/gcc/pic32mx/4.8.3/../../../../pic32mx/lib\libmchp_peripheral_32MX575F256L.a(int_restore_interrupts_lib.o)
 .debug_frame   0x00003cf8       0x28 c:/program files (x86)/microchip/xc32/v1.40/bin/bin/../../lib/gcc/pic32mx/4.8.3/../../../../pic32mx/lib\libmchp_peripheral_32MX575F256L.a(int_enable_mv_int_lib.o)
 .debug_frame   0x00003d20       0xa0 c:/program files (x86)/microchip/xc32/v1.40/bin/bin/../../lib/gcc/pic32mx/4.8.3/../../../../pic32mx/lib\libmchp_peripheral_32MX575F256L.a(int_tbl_lib.o)
 .debug_frame   0x00003dc0       0x90 c:/program files (x86)/microchip/xc32/v1.40/bin/bin/../../lib/gcc/pic32mx/4.8.3/../../../../pic32mx/lib\libmchp_peripheral_32MX575F256L.a(uart_lib.o)
 .debug_frame   0x00003e50       0x30 c:/program files (x86)/microchip/xc32/v1.40/bin/bin/../../lib/gcc/pic32mx/4.8.3/../../../../pic32mx/lib\libmchp_peripheral_32MX575F256L.a(puts_uartx_lib_legacy.o)
 .debug_frame   0x00003e80       0x20 c:/program files (x86)/microchip/xc32/v1.40/bin/bin/../../lib/gcc/pic32mx/4.8.3/../../../../pic32mx/lib\libmchp_peripheral_32MX575F256L.a(idle_i2c2_lib_legacy.o)
 .debug_frame   0x00003ea0       0x20 c:/program files (x86)/microchip/xc32/v1.40/bin/bin/../../lib/gcc/pic32mx/4.8.3/../../../../pic32mx/lib\libmchp_peripheral_32MX575F256L.a(I2CBusIsIdle.o)
 .debug_frame   0x00003ec0       0x20 c:/program files (x86)/microchip/xc32/v1.40/bin/bin/../../lib/gcc/pic32mx/4.8.3/../../../../pic32mx/lib\libmchp_peripheral_32MX575F256L.a(I2CByteWasAcknowledged.o)
 .debug_frame   0x00003ee0       0x20 c:/program files (x86)/microchip/xc32/v1.40/bin/bin/../../lib/gcc/pic32mx/4.8.3/../../../../pic32mx/lib\libmchp_peripheral_32MX575F256L.a(I2CEnable.o)
 .debug_frame   0x00003f00       0x20 c:/program files (x86)/microchip/xc32/v1.40/bin/bin/../../lib/gcc/pic32mx/4.8.3/../../../../pic32mx/lib\libmchp_peripheral_32MX575F256L.a(I2CGetByte.o)
 .debug_frame   0x00003f20       0x20 c:/program files (x86)/microchip/xc32/v1.40/bin/bin/../../lib/gcc/pic32mx/4.8.3/../../../../pic32mx/lib\libmchp_peripheral_32MX575F256L.a(I2CGetStatus.o)
 .debug_frame   0x00003f40       0x20 c:/program files (x86)/microchip/xc32/v1.40/bin/bin/../../lib/gcc/pic32mx/4.8.3/../../../../pic32mx/lib\libmchp_peripheral_32MX575F256L.a(I2CReceivedDataIsAvailable.o)
 .debug_frame   0x00003f60       0x20 c:/program files (x86)/microchip/xc32/v1.40/bin/bin/../../lib/gcc/pic32mx/4.8.3/../../../../pic32mx/lib\libmchp_peripheral_32MX575F256L.a(I2CReceiverEnable.o)
 .debug_frame   0x00003f80       0x20 c:/program files (x86)/microchip/xc32/v1.40/bin/bin/../../lib/gcc/pic32mx/4.8.3/../../../../pic32mx/lib\libmchp_peripheral_32MX575F256L.a(I2CRepeatStart.o)
 .debug_frame   0x00003fa0       0x20 c:/program files (x86)/microchip/xc32/v1.40/bin/bin/../../lib/gcc/pic32mx/4.8.3/../../../../pic32mx/lib\libmchp_peripheral_32MX575F256L.a(I2CSetFrequency.o)
 .debug_frame   0x00003fc0       0x20 c:/program files (x86)/microchip/xc32/v1.40/bin/bin/../../lib/gcc/pic32mx/4.8.3/../../../../pic32mx/lib\libmchp_peripheral_32MX575F256L.a(I2CStart.o)
 .debug_frame   0x00003fe0       0x20 c:/program files (x86)/microchip/xc32/v1.40/bin/bin/../../lib/gcc/pic32mx/4.8.3/../../../../pic32mx/lib\libmchp_peripheral_32MX575F256L.a(I2CStop.o)
 .debug_frame   0x00004000       0x20 c:/program files (x86)/microchip/xc32/v1.40/bin/bin/../../lib/gcc/pic32mx/4.8.3/../../../../pic32mx/lib\libmchp_peripheral_32MX575F256L.a(I2CTransmissionHasCompleted.o)
 .debug_frame   0x00004020       0x20 c:/program files (x86)/microchip/xc32/v1.40/bin/bin/../../lib/gcc/pic32mx/4.8.3/../../../../pic32mx/lib\libmchp_peripheral_32MX575F256L.a(I2CTransmitterIsReady.o)
 .debug_frame   0x00004040       0x20 c:/program files (x86)/microchip/xc32/v1.40/bin/bin/../../lib/gcc/pic32mx/4.8.3/../../../../pic32mx/lib\libmchp_peripheral_32MX575F256L.a(int_enable_interrupts_lib.o)
 .debug_frame   0x00004060       0x20 c:/program files (x86)/microchip/xc32/v1.40/bin/bin/../../lib/gcc/pic32mx/4.8.3\libgcc.a(_udivdi3.o)
 .debug_frame   0x00004080       0x20 c:/program files (x86)/microchip/xc32/v1.40/bin/bin/../../lib/gcc/pic32mx/4.8.3\libgcc.a(_umoddi3.o)
 .debug_frame   0x000040a0       0x28 c:/program files (x86)/microchip/xc32/v1.40/bin/bin/../../lib/gcc/pic32mx/4.8.3\libgcc.a(floatunsisf.o)
 .debug_frame   0x000040c8       0x2c c:/program files (x86)/microchip/xc32/v1.40/bin/bin/../../lib/gcc/pic32mx/4.8.3/../../../../pic32mx/lib\libpic32.a(default-bootstrap-exception-handler.o)
 .debug_frame   0x000040f4       0x20 c:/program files (x86)/microchip/xc32/v1.40/bin/bin/../../lib/gcc/pic32mx/4.8.3/../../../../pic32mx/lib\libpic32.a(default-on-reset.o)
 .debug_frame   0x00004114       0x20 c:/program files (x86)/microchip/xc32/v1.40/bin/bin/../../lib/gcc/pic32mx/4.8.3/../../../../pic32mx/lib\libpic32.a(default-on-bootstrap.o)
 .debug_frame   0x00004134       0x20 c:/program files (x86)/microchip/xc32/v1.40/bin/bin/../../lib/gcc/pic32mx/4.8.3/../../../../pic32mx/lib\libpic32.a(defaultinterrupt.o)
 .debug_frame   0x00004154       0x28 c:/program files (x86)/microchip/xc32/v1.40/bin/bin/../../lib/gcc/pic32mx/4.8.3/../../../../pic32mx/lib\libm.a(w_sqrtf.o)
 .debug_frame   0x0000417c       0x20 c:/program files (x86)/microchip/xc32/v1.40/bin/bin/../../lib/gcc/pic32mx/4.8.3/../../../../pic32mx/lib\libc.a(atoi.o)
 .debug_frame   0x0000419c       0x20 c:/program files (x86)/microchip/xc32/v1.40/bin/bin/../../lib/gcc/pic32mx/4.8.3/../../../../pic32mx/lib\libc.a(atol.o)
 .debug_frame   0x000041bc       0x28 c:/program files (x86)/microchip/xc32/v1.40/bin/bin/../../lib/gcc/pic32mx/4.8.3/../../../../pic32mx/lib\libc.a(atoll.o)
 .debug_frame   0x000041e4       0x7c c:/program files (x86)/microchip/xc32/v1.40/bin/bin/../../lib/gcc/pic32mx/4.8.3/../../../../pic32mx/lib\libc.a(ctime.o)
 .debug_frame   0x00004260       0x20 c:/program files (x86)/microchip/xc32/v1.40/bin/bin/../../lib/gcc/pic32mx/4.8.3/../../../../pic32mx/lib\libc.a(mktime.o)
 .debug_frame   0x00004280       0x28 c:/program files (x86)/microchip/xc32/v1.40/bin/bin/../../lib/gcc/pic32mx/4.8.3/../../../../pic32mx/lib\libc.a(putchar.o)
 .debug_frame   0x000042a8       0x48 c:/program files (x86)/microchip/xc32/v1.40/bin/bin/../../lib/gcc/pic32mx/4.8.3/../../../../pic32mx/lib\libc.a(puts.o)
 .debug_frame   0x000042f0       0x20 c:/program files (x86)/microchip/xc32/v1.40/bin/bin/../../lib/gcc/pic32mx/4.8.3/../../../../pic32mx/lib\libc.a(strcat.o)
 .debug_frame   0x00004310       0x20 c:/program files (x86)/microchip/xc32/v1.40/bin/bin/../../lib/gcc/pic32mx/4.8.3/../../../../pic32mx/lib\libc.a(strchr.o)
 .debug_frame   0x00004330       0x20 c:/program files (x86)/microchip/xc32/v1.40/bin/bin/../../lib/gcc/pic32mx/4.8.3/../../../../pic32mx/lib\libc.a(strncmp.o)
 .debug_frame   0x00004350       0x20 c:/program files (x86)/microchip/xc32/v1.40/bin/bin/../../lib/gcc/pic32mx/4.8.3/../../../../pic32mx/lib\libc.a(strncpy.o)
 .debug_frame   0x00004370       0x2c c:/program files (x86)/microchip/xc32/v1.40/bin/bin/../../lib/gcc/pic32mx/4.8.3/../../../../pic32mx/lib\libc.a(strrchr.o)
 .debug_frame   0x0000439c       0x2c c:/program files (x86)/microchip/xc32/v1.40/bin/bin/../../lib/gcc/pic32mx/4.8.3/../../../../pic32mx/lib\libc.a(strstr.o)
 .debug_frame   0x000043c8       0x2c c:/program files (x86)/microchip/xc32/v1.40/bin/bin/../../lib/gcc/pic32mx/4.8.3/../../../../pic32mx/lib\libc.a(strtok.o)
 .debug_frame   0x000043f4       0x58 c:/program files (x86)/microchip/xc32/v1.40/bin/bin/../../lib/gcc/pic32mx/4.8.3/../../../../pic32mx/lib\libc.a(strtoll.o)
 .debug_frame   0x0000444c       0x28 c:/program files (x86)/microchip/xc32/v1.40/bin/bin/../../lib/gcc/pic32mx/4.8.3/../../../../pic32mx/lib\libc.a(atof.o)
 .debug_frame   0x00004474       0x28 c:/program files (x86)/microchip/xc32/v1.40/bin/bin/../../lib/gcc/pic32mx/4.8.3/../../../../pic32mx/lib\libc.a(printf_cdnopsuxX.eo)
 .debug_frame   0x0000449c       0x28 c:/program files (x86)/microchip/xc32/v1.40/bin/bin/../../lib/gcc/pic32mx/4.8.3/../../../../pic32mx/lib\libc.a(sprintf_cdnopsuxX.eo)
 .debug_frame   0x000044c4       0x28 c:/program files (x86)/microchip/xc32/v1.40/bin/bin/../../lib/gcc/pic32mx/4.8.3/../../../../pic32mx/lib\libc.a(sscanf_cdfFnopsuxX.eo)
 .debug_frame   0x000044ec       0x2c c:/program files (x86)/microchip/xc32/v1.40/bin/bin/../../lib/gcc/pic32mx/4.8.3/../../../../pic32mx/lib\libc.a(_fputc_simple.o)
 .debug_frame   0x00004518      0x120 c:/program files (x86)/microchip/xc32/v1.40/bin/bin/../../lib/gcc/pic32mx/4.8.3/../../../../pic32mx/lib\libc.a(ctypef.o)
 .debug_frame   0x00004638       0x2c c:/program files (x86)/microchip/xc32/v1.40/bin/bin/../../lib/gcc/pic32mx/4.8.3/../../../../pic32mx/lib\libc.a(strcspn.o)
 .debug_frame   0x00004664       0x2c c:/program files (x86)/microchip/xc32/v1.40/bin/bin/../../lib/gcc/pic32mx/4.8.3/../../../../pic32mx/lib\libc.a(strspn.o)
 .debug_frame   0x00004690       0x40 c:/program files (x86)/microchip/xc32/v1.40/bin/bin/../../lib/gcc/pic32mx/4.8.3/../../../../pic32mx/lib\libc.a(strtof.o)
 .debug_frame   0x000046d0       0x38 c:/program files (x86)/microchip/xc32/v1.40/bin/bin/../../lib/gcc/pic32mx/4.8.3/../../../../pic32mx/lib\libc.a(doprnt_cdnopsuxX.eo)
 .debug_frame   0x00004708       0x70 c:/program files (x86)/microchip/xc32/v1.40/bin/bin/../../lib/gcc/pic32mx/4.8.3/../../../../pic32mx/lib\libc.a(doscan_cdfFnopsuxX.eo)
 .debug_frame   0x00004778       0x6c c:/program files (x86)/microchip/xc32/v1.40/bin/bin/../../lib/gcc/pic32mx/4.8.3/../../../../pic32mx/lib\libc.a(doscan_cdnopsuxX.eo)
 .debug_frame   0x000047e4       0x6c c:/program files (x86)/microchip/xc32/v1.40/bin/bin/../../lib/gcc/pic32mx/4.8.3/../../../../pic32mx/lib\libc.a(doscan_cdnopuxX.eo)
 .debug_frame   0x00004850       0x28 c:/program files (x86)/microchip/xc32/v1.40/bin/bin/../../lib/gcc/pic32mx/4.8.3/../../../../pic32mx/lib\libc.a(_flsbuf_simple.o)
 .debug_frame   0x00004878       0x2c c:/program files (x86)/microchip/xc32/v1.40/bin/bin/../../lib/gcc/pic32mx/4.8.3/../../../../pic32mx/lib\libc.a(fgetc.o)
 .debug_frame   0x000048a4       0x40 c:/program files (x86)/microchip/xc32/v1.40/bin/bin/../../lib/gcc/pic32mx/4.8.3/../../../../pic32mx/lib\libc.a(strtod.o)
 .debug_frame   0x000048e4       0x20 c:/program files (x86)/microchip/xc32/v1.40/bin/bin/../../lib/gcc/pic32mx/4.8.3/../../../../pic32mx/lib\libc.a(ungetc.o)
 .debug_frame   0x00004904       0x30 c:/program files (x86)/microchip/xc32/v1.40/bin/bin/../../lib/gcc/pic32mx/4.8.3/../../../../pic32mx/lib\libc.a(filbuf.o)
 .debug_frame   0x00004934       0x28 c:/program files (x86)/microchip/xc32/v1.40/bin/bin/../../lib/gcc/pic32mx/4.8.3/../../../../pic32mx/lib\libc.a(fflush.o)
 .debug_frame   0x0000495c       0x2c c:/program files (x86)/microchip/xc32/v1.40/bin/bin/../../lib/gcc/pic32mx/4.8.3/../../../../pic32mx/lib\libpic32.a(read.o)
 .debug_frame   0x00004988       0x38 c:/program files (x86)/microchip/xc32/v1.40/bin/bin/../../lib/gcc/pic32mx/4.8.3/../../../../pic32mx/lib\libpic32.a(write.o)
 .debug_frame   0x000049c0       0x38 c:/program files (x86)/microchip/xc32/v1.40/bin/bin/../../lib/gcc/pic32mx/4.8.3/../../../../pic32mx/lib\libm.a(__strtod.o)
 .debug_frame   0x000049f8       0x38 c:/program files (x86)/microchip/xc32/v1.40/bin/bin/../../lib/gcc/pic32mx/4.8.3/../../../../pic32mx/lib\libm.a(__strtof.o)
 .debug_frame   0x00004a30       0x2c c:/program files (x86)/microchip/xc32/v1.40/bin/bin/../../lib/gcc/pic32mx/4.8.3/../../../../pic32mx/lib\libe.a(_ldexp.o)
 .debug_frame   0x00004a5c       0x20 c:/program files (x86)/microchip/xc32/v1.40/bin/bin/../../lib/gcc/pic32mx/4.8.3/../../../../pic32mx/lib\libe.a(_ldexpf.o)
 .debug_frame   0x00004a7c       0x20 c:/program files (x86)/microchip/xc32/v1.40/bin/bin/../../lib/gcc/pic32mx/4.8.3\libgcc.a(_lshrdi3.o)
 .debug_frame   0x00004a9c       0x20 c:/program files (x86)/microchip/xc32/v1.40/bin/bin/../../lib/gcc/pic32mx/4.8.3\libgcc.a(_ashldi3.o)

.debug_str      0x00000000      0x904
 *(.debug_str)
 .debug_str     0x00000000       0x14 build/default/production/_ext/93166211/Announce.o
 .debug_str     0x00000014        0x0 build/default/production/_ext/93166211/ARCFOUR.o
 .debug_str     0x00000014        0xe build/default/production/_ext/93166211/ARP.o
 .debug_str     0x00000022        0x0 build/default/production/_ext/93166211/AutoIP.o
 .debug_str     0x00000022        0x0 build/default/production/_ext/93166211/BerkeleyAPI.o
 .debug_str     0x00000022        0x0 build/default/production/_ext/93166211/BigInt.o
 .debug_str     0x00000022        0x0 build/default/production/_ext/93166211/Delay.o
 .debug_str     0x00000022        0x0 build/default/production/_ext/93166211/DNS.o
 .debug_str     0x00000022        0x0 build/default/production/_ext/93166211/DNSs.o
 .debug_str     0x00000022        0x0 build/default/production/_ext/93166211/DynDNS.o
 .debug_str     0x00000022        0x0 build/default/production/_ext/93166211/FileSystem.o
 .debug_str     0x00000022        0x0 build/default/production/_ext/93166211/FTP.o
 .debug_str     0x00000022        0x0 build/default/production/_ext/93166211/Hashes.o
 .debug_str     0x00000022        0x0 build/default/production/_ext/93166211/Helpers.o
 .debug_str     0x00000022       0x18 build/default/production/_ext/93166211/HTTP2.o
 .debug_str     0x0000003a        0x0 build/default/production/_ext/93166211/ICMP.o
 .debug_str     0x0000003a        0x9 build/default/production/_ext/93166211/IP.o
 .debug_str     0x00000043        0x0 build/default/production/_ext/93166211/LCDBlocking.o
 .debug_str     0x00000043       0x19 build/default/production/_ext/93166211/MPFS2.o
 .debug_str     0x0000005c        0xb build/default/production/_ext/93166211/NBNS.o
 .debug_str     0x00000067        0x0 build/default/production/_ext/93166211/Random.o
 .debug_str     0x00000067        0x0 build/default/production/_ext/93166211/Reboot.o
 .debug_str     0x00000067        0x0 build/default/production/_ext/93166211/RSA.o
 .debug_str     0x00000067        0x0 build/default/production/_ext/93166211/SMTP.o
 .debug_str     0x00000067        0x0 build/default/production/_ext/93166211/SNMP.o
 .debug_str     0x00000067        0x0 build/default/production/_ext/93166211/SNMPv3.o
 .debug_str     0x00000067        0x0 build/default/production/_ext/93166211/SNMPv3USM.o
 .debug_str     0x00000067        0x0 build/default/production/_ext/93166211/SNTP.o
 .debug_str     0x00000067        0x0 build/default/production/_ext/93166211/SPIEEPROM.o
 .debug_str     0x00000067       0x1d build/default/production/_ext/93166211/SPIFlash.o
 .debug_str     0x00000084        0x0 build/default/production/_ext/93166211/SPIRAM.o
 .debug_str     0x00000084        0x0 build/default/production/_ext/93166211/SSL.o
 .debug_str     0x00000084        0x0 build/default/production/_ext/93166211/StackTsk.o
 .debug_str     0x00000084       0xac build/default/production/_ext/93166211/TCP.o
 .debug_str     0x00000130        0x0 build/default/production/_ext/93166211/TCPPerformanceTest.o
 .debug_str     0x00000130        0x0 build/default/production/_ext/93166211/Telnet.o
 .debug_str     0x00000130        0x0 build/default/production/_ext/93166211/TFTPc.o
 .debug_str     0x00000130        0x0 build/default/production/_ext/93166211/Tick.o
 .debug_str     0x00000130        0x0 build/default/production/_ext/93166211/UART2TCPBridge.o
 .debug_str     0x00000130       0x34 build/default/production/_ext/93166211/UDP.o
 .debug_str     0x00000164        0x0 build/default/production/_ext/93166211/UDPPerformanceTest.o
 .debug_str     0x00000164        0x0 build/default/production/_ext/93166211/ZeroconfHelper.o
 .debug_str     0x00000164       0x26 build/default/production/_ext/93166211/ZeroconfLinkLocal.o
 .debug_str     0x0000018a       0x7b build/default/production/_ext/93166211/ZeroconfMulticastDNS.o
 .debug_str     0x00000205        0xb build/default/production/_ext/93166211/DHCP.o
 .debug_str     0x00000210       0x11 build/default/production/_ext/93166211/DHCPs.o
 .debug_str     0x00000221        0x0 build/default/production/_ext/388820833/WF_Eint.o
 .debug_str     0x00000221       0x52 build/default/production/_ext/388820833/WF_pbkdf2.o
 .debug_str     0x00000273       0xfe build/default/production/_ext/388820833/WFConnectionAlgorithm.o
 .debug_str     0x00000371       0x15 build/default/production/_ext/388820833/WFConnectionManager.o
 .debug_str     0x00000386       0xa6 build/default/production/_ext/388820833/WFConnectionProfile.o
 .debug_str     0x0000042c        0x0 build/default/production/_ext/388820833/WFConsole.o
 .debug_str     0x0000042c        0x0 build/default/production/_ext/388820833/WFConsoleIfconfig.o
 .debug_str     0x0000042c        0x0 build/default/production/_ext/388820833/WFConsoleIwconfig.o
 .debug_str     0x0000042c        0x0 build/default/production/_ext/388820833/WFConsoleIwpriv.o
 .debug_str     0x0000042c        0x0 build/default/production/_ext/388820833/WFConsoleMsgHandler.o
 .debug_str     0x0000042c        0x0 build/default/production/_ext/388820833/WFConsoleMsgs.o
 .debug_str     0x0000042c        0x0 build/default/production/_ext/388820833/WFDataTxRx.o
 .debug_str     0x0000042c        0xa build/default/production/_ext/388820833/WFDebugStrings.o
 .debug_str     0x00000436        0x0 build/default/production/_ext/388820833/WFEasyConfig.o
 .debug_str     0x00000436        0xb build/default/production/_ext/388820833/WFEventHandler.o
 .debug_str     0x00000441        0x0 build/default/production/_ext/388820833/WFInit.o
 .debug_str     0x00000441        0xb build/default/production/_ext/388820833/WFPowerSave.o
 .debug_str     0x0000044c        0x0 build/default/production/_ext/388820833/WFScan.o
 .debug_str     0x0000044c        0x8 build/default/production/_ext/388820833/WFTxPower.o
 .debug_str     0x00000454        0x0 build/default/production/_ext/388820833/WF_Spi.o
 .debug_str     0x00000454        0xc build/default/production/_ext/388820833/WFDriverCom_24G.o
 .debug_str     0x00000460       0x65 build/default/production/_ext/388820833/WFDriverRaw_24G.o
 .debug_str     0x000004c5        0x7 build/default/production/_ext/388820833/WFMac_24G.o
 .debug_str     0x000004cc       0x10 build/default/production/_ext/388820833/WFMgmtMsg_24G.o
 .debug_str     0x000004dc       0x43 build/default/production/_ext/388820833/WFParamMsg_24G.o
 .debug_str     0x0000051f       0x3e build/default/production/_ext/1472/Main.o
 .debug_str     0x0000055d       0xce build/default/production/_ext/1472/CustomHTTPApp.o
 .debug_str     0x0000062b        0x0 build/default/production/_ext/1472/WF_Config.o
 .debug_str     0x0000062b        0x0 build/default/production/_ext/1472/WifiGDemoMPFSImg.o
 .debug_str     0x0000062b       0x3c build/default/production/_ext/1472/i2c_master.o
 .debug_str     0x00000667       0xa0 build/default/production/_ext/1472/OpenADRClient.o
 .debug_str     0x00000707       0x10 build/default/production/_ext/1472/INTiMain.o
 .debug_str     0x00000717        0x6 build/default/production/_ext/1472/UARTiMain.o
 .debug_str     0x0000071d       0x11 build/default/production/_ext/1472/TimeMonitor.o
 .debug_str     0x0000072e       0x74 build/default/production/_ext/1472/EPRI_UARTLayer.o
 .debug_str     0x000007a2        0x0 build/default/production/_ext/1472/app_UCM.o
 .debug_str     0x000007a2        0x0 build/default/production/_ext/1472/Assert.o
 .debug_str     0x000007a2        0x0 build/default/production/_ext/1472/EPRI_SPILayer.o
 .debug_str     0x000007a2       0x10 build/default/production/_ext/1472/MCI_Common.o
 .debug_str     0x000007b2       0x1c build/default/production/_ext/1472/LinkLayerMessaging.o
 .debug_str     0x000007ce      0x116 build/default/production/_ext/1472/BasicDR.o
 .debug_str     0x000008e4        0xe build/default/production/_ext/1472/debugging.o
 .debug_str     0x000008f2        0x0 build/default/production/_ext/1472/RESTAPI.o
 .debug_str     0x000008f2        0x0 c:/program files (x86)/microchip/xc32/v1.40/bin/bin/../../lib/gcc/pic32mx/4.8.3/../../../../pic32mx/lib\libmchp_peripheral_32MX575F256L.a(soft_reset_lib.o)
 .debug_str     0x000008f2        0x0 c:/program files (x86)/microchip/xc32/v1.40/bin/bin/../../lib/gcc/pic32mx/4.8.3/../../../../pic32mx/lib\libmchp_peripheral_32MX575F256L.a(pcache.o)
 .debug_str     0x000008f2        0x0 c:/program files (x86)/microchip/xc32/v1.40/bin/bin/../../lib/gcc/pic32mx/4.8.3/../../../../pic32mx/lib\libmchp_peripheral_32MX575F256L.a(int_disable_interrupts_lib.o)
 .debug_str     0x000008f2        0x0 c:/program files (x86)/microchip/xc32/v1.40/bin/bin/../../lib/gcc/pic32mx/4.8.3/../../../../pic32mx/lib\libmchp_peripheral_32MX575F256L.a(int_restore_interrupts_lib.o)
 .debug_str     0x000008f2        0x0 c:/program files (x86)/microchip/xc32/v1.40/bin/bin/../../lib/gcc/pic32mx/4.8.3/../../../../pic32mx/lib\libmchp_peripheral_32MX575F256L.a(int_enable_mv_int_lib.o)
 .debug_str     0x000008f2        0x0 c:/program files (x86)/microchip/xc32/v1.40/bin/bin/../../lib/gcc/pic32mx/4.8.3/../../../../pic32mx/lib\libmchp_peripheral_32MX575F256L.a(int_tbl_lib.o)
 .debug_str     0x000008f2        0x0 c:/program files (x86)/microchip/xc32/v1.40/bin/bin/../../lib/gcc/pic32mx/4.8.3/../../../../pic32mx/lib\libmchp_peripheral_32MX575F256L.a(uart_lib.o)
 .debug_str     0x000008f2        0x0 c:/program files (x86)/microchip/xc32/v1.40/bin/bin/../../lib/gcc/pic32mx/4.8.3/../../../../pic32mx/lib\libmchp_peripheral_32MX575F256L.a(puts_uartx_lib_legacy.o)
 .debug_str     0x000008f2        0x0 c:/program files (x86)/microchip/xc32/v1.40/bin/bin/../../lib/gcc/pic32mx/4.8.3/../../../../pic32mx/lib\libmchp_peripheral_32MX575F256L.a(idle_i2c2_lib_legacy.o)
 .debug_str     0x000008f2        0x0 c:/program files (x86)/microchip/xc32/v1.40/bin/bin/../../lib/gcc/pic32mx/4.8.3/../../../../pic32mx/lib\libmchp_peripheral_32MX575F256L.a(I2CPrivate.o)
 .debug_str     0x000008f2        0x0 c:/program files (x86)/microchip/xc32/v1.40/bin/bin/../../lib/gcc/pic32mx/4.8.3/../../../../pic32mx/lib\libmchp_peripheral_32MX575F256L.a(I2CBusIsIdle.o)
 .debug_str     0x000008f2        0x0 c:/program files (x86)/microchip/xc32/v1.40/bin/bin/../../lib/gcc/pic32mx/4.8.3/../../../../pic32mx/lib\libmchp_peripheral_32MX575F256L.a(I2CByteWasAcknowledged.o)
 .debug_str     0x000008f2        0x0 c:/program files (x86)/microchip/xc32/v1.40/bin/bin/../../lib/gcc/pic32mx/4.8.3/../../../../pic32mx/lib\libmchp_peripheral_32MX575F256L.a(I2CEnable.o)
 .debug_str     0x000008f2        0x0 c:/program files (x86)/microchip/xc32/v1.40/bin/bin/../../lib/gcc/pic32mx/4.8.3/../../../../pic32mx/lib\libmchp_peripheral_32MX575F256L.a(I2CGetByte.o)
 .debug_str     0x000008f2        0x0 c:/program files (x86)/microchip/xc32/v1.40/bin/bin/../../lib/gcc/pic32mx/4.8.3/../../../../pic32mx/lib\libmchp_peripheral_32MX575F256L.a(I2CGetStatus.o)
 .debug_str     0x000008f2        0x0 c:/program files (x86)/microchip/xc32/v1.40/bin/bin/../../lib/gcc/pic32mx/4.8.3/../../../../pic32mx/lib\libmchp_peripheral_32MX575F256L.a(I2CReceivedDataIsAvailable.o)
 .debug_str     0x000008f2        0x0 c:/program files (x86)/microchip/xc32/v1.40/bin/bin/../../lib/gcc/pic32mx/4.8.3/../../../../pic32mx/lib\libmchp_peripheral_32MX575F256L.a(I2CReceiverEnable.o)
 .debug_str     0x000008f2        0x0 c:/program files (x86)/microchip/xc32/v1.40/bin/bin/../../lib/gcc/pic32mx/4.8.3/../../../../pic32mx/lib\libmchp_peripheral_32MX575F256L.a(I2CRepeatStart.o)
 .debug_str     0x000008f2        0x0 c:/program files (x86)/microchip/xc32/v1.40/bin/bin/../../lib/gcc/pic32mx/4.8.3/../../../../pic32mx/lib\libmchp_peripheral_32MX575F256L.a(I2CSetFrequency.o)
 .debug_str     0x000008f2        0x0 c:/program files (x86)/microchip/xc32/v1.40/bin/bin/../../lib/gcc/pic32mx/4.8.3/../../../../pic32mx/lib\libmchp_peripheral_32MX575F256L.a(I2CStart.o)
 .debug_str     0x000008f2        0x0 c:/program files (x86)/microchip/xc32/v1.40/bin/bin/../../lib/gcc/pic32mx/4.8.3/../../../../pic32mx/lib\libmchp_peripheral_32MX575F256L.a(I2CStop.o)
 .debug_str     0x000008f2        0x0 c:/program files (x86)/microchip/xc32/v1.40/bin/bin/../../lib/gcc/pic32mx/4.8.3/../../../../pic32mx/lib\libmchp_peripheral_32MX575F256L.a(I2CTransmissionHasCompleted.o)
 .debug_str     0x000008f2        0x0 c:/program files (x86)/microchip/xc32/v1.40/bin/bin/../../lib/gcc/pic32mx/4.8.3/../../../../pic32mx/lib\libmchp_peripheral_32MX575F256L.a(I2CTransmitterIsReady.o)
 .debug_str     0x000008f2        0x0 c:/program files (x86)/microchip/xc32/v1.40/bin/bin/../../lib/gcc/pic32mx/4.8.3/../../../../pic32mx/lib\libmchp_peripheral_32MX575F256L.a(int_enable_interrupts_lib.o)
 .debug_str     0x000008f2        0x0 c:/program files (x86)/microchip/xc32/v1.40/bin/bin/../../lib/gcc/pic32mx/4.8.3\libgcc.a(_udivdi3.o)
 .debug_str     0x000008f2        0x0 c:/program files (x86)/microchip/xc32/v1.40/bin/bin/../../lib/gcc/pic32mx/4.8.3\libgcc.a(_umoddi3.o)
 .debug_str     0x000008f2        0x0 c:/program files (x86)/microchip/xc32/v1.40/bin/bin/../../lib/gcc/pic32mx/4.8.3\libgcc.a(floatunsisf.o)
 .debug_str     0x000008f2        0x0 c:/program files (x86)/microchip/xc32/v1.40/bin/bin/../../lib/gcc/pic32mx/4.8.3/../../../../pic32mx/lib\libpic32.a(default-bootstrap-exception-handler.o)
 .debug_str     0x000008f2        0x0 c:/program files (x86)/microchip/xc32/v1.40/bin/bin/../../lib/gcc/pic32mx/4.8.3/../../../../pic32mx/lib\libpic32.a(default-on-reset.o)
 .debug_str     0x000008f2        0x0 c:/program files (x86)/microchip/xc32/v1.40/bin/bin/../../lib/gcc/pic32mx/4.8.3/../../../../pic32mx/lib\libpic32.a(default-on-bootstrap.o)
 .debug_str     0x000008f2        0x0 c:/program files (x86)/microchip/xc32/v1.40/bin/bin/../../lib/gcc/pic32mx/4.8.3/../../../../pic32mx/lib\libpic32.a(defaultinterrupt.o)
 .debug_str     0x000008f2        0x0 c:/program files (x86)/microchip/xc32/v1.40/bin/bin/../../lib/gcc/pic32mx/4.8.3/../../../../pic32mx/lib\libm.a(w_sqrtf.o)
 .debug_str     0x000008f2        0x0 c:/program files (x86)/microchip/xc32/v1.40/bin/bin/../../lib/gcc/pic32mx/4.8.3/../../../../pic32mx/lib\libm.a(s_lib_ver.o)
 .debug_str     0x000008f2        0x0 c:/program files (x86)/microchip/xc32/v1.40/bin/bin/../../lib/gcc/pic32mx/4.8.3/../../../../pic32mx/lib\libc.a(atoi.o)
 .debug_str     0x000008f2        0x0 c:/program files (x86)/microchip/xc32/v1.40/bin/bin/../../lib/gcc/pic32mx/4.8.3/../../../../pic32mx/lib\libc.a(atol.o)
 .debug_str     0x000008f2        0x0 c:/program files (x86)/microchip/xc32/v1.40/bin/bin/../../lib/gcc/pic32mx/4.8.3/../../../../pic32mx/lib\libc.a(atoll.o)
 .debug_str     0x000008f2        0x0 c:/program files (x86)/microchip/xc32/v1.40/bin/bin/../../lib/gcc/pic32mx/4.8.3/../../../../pic32mx/lib\libc.a(ctime.o)
 .debug_str     0x000008f2        0x0 c:/program files (x86)/microchip/xc32/v1.40/bin/bin/../../lib/gcc/pic32mx/4.8.3/../../../../pic32mx/lib\libc.a(ctype.o)
 .debug_str     0x000008f2        0x0 c:/program files (x86)/microchip/xc32/v1.40/bin/bin/../../lib/gcc/pic32mx/4.8.3/../../../../pic32mx/lib\libc.a(errno.o)
 .debug_str     0x000008f2        0x0 c:/program files (x86)/microchip/xc32/v1.40/bin/bin/../../lib/gcc/pic32mx/4.8.3/../../../../pic32mx/lib\libc.a(mktime.o)
 .debug_str     0x000008f2        0x0 c:/program files (x86)/microchip/xc32/v1.40/bin/bin/../../lib/gcc/pic32mx/4.8.3/../../../../pic32mx/lib\libc.a(putchar.o)
 .debug_str     0x000008f2        0x0 c:/program files (x86)/microchip/xc32/v1.40/bin/bin/../../lib/gcc/pic32mx/4.8.3/../../../../pic32mx/lib\libc.a(puts.o)
 .debug_str     0x000008f2        0x0 c:/program files (x86)/microchip/xc32/v1.40/bin/bin/../../lib/gcc/pic32mx/4.8.3/../../../../pic32mx/lib\libc.a(strcat.o)
 .debug_str     0x000008f2        0x0 c:/program files (x86)/microchip/xc32/v1.40/bin/bin/../../lib/gcc/pic32mx/4.8.3/../../../../pic32mx/lib\libc.a(strchr.o)
 .debug_str     0x000008f2        0x0 c:/program files (x86)/microchip/xc32/v1.40/bin/bin/../../lib/gcc/pic32mx/4.8.3/../../../../pic32mx/lib\libc.a(strncmp.o)
 .debug_str     0x000008f2        0x0 c:/program files (x86)/microchip/xc32/v1.40/bin/bin/../../lib/gcc/pic32mx/4.8.3/../../../../pic32mx/lib\libc.a(strncpy.o)
 .debug_str     0x000008f2        0x0 c:/program files (x86)/microchip/xc32/v1.40/bin/bin/../../lib/gcc/pic32mx/4.8.3/../../../../pic32mx/lib\libc.a(strrchr.o)
 .debug_str     0x000008f2        0x0 c:/program files (x86)/microchip/xc32/v1.40/bin/bin/../../lib/gcc/pic32mx/4.8.3/../../../../pic32mx/lib\libc.a(strstr.o)
 .debug_str     0x000008f2        0x0 c:/program files (x86)/microchip/xc32/v1.40/bin/bin/../../lib/gcc/pic32mx/4.8.3/../../../../pic32mx/lib\libc.a(strtok.o)
 .debug_str     0x000008f2        0x0 c:/program files (x86)/microchip/xc32/v1.40/bin/bin/../../lib/gcc/pic32mx/4.8.3/../../../../pic32mx/lib\libc.a(strtoll.o)
 .debug_str     0x000008f2        0x0 c:/program files (x86)/microchip/xc32/v1.40/bin/bin/../../lib/gcc/pic32mx/4.8.3/../../../../pic32mx/lib\libc.a(atof.o)
 .debug_str     0x000008f2        0x0 c:/program files (x86)/microchip/xc32/v1.40/bin/bin/../../lib/gcc/pic32mx/4.8.3/../../../../pic32mx/lib\libc.a(printf_cdnopsuxX.eo)
 .debug_str     0x000008f2        0x0 c:/program files (x86)/microchip/xc32/v1.40/bin/bin/../../lib/gcc/pic32mx/4.8.3/../../../../pic32mx/lib\libc.a(sprintf_cdnopsuxX.eo)
 .debug_str     0x000008f2        0x0 c:/program files (x86)/microchip/xc32/v1.40/bin/bin/../../lib/gcc/pic32mx/4.8.3/../../../../pic32mx/lib\libc.a(sscanf_cdfFnopsuxX.eo)
 .debug_str     0x000008f2        0x0 c:/program files (x86)/microchip/xc32/v1.40/bin/bin/../../lib/gcc/pic32mx/4.8.3/../../../../pic32mx/lib\libc.a(_iob.o)
 .debug_str     0x000008f2        0x0 c:/program files (x86)/microchip/xc32/v1.40/bin/bin/../../lib/gcc/pic32mx/4.8.3/../../../../pic32mx/lib\libc.a(_fputc_simple.o)
 .debug_str     0x000008f2        0x0 c:/program files (x86)/microchip/xc32/v1.40/bin/bin/../../lib/gcc/pic32mx/4.8.3/../../../../pic32mx/lib\libc.a(ctypef.o)
 .debug_str     0x000008f2        0x0 c:/program files (x86)/microchip/xc32/v1.40/bin/bin/../../lib/gcc/pic32mx/4.8.3/../../../../pic32mx/lib\libc.a(strcspn.o)
 .debug_str     0x000008f2        0x0 c:/program files (x86)/microchip/xc32/v1.40/bin/bin/../../lib/gcc/pic32mx/4.8.3/../../../../pic32mx/lib\libc.a(strspn.o)
 .debug_str     0x000008f2        0x9 c:/program files (x86)/microchip/xc32/v1.40/bin/bin/../../lib/gcc/pic32mx/4.8.3/../../../../pic32mx/lib\libc.a(strtof.o)
 .debug_str     0x000008fb        0x0 c:/program files (x86)/microchip/xc32/v1.40/bin/bin/../../lib/gcc/pic32mx/4.8.3/../../../../pic32mx/lib\libc.a(doprnt_cdnopsuxX.eo)
 .debug_str     0x000008fb        0x0 c:/program files (x86)/microchip/xc32/v1.40/bin/bin/../../lib/gcc/pic32mx/4.8.3/../../../../pic32mx/lib\libc.a(doscan_cdfFnopsuxX.eo)
 .debug_str     0x000008fb        0x0 c:/program files (x86)/microchip/xc32/v1.40/bin/bin/../../lib/gcc/pic32mx/4.8.3/../../../../pic32mx/lib\libc.a(doscan_cdnopsuxX.eo)
 .debug_str     0x000008fb        0x0 c:/program files (x86)/microchip/xc32/v1.40/bin/bin/../../lib/gcc/pic32mx/4.8.3/../../../../pic32mx/lib\libc.a(doscan_cdnopuxX.eo)
 .debug_str     0x000008fb        0x0 c:/program files (x86)/microchip/xc32/v1.40/bin/bin/../../lib/gcc/pic32mx/4.8.3/../../../../pic32mx/lib\libc.a(_flsbuf_simple.o)
 .debug_str     0x000008fb        0x0 c:/program files (x86)/microchip/xc32/v1.40/bin/bin/../../lib/gcc/pic32mx/4.8.3/../../../../pic32mx/lib\libc.a(fgetc.o)
 .debug_str     0x000008fb        0x9 c:/program files (x86)/microchip/xc32/v1.40/bin/bin/../../lib/gcc/pic32mx/4.8.3/../../../../pic32mx/lib\libc.a(strtod.o)
 .debug_str     0x00000904        0x0 c:/program files (x86)/microchip/xc32/v1.40/bin/bin/../../lib/gcc/pic32mx/4.8.3/../../../../pic32mx/lib\libc.a(ungetc.o)
 .debug_str     0x00000904        0x0 c:/program files (x86)/microchip/xc32/v1.40/bin/bin/../../lib/gcc/pic32mx/4.8.3/../../../../pic32mx/lib\libc.a(filbuf.o)
 .debug_str     0x00000904        0x0 c:/program files (x86)/microchip/xc32/v1.40/bin/bin/../../lib/gcc/pic32mx/4.8.3/../../../../pic32mx/lib\libc.a(fflush.o)
 .debug_str     0x00000904        0x0 c:/program files (x86)/microchip/xc32/v1.40/bin/bin/../../lib/gcc/pic32mx/4.8.3/../../../../pic32mx/lib\libpic32.a(read.o)
 .debug_str     0x00000904        0x0 c:/program files (x86)/microchip/xc32/v1.40/bin/bin/../../lib/gcc/pic32mx/4.8.3/../../../../pic32mx/lib\libpic32.a(write.o)
 .debug_str     0x00000904        0x0 c:/program files (x86)/microchip/xc32/v1.40/bin/bin/../../lib/gcc/pic32mx/4.8.3/../../../../pic32mx/lib\libpic32.a(xc32_uart.o)
 .debug_str     0x00000904        0x0 c:/program files (x86)/microchip/xc32/v1.40/bin/bin/../../lib/gcc/pic32mx/4.8.3/../../../../pic32mx/lib\libm.a(__strtod.o)
 .debug_str     0x00000904        0x0 c:/program files (x86)/microchip/xc32/v1.40/bin/bin/../../lib/gcc/pic32mx/4.8.3/../../../../pic32mx/lib\libm.a(__strtof.o)
 .debug_str     0x00000904        0x0 c:/program files (x86)/microchip/xc32/v1.40/bin/bin/../../lib/gcc/pic32mx/4.8.3/../../../../pic32mx/lib\libe.a(_ldexp.o)
 .debug_str     0x00000904        0x0 c:/program files (x86)/microchip/xc32/v1.40/bin/bin/../../lib/gcc/pic32mx/4.8.3/../../../../pic32mx/lib\libe.a(_ldexpf.o)
 .debug_str     0x00000904        0x0 c:/program files (x86)/microchip/xc32/v1.40/bin/bin/../../lib/gcc/pic32mx/4.8.3\libgcc.a(_lshrdi3.o)
 .debug_str     0x00000904        0x0 c:/program files (x86)/microchip/xc32/v1.40/bin/bin/../../lib/gcc/pic32mx/4.8.3\libgcc.a(_ashldi3.o)

.debug_loc      0x00000000    0x10929
 *(.debug_loc)
 .debug_loc     0x00000000       0x49 build/default/production/_ext/93166211/Announce.o
 .debug_loc     0x00000049      0x1e2 build/default/production/_ext/93166211/ARP.o
 .debug_loc     0x0000022b       0x93 build/default/production/_ext/93166211/Delay.o
 .debug_loc     0x000002be      0x1b8 build/default/production/_ext/93166211/DNS.o
 .debug_loc     0x00000476      0x1d4 build/default/production/_ext/93166211/DNSs.o
 .debug_loc     0x0000064a      0xab8 build/default/production/_ext/93166211/Helpers.o
 .debug_loc     0x00001102      0xab5 build/default/production/_ext/93166211/HTTP2.o
 .debug_loc     0x00001bb7       0x58 build/default/production/_ext/93166211/ICMP.o
 .debug_loc     0x00001c0f      0x1dc build/default/production/_ext/93166211/IP.o
 .debug_loc     0x00001deb      0x5fc build/default/production/_ext/93166211/MPFS2.o
 .debug_loc     0x000023e7       0x71 build/default/production/_ext/93166211/NBNS.o
 .debug_loc     0x00002458      0x2a5 build/default/production/_ext/93166211/SPIFlash.o
 .debug_loc     0x000026fd     0x1d78 build/default/production/_ext/93166211/TCP.o
 .debug_loc     0x00004475       0x2c build/default/production/_ext/93166211/Tick.o
 .debug_loc     0x000044a1      0x5a3 build/default/production/_ext/93166211/UDP.o
 .debug_loc     0x00004a44       0xc9 build/default/production/_ext/93166211/ZeroconfHelper.o
 .debug_loc     0x00004b0d      0x251 build/default/production/_ext/93166211/ZeroconfLinkLocal.o
 .debug_loc     0x00004d5e     0x164c build/default/production/_ext/93166211/ZeroconfMulticastDNS.o
 .debug_loc     0x000063aa      0x232 build/default/production/_ext/93166211/DHCP.o
 .debug_loc     0x000065dc      0x6ce build/default/production/_ext/93166211/DHCPs.o
 .debug_loc     0x00006caa     0x1522 build/default/production/_ext/388820833/WF_pbkdf2.o
 .debug_loc     0x000081cc      0x7f4 build/default/production/_ext/388820833/WFConnectionAlgorithm.o
 .debug_loc     0x000089c0      0x1d6 build/default/production/_ext/388820833/WFConnectionManager.o
 .debug_loc     0x00008b96      0xa43 build/default/production/_ext/388820833/WFConnectionProfile.o
 .debug_loc     0x000095d9      0x10f build/default/production/_ext/388820833/WFConsoleMsgHandler.o
 .debug_loc     0x000096e8       0xf4 build/default/production/_ext/388820833/WFConsoleMsgs.o
 .debug_loc     0x000097dc      0x4cb build/default/production/_ext/388820833/WFDebugStrings.o
 .debug_loc     0x00009ca7      0x101 build/default/production/_ext/388820833/WFEasyConfig.o
 .debug_loc     0x00009da8      0x1d5 build/default/production/_ext/388820833/WFEventHandler.o
 .debug_loc     0x00009f7d       0xdc build/default/production/_ext/388820833/WFPowerSave.o
 .debug_loc     0x0000a059       0x85 build/default/production/_ext/388820833/WFScan.o
 .debug_loc     0x0000a0de       0xa9 build/default/production/_ext/388820833/WFTxPower.o
 .debug_loc     0x0000a187      0x11a build/default/production/_ext/388820833/WF_Spi.o
 .debug_loc     0x0000a2a1      0x485 build/default/production/_ext/388820833/WFDriverCom_24G.o
 .debug_loc     0x0000a726      0x885 build/default/production/_ext/388820833/WFMac_24G.o
 .debug_loc     0x0000afab      0x1f7 build/default/production/_ext/388820833/WFMgmtMsg_24G.o
 .debug_loc     0x0000b1a2      0x5c3 build/default/production/_ext/388820833/WFParamMsg_24G.o
 .debug_loc     0x0000b765      0x237 build/default/production/_ext/1472/Main.o
 .debug_loc     0x0000b99c      0x8b6 build/default/production/_ext/1472/CustomHTTPApp.o
 .debug_loc     0x0000c252      0x122 build/default/production/_ext/1472/WF_Config.o
 .debug_loc     0x0000c374      0x522 build/default/production/_ext/1472/i2c_master.o
 .debug_loc     0x0000c896     0x10ae build/default/production/_ext/1472/OpenADRClient.o
 .debug_loc     0x0000d944       0x2c build/default/production/_ext/1472/INTiMain.o
 .debug_loc     0x0000d970      0x1d8 build/default/production/_ext/1472/UARTiMain.o
 .debug_loc     0x0000db48      0x555 build/default/production/_ext/1472/EPRI_UARTLayer.o
 .debug_loc     0x0000e09d      0x177 build/default/production/_ext/1472/Assert.o
 .debug_loc     0x0000e214       0xbf build/default/production/_ext/1472/MCI_Common.o
 .debug_loc     0x0000e2d3      0x150 build/default/production/_ext/1472/LinkLayerMessaging.o
 .debug_loc     0x0000e423      0xd8c build/default/production/_ext/1472/BasicDR.o
 .debug_loc     0x0000f1af       0xcb build/default/production/_ext/1472/debugging.o
 .debug_loc     0x0000f27a       0x57 build/default/production/_ext/1472/RESTAPI.o
 .debug_loc     0x0000f2d1      0xa6a c:/program files (x86)/microchip/xc32/v1.40/bin/bin/../../lib/gcc/pic32mx/4.8.3\libgcc.a(_udivdi3.o)
 .debug_loc     0x0000fd3b      0xa3d c:/program files (x86)/microchip/xc32/v1.40/bin/bin/../../lib/gcc/pic32mx/4.8.3\libgcc.a(_umoddi3.o)
 .debug_loc     0x00010778       0x74 c:/program files (x86)/microchip/xc32/v1.40/bin/bin/../../lib/gcc/pic32mx/4.8.3\libgcc.a(floatunsisf.o)
 .debug_loc     0x000107ec       0xbb c:/program files (x86)/microchip/xc32/v1.40/bin/bin/../../lib/gcc/pic32mx/4.8.3\libgcc.a(_lshrdi3.o)
 .debug_loc     0x000108a7       0x82 c:/program files (x86)/microchip/xc32/v1.40/bin/bin/../../lib/gcc/pic32mx/4.8.3\libgcc.a(_ashldi3.o)

.debug_macinfo
 *(.debug_macinfo)

.debug_weaknames
 *(.debug_weaknames)

.debug_funcnames
 *(.debug_funcnames)

.debug_typenames
 *(.debug_typenames)

.debug_varnames
 *(.debug_varnames)

.debug_pubtypes
 *(.debug_pubtypes)

.debug_ranges   0x00000000     0x1360
 *(.debug_ranges)
 .debug_ranges  0x00000000       0x50 build/default/production/_ext/93166211/DNSs.o
 .debug_ranges  0x00000050      0x148 build/default/production/_ext/93166211/HTTP2.o
 .debug_ranges  0x00000198       0x18 build/default/production/_ext/93166211/MPFS2.o
 .debug_ranges  0x000001b0       0x30 build/default/production/_ext/93166211/NBNS.o
 .debug_ranges  0x000001e0       0x60 build/default/production/_ext/93166211/SPIFlash.o
 .debug_ranges  0x00000240      0x128 build/default/production/_ext/93166211/TCP.o
 .debug_ranges  0x00000368       0x18 build/default/production/_ext/93166211/Tick.o
 .debug_ranges  0x00000380       0x18 build/default/production/_ext/93166211/UDP.o
 .debug_ranges  0x00000398       0xf8 build/default/production/_ext/93166211/ZeroconfMulticastDNS.o
 .debug_ranges  0x00000490      0x1e8 build/default/production/_ext/93166211/DHCPs.o
 .debug_ranges  0x00000678       0x60 build/default/production/_ext/388820833/WF_pbkdf2.o
 .debug_ranges  0x000006d8       0x70 build/default/production/_ext/388820833/WFDebugStrings.o
 .debug_ranges  0x00000748       0x38 build/default/production/_ext/388820833/WFEasyConfig.o
 .debug_ranges  0x00000780       0x38 build/default/production/_ext/388820833/WFEventHandler.o
 .debug_ranges  0x000007b8       0x18 build/default/production/_ext/388820833/WFInit.o
 .debug_ranges  0x000007d0       0x18 build/default/production/_ext/388820833/WF_Spi.o
 .debug_ranges  0x000007e8       0x48 build/default/production/_ext/388820833/WFDriverCom_24G.o
 .debug_ranges  0x00000830      0x108 build/default/production/_ext/1472/Main.o
 .debug_ranges  0x00000938      0x220 build/default/production/_ext/1472/CustomHTTPApp.o
 .debug_ranges  0x00000b58       0x30 build/default/production/_ext/1472/WF_Config.o
 .debug_ranges  0x00000b88       0x18 build/default/production/_ext/1472/OpenADRClient.o
 .debug_ranges  0x00000ba0       0x38 build/default/production/_ext/1472/UARTiMain.o
 .debug_ranges  0x00000bd8       0x48 build/default/production/_ext/1472/EPRI_UARTLayer.o
 .debug_ranges  0x00000c20       0x18 build/default/production/_ext/1472/BasicDR.o
 .debug_ranges  0x00000c38       0x10 c:/program files (x86)/microchip/xc32/v1.40/bin/bin/../../lib/gcc/pic32mx/4.8.3/../../../../pic32mx/lib\libmchp_peripheral_32MX575F256L.a(soft_reset_lib.o)
 .debug_ranges  0x00000c48       0x18 c:/program files (x86)/microchip/xc32/v1.40/bin/bin/../../lib/gcc/pic32mx/4.8.3/../../../../pic32mx/lib\libmchp_peripheral_32MX575F256L.a(pcache.o)
 .debug_ranges  0x00000c60       0x10 c:/program files (x86)/microchip/xc32/v1.40/bin/bin/../../lib/gcc/pic32mx/4.8.3/../../../../pic32mx/lib\libmchp_peripheral_32MX575F256L.a(int_disable_interrupts_lib.o)
 .debug_ranges  0x00000c70       0x10 c:/program files (x86)/microchip/xc32/v1.40/bin/bin/../../lib/gcc/pic32mx/4.8.3/../../../../pic32mx/lib\libmchp_peripheral_32MX575F256L.a(int_restore_interrupts_lib.o)
 .debug_ranges  0x00000c80       0x10 c:/program files (x86)/microchip/xc32/v1.40/bin/bin/../../lib/gcc/pic32mx/4.8.3/../../../../pic32mx/lib\libmchp_peripheral_32MX575F256L.a(int_enable_mv_int_lib.o)
 .debug_ranges  0x00000c90       0x50 c:/program files (x86)/microchip/xc32/v1.40/bin/bin/../../lib/gcc/pic32mx/4.8.3/../../../../pic32mx/lib\libmchp_peripheral_32MX575F256L.a(int_tbl_lib.o)
 .debug_ranges  0x00000ce0       0x48 c:/program files (x86)/microchip/xc32/v1.40/bin/bin/../../lib/gcc/pic32mx/4.8.3/../../../../pic32mx/lib\libmchp_peripheral_32MX575F256L.a(uart_lib.o)
 .debug_ranges  0x00000d28       0x18 c:/program files (x86)/microchip/xc32/v1.40/bin/bin/../../lib/gcc/pic32mx/4.8.3/../../../../pic32mx/lib\libmchp_peripheral_32MX575F256L.a(puts_uartx_lib_legacy.o)
 .debug_ranges  0x00000d40       0x10 c:/program files (x86)/microchip/xc32/v1.40/bin/bin/../../lib/gcc/pic32mx/4.8.3/../../../../pic32mx/lib\libmchp_peripheral_32MX575F256L.a(idle_i2c2_lib_legacy.o)
 .debug_ranges  0x00000d50       0x10 c:/program files (x86)/microchip/xc32/v1.40/bin/bin/../../lib/gcc/pic32mx/4.8.3/../../../../pic32mx/lib\libmchp_peripheral_32MX575F256L.a(I2CBusIsIdle.o)
 .debug_ranges  0x00000d60       0x10 c:/program files (x86)/microchip/xc32/v1.40/bin/bin/../../lib/gcc/pic32mx/4.8.3/../../../../pic32mx/lib\libmchp_peripheral_32MX575F256L.a(I2CByteWasAcknowledged.o)
 .debug_ranges  0x00000d70       0x10 c:/program files (x86)/microchip/xc32/v1.40/bin/bin/../../lib/gcc/pic32mx/4.8.3/../../../../pic32mx/lib\libmchp_peripheral_32MX575F256L.a(I2CEnable.o)
 .debug_ranges  0x00000d80       0x10 c:/program files (x86)/microchip/xc32/v1.40/bin/bin/../../lib/gcc/pic32mx/4.8.3/../../../../pic32mx/lib\libmchp_peripheral_32MX575F256L.a(I2CGetByte.o)
 .debug_ranges  0x00000d90       0x10 c:/program files (x86)/microchip/xc32/v1.40/bin/bin/../../lib/gcc/pic32mx/4.8.3/../../../../pic32mx/lib\libmchp_peripheral_32MX575F256L.a(I2CGetStatus.o)
 .debug_ranges  0x00000da0       0x10 c:/program files (x86)/microchip/xc32/v1.40/bin/bin/../../lib/gcc/pic32mx/4.8.3/../../../../pic32mx/lib\libmchp_peripheral_32MX575F256L.a(I2CReceivedDataIsAvailable.o)
 .debug_ranges  0x00000db0       0x10 c:/program files (x86)/microchip/xc32/v1.40/bin/bin/../../lib/gcc/pic32mx/4.8.3/../../../../pic32mx/lib\libmchp_peripheral_32MX575F256L.a(I2CReceiverEnable.o)
 .debug_ranges  0x00000dc0       0x10 c:/program files (x86)/microchip/xc32/v1.40/bin/bin/../../lib/gcc/pic32mx/4.8.3/../../../../pic32mx/lib\libmchp_peripheral_32MX575F256L.a(I2CRepeatStart.o)
 .debug_ranges  0x00000dd0       0x10 c:/program files (x86)/microchip/xc32/v1.40/bin/bin/../../lib/gcc/pic32mx/4.8.3/../../../../pic32mx/lib\libmchp_peripheral_32MX575F256L.a(I2CSetFrequency.o)
 .debug_ranges  0x00000de0       0x10 c:/program files (x86)/microchip/xc32/v1.40/bin/bin/../../lib/gcc/pic32mx/4.8.3/../../../../pic32mx/lib\libmchp_peripheral_32MX575F256L.a(I2CStart.o)
 .debug_ranges  0x00000df0       0x10 c:/program files (x86)/microchip/xc32/v1.40/bin/bin/../../lib/gcc/pic32mx/4.8.3/../../../../pic32mx/lib\libmchp_peripheral_32MX575F256L.a(I2CStop.o)
 .debug_ranges  0x00000e00       0x10 c:/program files (x86)/microchip/xc32/v1.40/bin/bin/../../lib/gcc/pic32mx/4.8.3/../../../../pic32mx/lib\libmchp_peripheral_32MX575F256L.a(I2CTransmissionHasCompleted.o)
 .debug_ranges  0x00000e10       0x10 c:/program files (x86)/microchip/xc32/v1.40/bin/bin/../../lib/gcc/pic32mx/4.8.3/../../../../pic32mx/lib\libmchp_peripheral_32MX575F256L.a(I2CTransmitterIsReady.o)
 .debug_ranges  0x00000e20       0x10 c:/program files (x86)/microchip/xc32/v1.40/bin/bin/../../lib/gcc/pic32mx/4.8.3/../../../../pic32mx/lib\libmchp_peripheral_32MX575F256L.a(int_enable_interrupts_lib.o)
 .debug_ranges  0x00000e30       0x98 c:/program files (x86)/microchip/xc32/v1.40/bin/bin/../../lib/gcc/pic32mx/4.8.3\libgcc.a(_udivdi3.o)
 .debug_ranges  0x00000ec8       0xd8 c:/program files (x86)/microchip/xc32/v1.40/bin/bin/../../lib/gcc/pic32mx/4.8.3\libgcc.a(_umoddi3.o)
 .debug_ranges  0x00000fa0       0x10 c:/program files (x86)/microchip/xc32/v1.40/bin/bin/../../lib/gcc/pic32mx/4.8.3/../../../../pic32mx/lib\libpic32.a(default-bootstrap-exception-handler.o)
 .debug_ranges  0x00000fb0       0x10 c:/program files (x86)/microchip/xc32/v1.40/bin/bin/../../lib/gcc/pic32mx/4.8.3/../../../../pic32mx/lib\libpic32.a(default-on-reset.o)
 .debug_ranges  0x00000fc0       0x10 c:/program files (x86)/microchip/xc32/v1.40/bin/bin/../../lib/gcc/pic32mx/4.8.3/../../../../pic32mx/lib\libpic32.a(default-on-bootstrap.o)
 .debug_ranges  0x00000fd0       0x10 c:/program files (x86)/microchip/xc32/v1.40/bin/bin/../../lib/gcc/pic32mx/4.8.3/../../../../pic32mx/lib\libpic32.a(defaultinterrupt.o)
 .debug_ranges  0x00000fe0       0x10 c:/program files (x86)/microchip/xc32/v1.40/bin/bin/../../lib/gcc/pic32mx/4.8.3/../../../../pic32mx/lib\libm.a(w_sqrtf.o)
 .debug_ranges  0x00000ff0       0x10 c:/program files (x86)/microchip/xc32/v1.40/bin/bin/../../lib/gcc/pic32mx/4.8.3/../../../../pic32mx/lib\libc.a(atoi.o)
 .debug_ranges  0x00001000       0x10 c:/program files (x86)/microchip/xc32/v1.40/bin/bin/../../lib/gcc/pic32mx/4.8.3/../../../../pic32mx/lib\libc.a(atol.o)
 .debug_ranges  0x00001010       0x10 c:/program files (x86)/microchip/xc32/v1.40/bin/bin/../../lib/gcc/pic32mx/4.8.3/../../../../pic32mx/lib\libc.a(atoll.o)
 .debug_ranges  0x00001020       0x30 c:/program files (x86)/microchip/xc32/v1.40/bin/bin/../../lib/gcc/pic32mx/4.8.3/../../../../pic32mx/lib\libc.a(ctime.o)
 .debug_ranges  0x00001050       0x10 c:/program files (x86)/microchip/xc32/v1.40/bin/bin/../../lib/gcc/pic32mx/4.8.3/../../../../pic32mx/lib\libc.a(mktime.o)
 .debug_ranges  0x00001060       0x10 c:/program files (x86)/microchip/xc32/v1.40/bin/bin/../../lib/gcc/pic32mx/4.8.3/../../../../pic32mx/lib\libc.a(putchar.o)
 .debug_ranges  0x00001070       0x18 c:/program files (x86)/microchip/xc32/v1.40/bin/bin/../../lib/gcc/pic32mx/4.8.3/../../../../pic32mx/lib\libc.a(puts.o)
 .debug_ranges  0x00001088       0x10 c:/program files (x86)/microchip/xc32/v1.40/bin/bin/../../lib/gcc/pic32mx/4.8.3/../../../../pic32mx/lib\libc.a(strcat.o)
 .debug_ranges  0x00001098       0x10 c:/program files (x86)/microchip/xc32/v1.40/bin/bin/../../lib/gcc/pic32mx/4.8.3/../../../../pic32mx/lib\libc.a(strchr.o)
 .debug_ranges  0x000010a8       0x10 c:/program files (x86)/microchip/xc32/v1.40/bin/bin/../../lib/gcc/pic32mx/4.8.3/../../../../pic32mx/lib\libc.a(strncmp.o)
 .debug_ranges  0x000010b8       0x10 c:/program files (x86)/microchip/xc32/v1.40/bin/bin/../../lib/gcc/pic32mx/4.8.3/../../../../pic32mx/lib\libc.a(strncpy.o)
 .debug_ranges  0x000010c8       0x10 c:/program files (x86)/microchip/xc32/v1.40/bin/bin/../../lib/gcc/pic32mx/4.8.3/../../../../pic32mx/lib\libc.a(strrchr.o)
 .debug_ranges  0x000010d8       0x10 c:/program files (x86)/microchip/xc32/v1.40/bin/bin/../../lib/gcc/pic32mx/4.8.3/../../../../pic32mx/lib\libc.a(strstr.o)
 .debug_ranges  0x000010e8       0x10 c:/program files (x86)/microchip/xc32/v1.40/bin/bin/../../lib/gcc/pic32mx/4.8.3/../../../../pic32mx/lib\libc.a(strtok.o)
 .debug_ranges  0x000010f8       0x18 c:/program files (x86)/microchip/xc32/v1.40/bin/bin/../../lib/gcc/pic32mx/4.8.3/../../../../pic32mx/lib\libc.a(strtoll.o)
 .debug_ranges  0x00001110       0x10 c:/program files (x86)/microchip/xc32/v1.40/bin/bin/../../lib/gcc/pic32mx/4.8.3/../../../../pic32mx/lib\libc.a(atof.o)
 .debug_ranges  0x00001120       0x10 c:/program files (x86)/microchip/xc32/v1.40/bin/bin/../../lib/gcc/pic32mx/4.8.3/../../../../pic32mx/lib\libc.a(printf_cdnopsuxX.eo)
 .debug_ranges  0x00001130       0x10 c:/program files (x86)/microchip/xc32/v1.40/bin/bin/../../lib/gcc/pic32mx/4.8.3/../../../../pic32mx/lib\libc.a(sprintf_cdnopsuxX.eo)
 .debug_ranges  0x00001140       0x10 c:/program files (x86)/microchip/xc32/v1.40/bin/bin/../../lib/gcc/pic32mx/4.8.3/../../../../pic32mx/lib\libc.a(sscanf_cdfFnopsuxX.eo)
 .debug_ranges  0x00001150       0x10 c:/program files (x86)/microchip/xc32/v1.40/bin/bin/../../lib/gcc/pic32mx/4.8.3/../../../../pic32mx/lib\libc.a(_fputc_simple.o)
 .debug_ranges  0x00001160       0x90 c:/program files (x86)/microchip/xc32/v1.40/bin/bin/../../lib/gcc/pic32mx/4.8.3/../../../../pic32mx/lib\libc.a(ctypef.o)
 .debug_ranges  0x000011f0       0x10 c:/program files (x86)/microchip/xc32/v1.40/bin/bin/../../lib/gcc/pic32mx/4.8.3/../../../../pic32mx/lib\libc.a(strcspn.o)
 .debug_ranges  0x00001200       0x10 c:/program files (x86)/microchip/xc32/v1.40/bin/bin/../../lib/gcc/pic32mx/4.8.3/../../../../pic32mx/lib\libc.a(strspn.o)
 .debug_ranges  0x00001210       0x18 c:/program files (x86)/microchip/xc32/v1.40/bin/bin/../../lib/gcc/pic32mx/4.8.3/../../../../pic32mx/lib\libc.a(strtof.o)
 .debug_ranges  0x00001228       0x10 c:/program files (x86)/microchip/xc32/v1.40/bin/bin/../../lib/gcc/pic32mx/4.8.3/../../../../pic32mx/lib\libc.a(doprnt_cdnopsuxX.eo)
 .debug_ranges  0x00001238       0x20 c:/program files (x86)/microchip/xc32/v1.40/bin/bin/../../lib/gcc/pic32mx/4.8.3/../../../../pic32mx/lib\libc.a(doscan_cdfFnopsuxX.eo)
 .debug_ranges  0x00001258       0x20 c:/program files (x86)/microchip/xc32/v1.40/bin/bin/../../lib/gcc/pic32mx/4.8.3/../../../../pic32mx/lib\libc.a(doscan_cdnopsuxX.eo)
 .debug_ranges  0x00001278       0x20 c:/program files (x86)/microchip/xc32/v1.40/bin/bin/../../lib/gcc/pic32mx/4.8.3/../../../../pic32mx/lib\libc.a(doscan_cdnopuxX.eo)
 .debug_ranges  0x00001298       0x10 c:/program files (x86)/microchip/xc32/v1.40/bin/bin/../../lib/gcc/pic32mx/4.8.3/../../../../pic32mx/lib\libc.a(_flsbuf_simple.o)
 .debug_ranges  0x000012a8       0x10 c:/program files (x86)/microchip/xc32/v1.40/bin/bin/../../lib/gcc/pic32mx/4.8.3/../../../../pic32mx/lib\libc.a(fgetc.o)
 .debug_ranges  0x000012b8       0x18 c:/program files (x86)/microchip/xc32/v1.40/bin/bin/../../lib/gcc/pic32mx/4.8.3/../../../../pic32mx/lib\libc.a(strtod.o)
 .debug_ranges  0x000012d0       0x10 c:/program files (x86)/microchip/xc32/v1.40/bin/bin/../../lib/gcc/pic32mx/4.8.3/../../../../pic32mx/lib\libc.a(ungetc.o)
 .debug_ranges  0x000012e0       0x10 c:/program files (x86)/microchip/xc32/v1.40/bin/bin/../../lib/gcc/pic32mx/4.8.3/../../../../pic32mx/lib\libc.a(filbuf.o)
 .debug_ranges  0x000012f0       0x10 c:/program files (x86)/microchip/xc32/v1.40/bin/bin/../../lib/gcc/pic32mx/4.8.3/../../../../pic32mx/lib\libc.a(fflush.o)
 .debug_ranges  0x00001300       0x10 c:/program files (x86)/microchip/xc32/v1.40/bin/bin/../../lib/gcc/pic32mx/4.8.3/../../../../pic32mx/lib\libpic32.a(read.o)
 .debug_ranges  0x00001310       0x10 c:/program files (x86)/microchip/xc32/v1.40/bin/bin/../../lib/gcc/pic32mx/4.8.3/../../../../pic32mx/lib\libpic32.a(write.o)
 .debug_ranges  0x00001320       0x10 c:/program files (x86)/microchip/xc32/v1.40/bin/bin/../../lib/gcc/pic32mx/4.8.3/../../../../pic32mx/lib\libm.a(__strtod.o)
 .debug_ranges  0x00001330       0x10 c:/program files (x86)/microchip/xc32/v1.40/bin/bin/../../lib/gcc/pic32mx/4.8.3/../../../../pic32mx/lib\libm.a(__strtof.o)
 .debug_ranges  0x00001340       0x10 c:/program files (x86)/microchip/xc32/v1.40/bin/bin/../../lib/gcc/pic32mx/4.8.3/../../../../pic32mx/lib\libe.a(_ldexp.o)
 .debug_ranges  0x00001350       0x10 c:/program files (x86)/microchip/xc32/v1.40/bin/bin/../../lib/gcc/pic32mx/4.8.3/../../../../pic32mx/lib\libe.a(_ldexpf.o)

.gnu.attributes
                0x00000000       0x10
 *(.gnu.attributes)
 .gnu.attributes
                0x00000000       0x10 build/default/production/_ext/93166211/Announce.o
 .gnu.attributes
                0x00000010       0x10 build/default/production/_ext/93166211/ARCFOUR.o
 .gnu.attributes
                0x00000020       0x10 build/default/production/_ext/93166211/ARP.o
 .gnu.attributes
                0x00000030       0x10 build/default/production/_ext/93166211/AutoIP.o
 .gnu.attributes
                0x00000040       0x10 build/default/production/_ext/93166211/BerkeleyAPI.o
 .gnu.attributes
                0x00000050       0x10 build/default/production/_ext/93166211/BigInt.o
 .gnu.attributes
                0x00000060       0x10 build/default/production/_ext/93166211/Delay.o
 .gnu.attributes
                0x00000070       0x10 build/default/production/_ext/93166211/DNS.o
 .gnu.attributes
                0x00000080       0x10 build/default/production/_ext/93166211/DNSs.o
 .gnu.attributes
                0x00000090       0x10 build/default/production/_ext/93166211/DynDNS.o
 .gnu.attributes
                0x000000a0       0x10 build/default/production/_ext/93166211/FileSystem.o
 .gnu.attributes
                0x000000b0       0x10 build/default/production/_ext/93166211/FTP.o
 .gnu.attributes
                0x000000c0       0x10 build/default/production/_ext/93166211/Hashes.o
 .gnu.attributes
                0x000000d0       0x10 build/default/production/_ext/93166211/Helpers.o
 .gnu.attributes
                0x000000e0       0x10 build/default/production/_ext/93166211/HTTP2.o
 .gnu.attributes
                0x000000f0       0x10 build/default/production/_ext/93166211/ICMP.o
 .gnu.attributes
                0x00000100       0x10 build/default/production/_ext/93166211/IP.o
 .gnu.attributes
                0x00000110       0x10 build/default/production/_ext/93166211/LCDBlocking.o
 .gnu.attributes
                0x00000120       0x10 build/default/production/_ext/93166211/MPFS2.o
 .gnu.attributes
                0x00000130       0x10 build/default/production/_ext/93166211/NBNS.o
 .gnu.attributes
                0x00000140       0x10 build/default/production/_ext/93166211/Random.o
 .gnu.attributes
                0x00000150       0x10 build/default/production/_ext/93166211/Reboot.o
 .gnu.attributes
                0x00000160       0x10 build/default/production/_ext/93166211/RSA.o
 .gnu.attributes
                0x00000170       0x10 build/default/production/_ext/93166211/SMTP.o
 .gnu.attributes
                0x00000180       0x10 build/default/production/_ext/93166211/SNMP.o
 .gnu.attributes
                0x00000190       0x10 build/default/production/_ext/93166211/SNMPv3.o
 .gnu.attributes
                0x000001a0       0x10 build/default/production/_ext/93166211/SNMPv3USM.o
 .gnu.attributes
                0x000001b0       0x10 build/default/production/_ext/93166211/SNTP.o
 .gnu.attributes
                0x000001c0       0x10 build/default/production/_ext/93166211/SPIEEPROM.o
 .gnu.attributes
                0x000001d0       0x10 build/default/production/_ext/93166211/SPIFlash.o
 .gnu.attributes
                0x000001e0       0x10 build/default/production/_ext/93166211/SPIRAM.o
 .gnu.attributes
                0x000001f0       0x10 build/default/production/_ext/93166211/SSL.o
 .gnu.attributes
                0x00000200       0x10 build/default/production/_ext/93166211/StackTsk.o
 .gnu.attributes
                0x00000210       0x10 build/default/production/_ext/93166211/TCP.o
 .gnu.attributes
                0x00000220       0x10 build/default/production/_ext/93166211/TCPPerformanceTest.o
 .gnu.attributes
                0x00000230       0x10 build/default/production/_ext/93166211/Telnet.o
 .gnu.attributes
                0x00000240       0x10 build/default/production/_ext/93166211/TFTPc.o
 .gnu.attributes
                0x00000250       0x10 build/default/production/_ext/93166211/Tick.o
 .gnu.attributes
                0x00000260       0x10 build/default/production/_ext/93166211/UART2TCPBridge.o
 .gnu.attributes
                0x00000270       0x10 build/default/production/_ext/93166211/UDP.o
 .gnu.attributes
                0x00000280       0x10 build/default/production/_ext/93166211/UDPPerformanceTest.o
 .gnu.attributes
                0x00000290       0x10 build/default/production/_ext/93166211/ZeroconfHelper.o
 .gnu.attributes
                0x000002a0       0x10 build/default/production/_ext/93166211/ZeroconfLinkLocal.o
 .gnu.attributes
                0x000002b0       0x10 build/default/production/_ext/93166211/ZeroconfMulticastDNS.o
 .gnu.attributes
                0x000002c0       0x10 build/default/production/_ext/93166211/DHCP.o
 .gnu.attributes
                0x000002d0       0x10 build/default/production/_ext/93166211/DHCPs.o
 .gnu.attributes
                0x000002e0       0x10 build/default/production/_ext/388820833/WF_Eint.o
 .gnu.attributes
                0x000002f0       0x10 build/default/production/_ext/388820833/WF_pbkdf2.o
 .gnu.attributes
                0x00000300       0x10 build/default/production/_ext/388820833/WFConnectionAlgorithm.o
 .gnu.attributes
                0x00000310       0x10 build/default/production/_ext/388820833/WFConnectionManager.o
 .gnu.attributes
                0x00000320       0x10 build/default/production/_ext/388820833/WFConnectionProfile.o
 .gnu.attributes
                0x00000330       0x10 build/default/production/_ext/388820833/WFConsole.o
 .gnu.attributes
                0x00000340       0x10 build/default/production/_ext/388820833/WFConsoleIfconfig.o
 .gnu.attributes
                0x00000350       0x10 build/default/production/_ext/388820833/WFConsoleIwconfig.o
 .gnu.attributes
                0x00000360       0x10 build/default/production/_ext/388820833/WFConsoleIwpriv.o
 .gnu.attributes
                0x00000370       0x10 build/default/production/_ext/388820833/WFConsoleMsgHandler.o
 .gnu.attributes
                0x00000380       0x10 build/default/production/_ext/388820833/WFConsoleMsgs.o
 .gnu.attributes
                0x00000390       0x10 build/default/production/_ext/388820833/WFDataTxRx.o
 .gnu.attributes
                0x000003a0       0x10 build/default/production/_ext/388820833/WFDebugStrings.o
 .gnu.attributes
                0x000003b0       0x10 build/default/production/_ext/388820833/WFEasyConfig.o
 .gnu.attributes
                0x000003c0       0x10 build/default/production/_ext/388820833/WFEventHandler.o
 .gnu.attributes
                0x000003d0       0x10 build/default/production/_ext/388820833/WFInit.o
 .gnu.attributes
                0x000003e0       0x10 build/default/production/_ext/388820833/WFPowerSave.o
 .gnu.attributes
                0x000003f0       0x10 build/default/production/_ext/388820833/WFScan.o
 .gnu.attributes
                0x00000400       0x10 build/default/production/_ext/388820833/WFTxPower.o
 .gnu.attributes
                0x00000410       0x10 build/default/production/_ext/388820833/WF_Spi.o
 .gnu.attributes
                0x00000420       0x10 build/default/production/_ext/388820833/WFDriverCom_24G.o
 .gnu.attributes
                0x00000430       0x10 build/default/production/_ext/388820833/WFDriverRaw_24G.o
 .gnu.attributes
                0x00000440       0x10 build/default/production/_ext/388820833/WFMac_24G.o
 .gnu.attributes
                0x00000450       0x10 build/default/production/_ext/388820833/WFMgmtMsg_24G.o
 .gnu.attributes
                0x00000460       0x10 build/default/production/_ext/388820833/WFParamMsg_24G.o
 .gnu.attributes
                0x00000470       0x10 build/default/production/_ext/1472/Main.o
 .gnu.attributes
                0x00000480       0x10 build/default/production/_ext/1472/CustomHTTPApp.o
 .gnu.attributes
                0x00000490       0x10 build/default/production/_ext/1472/WF_Config.o
 .gnu.attributes
                0x000004a0       0x10 build/default/production/_ext/1472/WifiGDemoMPFSImg.o
 .gnu.attributes
                0x000004b0       0x10 build/default/production/_ext/1472/i2c_master.o
 .gnu.attributes
                0x000004c0       0x10 build/default/production/_ext/1472/OpenADRClient.o
 .gnu.attributes
                0x000004d0       0x10 build/default/production/_ext/1472/INTiMain.o
 .gnu.attributes
                0x000004e0       0x10 build/default/production/_ext/1472/UARTiMain.o
 .gnu.attributes
                0x000004f0       0x10 build/default/production/_ext/1472/TimeMonitor.o
 .gnu.attributes
                0x00000500       0x10 build/default/production/_ext/1472/EPRI_UARTLayer.o
 .gnu.attributes
                0x00000510       0x10 build/default/production/_ext/1472/app_UCM.o
 .gnu.attributes
                0x00000520       0x10 build/default/production/_ext/1472/Assert.o
 .gnu.attributes
                0x00000530       0x10 build/default/production/_ext/1472/EPRI_SPILayer.o
 .gnu.attributes
                0x00000540       0x10 build/default/production/_ext/1472/MCI_Common.o
 .gnu.attributes
                0x00000550       0x10 build/default/production/_ext/1472/LinkLayerMessaging.o
 .gnu.attributes
                0x00000560       0x10 build/default/production/_ext/1472/BasicDR.o
 .gnu.attributes
                0x00000570       0x10 build/default/production/_ext/1472/debugging.o
 .gnu.attributes
                0x00000580       0x10 build/default/production/_ext/1472/RESTAPI.o
 .gnu.attributes
                0x00000590       0x10 c:/program files (x86)/microchip/xc32/v1.40/bin/bin/../../lib/gcc/pic32mx/4.8.3/../../../../pic32mx/lib\libmchp_peripheral_32MX575F256L.a(soft_reset_lib.o)
 .gnu.attributes
                0x000005a0       0x10 c:/program files (x86)/microchip/xc32/v1.40/bin/bin/../../lib/gcc/pic32mx/4.8.3/../../../../pic32mx/lib\libmchp_peripheral_32MX575F256L.a(pcache.o)
 .gnu.attributes
                0x000005b0       0x10 c:/program files (x86)/microchip/xc32/v1.40/bin/bin/../../lib/gcc/pic32mx/4.8.3/../../../../pic32mx/lib\libmchp_peripheral_32MX575F256L.a(int_disable_interrupts_lib.o)
 .gnu.attributes
                0x000005c0       0x10 c:/program files (x86)/microchip/xc32/v1.40/bin/bin/../../lib/gcc/pic32mx/4.8.3/../../../../pic32mx/lib\libmchp_peripheral_32MX575F256L.a(int_restore_interrupts_lib.o)
 .gnu.attributes
                0x000005d0       0x10 c:/program files (x86)/microchip/xc32/v1.40/bin/bin/../../lib/gcc/pic32mx/4.8.3/../../../../pic32mx/lib\libmchp_peripheral_32MX575F256L.a(int_enable_mv_int_lib.o)
 .gnu.attributes
                0x000005e0       0x10 c:/program files (x86)/microchip/xc32/v1.40/bin/bin/../../lib/gcc/pic32mx/4.8.3/../../../../pic32mx/lib\libmchp_peripheral_32MX575F256L.a(int_tbl_lib.o)
 .gnu.attributes
                0x000005f0       0x10 c:/program files (x86)/microchip/xc32/v1.40/bin/bin/../../lib/gcc/pic32mx/4.8.3/../../../../pic32mx/lib\libmchp_peripheral_32MX575F256L.a(uart_lib.o)
 .gnu.attributes
                0x00000600       0x10 c:/program files (x86)/microchip/xc32/v1.40/bin/bin/../../lib/gcc/pic32mx/4.8.3/../../../../pic32mx/lib\libmchp_peripheral_32MX575F256L.a(puts_uartx_lib_legacy.o)
 .gnu.attributes
                0x00000610       0x10 c:/program files (x86)/microchip/xc32/v1.40/bin/bin/../../lib/gcc/pic32mx/4.8.3/../../../../pic32mx/lib\libmchp_peripheral_32MX575F256L.a(idle_i2c2_lib_legacy.o)
 .gnu.attributes
                0x00000620       0x10 c:/program files (x86)/microchip/xc32/v1.40/bin/bin/../../lib/gcc/pic32mx/4.8.3/../../../../pic32mx/lib\libmchp_peripheral_32MX575F256L.a(I2CPrivate.o)
 .gnu.attributes
                0x00000630       0x10 c:/program files (x86)/microchip/xc32/v1.40/bin/bin/../../lib/gcc/pic32mx/4.8.3/../../../../pic32mx/lib\libmchp_peripheral_32MX575F256L.a(I2CBusIsIdle.o)
 .gnu.attributes
                0x00000640       0x10 c:/program files (x86)/microchip/xc32/v1.40/bin/bin/../../lib/gcc/pic32mx/4.8.3/../../../../pic32mx/lib\libmchp_peripheral_32MX575F256L.a(I2CByteWasAcknowledged.o)
 .gnu.attributes
                0x00000650       0x10 c:/program files (x86)/microchip/xc32/v1.40/bin/bin/../../lib/gcc/pic32mx/4.8.3/../../../../pic32mx/lib\libmchp_peripheral_32MX575F256L.a(I2CEnable.o)
 .gnu.attributes
                0x00000660       0x10 c:/program files (x86)/microchip/xc32/v1.40/bin/bin/../../lib/gcc/pic32mx/4.8.3/../../../../pic32mx/lib\libmchp_peripheral_32MX575F256L.a(I2CGetByte.o)
 .gnu.attributes
                0x00000670       0x10 c:/program files (x86)/microchip/xc32/v1.40/bin/bin/../../lib/gcc/pic32mx/4.8.3/../../../../pic32mx/lib\libmchp_peripheral_32MX575F256L.a(I2CGetStatus.o)
 .gnu.attributes
                0x00000680       0x10 c:/program files (x86)/microchip/xc32/v1.40/bin/bin/../../lib/gcc/pic32mx/4.8.3/../../../../pic32mx/lib\libmchp_peripheral_32MX575F256L.a(I2CReceivedDataIsAvailable.o)
 .gnu.attributes
                0x00000690       0x10 c:/program files (x86)/microchip/xc32/v1.40/bin/bin/../../lib/gcc/pic32mx/4.8.3/../../../../pic32mx/lib\libmchp_peripheral_32MX575F256L.a(I2CReceiverEnable.o)
 .gnu.attributes
                0x000006a0       0x10 c:/program files (x86)/microchip/xc32/v1.40/bin/bin/../../lib/gcc/pic32mx/4.8.3/../../../../pic32mx/lib\libmchp_peripheral_32MX575F256L.a(I2CRepeatStart.o)
 .gnu.attributes
                0x000006b0       0x10 c:/program files (x86)/microchip/xc32/v1.40/bin/bin/../../lib/gcc/pic32mx/4.8.3/../../../../pic32mx/lib\libmchp_peripheral_32MX575F256L.a(I2CSetFrequency.o)
 .gnu.attributes
                0x000006c0       0x10 c:/program files (x86)/microchip/xc32/v1.40/bin/bin/../../lib/gcc/pic32mx/4.8.3/../../../../pic32mx/lib\libmchp_peripheral_32MX575F256L.a(I2CStart.o)
 .gnu.attributes
                0x000006d0       0x10 c:/program files (x86)/microchip/xc32/v1.40/bin/bin/../../lib/gcc/pic32mx/4.8.3/../../../../pic32mx/lib\libmchp_peripheral_32MX575F256L.a(I2CStop.o)
 .gnu.attributes
                0x000006e0       0x10 c:/program files (x86)/microchip/xc32/v1.40/bin/bin/../../lib/gcc/pic32mx/4.8.3/../../../../pic32mx/lib\libmchp_peripheral_32MX575F256L.a(I2CTransmissionHasCompleted.o)
 .gnu.attributes
                0x000006f0       0x10 c:/program files (x86)/microchip/xc32/v1.40/bin/bin/../../lib/gcc/pic32mx/4.8.3/../../../../pic32mx/lib\libmchp_peripheral_32MX575F256L.a(I2CTransmitterIsReady.o)
 .gnu.attributes
                0x00000700       0x10 c:/program files (x86)/microchip/xc32/v1.40/bin/bin/../../lib/gcc/pic32mx/4.8.3/../../../../pic32mx/lib\libmchp_peripheral_32MX575F256L.a(int_enable_interrupts_lib.o)
 .gnu.attributes
                0x00000710       0x10 c:/program files (x86)/microchip/xc32/v1.40/bin/bin/../../lib/gcc/pic32mx/4.8.3\libgcc.a(_udivdi3.o)
 .gnu.attributes
                0x00000720       0x10 c:/program files (x86)/microchip/xc32/v1.40/bin/bin/../../lib/gcc/pic32mx/4.8.3\libgcc.a(_umoddi3.o)
 .gnu.attributes
                0x00000730       0x10 c:/program files (x86)/microchip/xc32/v1.40/bin/bin/../../lib/gcc/pic32mx/4.8.3\libgcc.a(floatunsisf.o)
 .gnu.attributes
                0x00000740       0x10 c:/program files (x86)/microchip/xc32/v1.40/bin/bin/../../lib/gcc/pic32mx/4.8.3/../../../../pic32mx/lib\libpic32.a(default-bootstrap-exception-handler.o)
 .gnu.attributes
                0x00000750       0x10 c:/program files (x86)/microchip/xc32/v1.40/bin/bin/../../lib/gcc/pic32mx/4.8.3/../../../../pic32mx/lib\libpic32.a(default-on-reset.o)
 .gnu.attributes
                0x00000760       0x10 c:/program files (x86)/microchip/xc32/v1.40/bin/bin/../../lib/gcc/pic32mx/4.8.3/../../../../pic32mx/lib\libpic32.a(default-on-bootstrap.o)
 .gnu.attributes
                0x00000770       0x10 c:/program files (x86)/microchip/xc32/v1.40/bin/bin/../../lib/gcc/pic32mx/4.8.3/../../../../pic32mx/lib\libpic32.a(defaultinterrupt.o)
 .gnu.attributes
                0x00000780       0x10 c:/program files (x86)/microchip/xc32/v1.40/bin/bin/../../lib/gcc/pic32mx/4.8.3/../../../../pic32mx/lib\libm.a(w_sqrtf.o)
 .gnu.attributes
                0x00000790       0x10 c:/program files (x86)/microchip/xc32/v1.40/bin/bin/../../lib/gcc/pic32mx/4.8.3/../../../../pic32mx/lib\libm.a(s_lib_ver.o)
 .gnu.attributes
                0x000007a0       0x10 c:/program files (x86)/microchip/xc32/v1.40/bin/bin/../../lib/gcc/pic32mx/4.8.3/../../../../pic32mx/lib\libc.a(atoi.o)
 .gnu.attributes
                0x000007b0       0x10 c:/program files (x86)/microchip/xc32/v1.40/bin/bin/../../lib/gcc/pic32mx/4.8.3/../../../../pic32mx/lib\libc.a(atol.o)
 .gnu.attributes
                0x000007c0       0x10 c:/program files (x86)/microchip/xc32/v1.40/bin/bin/../../lib/gcc/pic32mx/4.8.3/../../../../pic32mx/lib\libc.a(atoll.o)
 .gnu.attributes
                0x000007d0       0x10 c:/program files (x86)/microchip/xc32/v1.40/bin/bin/../../lib/gcc/pic32mx/4.8.3/../../../../pic32mx/lib\libc.a(ctime.o)
 .gnu.attributes
                0x000007e0       0x10 c:/program files (x86)/microchip/xc32/v1.40/bin/bin/../../lib/gcc/pic32mx/4.8.3/../../../../pic32mx/lib\libc.a(ctype.o)
 .gnu.attributes
                0x000007f0       0x10 c:/program files (x86)/microchip/xc32/v1.40/bin/bin/../../lib/gcc/pic32mx/4.8.3/../../../../pic32mx/lib\libc.a(errno.o)
 .gnu.attributes
                0x00000800       0x10 c:/program files (x86)/microchip/xc32/v1.40/bin/bin/../../lib/gcc/pic32mx/4.8.3/../../../../pic32mx/lib\libc.a(mktime.o)
 .gnu.attributes
                0x00000810       0x10 c:/program files (x86)/microchip/xc32/v1.40/bin/bin/../../lib/gcc/pic32mx/4.8.3/../../../../pic32mx/lib\libc.a(putchar.o)
 .gnu.attributes
                0x00000820       0x10 c:/program files (x86)/microchip/xc32/v1.40/bin/bin/../../lib/gcc/pic32mx/4.8.3/../../../../pic32mx/lib\libc.a(puts.o)
 .gnu.attributes
                0x00000830       0x10 c:/program files (x86)/microchip/xc32/v1.40/bin/bin/../../lib/gcc/pic32mx/4.8.3/../../../../pic32mx/lib\libc.a(strcat.o)
 .gnu.attributes
                0x00000840       0x10 c:/program files (x86)/microchip/xc32/v1.40/bin/bin/../../lib/gcc/pic32mx/4.8.3/../../../../pic32mx/lib\libc.a(strchr.o)
 .gnu.attributes
                0x00000850       0x10 c:/program files (x86)/microchip/xc32/v1.40/bin/bin/../../lib/gcc/pic32mx/4.8.3/../../../../pic32mx/lib\libc.a(strncmp.o)
 .gnu.attributes
                0x00000860       0x10 c:/program files (x86)/microchip/xc32/v1.40/bin/bin/../../lib/gcc/pic32mx/4.8.3/../../../../pic32mx/lib\libc.a(strncpy.o)
 .gnu.attributes
                0x00000870       0x10 c:/program files (x86)/microchip/xc32/v1.40/bin/bin/../../lib/gcc/pic32mx/4.8.3/../../../../pic32mx/lib\libc.a(strrchr.o)
 .gnu.attributes
                0x00000880       0x10 c:/program files (x86)/microchip/xc32/v1.40/bin/bin/../../lib/gcc/pic32mx/4.8.3/../../../../pic32mx/lib\libc.a(strstr.o)
 .gnu.attributes
                0x00000890       0x10 c:/program files (x86)/microchip/xc32/v1.40/bin/bin/../../lib/gcc/pic32mx/4.8.3/../../../../pic32mx/lib\libc.a(strtok.o)
 .gnu.attributes
                0x000008a0       0x10 c:/program files (x86)/microchip/xc32/v1.40/bin/bin/../../lib/gcc/pic32mx/4.8.3/../../../../pic32mx/lib\libc.a(strtoll.o)
 .gnu.attributes
                0x000008b0       0x10 c:/program files (x86)/microchip/xc32/v1.40/bin/bin/../../lib/gcc/pic32mx/4.8.3/../../../../pic32mx/lib\libc.a(atof.o)
 .gnu.attributes
                0x000008c0       0x10 c:/program files (x86)/microchip/xc32/v1.40/bin/bin/../../lib/gcc/pic32mx/4.8.3/../../../../pic32mx/lib\libc.a(printf_cdnopsuxX.eo)
 .gnu.attributes
                0x000008d0       0x10 c:/program files (x86)/microchip/xc32/v1.40/bin/bin/../../lib/gcc/pic32mx/4.8.3/../../../../pic32mx/lib\libc.a(sprintf_cdnopsuxX.eo)
 .gnu.attributes
                0x000008e0       0x10 c:/program files (x86)/microchip/xc32/v1.40/bin/bin/../../lib/gcc/pic32mx/4.8.3/../../../../pic32mx/lib\libc.a(sscanf_cdfFnopsuxX.eo)
 .gnu.attributes
                0x000008f0       0x10 c:/program files (x86)/microchip/xc32/v1.40/bin/bin/../../lib/gcc/pic32mx/4.8.3/../../../../pic32mx/lib\libc.a(_iob.o)
 .gnu.attributes
                0x00000900       0x10 c:/program files (x86)/microchip/xc32/v1.40/bin/bin/../../lib/gcc/pic32mx/4.8.3/../../../../pic32mx/lib\libc.a(_fputc_simple.o)
 .gnu.attributes
                0x00000910       0x10 c:/program files (x86)/microchip/xc32/v1.40/bin/bin/../../lib/gcc/pic32mx/4.8.3/../../../../pic32mx/lib\libc.a(ctypef.o)
 .gnu.attributes
                0x00000920       0x10 c:/program files (x86)/microchip/xc32/v1.40/bin/bin/../../lib/gcc/pic32mx/4.8.3/../../../../pic32mx/lib\libc.a(strcspn.o)
 .gnu.attributes
                0x00000930       0x10 c:/program files (x86)/microchip/xc32/v1.40/bin/bin/../../lib/gcc/pic32mx/4.8.3/../../../../pic32mx/lib\libc.a(strspn.o)
 .gnu.attributes
                0x00000940       0x10 c:/program files (x86)/microchip/xc32/v1.40/bin/bin/../../lib/gcc/pic32mx/4.8.3/../../../../pic32mx/lib\libc.a(strtof.o)
 .gnu.attributes
                0x00000950       0x10 c:/program files (x86)/microchip/xc32/v1.40/bin/bin/../../lib/gcc/pic32mx/4.8.3/../../../../pic32mx/lib\libc.a(doprnt_cdnopsuxX.eo)
 .gnu.attributes
                0x00000960       0x10 c:/program files (x86)/microchip/xc32/v1.40/bin/bin/../../lib/gcc/pic32mx/4.8.3/../../../../pic32mx/lib\libc.a(doscan_cdfFnopsuxX.eo)
 .gnu.attributes
                0x00000970       0x10 c:/program files (x86)/microchip/xc32/v1.40/bin/bin/../../lib/gcc/pic32mx/4.8.3/../../../../pic32mx/lib\libc.a(doscan_cdnopsuxX.eo)
 .gnu.attributes
                0x00000980       0x10 c:/program files (x86)/microchip/xc32/v1.40/bin/bin/../../lib/gcc/pic32mx/4.8.3/../../../../pic32mx/lib\libc.a(doscan_cdnopuxX.eo)
 .gnu.attributes
                0x00000990       0x10 c:/program files (x86)/microchip/xc32/v1.40/bin/bin/../../lib/gcc/pic32mx/4.8.3/../../../../pic32mx/lib\libc.a(_flsbuf_simple.o)
 .gnu.attributes
                0x000009a0       0x10 c:/program files (x86)/microchip/xc32/v1.40/bin/bin/../../lib/gcc/pic32mx/4.8.3/../../../../pic32mx/lib\libc.a(fgetc.o)
 .gnu.attributes
                0x000009b0       0x10 c:/program files (x86)/microchip/xc32/v1.40/bin/bin/../../lib/gcc/pic32mx/4.8.3/../../../../pic32mx/lib\libc.a(strtod.o)
 .gnu.attributes
                0x000009c0       0x10 c:/program files (x86)/microchip/xc32/v1.40/bin/bin/../../lib/gcc/pic32mx/4.8.3/../../../../pic32mx/lib\libc.a(ungetc.o)
 .gnu.attributes
                0x000009d0       0x10 c:/program files (x86)/microchip/xc32/v1.40/bin/bin/../../lib/gcc/pic32mx/4.8.3/../../../../pic32mx/lib\libc.a(filbuf.o)
 .gnu.attributes
                0x000009e0       0x10 c:/program files (x86)/microchip/xc32/v1.40/bin/bin/../../lib/gcc/pic32mx/4.8.3/../../../../pic32mx/lib\libc.a(fflush.o)
 .gnu.attributes
                0x000009f0       0x10 c:/program files (x86)/microchip/xc32/v1.40/bin/bin/../../lib/gcc/pic32mx/4.8.3/../../../../pic32mx/lib\libpic32.a(read.o)
 .gnu.attributes
                0x00000a00       0x10 c:/program files (x86)/microchip/xc32/v1.40/bin/bin/../../lib/gcc/pic32mx/4.8.3/../../../../pic32mx/lib\libpic32.a(write.o)
 .gnu.attributes
                0x00000a10       0x10 c:/program files (x86)/microchip/xc32/v1.40/bin/bin/../../lib/gcc/pic32mx/4.8.3/../../../../pic32mx/lib\libpic32.a(xc32_uart.o)
 .gnu.attributes
                0x00000a20       0x10 c:/program files (x86)/microchip/xc32/v1.40/bin/bin/../../lib/gcc/pic32mx/4.8.3/../../../../pic32mx/lib\libm.a(__strtod.o)
 .gnu.attributes
                0x00000a30       0x10 c:/program files (x86)/microchip/xc32/v1.40/bin/bin/../../lib/gcc/pic32mx/4.8.3/../../../../pic32mx/lib\libm.a(__strtof.o)
 .gnu.attributes
                0x00000a40       0x10 c:/program files (x86)/microchip/xc32/v1.40/bin/bin/../../lib/gcc/pic32mx/4.8.3/../../../../pic32mx/lib\libe.a(_ldexp.o)
 .gnu.attributes
                0x00000a50       0x10 c:/program files (x86)/microchip/xc32/v1.40/bin/bin/../../lib/gcc/pic32mx/4.8.3/../../../../pic32mx/lib\libe.a(_ldexpf.o)
 .gnu.attributes
                0x00000a60       0x10 c:/program files (x86)/microchip/xc32/v1.40/bin/bin/../../lib/gcc/pic32mx/4.8.3\libgcc.a(_lshrdi3.o)
 .gnu.attributes
                0x00000a70       0x10 c:/program files (x86)/microchip/xc32/v1.40/bin/bin/../../lib/gcc/pic32mx/4.8.3\libgcc.a(_ashldi3.o)
LOAD c:/program files (x86)/microchip/xc32/v1.40/bin/bin/../../lib/gcc/pic32mx/4.8.3\libgcc.a
START GROUP
LOAD c:/program files (x86)/microchip/xc32/v1.40/bin/bin/../../lib/gcc/pic32mx/4.8.3/../../../../pic32mx/lib\libpic32.a
LOAD c:/program files (x86)/microchip/xc32/v1.40/bin/bin/../../lib/gcc/pic32mx/4.8.3/../../../../pic32mx/lib\libdebug.a
LOAD c:/program files (x86)/microchip/xc32/v1.40/bin/bin/../../lib/gcc/pic32mx/4.8.3/../../../../pic32mx/lib\libpic32.a
LOAD c:/program files (x86)/microchip/xc32/v1.40/bin/bin/../../lib/gcc/pic32mx/4.8.3/../../../../pic32mx/lib\libm.a
LOAD c:/program files (x86)/microchip/xc32/v1.40/bin/bin/../../lib/gcc/pic32mx/4.8.3/../../../../pic32mx/lib\libe.a
LOAD c:/program files (x86)/microchip/xc32/v1.40/bin/bin/../../lib/gcc/pic32mx/4.8.3/../../../../pic32mx/lib\libdsp.a
LOAD c:/program files (x86)/microchip/xc32/v1.40/bin/bin/../../lib/gcc/pic32mx/4.8.3\libgcc.a
LOAD c:/program files (x86)/microchip/xc32/v1.40/bin/bin/../../lib/gcc/pic32mx/4.8.3/../../../../pic32mx/lib\libc.a
LOAD c:/program files (x86)/microchip/xc32/v1.40/bin/bin/../../lib/gcc/pic32mx/4.8.3/../../../../pic32mx/lib\libpic32.a
END GROUP
LOAD c:/program files (x86)/microchip/xc32/v1.40/bin/bin/../../lib/gcc/pic32mx/4.8.3\libgcc.a
OUTPUT(dist/default/production/Aztec.X.production.elf elf32-tradlittlemips)
LOAD stack
LOAD data_init

.reginfo        0x00000000       0x18
 .reginfo       0x00000000       0x18 c:/program files (x86)/microchip/xc32/v1.40/bin/bin/../../lib/gcc/pic32mx/4.8.3/../../../../pic32mx/lib/./proc/32MX575F256L/crt0_mips32r2.o

.stack          0xa0004840      0x400
 .stack         0xa0004840      0x400 stack

.bss            0xa0003970      0x360
 .bss           0xa0003970      0x360 build/default/production/_ext/93166211/ZeroconfMulticastDNS.o

.data           0xa0003cd0      0x6b8
 .data          0xa0003cd0      0x2d4 build/default/production/_ext/388820833/WFDebugStrings.o
                0xa0003cd0                connectionFailureStrings
                0xa0003d20                connectionLostStrings
                0xa0003d38                deauthDisssocReasonCodes
                0xa0003d9c                statusCodes
                0xa0003e5c                wpsState
                0xa0003e98                wpsConfigErr
                0xa0003f44                moduleName
 .data          0xa0003fa4      0x240 build/default/production/_ext/1472/OpenADRClient.o
                0xa0003fa4                drasClientID
                0xa0003fd8                drasClientIDPW
                0xa0003fe4                EventStatePage
                0xa0004048                EventStateConfirmPage
                0xa00040ac                OpenADRServerName
                0xa00041a8                OpenADRServerIP
 .data          0xa00041e4      0x1a4 build/default/production/_ext/1472/MCI_Common.o
                0xa00041e4                AppAckMsg
                0xa0004310                SetEnergyPrice
                0xa0004320                SetCommodityRead
                0xa0004338                GetCommodityRead
                0xa0004344                StartAutonomousCycling
                0xa000435c                TerminateAutonomousCycling
                0xa000436c                SetTemperatureOffset
                0xa0004378                SetSetPoint

.bss            0xa0004388      0x1cc
 .bss           0xa0004388      0x104 build/default/production/_ext/93166211/TCP.o
 .bss           0xa000448c       0xc8 build/default/production/_ext/1472/OpenADRClient.o
                0xa000448c                FeedBackPage
                0xa00044f0                OptOutPage

.data           0xa0004554       0xa4
 .data          0xa0004554       0xa4 c:/program files (x86)/microchip/xc32/v1.40/bin/bin/../../lib/gcc/pic32mx/4.8.3/../../../../pic32mx/lib\libc.a(_iob.o)
                0xa0004554                _iob
                0xa00045f4                _Files

.bss            0xa00045f8      0x1fc
 .bss           0xa00045f8       0x78 build/default/production/_ext/93166211/MPFS2.o
 .bss           0xa0004670       0x48 c:/program files (x86)/microchip/xc32/v1.40/bin/bin/../../lib/gcc/pic32mx/4.8.3/../../../../pic32mx/lib\libc.a(ctime.o)
                0xa0004670                time_zone
 .bss           0xa00046b8       0x44 c:/program files (x86)/microchip/xc32/v1.40/bin/bin/../../lib/gcc/pic32mx/4.8.3/../../../../pic32mx/lib\libc.a(_iob.o)
                0xa00046b8                _outdone
                0xa00046bc                _sibuf
                0xa00046dc                _sobuf
 .bss           0xa00046fc       0x40 build/default/production/_ext/93166211/DNSs.o
 .bss           0xa000473c       0x3c build/default/production/_ext/1472/CustomHTTPApp.o
 .bss           0xa0004778       0x34 build/default/production/_ext/93166211/DHCP.o
 .bss           0xa00047ac       0x28 build/default/production/_ext/93166211/ARP.o
 .bss           0xa00047d4       0x14 build/default/production/_ext/1472/debugging.o
                0xa00047d4                dlog
 .bss           0xa00047e8        0xc build/default/production/_ext/93166211/DNS.o

.bss.SentTransactionID.20335
                0xa00004b4        0x4
 .bss.SentTransactionID.20335
                0xa00004b4        0x4 build/default/production/_ext/93166211/DNS.o

.data.math_errhandling_flag
                0xa00047f4        0x4
 .data.math_errhandling_flag
                0xa00047f4        0x4 c:/program files (x86)/microchip/xc32/v1.40/bin/bin/../../lib/gcc/pic32mx/4.8.3/../../../../pic32mx/lib\libm.a(s_lib_ver.o)
                0xa00047f4                math_errhandling

.bss.errno      0xa00047f8        0x4
 .bss.errno     0xa00047f8        0x4 c:/program files (x86)/microchip/xc32/v1.40/bin/bin/../../lib/gcc/pic32mx/4.8.3/../../../../pic32mx/lib\libc.a(errno.o)
                0xa00047f8                errno

.bss            0xa00047fc       0x10
 .bss           0xa00047fc        0x4 c:/program files (x86)/microchip/xc32/v1.40/bin/bin/../../lib/gcc/pic32mx/4.8.3/../../../../pic32mx/lib\libc.a(strtok.o)
 .bss           0xa0004800        0x4 c:/program files (x86)/microchip/xc32/v1.40/bin/bin/../../lib/gcc/pic32mx/4.8.3/../../../../pic32mx/lib\libc.a(doscan_cdfFnopsuxX.eo)
 .bss           0xa0004804        0x4 c:/program files (x86)/microchip/xc32/v1.40/bin/bin/../../lib/gcc/pic32mx/4.8.3/../../../../pic32mx/lib\libc.a(doscan_cdnopsuxX.eo)
 .bss           0xa0004808        0x4 c:/program files (x86)/microchip/xc32/v1.40/bin/bin/../../lib/gcc/pic32mx/4.8.3/../../../../pic32mx/lib\libc.a(doscan_cdnopuxX.eo)

.bss.NextPort   0xa000480c        0x2
 .bss.NextPort  0xa000480c        0x2 build/default/production/_ext/93166211/TCP.o

.bss.NextPort.20307
                0xa000480e        0x2
 .bss.NextPort.20307
                0xa000480e        0x2 build/default/production/_ext/93166211/UDP.o

.bss            0x00000000        0x0
 .bss           0x00000000        0x0 c:/program files (x86)/microchip/xc32/v1.40/bin/bin/../../lib/gcc/pic32mx/4.8.3\libgcc.a(_ashldi3.o)

.data           0x00000000        0x0
 .data          0x00000000        0x0 c:/program files (x86)/microchip/xc32/v1.40/bin/bin/../../lib/gcc/pic32mx/4.8.3\libgcc.a(_ashldi3.o)

.bss            0x00000000        0x0
 .bss           0x00000000        0x0 c:/program files (x86)/microchip/xc32/v1.40/bin/bin/../../lib/gcc/pic32mx/4.8.3\libgcc.a(_lshrdi3.o)

.data           0x00000000        0x0
 .data          0x00000000        0x0 c:/program files (x86)/microchip/xc32/v1.40/bin/bin/../../lib/gcc/pic32mx/4.8.3\libgcc.a(_lshrdi3.o)

.bss            0x00000000        0x0
 .bss           0x00000000        0x0 c:/program files (x86)/microchip/xc32/v1.40/bin/bin/../../lib/gcc/pic32mx/4.8.3/../../../../pic32mx/lib\libe.a(_ldexpf.o)

.data           0x00000000        0x0
 .data          0x00000000        0x0 c:/program files (x86)/microchip/xc32/v1.40/bin/bin/../../lib/gcc/pic32mx/4.8.3/../../../../pic32mx/lib\libe.a(_ldexpf.o)

.bss            0x00000000        0x0
 .bss           0x00000000        0x0 c:/program files (x86)/microchip/xc32/v1.40/bin/bin/../../lib/gcc/pic32mx/4.8.3/../../../../pic32mx/lib\libe.a(_ldexp.o)

.data           0x00000000        0x0
 .data          0x00000000        0x0 c:/program files (x86)/microchip/xc32/v1.40/bin/bin/../../lib/gcc/pic32mx/4.8.3/../../../../pic32mx/lib\libe.a(_ldexp.o)

.bss            0x00000000        0x0
 .bss           0x00000000        0x0 c:/program files (x86)/microchip/xc32/v1.40/bin/bin/../../lib/gcc/pic32mx/4.8.3/../../../../pic32mx/lib\libm.a(negsf2.o)

.data           0x00000000        0x0
 .data          0x00000000        0x0 c:/program files (x86)/microchip/xc32/v1.40/bin/bin/../../lib/gcc/pic32mx/4.8.3/../../../../pic32mx/lib\libm.a(negsf2.o)

.bss            0x00000000        0x0
 .bss           0x00000000        0x0 c:/program files (x86)/microchip/xc32/v1.40/bin/bin/../../lib/gcc/pic32mx/4.8.3/../../../../pic32mx/lib\libm.a(negdf2.o)

.data           0x00000000        0x0
 .data          0x00000000        0x0 c:/program files (x86)/microchip/xc32/v1.40/bin/bin/../../lib/gcc/pic32mx/4.8.3/../../../../pic32mx/lib\libm.a(negdf2.o)

.bss            0x00000000        0x0
 .bss           0x00000000        0x0 c:/program files (x86)/microchip/xc32/v1.40/bin/bin/../../lib/gcc/pic32mx/4.8.3/../../../../pic32mx/lib\libm.a(litodp.o)

.data           0x00000000        0x0
 .data          0x00000000        0x0 c:/program files (x86)/microchip/xc32/v1.40/bin/bin/../../lib/gcc/pic32mx/4.8.3/../../../../pic32mx/lib\libm.a(litodp.o)

.bss            0x00000000        0x0
 .bss           0x00000000        0x0 c:/program files (x86)/microchip/xc32/v1.40/bin/bin/../../lib/gcc/pic32mx/4.8.3/../../../../pic32mx/lib\libm.a(dp32subadd.o)

.data           0x00000000        0x0
 .data          0x00000000        0x0 c:/program files (x86)/microchip/xc32/v1.40/bin/bin/../../lib/gcc/pic32mx/4.8.3/../../../../pic32mx/lib\libm.a(dp32subadd.o)

.bss            0x00000000        0x0
 .bss           0x00000000        0x0 c:/program files (x86)/microchip/xc32/v1.40/bin/bin/../../lib/gcc/pic32mx/4.8.3/../../../../pic32mx/lib\libm.a(dp32mul.o)

.data           0x00000000        0x0
 .data          0x00000000        0x0 c:/program files (x86)/microchip/xc32/v1.40/bin/bin/../../lib/gcc/pic32mx/4.8.3/../../../../pic32mx/lib\libm.a(dp32mul.o)

.bss            0x00000000        0x0
 .bss           0x00000000        0x0 c:/program files (x86)/microchip/xc32/v1.40/bin/bin/../../lib/gcc/pic32mx/4.8.3/../../../../pic32mx/lib\libm.a(dp32div.o)

.data           0x00000000        0x0
 .data          0x00000000        0x0 c:/program files (x86)/microchip/xc32/v1.40/bin/bin/../../lib/gcc/pic32mx/4.8.3/../../../../pic32mx/lib\libm.a(dp32div.o)

.bss            0x00000000        0x0
 .bss           0x00000000        0x0 c:/program files (x86)/microchip/xc32/v1.40/bin/bin/../../lib/gcc/pic32mx/4.8.3/../../../../pic32mx/lib\libm.a(__strtof.o)

.data           0x00000000        0x0
 .data          0x00000000        0x0 c:/program files (x86)/microchip/xc32/v1.40/bin/bin/../../lib/gcc/pic32mx/4.8.3/../../../../pic32mx/lib\libm.a(__strtof.o)

.bss            0x00000000        0x0
 .bss           0x00000000        0x0 c:/program files (x86)/microchip/xc32/v1.40/bin/bin/../../lib/gcc/pic32mx/4.8.3/../../../../pic32mx/lib\libm.a(__strtod.o)

.data           0x00000000        0x0
 .data          0x00000000        0x0 c:/program files (x86)/microchip/xc32/v1.40/bin/bin/../../lib/gcc/pic32mx/4.8.3/../../../../pic32mx/lib\libm.a(__strtod.o)

.bss            0x00000000        0x0
 .bss           0x00000000        0x0 c:/program files (x86)/microchip/xc32/v1.40/bin/bin/../../lib/gcc/pic32mx/4.8.3/../../../../pic32mx/lib\libm.a(fptodp.o)

.data           0x00000000        0x0
 .data          0x00000000        0x0 c:/program files (x86)/microchip/xc32/v1.40/bin/bin/../../lib/gcc/pic32mx/4.8.3/../../../../pic32mx/lib\libm.a(fptodp.o)

.bss            0x00000000        0x0
 .bss           0x00000000        0x0 c:/program files (x86)/microchip/xc32/v1.40/bin/bin/../../lib/gcc/pic32mx/4.8.3/../../../../pic32mx/lib\libm.a(dptofp.o)

.data           0x00000000        0x0
 .data          0x00000000        0x0 c:/program files (x86)/microchip/xc32/v1.40/bin/bin/../../lib/gcc/pic32mx/4.8.3/../../../../pic32mx/lib\libm.a(dptofp.o)

.bss            0x00000000        0x0
 .bss           0x00000000        0x0 c:/program files (x86)/microchip/xc32/v1.40/bin/bin/../../lib/gcc/pic32mx/4.8.3/../../../../pic32mx/lib\libpic32.a(xc32_uart.o)

.data           0x00000000        0x0
 .data          0x00000000        0x0 c:/program files (x86)/microchip/xc32/v1.40/bin/bin/../../lib/gcc/pic32mx/4.8.3/../../../../pic32mx/lib\libpic32.a(xc32_uart.o)

.bss            0x00000000        0x0
 .bss           0x00000000        0x0 c:/program files (x86)/microchip/xc32/v1.40/bin/bin/../../lib/gcc/pic32mx/4.8.3/../../../../pic32mx/lib\libpic32.a(write.o)

.data           0x00000000        0x0
 .data          0x00000000        0x0 c:/program files (x86)/microchip/xc32/v1.40/bin/bin/../../lib/gcc/pic32mx/4.8.3/../../../../pic32mx/lib\libpic32.a(write.o)

.bss            0x00000000        0x0
 .bss           0x00000000        0x0 c:/program files (x86)/microchip/xc32/v1.40/bin/bin/../../lib/gcc/pic32mx/4.8.3/../../../../pic32mx/lib\libpic32.a(read.o)

.data           0x00000000        0x0
 .data          0x00000000        0x0 c:/program files (x86)/microchip/xc32/v1.40/bin/bin/../../lib/gcc/pic32mx/4.8.3/../../../../pic32mx/lib\libpic32.a(read.o)

.bss            0x00000000        0x0
 .bss           0x00000000        0x0 c:/program files (x86)/microchip/xc32/v1.40/bin/bin/../../lib/gcc/pic32mx/4.8.3/../../../../pic32mx/lib\libc.a(fflush.o)

.data           0x00000000        0x0
 .data          0x00000000        0x0 c:/program files (x86)/microchip/xc32/v1.40/bin/bin/../../lib/gcc/pic32mx/4.8.3/../../../../pic32mx/lib\libc.a(fflush.o)

.bss            0x00000000        0x0
 .bss           0x00000000        0x0 c:/program files (x86)/microchip/xc32/v1.40/bin/bin/../../lib/gcc/pic32mx/4.8.3/../../../../pic32mx/lib\libc.a(filbuf.o)

.data           0x00000000        0x0
 .data          0x00000000        0x0 c:/program files (x86)/microchip/xc32/v1.40/bin/bin/../../lib/gcc/pic32mx/4.8.3/../../../../pic32mx/lib\libc.a(filbuf.o)

.bss            0x00000000        0x0
 .bss           0x00000000        0x0 c:/program files (x86)/microchip/xc32/v1.40/bin/bin/../../lib/gcc/pic32mx/4.8.3/../../../../pic32mx/lib\libc.a(ungetc.o)

.data           0x00000000        0x0
 .data          0x00000000        0x0 c:/program files (x86)/microchip/xc32/v1.40/bin/bin/../../lib/gcc/pic32mx/4.8.3/../../../../pic32mx/lib\libc.a(ungetc.o)

.bss            0x00000000        0x0
 .bss           0x00000000        0x0 c:/program files (x86)/microchip/xc32/v1.40/bin/bin/../../lib/gcc/pic32mx/4.8.3/../../../../pic32mx/lib\libc.a(strtod.o)

.data           0x00000000        0x0
 .data          0x00000000        0x0 c:/program files (x86)/microchip/xc32/v1.40/bin/bin/../../lib/gcc/pic32mx/4.8.3/../../../../pic32mx/lib\libc.a(strtod.o)

.bss            0x00000000        0x0
 .bss           0x00000000        0x0 c:/program files (x86)/microchip/xc32/v1.40/bin/bin/../../lib/gcc/pic32mx/4.8.3/../../../../pic32mx/lib\libc.a(fgetc.o)

.data           0x00000000        0x0
 .data          0x00000000        0x0 c:/program files (x86)/microchip/xc32/v1.40/bin/bin/../../lib/gcc/pic32mx/4.8.3/../../../../pic32mx/lib\libc.a(fgetc.o)

.bss            0x00000000        0x0
 .bss           0x00000000        0x0 c:/program files (x86)/microchip/xc32/v1.40/bin/bin/../../lib/gcc/pic32mx/4.8.3/../../../../pic32mx/lib\libc.a(_flsbuf_simple.o)

.data           0x00000000        0x0
 .data          0x00000000        0x0 c:/program files (x86)/microchip/xc32/v1.40/bin/bin/../../lib/gcc/pic32mx/4.8.3/../../../../pic32mx/lib\libc.a(_flsbuf_simple.o)

.data           0x00000000        0x0
 .data          0x00000000        0x0 c:/program files (x86)/microchip/xc32/v1.40/bin/bin/../../lib/gcc/pic32mx/4.8.3/../../../../pic32mx/lib\libc.a(doscan_cdnopuxX.eo)

.data           0x00000000        0x0
 .data          0x00000000        0x0 c:/program files (x86)/microchip/xc32/v1.40/bin/bin/../../lib/gcc/pic32mx/4.8.3/../../../../pic32mx/lib\libc.a(doscan_cdnopsuxX.eo)

.data           0x00000000        0x0
 .data          0x00000000        0x0 c:/program files (x86)/microchip/xc32/v1.40/bin/bin/../../lib/gcc/pic32mx/4.8.3/../../../../pic32mx/lib\libc.a(doscan_cdfFnopsuxX.eo)

.bss            0x00000000        0x0
 .bss           0x00000000        0x0 c:/program files (x86)/microchip/xc32/v1.40/bin/bin/../../lib/gcc/pic32mx/4.8.3/../../../../pic32mx/lib\libc.a(doprnt_cdnopsuxX.eo)

.data           0x00000000        0x0
 .data          0x00000000        0x0 c:/program files (x86)/microchip/xc32/v1.40/bin/bin/../../lib/gcc/pic32mx/4.8.3/../../../../pic32mx/lib\libc.a(doprnt_cdnopsuxX.eo)

.bss            0x00000000        0x0
 .bss           0x00000000        0x0 c:/program files (x86)/microchip/xc32/v1.40/bin/bin/../../lib/gcc/pic32mx/4.8.3/../../../../pic32mx/lib\libc.a(strtof.o)

.data           0x00000000        0x0
 .data          0x00000000        0x0 c:/program files (x86)/microchip/xc32/v1.40/bin/bin/../../lib/gcc/pic32mx/4.8.3/../../../../pic32mx/lib\libc.a(strtof.o)

.bss            0x00000000        0x0
 .bss           0x00000000        0x0 c:/program files (x86)/microchip/xc32/v1.40/bin/bin/../../lib/gcc/pic32mx/4.8.3/../../../../pic32mx/lib\libc.a(strspn.o)

.data           0x00000000        0x0
 .data          0x00000000        0x0 c:/program files (x86)/microchip/xc32/v1.40/bin/bin/../../lib/gcc/pic32mx/4.8.3/../../../../pic32mx/lib\libc.a(strspn.o)

.bss            0x00000000        0x0
 .bss           0x00000000        0x0 c:/program files (x86)/microchip/xc32/v1.40/bin/bin/../../lib/gcc/pic32mx/4.8.3/../../../../pic32mx/lib\libc.a(strcspn.o)

.data           0x00000000        0x0
 .data          0x00000000        0x0 c:/program files (x86)/microchip/xc32/v1.40/bin/bin/../../lib/gcc/pic32mx/4.8.3/../../../../pic32mx/lib\libc.a(strcspn.o)

.bss            0x00000000        0x0
 .bss           0x00000000        0x0 c:/program files (x86)/microchip/xc32/v1.40/bin/bin/../../lib/gcc/pic32mx/4.8.3/../../../../pic32mx/lib\libc.a(ctypef.o)

.data           0x00000000        0x0
 .data          0x00000000        0x0 c:/program files (x86)/microchip/xc32/v1.40/bin/bin/../../lib/gcc/pic32mx/4.8.3/../../../../pic32mx/lib\libc.a(ctypef.o)

.bss            0x00000000        0x0
 .bss           0x00000000        0x0 c:/program files (x86)/microchip/xc32/v1.40/bin/bin/../../lib/gcc/pic32mx/4.8.3/../../../../pic32mx/lib\libc.a(_fputc_simple.o)

.data           0x00000000        0x0
 .data          0x00000000        0x0 c:/program files (x86)/microchip/xc32/v1.40/bin/bin/../../lib/gcc/pic32mx/4.8.3/../../../../pic32mx/lib\libc.a(_fputc_simple.o)

.bss            0x00000000        0x0
 .bss           0x00000000        0x0 c:/program files (x86)/microchip/xc32/v1.40/bin/bin/../../lib/gcc/pic32mx/4.8.3/../../../../pic32mx/lib\libc.a(sscanf_cdfFnopsuxX.eo)

.data           0x00000000        0x0
 .data          0x00000000        0x0 c:/program files (x86)/microchip/xc32/v1.40/bin/bin/../../lib/gcc/pic32mx/4.8.3/../../../../pic32mx/lib\libc.a(sscanf_cdfFnopsuxX.eo)

.bss            0x00000000        0x0
 .bss           0x00000000        0x0 c:/program files (x86)/microchip/xc32/v1.40/bin/bin/../../lib/gcc/pic32mx/4.8.3/../../../../pic32mx/lib\libc.a(sprintf_cdnopsuxX.eo)

.data           0x00000000        0x0
 .data          0x00000000        0x0 c:/program files (x86)/microchip/xc32/v1.40/bin/bin/../../lib/gcc/pic32mx/4.8.3/../../../../pic32mx/lib\libc.a(sprintf_cdnopsuxX.eo)

.bss            0x00000000        0x0
 .bss           0x00000000        0x0 c:/program files (x86)/microchip/xc32/v1.40/bin/bin/../../lib/gcc/pic32mx/4.8.3/../../../../pic32mx/lib\libc.a(printf_cdnopsuxX.eo)

.data           0x00000000        0x0
 .data          0x00000000        0x0 c:/program files (x86)/microchip/xc32/v1.40/bin/bin/../../lib/gcc/pic32mx/4.8.3/../../../../pic32mx/lib\libc.a(printf_cdnopsuxX.eo)

.bss            0x00000000        0x0
 .bss           0x00000000        0x0 c:/program files (x86)/microchip/xc32/v1.40/bin/bin/../../lib/gcc/pic32mx/4.8.3/../../../../pic32mx/lib\libc.a(atof.o)

.data           0x00000000        0x0
 .data          0x00000000        0x0 c:/program files (x86)/microchip/xc32/v1.40/bin/bin/../../lib/gcc/pic32mx/4.8.3/../../../../pic32mx/lib\libc.a(atof.o)

.bss            0x00000000        0x0
 .bss           0x00000000        0x0 c:/program files (x86)/microchip/xc32/v1.40/bin/bin/../../lib/gcc/pic32mx/4.8.3/../../../../pic32mx/lib\libc.a(strtoll.o)

.data           0x00000000        0x0
 .data          0x00000000        0x0 c:/program files (x86)/microchip/xc32/v1.40/bin/bin/../../lib/gcc/pic32mx/4.8.3/../../../../pic32mx/lib\libc.a(strtoll.o)

.data           0x00000000        0x0
 .data          0x00000000        0x0 c:/program files (x86)/microchip/xc32/v1.40/bin/bin/../../lib/gcc/pic32mx/4.8.3/../../../../pic32mx/lib\libc.a(strtok.o)

.bss            0x00000000        0x0
 .bss           0x00000000        0x0 c:/program files (x86)/microchip/xc32/v1.40/bin/bin/../../lib/gcc/pic32mx/4.8.3/../../../../pic32mx/lib\libc.a(strstr.o)

.data           0x00000000        0x0
 .data          0x00000000        0x0 c:/program files (x86)/microchip/xc32/v1.40/bin/bin/../../lib/gcc/pic32mx/4.8.3/../../../../pic32mx/lib\libc.a(strstr.o)

.bss            0x00000000        0x0
 .bss           0x00000000        0x0 c:/program files (x86)/microchip/xc32/v1.40/bin/bin/../../lib/gcc/pic32mx/4.8.3/../../../../pic32mx/lib\libc.a(strrchr.o)

.data           0x00000000        0x0
 .data          0x00000000        0x0 c:/program files (x86)/microchip/xc32/v1.40/bin/bin/../../lib/gcc/pic32mx/4.8.3/../../../../pic32mx/lib\libc.a(strrchr.o)

.bss            0x00000000        0x0
 .bss           0x00000000        0x0 c:/program files (x86)/microchip/xc32/v1.40/bin/bin/../../lib/gcc/pic32mx/4.8.3/../../../../pic32mx/lib\libc.a(strncpy.o)

.data           0x00000000        0x0
 .data          0x00000000        0x0 c:/program files (x86)/microchip/xc32/v1.40/bin/bin/../../lib/gcc/pic32mx/4.8.3/../../../../pic32mx/lib\libc.a(strncpy.o)

.bss            0x00000000        0x0
 .bss           0x00000000        0x0 c:/program files (x86)/microchip/xc32/v1.40/bin/bin/../../lib/gcc/pic32mx/4.8.3/../../../../pic32mx/lib\libc.a(strncmp.o)

.data           0x00000000        0x0
 .data          0x00000000        0x0 c:/program files (x86)/microchip/xc32/v1.40/bin/bin/../../lib/gcc/pic32mx/4.8.3/../../../../pic32mx/lib\libc.a(strncmp.o)

.bss            0x00000000        0x0
 .bss           0x00000000        0x0 c:/program files (x86)/microchip/xc32/v1.40/bin/bin/../../lib/gcc/pic32mx/4.8.3/../../../../pic32mx/lib\libc.a(strchr.o)

.data           0x00000000        0x0
 .data          0x00000000        0x0 c:/program files (x86)/microchip/xc32/v1.40/bin/bin/../../lib/gcc/pic32mx/4.8.3/../../../../pic32mx/lib\libc.a(strchr.o)

.bss            0x00000000        0x0
 .bss           0x00000000        0x0 c:/program files (x86)/microchip/xc32/v1.40/bin/bin/../../lib/gcc/pic32mx/4.8.3/../../../../pic32mx/lib\libc.a(strcat.o)

.data           0x00000000        0x0
 .data          0x00000000        0x0 c:/program files (x86)/microchip/xc32/v1.40/bin/bin/../../lib/gcc/pic32mx/4.8.3/../../../../pic32mx/lib\libc.a(strcat.o)

.bss            0x00000000        0x0
 .bss           0x00000000        0x0 c:/program files (x86)/microchip/xc32/v1.40/bin/bin/../../lib/gcc/pic32mx/4.8.3/../../../../pic32mx/lib\libc.a(puts.o)

.data           0x00000000        0x0
 .data          0x00000000        0x0 c:/program files (x86)/microchip/xc32/v1.40/bin/bin/../../lib/gcc/pic32mx/4.8.3/../../../../pic32mx/lib\libc.a(puts.o)

.bss            0x00000000        0x0
 .bss           0x00000000        0x0 c:/program files (x86)/microchip/xc32/v1.40/bin/bin/../../lib/gcc/pic32mx/4.8.3/../../../../pic32mx/lib\libc.a(putchar.o)

.data           0x00000000        0x0
 .data          0x00000000        0x0 c:/program files (x86)/microchip/xc32/v1.40/bin/bin/../../lib/gcc/pic32mx/4.8.3/../../../../pic32mx/lib\libc.a(putchar.o)

.bss            0x00000000        0x0
 .bss           0x00000000        0x0 c:/program files (x86)/microchip/xc32/v1.40/bin/bin/../../lib/gcc/pic32mx/4.8.3/../../../../pic32mx/lib\libc.a(mktime.o)

.data           0x00000000        0x0
 .data          0x00000000        0x0 c:/program files (x86)/microchip/xc32/v1.40/bin/bin/../../lib/gcc/pic32mx/4.8.3/../../../../pic32mx/lib\libc.a(mktime.o)

.bss            0x00000000        0x0
 .bss           0x00000000        0x0 c:/program files (x86)/microchip/xc32/v1.40/bin/bin/../../lib/gcc/pic32mx/4.8.3/../../../../pic32mx/lib\libc.a(errno.o)

.data           0x00000000        0x0
 .data          0x00000000        0x0 c:/program files (x86)/microchip/xc32/v1.40/bin/bin/../../lib/gcc/pic32mx/4.8.3/../../../../pic32mx/lib\libc.a(errno.o)

.bss            0x00000000        0x0
 .bss           0x00000000        0x0 c:/program files (x86)/microchip/xc32/v1.40/bin/bin/../../lib/gcc/pic32mx/4.8.3/../../../../pic32mx/lib\libc.a(ctype.o)

.data           0x00000000        0x0
 .data          0x00000000        0x0 c:/program files (x86)/microchip/xc32/v1.40/bin/bin/../../lib/gcc/pic32mx/4.8.3/../../../../pic32mx/lib\libc.a(ctype.o)

.data           0x00000000        0x0
 .data          0x00000000        0x0 c:/program files (x86)/microchip/xc32/v1.40/bin/bin/../../lib/gcc/pic32mx/4.8.3/../../../../pic32mx/lib\libc.a(ctime.o)

.bss            0x00000000        0x0
 .bss           0x00000000        0x0 c:/program files (x86)/microchip/xc32/v1.40/bin/bin/../../lib/gcc/pic32mx/4.8.3/../../../../pic32mx/lib\libc.a(atoll.o)

.data           0x00000000        0x0
 .data          0x00000000        0x0 c:/program files (x86)/microchip/xc32/v1.40/bin/bin/../../lib/gcc/pic32mx/4.8.3/../../../../pic32mx/lib\libc.a(atoll.o)

.bss            0x00000000        0x0
 .bss           0x00000000        0x0 c:/program files (x86)/microchip/xc32/v1.40/bin/bin/../../lib/gcc/pic32mx/4.8.3/../../../../pic32mx/lib\libc.a(atol.o)

.data           0x00000000        0x0
 .data          0x00000000        0x0 c:/program files (x86)/microchip/xc32/v1.40/bin/bin/../../lib/gcc/pic32mx/4.8.3/../../../../pic32mx/lib\libc.a(atol.o)

.bss            0x00000000        0x0
 .bss           0x00000000        0x0 c:/program files (x86)/microchip/xc32/v1.40/bin/bin/../../lib/gcc/pic32mx/4.8.3/../../../../pic32mx/lib\libc.a(atoi.o)

.data           0x00000000        0x0
 .data          0x00000000        0x0 c:/program files (x86)/microchip/xc32/v1.40/bin/bin/../../lib/gcc/pic32mx/4.8.3/../../../../pic32mx/lib\libc.a(atoi.o)

.bss            0x00000000        0x0
 .bss           0x00000000        0x0 c:/program files (x86)/microchip/xc32/v1.40/bin/bin/../../lib/gcc/pic32mx/4.8.3/../../../../pic32mx/lib\libm.a(fpexsqrt32.o)

.data           0x00000000        0x0
 .data          0x00000000        0x0 c:/program files (x86)/microchip/xc32/v1.40/bin/bin/../../lib/gcc/pic32mx/4.8.3/../../../../pic32mx/lib\libm.a(fpexsqrt32.o)

.bss            0x00000000        0x0
 .bss           0x00000000        0x0 c:/program files (x86)/microchip/xc32/v1.40/bin/bin/../../lib/gcc/pic32mx/4.8.3/../../../../pic32mx/lib\libm.a(s_lib_ver.o)

.data           0x00000000        0x0
 .data          0x00000000        0x0 c:/program files (x86)/microchip/xc32/v1.40/bin/bin/../../lib/gcc/pic32mx/4.8.3/../../../../pic32mx/lib\libm.a(s_lib_ver.o)

.bss            0x00000000        0x0
 .bss           0x00000000        0x0 c:/program files (x86)/microchip/xc32/v1.40/bin/bin/../../lib/gcc/pic32mx/4.8.3/../../../../pic32mx/lib\libm.a(fpsqrt32.o)

.data           0x00000000        0x0
 .data          0x00000000        0x0 c:/program files (x86)/microchip/xc32/v1.40/bin/bin/../../lib/gcc/pic32mx/4.8.3/../../../../pic32mx/lib\libm.a(fpsqrt32.o)

.bss            0x00000000        0x0
 .bss           0x00000000        0x0 c:/program files (x86)/microchip/xc32/v1.40/bin/bin/../../lib/gcc/pic32mx/4.8.3/../../../../pic32mx/lib\libm.a(w_sqrtf.o)

.data           0x00000000        0x0
 .data          0x00000000        0x0 c:/program files (x86)/microchip/xc32/v1.40/bin/bin/../../lib/gcc/pic32mx/4.8.3/../../../../pic32mx/lib\libm.a(w_sqrtf.o)

.bss            0x00000000        0x0
 .bss           0x00000000        0x0 c:/program files (x86)/microchip/xc32/v1.40/bin/bin/../../lib/gcc/pic32mx/4.8.3/../../../../pic32mx/lib\libm.a(sitofp.o)

.data           0x00000000        0x0
 .data          0x00000000        0x0 c:/program files (x86)/microchip/xc32/v1.40/bin/bin/../../lib/gcc/pic32mx/4.8.3/../../../../pic32mx/lib\libm.a(sitofp.o)

.bss            0x00000000        0x0
 .bss           0x00000000        0x0 c:/program files (x86)/microchip/xc32/v1.40/bin/bin/../../lib/gcc/pic32mx/4.8.3/../../../../pic32mx/lib\libm.a(fptoul.o)

.data           0x00000000        0x0
 .data          0x00000000        0x0 c:/program files (x86)/microchip/xc32/v1.40/bin/bin/../../lib/gcc/pic32mx/4.8.3/../../../../pic32mx/lib\libm.a(fptoul.o)

.bss            0x00000000        0x0
 .bss           0x00000000        0x0 c:/program files (x86)/microchip/xc32/v1.40/bin/bin/../../lib/gcc/pic32mx/4.8.3/../../../../pic32mx/lib\libm.a(fptoli.o)

.data           0x00000000        0x0
 .data          0x00000000        0x0 c:/program files (x86)/microchip/xc32/v1.40/bin/bin/../../lib/gcc/pic32mx/4.8.3/../../../../pic32mx/lib\libm.a(fptoli.o)

.bss            0x00000000        0x0
 .bss           0x00000000        0x0 c:/program files (x86)/microchip/xc32/v1.40/bin/bin/../../lib/gcc/pic32mx/4.8.3/../../../../pic32mx/lib\libm.a(fpfloo32.o)

.data           0x00000000        0x0
 .data          0x00000000        0x0 c:/program files (x86)/microchip/xc32/v1.40/bin/bin/../../lib/gcc/pic32mx/4.8.3/../../../../pic32mx/lib\libm.a(fpfloo32.o)

.bss            0x00000000        0x0
 .bss           0x00000000        0x0 c:/program files (x86)/microchip/xc32/v1.40/bin/bin/../../lib/gcc/pic32mx/4.8.3/../../../../pic32mx/lib\libm.a(fpcmp.o)

.data           0x00000000        0x0
 .data          0x00000000        0x0 c:/program files (x86)/microchip/xc32/v1.40/bin/bin/../../lib/gcc/pic32mx/4.8.3/../../../../pic32mx/lib\libm.a(fpcmp.o)

.bss            0x00000000        0x0
 .bss           0x00000000        0x0 c:/program files (x86)/microchip/xc32/v1.40/bin/bin/../../lib/gcc/pic32mx/4.8.3/../../../../pic32mx/lib\libm.a(fpceil32.o)

.data           0x00000000        0x0
 .data          0x00000000        0x0 c:/program files (x86)/microchip/xc32/v1.40/bin/bin/../../lib/gcc/pic32mx/4.8.3/../../../../pic32mx/lib\libm.a(fpceil32.o)

.bss            0x00000000        0x0
 .bss           0x00000000        0x0 c:/program files (x86)/microchip/xc32/v1.40/bin/bin/../../lib/gcc/pic32mx/4.8.3/../../../../pic32mx/lib\libm.a(fp32subadd.o)

.data           0x00000000        0x0
 .data          0x00000000        0x0 c:/program files (x86)/microchip/xc32/v1.40/bin/bin/../../lib/gcc/pic32mx/4.8.3/../../../../pic32mx/lib\libm.a(fp32subadd.o)

.bss            0x00000000        0x0
 .bss           0x00000000        0x0 c:/program files (x86)/microchip/xc32/v1.40/bin/bin/../../lib/gcc/pic32mx/4.8.3/../../../../pic32mx/lib\libm.a(fp32mul.o)

.data           0x00000000        0x0
 .data          0x00000000        0x0 c:/program files (x86)/microchip/xc32/v1.40/bin/bin/../../lib/gcc/pic32mx/4.8.3/../../../../pic32mx/lib\libm.a(fp32mul.o)

.bss            0x00000000        0x0
 .bss           0x00000000        0x0 c:/program files (x86)/microchip/xc32/v1.40/bin/bin/../../lib/gcc/pic32mx/4.8.3/../../../../pic32mx/lib\libm.a(fp32div.o)

.data           0x00000000        0x0
 .data          0x00000000        0x0 c:/program files (x86)/microchip/xc32/v1.40/bin/bin/../../lib/gcc/pic32mx/4.8.3/../../../../pic32mx/lib\libm.a(fp32div.o)

.bss            0x00000000        0x0
 .bss           0x00000000        0x0 c:/program files (x86)/microchip/xc32/v1.40/bin/bin/../../lib/gcc/pic32mx/4.8.3/../../../../pic32mx/lib\libpic32.a(defaultinterrupt.o)

.data           0x00000000        0x0
 .data          0x00000000        0x0 c:/program files (x86)/microchip/xc32/v1.40/bin/bin/../../lib/gcc/pic32mx/4.8.3/../../../../pic32mx/lib\libpic32.a(defaultinterrupt.o)

.bss            0x00000000        0x0
 .bss           0x00000000        0x0 c:/program files (x86)/microchip/xc32/v1.40/bin/bin/../../lib/gcc/pic32mx/4.8.3/../../../../pic32mx/lib\libpic32.a(vector51.o)

.data           0x00000000        0x0
 .data          0x00000000        0x0 c:/program files (x86)/microchip/xc32/v1.40/bin/bin/../../lib/gcc/pic32mx/4.8.3/../../../../pic32mx/lib\libpic32.a(vector51.o)

.bss            0x00000000        0x0
 .bss           0x00000000        0x0 c:/program files (x86)/microchip/xc32/v1.40/bin/bin/../../lib/gcc/pic32mx/4.8.3/../../../../pic32mx/lib\libpic32.a(vector50.o)

.data           0x00000000        0x0
 .data          0x00000000        0x0 c:/program files (x86)/microchip/xc32/v1.40/bin/bin/../../lib/gcc/pic32mx/4.8.3/../../../../pic32mx/lib\libpic32.a(vector50.o)

.bss            0x00000000        0x0
 .bss           0x00000000        0x0 c:/program files (x86)/microchip/xc32/v1.40/bin/bin/../../lib/gcc/pic32mx/4.8.3/../../../../pic32mx/lib\libpic32.a(vector49.o)

.data           0x00000000        0x0
 .data          0x00000000        0x0 c:/program files (x86)/microchip/xc32/v1.40/bin/bin/../../lib/gcc/pic32mx/4.8.3/../../../../pic32mx/lib\libpic32.a(vector49.o)

.bss            0x00000000        0x0
 .bss           0x00000000        0x0 c:/program files (x86)/microchip/xc32/v1.40/bin/bin/../../lib/gcc/pic32mx/4.8.3/../../../../pic32mx/lib\libpic32.a(vector48.o)

.data           0x00000000        0x0
 .data          0x00000000        0x0 c:/program files (x86)/microchip/xc32/v1.40/bin/bin/../../lib/gcc/pic32mx/4.8.3/../../../../pic32mx/lib\libpic32.a(vector48.o)

.bss            0x00000000        0x0
 .bss           0x00000000        0x0 c:/program files (x86)/microchip/xc32/v1.40/bin/bin/../../lib/gcc/pic32mx/4.8.3/../../../../pic32mx/lib\libpic32.a(vector47.o)

.data           0x00000000        0x0
 .data          0x00000000        0x0 c:/program files (x86)/microchip/xc32/v1.40/bin/bin/../../lib/gcc/pic32mx/4.8.3/../../../../pic32mx/lib\libpic32.a(vector47.o)

.bss            0x00000000        0x0
 .bss           0x00000000        0x0 c:/program files (x86)/microchip/xc32/v1.40/bin/bin/../../lib/gcc/pic32mx/4.8.3/../../../../pic32mx/lib\libpic32.a(vector46.o)

.data           0x00000000        0x0
 .data          0x00000000        0x0 c:/program files (x86)/microchip/xc32/v1.40/bin/bin/../../lib/gcc/pic32mx/4.8.3/../../../../pic32mx/lib\libpic32.a(vector46.o)

.bss            0x00000000        0x0
 .bss           0x00000000        0x0 c:/program files (x86)/microchip/xc32/v1.40/bin/bin/../../lib/gcc/pic32mx/4.8.3/../../../../pic32mx/lib\libpic32.a(vector45.o)

.data           0x00000000        0x0
 .data          0x00000000        0x0 c:/program files (x86)/microchip/xc32/v1.40/bin/bin/../../lib/gcc/pic32mx/4.8.3/../../../../pic32mx/lib\libpic32.a(vector45.o)

.bss            0x00000000        0x0
 .bss           0x00000000        0x0 c:/program files (x86)/microchip/xc32/v1.40/bin/bin/../../lib/gcc/pic32mx/4.8.3/../../../../pic32mx/lib\libpic32.a(vector44.o)

.data           0x00000000        0x0
 .data          0x00000000        0x0 c:/program files (x86)/microchip/xc32/v1.40/bin/bin/../../lib/gcc/pic32mx/4.8.3/../../../../pic32mx/lib\libpic32.a(vector44.o)

.bss            0x00000000        0x0
 .bss           0x00000000        0x0 c:/program files (x86)/microchip/xc32/v1.40/bin/bin/../../lib/gcc/pic32mx/4.8.3/../../../../pic32mx/lib\libpic32.a(vector43.o)

.data           0x00000000        0x0
 .data          0x00000000        0x0 c:/program files (x86)/microchip/xc32/v1.40/bin/bin/../../lib/gcc/pic32mx/4.8.3/../../../../pic32mx/lib\libpic32.a(vector43.o)

.bss            0x00000000        0x0
 .bss           0x00000000        0x0 c:/program files (x86)/microchip/xc32/v1.40/bin/bin/../../lib/gcc/pic32mx/4.8.3/../../../../pic32mx/lib\libpic32.a(vector42.o)

.data           0x00000000        0x0
 .data          0x00000000        0x0 c:/program files (x86)/microchip/xc32/v1.40/bin/bin/../../lib/gcc/pic32mx/4.8.3/../../../../pic32mx/lib\libpic32.a(vector42.o)

.bss            0x00000000        0x0
 .bss           0x00000000        0x0 c:/program files (x86)/microchip/xc32/v1.40/bin/bin/../../lib/gcc/pic32mx/4.8.3/../../../../pic32mx/lib\libpic32.a(vector41.o)

.data           0x00000000        0x0
 .data          0x00000000        0x0 c:/program files (x86)/microchip/xc32/v1.40/bin/bin/../../lib/gcc/pic32mx/4.8.3/../../../../pic32mx/lib\libpic32.a(vector41.o)

.bss            0x00000000        0x0
 .bss           0x00000000        0x0 c:/program files (x86)/microchip/xc32/v1.40/bin/bin/../../lib/gcc/pic32mx/4.8.3/../../../../pic32mx/lib\libpic32.a(vector40.o)

.data           0x00000000        0x0
 .data          0x00000000        0x0 c:/program files (x86)/microchip/xc32/v1.40/bin/bin/../../lib/gcc/pic32mx/4.8.3/../../../../pic32mx/lib\libpic32.a(vector40.o)

.bss            0x00000000        0x0
 .bss           0x00000000        0x0 c:/program files (x86)/microchip/xc32/v1.40/bin/bin/../../lib/gcc/pic32mx/4.8.3/../../../../pic32mx/lib\libpic32.a(vector39.o)

.data           0x00000000        0x0
 .data          0x00000000        0x0 c:/program files (x86)/microchip/xc32/v1.40/bin/bin/../../lib/gcc/pic32mx/4.8.3/../../../../pic32mx/lib\libpic32.a(vector39.o)

.bss            0x00000000        0x0
 .bss           0x00000000        0x0 c:/program files (x86)/microchip/xc32/v1.40/bin/bin/../../lib/gcc/pic32mx/4.8.3/../../../../pic32mx/lib\libpic32.a(vector38.o)

.data           0x00000000        0x0
 .data          0x00000000        0x0 c:/program files (x86)/microchip/xc32/v1.40/bin/bin/../../lib/gcc/pic32mx/4.8.3/../../../../pic32mx/lib\libpic32.a(vector38.o)

.bss            0x00000000        0x0
 .bss           0x00000000        0x0 c:/program files (x86)/microchip/xc32/v1.40/bin/bin/../../lib/gcc/pic32mx/4.8.3/../../../../pic32mx/lib\libpic32.a(vector37.o)

.data           0x00000000        0x0
 .data          0x00000000        0x0 c:/program files (x86)/microchip/xc32/v1.40/bin/bin/../../lib/gcc/pic32mx/4.8.3/../../../../pic32mx/lib\libpic32.a(vector37.o)

.bss            0x00000000        0x0
 .bss           0x00000000        0x0 c:/program files (x86)/microchip/xc32/v1.40/bin/bin/../../lib/gcc/pic32mx/4.8.3/../../../../pic32mx/lib\libpic32.a(vector36.o)

.data           0x00000000        0x0
 .data          0x00000000        0x0 c:/program files (x86)/microchip/xc32/v1.40/bin/bin/../../lib/gcc/pic32mx/4.8.3/../../../../pic32mx/lib\libpic32.a(vector36.o)

.bss            0x00000000        0x0
 .bss           0x00000000        0x0 c:/program files (x86)/microchip/xc32/v1.40/bin/bin/../../lib/gcc/pic32mx/4.8.3/../../../../pic32mx/lib\libpic32.a(vector35.o)

.data           0x00000000        0x0
 .data          0x00000000        0x0 c:/program files (x86)/microchip/xc32/v1.40/bin/bin/../../lib/gcc/pic32mx/4.8.3/../../../../pic32mx/lib\libpic32.a(vector35.o)

.bss            0x00000000        0x0
 .bss           0x00000000        0x0 c:/program files (x86)/microchip/xc32/v1.40/bin/bin/../../lib/gcc/pic32mx/4.8.3/../../../../pic32mx/lib\libpic32.a(vector34.o)

.data           0x00000000        0x0
 .data          0x00000000        0x0 c:/program files (x86)/microchip/xc32/v1.40/bin/bin/../../lib/gcc/pic32mx/4.8.3/../../../../pic32mx/lib\libpic32.a(vector34.o)

.bss            0x00000000        0x0
 .bss           0x00000000        0x0 c:/program files (x86)/microchip/xc32/v1.40/bin/bin/../../lib/gcc/pic32mx/4.8.3/../../../../pic32mx/lib\libpic32.a(vector33.o)

.data           0x00000000        0x0
 .data          0x00000000        0x0 c:/program files (x86)/microchip/xc32/v1.40/bin/bin/../../lib/gcc/pic32mx/4.8.3/../../../../pic32mx/lib\libpic32.a(vector33.o)

.bss            0x00000000        0x0
 .bss           0x00000000        0x0 c:/program files (x86)/microchip/xc32/v1.40/bin/bin/../../lib/gcc/pic32mx/4.8.3/../../../../pic32mx/lib\libpic32.a(vector31.o)

.data           0x00000000        0x0
 .data          0x00000000        0x0 c:/program files (x86)/microchip/xc32/v1.40/bin/bin/../../lib/gcc/pic32mx/4.8.3/../../../../pic32mx/lib\libpic32.a(vector31.o)

.bss            0x00000000        0x0
 .bss           0x00000000        0x0 c:/program files (x86)/microchip/xc32/v1.40/bin/bin/../../lib/gcc/pic32mx/4.8.3/../../../../pic32mx/lib\libpic32.a(vector30.o)

.data           0x00000000        0x0
 .data          0x00000000        0x0 c:/program files (x86)/microchip/xc32/v1.40/bin/bin/../../lib/gcc/pic32mx/4.8.3/../../../../pic32mx/lib\libpic32.a(vector30.o)

.bss            0x00000000        0x0
 .bss           0x00000000        0x0 c:/program files (x86)/microchip/xc32/v1.40/bin/bin/../../lib/gcc/pic32mx/4.8.3/../../../../pic32mx/lib\libpic32.a(vector29.o)

.data           0x00000000        0x0
 .data          0x00000000        0x0 c:/program files (x86)/microchip/xc32/v1.40/bin/bin/../../lib/gcc/pic32mx/4.8.3/../../../../pic32mx/lib\libpic32.a(vector29.o)

.bss            0x00000000        0x0
 .bss           0x00000000        0x0 c:/program files (x86)/microchip/xc32/v1.40/bin/bin/../../lib/gcc/pic32mx/4.8.3/../../../../pic32mx/lib\libpic32.a(vector28.o)

.data           0x00000000        0x0
 .data          0x00000000        0x0 c:/program files (x86)/microchip/xc32/v1.40/bin/bin/../../lib/gcc/pic32mx/4.8.3/../../../../pic32mx/lib\libpic32.a(vector28.o)

.bss            0x00000000        0x0
 .bss           0x00000000        0x0 c:/program files (x86)/microchip/xc32/v1.40/bin/bin/../../lib/gcc/pic32mx/4.8.3/../../../../pic32mx/lib\libpic32.a(vector27.o)

.data           0x00000000        0x0
 .data          0x00000000        0x0 c:/program files (x86)/microchip/xc32/v1.40/bin/bin/../../lib/gcc/pic32mx/4.8.3/../../../../pic32mx/lib\libpic32.a(vector27.o)

.bss            0x00000000        0x0
 .bss           0x00000000        0x0 c:/program files (x86)/microchip/xc32/v1.40/bin/bin/../../lib/gcc/pic32mx/4.8.3/../../../../pic32mx/lib\libpic32.a(vector26.o)

.data           0x00000000        0x0
 .data          0x00000000        0x0 c:/program files (x86)/microchip/xc32/v1.40/bin/bin/../../lib/gcc/pic32mx/4.8.3/../../../../pic32mx/lib\libpic32.a(vector26.o)

.bss            0x00000000        0x0
 .bss           0x00000000        0x0 c:/program files (x86)/microchip/xc32/v1.40/bin/bin/../../lib/gcc/pic32mx/4.8.3/../../../../pic32mx/lib\libpic32.a(vector25.o)

.data           0x00000000        0x0
 .data          0x00000000        0x0 c:/program files (x86)/microchip/xc32/v1.40/bin/bin/../../lib/gcc/pic32mx/4.8.3/../../../../pic32mx/lib\libpic32.a(vector25.o)

.bss            0x00000000        0x0
 .bss           0x00000000        0x0 c:/program files (x86)/microchip/xc32/v1.40/bin/bin/../../lib/gcc/pic32mx/4.8.3/../../../../pic32mx/lib\libpic32.a(vector23.o)

.data           0x00000000        0x0
 .data          0x00000000        0x0 c:/program files (x86)/microchip/xc32/v1.40/bin/bin/../../lib/gcc/pic32mx/4.8.3/../../../../pic32mx/lib\libpic32.a(vector23.o)

.bss            0x00000000        0x0
 .bss           0x00000000        0x0 c:/program files (x86)/microchip/xc32/v1.40/bin/bin/../../lib/gcc/pic32mx/4.8.3/../../../../pic32mx/lib\libpic32.a(vector22.o)

.data           0x00000000        0x0
 .data          0x00000000        0x0 c:/program files (x86)/microchip/xc32/v1.40/bin/bin/../../lib/gcc/pic32mx/4.8.3/../../../../pic32mx/lib\libpic32.a(vector22.o)

.bss            0x00000000        0x0
 .bss           0x00000000        0x0 c:/program files (x86)/microchip/xc32/v1.40/bin/bin/../../lib/gcc/pic32mx/4.8.3/../../../../pic32mx/lib\libpic32.a(vector21.o)

.data           0x00000000        0x0
 .data          0x00000000        0x0 c:/program files (x86)/microchip/xc32/v1.40/bin/bin/../../lib/gcc/pic32mx/4.8.3/../../../../pic32mx/lib\libpic32.a(vector21.o)

.bss            0x00000000        0x0
 .bss           0x00000000        0x0 c:/program files (x86)/microchip/xc32/v1.40/bin/bin/../../lib/gcc/pic32mx/4.8.3/../../../../pic32mx/lib\libpic32.a(vector20.o)

.data           0x00000000        0x0
 .data          0x00000000        0x0 c:/program files (x86)/microchip/xc32/v1.40/bin/bin/../../lib/gcc/pic32mx/4.8.3/../../../../pic32mx/lib\libpic32.a(vector20.o)

.bss            0x00000000        0x0
 .bss           0x00000000        0x0 c:/program files (x86)/microchip/xc32/v1.40/bin/bin/../../lib/gcc/pic32mx/4.8.3/../../../../pic32mx/lib\libpic32.a(vector19.o)

.data           0x00000000        0x0
 .data          0x00000000        0x0 c:/program files (x86)/microchip/xc32/v1.40/bin/bin/../../lib/gcc/pic32mx/4.8.3/../../../../pic32mx/lib\libpic32.a(vector19.o)

.bss            0x00000000        0x0
 .bss           0x00000000        0x0 c:/program files (x86)/microchip/xc32/v1.40/bin/bin/../../lib/gcc/pic32mx/4.8.3/../../../../pic32mx/lib\libpic32.a(vector18.o)

.data           0x00000000        0x0
 .data          0x00000000        0x0 c:/program files (x86)/microchip/xc32/v1.40/bin/bin/../../lib/gcc/pic32mx/4.8.3/../../../../pic32mx/lib\libpic32.a(vector18.o)

.bss            0x00000000        0x0
 .bss           0x00000000        0x0 c:/program files (x86)/microchip/xc32/v1.40/bin/bin/../../lib/gcc/pic32mx/4.8.3/../../../../pic32mx/lib\libpic32.a(vector17.o)

.data           0x00000000        0x0
 .data          0x00000000        0x0 c:/program files (x86)/microchip/xc32/v1.40/bin/bin/../../lib/gcc/pic32mx/4.8.3/../../../../pic32mx/lib\libpic32.a(vector17.o)

.bss            0x00000000        0x0
 .bss           0x00000000        0x0 c:/program files (x86)/microchip/xc32/v1.40/bin/bin/../../lib/gcc/pic32mx/4.8.3/../../../../pic32mx/lib\libpic32.a(vector16.o)

.data           0x00000000        0x0
 .data          0x00000000        0x0 c:/program files (x86)/microchip/xc32/v1.40/bin/bin/../../lib/gcc/pic32mx/4.8.3/../../../../pic32mx/lib\libpic32.a(vector16.o)

.bss            0x00000000        0x0
 .bss           0x00000000        0x0 c:/program files (x86)/microchip/xc32/v1.40/bin/bin/../../lib/gcc/pic32mx/4.8.3/../../../../pic32mx/lib\libpic32.a(vector14.o)

.data           0x00000000        0x0
 .data          0x00000000        0x0 c:/program files (x86)/microchip/xc32/v1.40/bin/bin/../../lib/gcc/pic32mx/4.8.3/../../../../pic32mx/lib\libpic32.a(vector14.o)

.bss            0x00000000        0x0
 .bss           0x00000000        0x0 c:/program files (x86)/microchip/xc32/v1.40/bin/bin/../../lib/gcc/pic32mx/4.8.3/../../../../pic32mx/lib\libpic32.a(vector13.o)

.data           0x00000000        0x0
 .data          0x00000000        0x0 c:/program files (x86)/microchip/xc32/v1.40/bin/bin/../../lib/gcc/pic32mx/4.8.3/../../../../pic32mx/lib\libpic32.a(vector13.o)

.bss            0x00000000        0x0
 .bss           0x00000000        0x0 c:/program files (x86)/microchip/xc32/v1.40/bin/bin/../../lib/gcc/pic32mx/4.8.3/../../../../pic32mx/lib\libpic32.a(vector12.o)

.data           0x00000000        0x0
 .data          0x00000000        0x0 c:/program files (x86)/microchip/xc32/v1.40/bin/bin/../../lib/gcc/pic32mx/4.8.3/../../../../pic32mx/lib\libpic32.a(vector12.o)

.bss            0x00000000        0x0
 .bss           0x00000000        0x0 c:/program files (x86)/microchip/xc32/v1.40/bin/bin/../../lib/gcc/pic32mx/4.8.3/../../../../pic32mx/lib\libpic32.a(vector11.o)

.data           0x00000000        0x0
 .data          0x00000000        0x0 c:/program files (x86)/microchip/xc32/v1.40/bin/bin/../../lib/gcc/pic32mx/4.8.3/../../../../pic32mx/lib\libpic32.a(vector11.o)

.bss            0x00000000        0x0
 .bss           0x00000000        0x0 c:/program files (x86)/microchip/xc32/v1.40/bin/bin/../../lib/gcc/pic32mx/4.8.3/../../../../pic32mx/lib\libpic32.a(vector10.o)

.data           0x00000000        0x0
 .data          0x00000000        0x0 c:/program files (x86)/microchip/xc32/v1.40/bin/bin/../../lib/gcc/pic32mx/4.8.3/../../../../pic32mx/lib\libpic32.a(vector10.o)

.bss            0x00000000        0x0
 .bss           0x00000000        0x0 c:/program files (x86)/microchip/xc32/v1.40/bin/bin/../../lib/gcc/pic32mx/4.8.3/../../../../pic32mx/lib\libpic32.a(vector9.o)

.data           0x00000000        0x0
 .data          0x00000000        0x0 c:/program files (x86)/microchip/xc32/v1.40/bin/bin/../../lib/gcc/pic32mx/4.8.3/../../../../pic32mx/lib\libpic32.a(vector9.o)

.bss            0x00000000        0x0
 .bss           0x00000000        0x0 c:/program files (x86)/microchip/xc32/v1.40/bin/bin/../../lib/gcc/pic32mx/4.8.3/../../../../pic32mx/lib\libpic32.a(vector7.o)

.data           0x00000000        0x0
 .data          0x00000000        0x0 c:/program files (x86)/microchip/xc32/v1.40/bin/bin/../../lib/gcc/pic32mx/4.8.3/../../../../pic32mx/lib\libpic32.a(vector7.o)

.bss            0x00000000        0x0
 .bss           0x00000000        0x0 c:/program files (x86)/microchip/xc32/v1.40/bin/bin/../../lib/gcc/pic32mx/4.8.3/../../../../pic32mx/lib\libpic32.a(vector6.o)

.data           0x00000000        0x0
 .data          0x00000000        0x0 c:/program files (x86)/microchip/xc32/v1.40/bin/bin/../../lib/gcc/pic32mx/4.8.3/../../../../pic32mx/lib\libpic32.a(vector6.o)

.bss            0x00000000        0x0
 .bss           0x00000000        0x0 c:/program files (x86)/microchip/xc32/v1.40/bin/bin/../../lib/gcc/pic32mx/4.8.3/../../../../pic32mx/lib\libpic32.a(vector5.o)

.data           0x00000000        0x0
 .data          0x00000000        0x0 c:/program files (x86)/microchip/xc32/v1.40/bin/bin/../../lib/gcc/pic32mx/4.8.3/../../../../pic32mx/lib\libpic32.a(vector5.o)

.bss            0x00000000        0x0
 .bss           0x00000000        0x0 c:/program files (x86)/microchip/xc32/v1.40/bin/bin/../../lib/gcc/pic32mx/4.8.3/../../../../pic32mx/lib\libpic32.a(vector3.o)

.data           0x00000000        0x0
 .data          0x00000000        0x0 c:/program files (x86)/microchip/xc32/v1.40/bin/bin/../../lib/gcc/pic32mx/4.8.3/../../../../pic32mx/lib\libpic32.a(vector3.o)

.bss            0x00000000        0x0
 .bss           0x00000000        0x0 c:/program files (x86)/microchip/xc32/v1.40/bin/bin/../../lib/gcc/pic32mx/4.8.3/../../../../pic32mx/lib\libpic32.a(vector2.o)

.data           0x00000000        0x0
 .data          0x00000000        0x0 c:/program files (x86)/microchip/xc32/v1.40/bin/bin/../../lib/gcc/pic32mx/4.8.3/../../../../pic32mx/lib\libpic32.a(vector2.o)

.bss            0x00000000        0x0
 .bss           0x00000000        0x0 c:/program files (x86)/microchip/xc32/v1.40/bin/bin/../../lib/gcc/pic32mx/4.8.3/../../../../pic32mx/lib\libpic32.a(vector1.o)

.data           0x00000000        0x0
 .data          0x00000000        0x0 c:/program files (x86)/microchip/xc32/v1.40/bin/bin/../../lib/gcc/pic32mx/4.8.3/../../../../pic32mx/lib\libpic32.a(vector1.o)

.bss            0x00000000        0x0
 .bss           0x00000000        0x0 c:/program files (x86)/microchip/xc32/v1.40/bin/bin/../../lib/gcc/pic32mx/4.8.3/../../../../pic32mx/lib\libpic32.a(vector0.o)

.data           0x00000000        0x0
 .data          0x00000000        0x0 c:/program files (x86)/microchip/xc32/v1.40/bin/bin/../../lib/gcc/pic32mx/4.8.3/../../../../pic32mx/lib\libpic32.a(vector0.o)

.bss            0x00000000        0x0
 .bss           0x00000000        0x0 c:/program files (x86)/microchip/xc32/v1.40/bin/bin/../../lib/gcc/pic32mx/4.8.3/../../../../pic32mx/lib\libpic32.a(general-exception.o)

.data           0x00000000        0x0
 .data          0x00000000        0x0 c:/program files (x86)/microchip/xc32/v1.40/bin/bin/../../lib/gcc/pic32mx/4.8.3/../../../../pic32mx/lib\libpic32.a(general-exception.o)

.bss            0x00000000        0x0
 .bss           0x00000000        0x0 c:/program files (x86)/microchip/xc32/v1.40/bin/bin/../../lib/gcc/pic32mx/4.8.3/../../../../pic32mx/lib\libpic32.a(default-nmi-handler.o)

.data           0x00000000        0x0
 .data          0x00000000        0x0 c:/program files (x86)/microchip/xc32/v1.40/bin/bin/../../lib/gcc/pic32mx/4.8.3/../../../../pic32mx/lib\libpic32.a(default-nmi-handler.o)

.bss            0x00000000        0x0
 .bss           0x00000000        0x0 c:/program files (x86)/microchip/xc32/v1.40/bin/bin/../../lib/gcc/pic32mx/4.8.3/../../../../pic32mx/lib\libpic32.a(default-on-bootstrap.o)

.data           0x00000000        0x0
 .data          0x00000000        0x0 c:/program files (x86)/microchip/xc32/v1.40/bin/bin/../../lib/gcc/pic32mx/4.8.3/../../../../pic32mx/lib\libpic32.a(default-on-bootstrap.o)

.bss            0x00000000        0x0
 .bss           0x00000000        0x0 c:/program files (x86)/microchip/xc32/v1.40/bin/bin/../../lib/gcc/pic32mx/4.8.3/../../../../pic32mx/lib\libpic32.a(default-on-reset.o)

.data           0x00000000        0x0
 .data          0x00000000        0x0 c:/program files (x86)/microchip/xc32/v1.40/bin/bin/../../lib/gcc/pic32mx/4.8.3/../../../../pic32mx/lib\libpic32.a(default-on-reset.o)

.bss            0x00000000        0x0
 .bss           0x00000000        0x0 c:/program files (x86)/microchip/xc32/v1.40/bin/bin/../../lib/gcc/pic32mx/4.8.3/../../../../pic32mx/lib\libpic32.a(default-bootstrap-exception-handler.o)

.data           0x00000000        0x0
 .data          0x00000000        0x0 c:/program files (x86)/microchip/xc32/v1.40/bin/bin/../../lib/gcc/pic32mx/4.8.3/../../../../pic32mx/lib\libpic32.a(default-bootstrap-exception-handler.o)

.bss            0x00000000        0x0
 .bss           0x00000000        0x0 c:/program files (x86)/microchip/xc32/v1.40/bin/bin/../../lib/gcc/pic32mx/4.8.3/../../../../pic32mx/lib\libpic32.a(strlen.o)

.data           0x00000000        0x0
 .data          0x00000000        0x0 c:/program files (x86)/microchip/xc32/v1.40/bin/bin/../../lib/gcc/pic32mx/4.8.3/../../../../pic32mx/lib\libpic32.a(strlen.o)

.bss            0x00000000        0x0
 .bss           0x00000000        0x0 c:/program files (x86)/microchip/xc32/v1.40/bin/bin/../../lib/gcc/pic32mx/4.8.3/../../../../pic32mx/lib\libpic32.a(strcpy.o)

.data           0x00000000        0x0
 .data          0x00000000        0x0 c:/program files (x86)/microchip/xc32/v1.40/bin/bin/../../lib/gcc/pic32mx/4.8.3/../../../../pic32mx/lib\libpic32.a(strcpy.o)

.bss            0x00000000        0x0
 .bss           0x00000000        0x0 c:/program files (x86)/microchip/xc32/v1.40/bin/bin/../../lib/gcc/pic32mx/4.8.3/../../../../pic32mx/lib\libpic32.a(strcmp.o)

.data           0x00000000        0x0
 .data          0x00000000        0x0 c:/program files (x86)/microchip/xc32/v1.40/bin/bin/../../lib/gcc/pic32mx/4.8.3/../../../../pic32mx/lib\libpic32.a(strcmp.o)

.bss            0x00000000        0x0
 .bss           0x00000000        0x0 c:/program files (x86)/microchip/xc32/v1.40/bin/bin/../../lib/gcc/pic32mx/4.8.3/../../../../pic32mx/lib\libpic32.a(memset.o)

.data           0x00000000        0x0
 .data          0x00000000        0x0 c:/program files (x86)/microchip/xc32/v1.40/bin/bin/../../lib/gcc/pic32mx/4.8.3/../../../../pic32mx/lib\libpic32.a(memset.o)

.bss            0x00000000        0x0
 .bss           0x00000000        0x0 c:/program files (x86)/microchip/xc32/v1.40/bin/bin/../../lib/gcc/pic32mx/4.8.3/../../../../pic32mx/lib\libpic32.a(memcpy.o)

.data           0x00000000        0x0
 .data          0x00000000        0x0 c:/program files (x86)/microchip/xc32/v1.40/bin/bin/../../lib/gcc/pic32mx/4.8.3/../../../../pic32mx/lib\libpic32.a(memcpy.o)

.bss            0x00000000        0x0
 .bss           0x00000000        0x0 c:/program files (x86)/microchip/xc32/v1.40/bin/bin/../../lib/gcc/pic32mx/4.8.3/../../../../pic32mx/lib\libpic32.a(memcmp.o)

.data           0x00000000        0x0
 .data          0x00000000        0x0 c:/program files (x86)/microchip/xc32/v1.40/bin/bin/../../lib/gcc/pic32mx/4.8.3/../../../../pic32mx/lib\libpic32.a(memcmp.o)

.bss            0x00000000        0x0
 .bss           0x00000000        0x0 c:/program files (x86)/microchip/xc32/v1.40/bin/bin/../../lib/gcc/pic32mx/4.8.3\libgcc.a(floatunsisf.o)

.data           0x00000000        0x0
 .data          0x00000000        0x0 c:/program files (x86)/microchip/xc32/v1.40/bin/bin/../../lib/gcc/pic32mx/4.8.3\libgcc.a(floatunsisf.o)

.bss            0x00000000        0x0
 .bss           0x00000000        0x0 c:/program files (x86)/microchip/xc32/v1.40/bin/bin/../../lib/gcc/pic32mx/4.8.3\libgcc.a(_umoddi3.o)

.data           0x00000000        0x0
 .data          0x00000000        0x0 c:/program files (x86)/microchip/xc32/v1.40/bin/bin/../../lib/gcc/pic32mx/4.8.3\libgcc.a(_umoddi3.o)

.bss            0x00000000        0x0
 .bss           0x00000000        0x0 c:/program files (x86)/microchip/xc32/v1.40/bin/bin/../../lib/gcc/pic32mx/4.8.3\libgcc.a(_udivdi3.o)

.data           0x00000000        0x0
 .data          0x00000000        0x0 c:/program files (x86)/microchip/xc32/v1.40/bin/bin/../../lib/gcc/pic32mx/4.8.3\libgcc.a(_udivdi3.o)

.bss            0x00000000        0x0
 .bss           0x00000000        0x0 c:/program files (x86)/microchip/xc32/v1.40/bin/bin/../../lib/gcc/pic32mx/4.8.3/../../../../pic32mx/lib\libmchp_peripheral_32MX575F256L.a(int_enable_interrupts_lib.o)

.data           0x00000000        0x0
 .data          0x00000000        0x0 c:/program files (x86)/microchip/xc32/v1.40/bin/bin/../../lib/gcc/pic32mx/4.8.3/../../../../pic32mx/lib\libmchp_peripheral_32MX575F256L.a(int_enable_interrupts_lib.o)

.bss            0x00000000        0x0
 .bss           0x00000000        0x0 c:/program files (x86)/microchip/xc32/v1.40/bin/bin/../../lib/gcc/pic32mx/4.8.3/../../../../pic32mx/lib\libmchp_peripheral_32MX575F256L.a(I2CTransmitterIsReady.o)

.data           0x00000000        0x0
 .data          0x00000000        0x0 c:/program files (x86)/microchip/xc32/v1.40/bin/bin/../../lib/gcc/pic32mx/4.8.3/../../../../pic32mx/lib\libmchp_peripheral_32MX575F256L.a(I2CTransmitterIsReady.o)

.bss            0x00000000        0x0
 .bss           0x00000000        0x0 c:/program files (x86)/microchip/xc32/v1.40/bin/bin/../../lib/gcc/pic32mx/4.8.3/../../../../pic32mx/lib\libmchp_peripheral_32MX575F256L.a(I2CTransmissionHasCompleted.o)

.data           0x00000000        0x0
 .data          0x00000000        0x0 c:/program files (x86)/microchip/xc32/v1.40/bin/bin/../../lib/gcc/pic32mx/4.8.3/../../../../pic32mx/lib\libmchp_peripheral_32MX575F256L.a(I2CTransmissionHasCompleted.o)

.bss            0x00000000        0x0
 .bss           0x00000000        0x0 c:/program files (x86)/microchip/xc32/v1.40/bin/bin/../../lib/gcc/pic32mx/4.8.3/../../../../pic32mx/lib\libmchp_peripheral_32MX575F256L.a(I2CStop.o)

.data           0x00000000        0x0
 .data          0x00000000        0x0 c:/program files (x86)/microchip/xc32/v1.40/bin/bin/../../lib/gcc/pic32mx/4.8.3/../../../../pic32mx/lib\libmchp_peripheral_32MX575F256L.a(I2CStop.o)

.bss            0x00000000        0x0
 .bss           0x00000000        0x0 c:/program files (x86)/microchip/xc32/v1.40/bin/bin/../../lib/gcc/pic32mx/4.8.3/../../../../pic32mx/lib\libmchp_peripheral_32MX575F256L.a(I2CStart.o)

.data           0x00000000        0x0
 .data          0x00000000        0x0 c:/program files (x86)/microchip/xc32/v1.40/bin/bin/../../lib/gcc/pic32mx/4.8.3/../../../../pic32mx/lib\libmchp_peripheral_32MX575F256L.a(I2CStart.o)

.bss            0x00000000        0x0
 .bss           0x00000000        0x0 c:/program files (x86)/microchip/xc32/v1.40/bin/bin/../../lib/gcc/pic32mx/4.8.3/../../../../pic32mx/lib\libmchp_peripheral_32MX575F256L.a(I2CSetFrequency.o)

.data           0x00000000        0x0
 .data          0x00000000        0x0 c:/program files (x86)/microchip/xc32/v1.40/bin/bin/../../lib/gcc/pic32mx/4.8.3/../../../../pic32mx/lib\libmchp_peripheral_32MX575F256L.a(I2CSetFrequency.o)

.bss            0x00000000        0x0
 .bss           0x00000000        0x0 c:/program files (x86)/microchip/xc32/v1.40/bin/bin/../../lib/gcc/pic32mx/4.8.3/../../../../pic32mx/lib\libmchp_peripheral_32MX575F256L.a(I2CRepeatStart.o)

.data           0x00000000        0x0
 .data          0x00000000        0x0 c:/program files (x86)/microchip/xc32/v1.40/bin/bin/../../lib/gcc/pic32mx/4.8.3/../../../../pic32mx/lib\libmchp_peripheral_32MX575F256L.a(I2CRepeatStart.o)

.bss            0x00000000        0x0
 .bss           0x00000000        0x0 c:/program files (x86)/microchip/xc32/v1.40/bin/bin/../../lib/gcc/pic32mx/4.8.3/../../../../pic32mx/lib\libmchp_peripheral_32MX575F256L.a(I2CReceiverEnable.o)

.data           0x00000000        0x0
 .data          0x00000000        0x0 c:/program files (x86)/microchip/xc32/v1.40/bin/bin/../../lib/gcc/pic32mx/4.8.3/../../../../pic32mx/lib\libmchp_peripheral_32MX575F256L.a(I2CReceiverEnable.o)

.bss            0x00000000        0x0
 .bss           0x00000000        0x0 c:/program files (x86)/microchip/xc32/v1.40/bin/bin/../../lib/gcc/pic32mx/4.8.3/../../../../pic32mx/lib\libmchp_peripheral_32MX575F256L.a(I2CReceivedDataIsAvailable.o)

.data           0x00000000        0x0
 .data          0x00000000        0x0 c:/program files (x86)/microchip/xc32/v1.40/bin/bin/../../lib/gcc/pic32mx/4.8.3/../../../../pic32mx/lib\libmchp_peripheral_32MX575F256L.a(I2CReceivedDataIsAvailable.o)

.bss            0x00000000        0x0
 .bss           0x00000000        0x0 c:/program files (x86)/microchip/xc32/v1.40/bin/bin/../../lib/gcc/pic32mx/4.8.3/../../../../pic32mx/lib\libmchp_peripheral_32MX575F256L.a(I2CGetStatus.o)

.data           0x00000000        0x0
 .data          0x00000000        0x0 c:/program files (x86)/microchip/xc32/v1.40/bin/bin/../../lib/gcc/pic32mx/4.8.3/../../../../pic32mx/lib\libmchp_peripheral_32MX575F256L.a(I2CGetStatus.o)

.bss            0x00000000        0x0
 .bss           0x00000000        0x0 c:/program files (x86)/microchip/xc32/v1.40/bin/bin/../../lib/gcc/pic32mx/4.8.3/../../../../pic32mx/lib\libmchp_peripheral_32MX575F256L.a(I2CGetByte.o)

.data           0x00000000        0x0
 .data          0x00000000        0x0 c:/program files (x86)/microchip/xc32/v1.40/bin/bin/../../lib/gcc/pic32mx/4.8.3/../../../../pic32mx/lib\libmchp_peripheral_32MX575F256L.a(I2CGetByte.o)

.bss            0x00000000        0x0
 .bss           0x00000000        0x0 c:/program files (x86)/microchip/xc32/v1.40/bin/bin/../../lib/gcc/pic32mx/4.8.3/../../../../pic32mx/lib\libmchp_peripheral_32MX575F256L.a(I2CEnable.o)

.data           0x00000000        0x0
 .data          0x00000000        0x0 c:/program files (x86)/microchip/xc32/v1.40/bin/bin/../../lib/gcc/pic32mx/4.8.3/../../../../pic32mx/lib\libmchp_peripheral_32MX575F256L.a(I2CEnable.o)

.bss            0x00000000        0x0
 .bss           0x00000000        0x0 c:/program files (x86)/microchip/xc32/v1.40/bin/bin/../../lib/gcc/pic32mx/4.8.3/../../../../pic32mx/lib\libmchp_peripheral_32MX575F256L.a(I2CByteWasAcknowledged.o)

.data           0x00000000        0x0
 .data          0x00000000        0x0 c:/program files (x86)/microchip/xc32/v1.40/bin/bin/../../lib/gcc/pic32mx/4.8.3/../../../../pic32mx/lib\libmchp_peripheral_32MX575F256L.a(I2CByteWasAcknowledged.o)

.bss            0x00000000        0x0
 .bss           0x00000000        0x0 c:/program files (x86)/microchip/xc32/v1.40/bin/bin/../../lib/gcc/pic32mx/4.8.3/../../../../pic32mx/lib\libmchp_peripheral_32MX575F256L.a(I2CBusIsIdle.o)

.data           0x00000000        0x0
 .data          0x00000000        0x0 c:/program files (x86)/microchip/xc32/v1.40/bin/bin/../../lib/gcc/pic32mx/4.8.3/../../../../pic32mx/lib\libmchp_peripheral_32MX575F256L.a(I2CBusIsIdle.o)

.bss            0x00000000        0x0
 .bss           0x00000000        0x0 c:/program files (x86)/microchip/xc32/v1.40/bin/bin/../../lib/gcc/pic32mx/4.8.3/../../../../pic32mx/lib\libmchp_peripheral_32MX575F256L.a(I2CPrivate.o)

.data           0x00000000        0x0
 .data          0x00000000        0x0 c:/program files (x86)/microchip/xc32/v1.40/bin/bin/../../lib/gcc/pic32mx/4.8.3/../../../../pic32mx/lib\libmchp_peripheral_32MX575F256L.a(I2CPrivate.o)

.bss            0x00000000        0x0
 .bss           0x00000000        0x0 c:/program files (x86)/microchip/xc32/v1.40/bin/bin/../../lib/gcc/pic32mx/4.8.3/../../../../pic32mx/lib\libmchp_peripheral_32MX575F256L.a(idle_i2c2_lib_legacy.o)

.data           0x00000000        0x0
 .data          0x00000000        0x0 c:/program files (x86)/microchip/xc32/v1.40/bin/bin/../../lib/gcc/pic32mx/4.8.3/../../../../pic32mx/lib\libmchp_peripheral_32MX575F256L.a(idle_i2c2_lib_legacy.o)

.bss            0x00000000        0x0
 .bss           0x00000000        0x0 c:/program files (x86)/microchip/xc32/v1.40/bin/bin/../../lib/gcc/pic32mx/4.8.3/../../../../pic32mx/lib\libmchp_peripheral_32MX575F256L.a(puts_uartx_lib_legacy.o)

.data           0x00000000        0x0
 .data          0x00000000        0x0 c:/program files (x86)/microchip/xc32/v1.40/bin/bin/../../lib/gcc/pic32mx/4.8.3/../../../../pic32mx/lib\libmchp_peripheral_32MX575F256L.a(puts_uartx_lib_legacy.o)

.bss            0x00000000        0x0
 .bss           0x00000000        0x0 c:/program files (x86)/microchip/xc32/v1.40/bin/bin/../../lib/gcc/pic32mx/4.8.3/../../../../pic32mx/lib\libmchp_peripheral_32MX575F256L.a(uart_lib.o)

.data           0x00000000        0x0
 .data          0x00000000        0x0 c:/program files (x86)/microchip/xc32/v1.40/bin/bin/../../lib/gcc/pic32mx/4.8.3/../../../../pic32mx/lib\libmchp_peripheral_32MX575F256L.a(uart_lib.o)

.bss            0x00000000        0x0
 .bss           0x00000000        0x0 c:/program files (x86)/microchip/xc32/v1.40/bin/bin/../../lib/gcc/pic32mx/4.8.3/../../../../pic32mx/lib\libmchp_peripheral_32MX575F256L.a(int_tbl_lib.o)

.data           0x00000000        0x0
 .data          0x00000000        0x0 c:/program files (x86)/microchip/xc32/v1.40/bin/bin/../../lib/gcc/pic32mx/4.8.3/../../../../pic32mx/lib\libmchp_peripheral_32MX575F256L.a(int_tbl_lib.o)

.bss            0x00000000        0x0
 .bss           0x00000000        0x0 c:/program files (x86)/microchip/xc32/v1.40/bin/bin/../../lib/gcc/pic32mx/4.8.3/../../../../pic32mx/lib\libmchp_peripheral_32MX575F256L.a(int_enable_mv_int_lib.o)

.data           0x00000000        0x0
 .data          0x00000000        0x0 c:/program files (x86)/microchip/xc32/v1.40/bin/bin/../../lib/gcc/pic32mx/4.8.3/../../../../pic32mx/lib\libmchp_peripheral_32MX575F256L.a(int_enable_mv_int_lib.o)

.bss            0x00000000        0x0
 .bss           0x00000000        0x0 c:/program files (x86)/microchip/xc32/v1.40/bin/bin/../../lib/gcc/pic32mx/4.8.3/../../../../pic32mx/lib\libmchp_peripheral_32MX575F256L.a(int_restore_interrupts_lib.o)

.data           0x00000000        0x0
 .data          0x00000000        0x0 c:/program files (x86)/microchip/xc32/v1.40/bin/bin/../../lib/gcc/pic32mx/4.8.3/../../../../pic32mx/lib\libmchp_peripheral_32MX575F256L.a(int_restore_interrupts_lib.o)

.bss            0x00000000        0x0
 .bss           0x00000000        0x0 c:/program files (x86)/microchip/xc32/v1.40/bin/bin/../../lib/gcc/pic32mx/4.8.3/../../../../pic32mx/lib\libmchp_peripheral_32MX575F256L.a(int_disable_interrupts_lib.o)

.data           0x00000000        0x0
 .data          0x00000000        0x0 c:/program files (x86)/microchip/xc32/v1.40/bin/bin/../../lib/gcc/pic32mx/4.8.3/../../../../pic32mx/lib\libmchp_peripheral_32MX575F256L.a(int_disable_interrupts_lib.o)

.bss            0x00000000        0x0
 .bss           0x00000000        0x0 c:/program files (x86)/microchip/xc32/v1.40/bin/bin/../../lib/gcc/pic32mx/4.8.3/../../../../pic32mx/lib\libmchp_peripheral_32MX575F256L.a(pcache.o)

.data           0x00000000        0x0
 .data          0x00000000        0x0 c:/program files (x86)/microchip/xc32/v1.40/bin/bin/../../lib/gcc/pic32mx/4.8.3/../../../../pic32mx/lib\libmchp_peripheral_32MX575F256L.a(pcache.o)

.bss            0x00000000        0x0
 .bss           0x00000000        0x0 c:/program files (x86)/microchip/xc32/v1.40/bin/bin/../../lib/gcc/pic32mx/4.8.3/../../../../pic32mx/lib\libmchp_peripheral_32MX575F256L.a(soft_reset_lib.o)

.data           0x00000000        0x0
 .data          0x00000000        0x0 c:/program files (x86)/microchip/xc32/v1.40/bin/bin/../../lib/gcc/pic32mx/4.8.3/../../../../pic32mx/lib\libmchp_peripheral_32MX575F256L.a(soft_reset_lib.o)

.bss            0x00000000        0x0
 .bss           0x00000000        0x0 c:/program files (x86)/microchip/xc32/v1.40/bin/bin/../../lib/gcc/pic32mx/4.8.3/../../../../pic32mx/lib/./proc/32MX575F256L\processor.o

.data           0x00000000        0x0
 .data          0x00000000        0x0 c:/program files (x86)/microchip/xc32/v1.40/bin/bin/../../lib/gcc/pic32mx/4.8.3/../../../../pic32mx/lib/./proc/32MX575F256L\processor.o

.bss            0x00000000        0x0
 .bss           0x00000000        0x0 c:/program files (x86)/microchip/xc32/v1.40/bin/bin/../../lib/gcc/pic32mx/4.8.3/../../../../pic32mx/lib\pic32_software_reset.o

.data           0x00000000        0x0
 .data          0x00000000        0x0 c:/program files (x86)/microchip/xc32/v1.40/bin/bin/../../lib/gcc/pic32mx/4.8.3/../../../../pic32mx/lib\pic32_software_reset.o

.bss            0x00000000        0x0
 .bss           0x00000000        0x0 c:/program files (x86)/microchip/xc32/v1.40/bin/bin/../../lib/gcc/pic32mx/4.8.3/../../../../pic32mx/lib/./proc/32MX575F256L\default_isr_vectors.o

.data           0x00000000        0x0
 .data          0x00000000        0x0 c:/program files (x86)/microchip/xc32/v1.40/bin/bin/../../lib/gcc/pic32mx/4.8.3/../../../../pic32mx/lib/./proc/32MX575F256L\default_isr_vectors.o

.bss            0x00000000        0x0
 .bss           0x00000000        0x0 build/default/production/_ext/1472/RESTAPI.o

.data           0x00000000        0x0
 .data          0x00000000        0x0 build/default/production/_ext/1472/RESTAPI.o

.data           0x00000000        0x0
 .data          0x00000000        0x0 build/default/production/_ext/1472/debugging.o

.bss            0x00000000        0x0
 .bss           0x00000000        0x0 build/default/production/_ext/1472/BasicDR.o

.data           0x00000000        0x0
 .data          0x00000000        0x0 build/default/production/_ext/1472/BasicDR.o

.bss            0x00000000        0x0
 .bss           0x00000000        0x0 build/default/production/_ext/1472/LinkLayerMessaging.o

.data           0x00000000        0x0
 .data          0x00000000        0x0 build/default/production/_ext/1472/LinkLayerMessaging.o

.bss            0x00000000        0x0
 .bss           0x00000000        0x0 build/default/production/_ext/1472/MCI_Common.o

.bss            0x00000000        0x0
 .bss           0x00000000        0x0 build/default/production/_ext/1472/EPRI_SPILayer.o

.data           0x00000000        0x0
 .data          0x00000000        0x0 build/default/production/_ext/1472/EPRI_SPILayer.o

.bss            0x00000000        0x0
 .bss           0x00000000        0x0 build/default/production/_ext/1472/Assert.o

.data           0x00000000        0x0
 .data          0x00000000        0x0 build/default/production/_ext/1472/Assert.o

.bss            0x00000000        0x0
 .bss           0x00000000        0x0 build/default/production/_ext/1472/app_UCM.o

.data           0x00000000        0x0
 .data          0x00000000        0x0 build/default/production/_ext/1472/app_UCM.o

.bss            0x00000000        0x0
 .bss           0x00000000        0x0 build/default/production/_ext/1472/EPRI_UARTLayer.o

.data           0x00000000        0x0
 .data          0x00000000        0x0 build/default/production/_ext/1472/EPRI_UARTLayer.o

.bss            0x00000000        0x0
 .bss           0x00000000        0x0 build/default/production/_ext/1472/TimeMonitor.o

.data           0x00000000        0x0
 .data          0x00000000        0x0 build/default/production/_ext/1472/TimeMonitor.o

.bss            0x00000000        0x0
 .bss           0x00000000        0x0 build/default/production/_ext/1472/UARTiMain.o

.data           0x00000000        0x0
 .data          0x00000000        0x0 build/default/production/_ext/1472/UARTiMain.o

.bss            0x00000000        0x0
 .bss           0x00000000        0x0 build/default/production/_ext/1472/INTiMain.o

.data           0x00000000        0x0
 .data          0x00000000        0x0 build/default/production/_ext/1472/INTiMain.o

.bss            0x00000000        0x0
 .bss           0x00000000        0x0 build/default/production/_ext/1472/i2c_master.o

.data           0x00000000        0x0
 .data          0x00000000        0x0 build/default/production/_ext/1472/i2c_master.o

.bss            0x00000000        0x0
 .bss           0x00000000        0x0 build/default/production/_ext/1472/WifiGDemoMPFSImg.o

.data           0x00000000        0x0
 .data          0x00000000        0x0 build/default/production/_ext/1472/WifiGDemoMPFSImg.o

.bss            0x00000000        0x0
 .bss           0x00000000        0x0 build/default/production/_ext/1472/WF_Config.o

.data           0x00000000        0x0
 .data          0x00000000        0x0 build/default/production/_ext/1472/WF_Config.o

.data           0x00000000        0x0
 .data          0x00000000        0x0 build/default/production/_ext/1472/CustomHTTPApp.o

.bss            0x00000000        0x0
 .bss           0x00000000        0x0 build/default/production/_ext/1472/Main.o

.data           0x00000000        0x0
 .data          0x00000000        0x0 build/default/production/_ext/1472/Main.o

.bss            0x00000000        0x0
 .bss           0x00000000        0x0 build/default/production/_ext/388820833/WFParamMsg_24G.o

.data           0x00000000        0x0
 .data          0x00000000        0x0 build/default/production/_ext/388820833/WFParamMsg_24G.o

.bss            0x00000000        0x0
 .bss           0x00000000        0x0 build/default/production/_ext/388820833/WFMgmtMsg_24G.o

.data           0x00000000        0x0
 .data          0x00000000        0x0 build/default/production/_ext/388820833/WFMgmtMsg_24G.o

.bss            0x00000000        0x0
 .bss           0x00000000        0x0 build/default/production/_ext/388820833/WFMac_24G.o

.data           0x00000000        0x0
 .data          0x00000000        0x0 build/default/production/_ext/388820833/WFMac_24G.o

.bss            0x00000000        0x0
 .bss           0x00000000        0x0 build/default/production/_ext/388820833/WFDriverRaw_24G.o

.data           0x00000000        0x0
 .data          0x00000000        0x0 build/default/production/_ext/388820833/WFDriverRaw_24G.o

.bss            0x00000000        0x0
 .bss           0x00000000        0x0 build/default/production/_ext/388820833/WFDriverCom_24G.o

.data           0x00000000        0x0
 .data          0x00000000        0x0 build/default/production/_ext/388820833/WFDriverCom_24G.o

.bss            0x00000000        0x0
 .bss           0x00000000        0x0 build/default/production/_ext/388820833/WF_Spi.o

.data           0x00000000        0x0
 .data          0x00000000        0x0 build/default/production/_ext/388820833/WF_Spi.o

.bss            0x00000000        0x0
 .bss           0x00000000        0x0 build/default/production/_ext/388820833/WFTxPower.o

.data           0x00000000        0x0
 .data          0x00000000        0x0 build/default/production/_ext/388820833/WFTxPower.o

.bss            0x00000000        0x0
 .bss           0x00000000        0x0 build/default/production/_ext/388820833/WFScan.o

.data           0x00000000        0x0
 .data          0x00000000        0x0 build/default/production/_ext/388820833/WFScan.o

.bss            0x00000000        0x0
 .bss           0x00000000        0x0 build/default/production/_ext/388820833/WFPowerSave.o

.data           0x00000000        0x0
 .data          0x00000000        0x0 build/default/production/_ext/388820833/WFPowerSave.o

.bss            0x00000000        0x0
 .bss           0x00000000        0x0 build/default/production/_ext/388820833/WFInit.o

.data           0x00000000        0x0
 .data          0x00000000        0x0 build/default/production/_ext/388820833/WFInit.o

.bss            0x00000000        0x0
 .bss           0x00000000        0x0 build/default/production/_ext/388820833/WFEventHandler.o

.data           0x00000000        0x0
 .data          0x00000000        0x0 build/default/production/_ext/388820833/WFEventHandler.o

.bss            0x00000000        0x0
 .bss           0x00000000        0x0 build/default/production/_ext/388820833/WFEasyConfig.o

.data           0x00000000        0x0
 .data          0x00000000        0x0 build/default/production/_ext/388820833/WFEasyConfig.o

.bss            0x00000000        0x0
 .bss           0x00000000        0x0 build/default/production/_ext/388820833/WFDebugStrings.o

.bss            0x00000000        0x0
 .bss           0x00000000        0x0 build/default/production/_ext/388820833/WFDataTxRx.o

.data           0x00000000        0x0
 .data          0x00000000        0x0 build/default/production/_ext/388820833/WFDataTxRx.o

.bss            0x00000000        0x0
 .bss           0x00000000        0x0 build/default/production/_ext/388820833/WFConsoleMsgs.o

.data           0x00000000        0x0
 .data          0x00000000        0x0 build/default/production/_ext/388820833/WFConsoleMsgs.o

.bss            0x00000000        0x0
 .bss           0x00000000        0x0 build/default/production/_ext/388820833/WFConsoleMsgHandler.o

.data           0x00000000        0x0
 .data          0x00000000        0x0 build/default/production/_ext/388820833/WFConsoleMsgHandler.o

.bss            0x00000000        0x0
 .bss           0x00000000        0x0 build/default/production/_ext/388820833/WFConsoleIwpriv.o

.data           0x00000000        0x0
 .data          0x00000000        0x0 build/default/production/_ext/388820833/WFConsoleIwpriv.o

.bss            0x00000000        0x0
 .bss           0x00000000        0x0 build/default/production/_ext/388820833/WFConsoleIwconfig.o

.data           0x00000000        0x0
 .data          0x00000000        0x0 build/default/production/_ext/388820833/WFConsoleIwconfig.o

.bss            0x00000000        0x0
 .bss           0x00000000        0x0 build/default/production/_ext/388820833/WFConsoleIfconfig.o

.data           0x00000000        0x0
 .data          0x00000000        0x0 build/default/production/_ext/388820833/WFConsoleIfconfig.o

.bss            0x00000000        0x0
 .bss           0x00000000        0x0 build/default/production/_ext/388820833/WFConsole.o

.data           0x00000000        0x0
 .data          0x00000000        0x0 build/default/production/_ext/388820833/WFConsole.o

.bss            0x00000000        0x0
 .bss           0x00000000        0x0 build/default/production/_ext/388820833/WFConnectionProfile.o

.data           0x00000000        0x0
 .data          0x00000000        0x0 build/default/production/_ext/388820833/WFConnectionProfile.o

.bss            0x00000000        0x0
 .bss           0x00000000        0x0 build/default/production/_ext/388820833/WFConnectionManager.o

.data           0x00000000        0x0
 .data          0x00000000        0x0 build/default/production/_ext/388820833/WFConnectionManager.o

.bss            0x00000000        0x0
 .bss           0x00000000        0x0 build/default/production/_ext/388820833/WFConnectionAlgorithm.o

.data           0x00000000        0x0
 .data          0x00000000        0x0 build/default/production/_ext/388820833/WFConnectionAlgorithm.o

.bss            0x00000000        0x0
 .bss           0x00000000        0x0 build/default/production/_ext/388820833/WF_pbkdf2.o

.data           0x00000000        0x0
 .data          0x00000000        0x0 build/default/production/_ext/388820833/WF_pbkdf2.o

.bss            0x00000000        0x0
 .bss           0x00000000        0x0 build/default/production/_ext/388820833/WF_Eint.o

.data           0x00000000        0x0
 .data          0x00000000        0x0 build/default/production/_ext/388820833/WF_Eint.o

.bss            0x00000000        0x0
 .bss           0x00000000        0x0 build/default/production/_ext/93166211/DHCPs.o

.data           0x00000000        0x0
 .data          0x00000000        0x0 build/default/production/_ext/93166211/DHCPs.o

.data           0x00000000        0x0
 .data          0x00000000        0x0 build/default/production/_ext/93166211/DHCP.o

.data           0x00000000        0x0
 .data          0x00000000        0x0 build/default/production/_ext/93166211/ZeroconfMulticastDNS.o

.bss            0x00000000        0x0
 .bss           0x00000000        0x0 build/default/production/_ext/93166211/ZeroconfLinkLocal.o

.data           0x00000000        0x0
 .data          0x00000000        0x0 build/default/production/_ext/93166211/ZeroconfLinkLocal.o

.bss            0x00000000        0x0
 .bss           0x00000000        0x0 build/default/production/_ext/93166211/ZeroconfHelper.o

.data           0x00000000        0x0
 .data          0x00000000        0x0 build/default/production/_ext/93166211/ZeroconfHelper.o

.bss            0x00000000        0x0
 .bss           0x00000000        0x0 build/default/production/_ext/93166211/UDPPerformanceTest.o

.data           0x00000000        0x0
 .data          0x00000000        0x0 build/default/production/_ext/93166211/UDPPerformanceTest.o

.bss            0x00000000        0x0
 .bss           0x00000000        0x0 build/default/production/_ext/93166211/UDP.o

.data           0x00000000        0x0
 .data          0x00000000        0x0 build/default/production/_ext/93166211/UDP.o

.bss            0x00000000        0x0
 .bss           0x00000000        0x0 build/default/production/_ext/93166211/UART2TCPBridge.o

.data           0x00000000        0x0
 .data          0x00000000        0x0 build/default/production/_ext/93166211/UART2TCPBridge.o

.bss            0x00000000        0x0
 .bss           0x00000000        0x0 build/default/production/_ext/93166211/Tick.o

.data           0x00000000        0x0
 .data          0x00000000        0x0 build/default/production/_ext/93166211/Tick.o

.bss            0x00000000        0x0
 .bss           0x00000000        0x0 build/default/production/_ext/93166211/TFTPc.o

.data           0x00000000        0x0
 .data          0x00000000        0x0 build/default/production/_ext/93166211/TFTPc.o

.bss            0x00000000        0x0
 .bss           0x00000000        0x0 build/default/production/_ext/93166211/Telnet.o

.data           0x00000000        0x0
 .data          0x00000000        0x0 build/default/production/_ext/93166211/Telnet.o

.bss            0x00000000        0x0
 .bss           0x00000000        0x0 build/default/production/_ext/93166211/TCPPerformanceTest.o

.data           0x00000000        0x0
 .data          0x00000000        0x0 build/default/production/_ext/93166211/TCPPerformanceTest.o

.data           0x00000000        0x0
 .data          0x00000000        0x0 build/default/production/_ext/93166211/TCP.o

.bss            0x00000000        0x0
 .bss           0x00000000        0x0 build/default/production/_ext/93166211/StackTsk.o

.data           0x00000000        0x0
 .data          0x00000000        0x0 build/default/production/_ext/93166211/StackTsk.o

.bss            0x00000000        0x0
 .bss           0x00000000        0x0 build/default/production/_ext/93166211/SSL.o

.data           0x00000000        0x0
 .data          0x00000000        0x0 build/default/production/_ext/93166211/SSL.o

.bss            0x00000000        0x0
 .bss           0x00000000        0x0 build/default/production/_ext/93166211/SPIRAM.o

.data           0x00000000        0x0
 .data          0x00000000        0x0 build/default/production/_ext/93166211/SPIRAM.o

.bss            0x00000000        0x0
 .bss           0x00000000        0x0 build/default/production/_ext/93166211/SPIFlash.o

.data           0x00000000        0x0
 .data          0x00000000        0x0 build/default/production/_ext/93166211/SPIFlash.o

.bss            0x00000000        0x0
 .bss           0x00000000        0x0 build/default/production/_ext/93166211/SPIEEPROM.o

.data           0x00000000        0x0
 .data          0x00000000        0x0 build/default/production/_ext/93166211/SPIEEPROM.o

.bss            0x00000000        0x0
 .bss           0x00000000        0x0 build/default/production/_ext/93166211/SNTP.o

.data           0x00000000        0x0
 .data          0x00000000        0x0 build/default/production/_ext/93166211/SNTP.o

.bss            0x00000000        0x0
 .bss           0x00000000        0x0 build/default/production/_ext/93166211/SNMPv3USM.o

.data           0x00000000        0x0
 .data          0x00000000        0x0 build/default/production/_ext/93166211/SNMPv3USM.o

.bss            0x00000000        0x0
 .bss           0x00000000        0x0 build/default/production/_ext/93166211/SNMPv3.o

.data           0x00000000        0x0
 .data          0x00000000        0x0 build/default/production/_ext/93166211/SNMPv3.o

.bss            0x00000000        0x0
 .bss           0x00000000        0x0 build/default/production/_ext/93166211/SNMP.o

.data           0x00000000        0x0
 .data          0x00000000        0x0 build/default/production/_ext/93166211/SNMP.o

.bss            0x00000000        0x0
 .bss           0x00000000        0x0 build/default/production/_ext/93166211/SMTP.o

.data           0x00000000        0x0
 .data          0x00000000        0x0 build/default/production/_ext/93166211/SMTP.o

.bss            0x00000000        0x0
 .bss           0x00000000        0x0 build/default/production/_ext/93166211/RSA.o

.data           0x00000000        0x0
 .data          0x00000000        0x0 build/default/production/_ext/93166211/RSA.o

.bss            0x00000000        0x0
 .bss           0x00000000        0x0 build/default/production/_ext/93166211/Reboot.o

.data           0x00000000        0x0
 .data          0x00000000        0x0 build/default/production/_ext/93166211/Reboot.o

.bss            0x00000000        0x0
 .bss           0x00000000        0x0 build/default/production/_ext/93166211/Random.o

.data           0x00000000        0x0
 .data          0x00000000        0x0 build/default/production/_ext/93166211/Random.o

.bss            0x00000000        0x0
 .bss           0x00000000        0x0 build/default/production/_ext/93166211/NBNS.o

.data           0x00000000        0x0
 .data          0x00000000        0x0 build/default/production/_ext/93166211/NBNS.o

.data           0x00000000        0x0
 .data          0x00000000        0x0 build/default/production/_ext/93166211/MPFS2.o

.bss            0x00000000        0x0
 .bss           0x00000000        0x0 build/default/production/_ext/93166211/LCDBlocking.o

.data           0x00000000        0x0
 .data          0x00000000        0x0 build/default/production/_ext/93166211/LCDBlocking.o

.bss            0x00000000        0x0
 .bss           0x00000000        0x0 build/default/production/_ext/93166211/IP.o

.data           0x00000000        0x0
 .data          0x00000000        0x0 build/default/production/_ext/93166211/IP.o

.bss            0x00000000        0x0
 .bss           0x00000000        0x0 build/default/production/_ext/93166211/ICMP.o

.data           0x00000000        0x0
 .data          0x00000000        0x0 build/default/production/_ext/93166211/ICMP.o

.bss            0x00000000        0x0
 .bss           0x00000000        0x0 build/default/production/_ext/93166211/HTTP2.o

.data           0x00000000        0x0
 .data          0x00000000        0x0 build/default/production/_ext/93166211/HTTP2.o

.bss            0x00000000        0x0
 .bss           0x00000000        0x0 build/default/production/_ext/93166211/Helpers.o

.data           0x00000000        0x0
 .data          0x00000000        0x0 build/default/production/_ext/93166211/Helpers.o

.bss            0x00000000        0x0
 .bss           0x00000000        0x0 build/default/production/_ext/93166211/Hashes.o

.data           0x00000000        0x0
 .data          0x00000000        0x0 build/default/production/_ext/93166211/Hashes.o

.bss            0x00000000        0x0
 .bss           0x00000000        0x0 build/default/production/_ext/93166211/FTP.o

.data           0x00000000        0x0
 .data          0x00000000        0x0 build/default/production/_ext/93166211/FTP.o

.bss            0x00000000        0x0
 .bss           0x00000000        0x0 build/default/production/_ext/93166211/FileSystem.o

.data           0x00000000        0x0
 .data          0x00000000        0x0 build/default/production/_ext/93166211/FileSystem.o

.bss            0x00000000        0x0
 .bss           0x00000000        0x0 build/default/production/_ext/93166211/DynDNS.o

.data           0x00000000        0x0
 .data          0x00000000        0x0 build/default/production/_ext/93166211/DynDNS.o

.data           0x00000000        0x0
 .data          0x00000000        0x0 build/default/production/_ext/93166211/DNSs.o

.data           0x00000000        0x0
 .data          0x00000000        0x0 build/default/production/_ext/93166211/DNS.o

.bss            0x00000000        0x0
 .bss           0x00000000        0x0 build/default/production/_ext/93166211/Delay.o

.data           0x00000000        0x0
 .data          0x00000000        0x0 build/default/production/_ext/93166211/Delay.o

.bss            0x00000000        0x0
 .bss           0x00000000        0x0 build/default/production/_ext/93166211/BigInt_helper_PIC32.o

.data           0x00000000        0x0
 .data          0x00000000        0x0 build/default/production/_ext/93166211/BigInt_helper_PIC32.o

.bss            0x00000000        0x0
 .bss           0x00000000        0x0 build/default/production/_ext/93166211/BigInt.o

.data           0x00000000        0x0
 .data          0x00000000        0x0 build/default/production/_ext/93166211/BigInt.o

.bss            0x00000000        0x0
 .bss           0x00000000        0x0 build/default/production/_ext/93166211/BerkeleyAPI.o

.data           0x00000000        0x0
 .data          0x00000000        0x0 build/default/production/_ext/93166211/BerkeleyAPI.o

.bss            0x00000000        0x0
 .bss           0x00000000        0x0 build/default/production/_ext/93166211/AutoIP.o

.data           0x00000000        0x0
 .data          0x00000000        0x0 build/default/production/_ext/93166211/AutoIP.o

.data           0x00000000        0x0
 .data          0x00000000        0x0 build/default/production/_ext/93166211/ARP.o

.bss            0x00000000        0x0
 .bss           0x00000000        0x0 build/default/production/_ext/93166211/ARCFOUR.o

.data           0x00000000        0x0
 .data          0x00000000        0x0 build/default/production/_ext/93166211/ARCFOUR.o

.bss            0x00000000        0x0
 .bss           0x00000000        0x0 build/default/production/_ext/93166211/Announce.o

.data           0x00000000        0x0
 .data          0x00000000        0x0 build/default/production/_ext/93166211/Announce.o

.bss            0x00000000        0x0
 .bss           0x00000000        0x0 c:/program files (x86)/microchip/xc32/v1.40/bin/bin/../../lib/gcc/pic32mx/4.8.3/../../../../pic32mx/lib\debug-exception-return.o

.data           0x00000000        0x0
 .data          0x00000000        0x0 c:/program files (x86)/microchip/xc32/v1.40/bin/bin/../../lib/gcc/pic32mx/4.8.3/../../../../pic32mx/lib\debug-exception-return.o

.bss            0x00000000        0x0
 .bss           0x00000000        0x0 c:/program files (x86)/microchip/xc32/v1.40/bin/bin/../../lib/gcc/pic32mx/4.8.3/../../../../pic32mx/lib/./proc/32MX575F256L/crt0_mips32r2.o

.data           0x00000000        0x0
 .data          0x00000000        0x0 c:/program files (x86)/microchip/xc32/v1.40/bin/bin/../../lib/gcc/pic32mx/4.8.3/../../../../pic32mx/lib/./proc/32MX575F256L/crt0_mips32r2.o

._debug_exception
                0xbfc00480       0x2c
 ._debug_exception
                0xbfc00480       0x2c c:/program files (x86)/microchip/xc32/v1.40/bin/bin/../../lib/gcc/pic32mx/4.8.3/../../../../pic32mx/lib\debug-exception-return.o
                0xbfc00480                __DbgExecReturn

.rodata         0x9d000000     0x7920
 .rodata        0x9d000000     0x7920 build/default/production/_ext/1472/WifiGDemoMPFSImg.o
                0x9d000000                MPFS_Start

.text           0x9d007920    0x133a0
 .text          0x9d007920     0x46a4 build/default/production/_ext/93166211/TCP.o
                0x9d0079c8                TCPInit
                0x9d007b38                TCPOpen
                0x9d007e48                TCPWasReset
                0x9d007eb4                TCPIsConnected
                0x9d007ef4                TCPDisconnect
                0x9d008100                TCPClose
                0x9d008150                TCPGetRemoteInfo
                0x9d0081b8                TCPFlush
                0x9d008220                TCPIsPutReady
                0x9d0082d8                TCPPut
                0x9d0084c8                TCPPutArray
                0x9d008744                TCPPutString
                0x9d00878c                TCPGetTxFIFOFull
                0x9d0087f8                TCPDiscard
                0x9d008858                TCPIsGetReady
                0x9d0088dc                TCPGet
                0x9d008a4c                TCPGetArray
                0x9d008c60                TCPGetRxFIFOFree
                0x9d008cc8                TCPPeekArray
                0x9d008e40                TCPPeek
                0x9d008e6c                TCPFindArrayEx
                0x9d00925c                TCPFindEx
                0x9d00929c                TCPTick
                0x9d009ca8                TCPProcess
                0x9d00bb90                TCPAdjustFIFOSize
 .text          0x9d00bfc4     0x42dc build/default/production/_ext/1472/OpenADRClient.o
                0x9d00bfc4                InitOpenADRComm
                0x9d00c070                OpenADRClient
                0x9d00c474                HandleTSMOpen
                0x9d00c52c                HandleTSMSocketObtained
                0x9d00c608                HandleTSMWriteSocket
                0x9d00c6fc                HandleTSMProcessResponse
                0x9d00cb54                HandleTSMParseResponse
                0x9d00cc4c                HandleTSMDone
                0x9d00ccc8                ResetHeaderData
                0x9d00ccd8                OpenADRWriteGetSocket
                0x9d00ce48                OpenADRWriteConfirmSocket
                0x9d00cf74                FormatEventStateConfirmXML
                0x9d00d5fc                OpenADRWriteFeedBackSocket
                0x9d00df78                OpenADRWriteOptOutSocket
                0x9d00e874                OpenADRParseGETResponse
                0x9d00ea44                OpenADRParsePOSTResponse
                0x9d00ea68                OpenADRParseFeedBackResponse
                0x9d00ea8c                OpenADRParseOptOutResponse
                0x9d00eab0                HandleListOfEventStateXML
                0x9d00eb58                HandleEventStatesXML
                0x9d00f0ec                ManageOpenADRQueue
                0x9d00f8f0                MovePastNameSpace
                0x9d00f948                TransmitCommGoodPacket
                0x9d00f974                TransmitCommBadPacket
                0x9d00f9a0                RFC882time
                0x9d00fba8                ISO8601time
                0x9d00fd28                MCI_One_Second_Callback
                0x9d00fe34                StringToInt
                0x9d00feac                StringToLongLong
                0x9d00ff74                TagAndIntVal
                0x9d00ffa4                TagAndLongLongVal
                0x9d01000c                TagAndString
                0x9d01010c                Base64Encode
 .text          0x9d0102a0     0x287c build/default/production/_ext/1472/CustomHTTPApp.o
                0x9d0102a0                HTTPExecuteGet
                0x9d010524                HTTPExecutePost
                0x9d011494                HTTPPrint_btn
                0x9d0114fc                HTTPPrint_led
                0x9d011588                HTTPPrint_ipaddr
                0x9d0115ec                HTTPPrint_scan
                0x9d011630                HTTPPrint_code
                0x9d011670                HTTPPrint_meaning
                0x9d0116b4                HTTPPrint_fwver
                0x9d011718                HTTPPrint_ssid
                0x9d011758                HTTPPrint_bssCount
                0x9d011798                HTTPPrint_valid
                0x9d0117d8                HTTPPrint_name
                0x9d0118b0                HTTPPrint_privacy
                0x9d011930                HTTPPrint_curPrivacy
                0x9d011b8c                HTTPPrint_wlan
                0x9d011de8                HTTPPrint_strength
                0x9d011e8c                HTTPPrint_nextSSID
                0x9d011ec4                HTTPPrint_prevSSID
                0x9d011efc                HTTPPrint_prevWLAN
                0x9d012008                HTTPPrint_nextWLAN
                0x9d0120e0                HTTPPrint_LoadResults
                0x9d012118                HTTPPrint_Demoversion
                0x9d012168                HTTPPrint_aplist
                0x9d0123e0                HTTPcodeHandler
                0x9d0124a8                readLine
                0x9d0126e4                ProvideMeaning
 .text          0x9d012b1c     0x21d4 build/default/production/_ext/93166211/ZeroconfMulticastDNS.o
                0x9d0130e4                mDNSSDFillResRecords
                0x9d0133f0                mDNSServiceUpdate
                0x9d0134b8                mDNSServiceDeRegister
                0x9d013590                mDNSServiceRegister
                0x9d0136d8                mDNSAnnounce
                0x9d0141ac                mDNSFillHostRecord
                0x9d014214                mDNSHostRegister
                0x9d0142c4                mDNSInitialize
                0x9d01434c                mDNSProcessInternal
                0x9d014ac8                mDNSProcess
                0x9d014bb0                mDNSMulticastFilterRegister
                0x9d014bf8                mDNSDumpInfo
 .text          0x9d014cf0     0x1c2c build/default/production/_ext/93166211/HTTP2.o
                0x9d014cf0                HTTPPrint
                0x9d014f1c                HTTPPrint_
                0x9d014f50                HTTPInit
                0x9d015020                HTTPServer
                0x9d016294                HTTPURLDecode
                0x9d0163dc                HTTPGetArg
                0x9d016470                HTTPReadPostName
                0x9d0164c8                HTTPReadPostValue
                0x9d0167c0                HTTPIncFile
 .text          0x9d01691c     0x1b3c build/default/production/_ext/388820833/WF_pbkdf2.o
                0x9d01691c                hmac_sha1_vector
                0x9d016ad4                hmac_sha1
                0x9d016b0c                sha1_prf
                0x9d016c54                sha1_t_prf
                0x9d016dc8                pbkdf2_sha1
                0x9d016fb0                sha1_vector
                0x9d017168                sha1_transform
 .text          0x9d018458     0x17e0 build/default/production/_ext/1472/BasicDR.o
                0x9d018458                IntermediateDRMessageHandler
                0x9d0186dc                BasicDRMessageHandler
                0x9d018b68                RelayTimeoutCallback
                0x9d018b7c                CheckDataValid
                0x9d018ba4                BlockUntilReady
                0x9d018bec                SendShedCommand
                0x9d018c78                SendEndShedCommand
                0x9d018cc8                SendRequestForPowerLevel
                0x9d018da8                SendPresentRelativePrice
                0x9d018ef0                SendNextPeriodRelativePrice
                0x9d019038                SendTimeRemainingInPresentPricePeriod
                0x9d0190b8                SendCriticalPeakEvent
                0x9d019138                SendGridEmergency
                0x9d0191b8                SendLoadUp
                0x9d019238                SendTimeSync
                0x9d0192e0                SendQueryOpState
                0x9d019338                SendOutsideCommGood
                0x9d019390                SendOutsideCommLost
                0x9d0193e8                SendSetCommodityRead
                0x9d0194ac                SendGetCommodityRead
                0x9d019574                SendStartAutonomousCycling
                0x9d0196a0                SendGetTemperatureOffset
                0x9d0196f8                SendSetTemperatureOffset
                0x9d019780                SendTerminateAutonomousCycling
                0x9d01982c                SendGetSetPoint
                0x9d019890                SendSetSetPoint
                0x9d01997c                SendGetEnergyPrice
                0x9d0199ec                SendSetEnergyPrice
                0x9d019af0                HandleIDRResponseCode
                0x9d019b74                MakeDurationByte
                0x9d019bf4                ReverseByteOrder
 .text          0x9d019c38     0x1088 build/default/production/_ext/93166211/DHCP.o
                0x9d019c38                DHCPInit
                0x9d019cb8                DHCPDisable
                0x9d019d04                DHCPEnable
                0x9d019d3c                DHCPIsEnabled
                0x9d019d4c                DHCPIsBound
                0x9d019d5c                DHCPStateChanged
                0x9d019d90                DHCPIsServerDetected
                0x9d019da0                DHCPTempIPAddr
                0x9d019dbc                DHCPTask

.rodata         0x9d01acc0      0xe88
 .rodata        0x9d01acc0      0xe88 build/default/production/_ext/388820833/WFDebugStrings.o

.dinit          0x9d01bb48      0xd50
 .dinit         0x9d01bb48      0xd50 data_init

.text           0x9d01c898     0x4bd4
 .text          0x9d01c898      0xd14 build/default/production/_ext/93166211/DHCPs.o
                0x9d01c898                DHCPServerTask
                0x9d01d55c                DHCPServer_Disable
                0x9d01d594                DHCPServer_Enable
 .text          0x9d01d5ac      0xd14 build/default/production/_ext/388820833/WFMac_24G.o
                0x9d01d5ac                GetReadPtrRawWindow
                0x9d01d6f0                RetrieveBinaryKey
                0x9d01d754                MACProcess
                0x9d01d894                WFGetTCBSize
                0x9d01d89c                MACInit
                0x9d01d8c0                RawInit
                0x9d01d91c                MACIsLinked
                0x9d01d938                MACIsTxReady
                0x9d01d964                RawGetMgmtRxBuffer
                0x9d01d990                MACDiscardRx
                0x9d01d9bc                MACGetFreeRxSize
                0x9d01d9e8                MACGetHeader
                0x9d01db6c                MACPutHeader
                0x9d01dc0c                MACPutGeneralHeader
                0x9d01dca4                MACFlush
                0x9d01dce4                MACSetReadPtrInRx
                0x9d01dd08                MACSetWritePtr
                0x9d01dd38                MACSetReadPtr
                0x9d01dd68                MACCalcRxChecksum
                0x9d01ddc0                MACMemCopyAsync
                0x9d01e11c                MACIsMemCopyDone
                0x9d01e124                MACGet
                0x9d01e15c                MACGetArray
                0x9d01e1e8                MACPut
                0x9d01e220                MACPutArray
                0x9d01e264                MACPowerDown
                0x9d01e26c                MACPowerUp
                0x9d01e274                CalcIPBufferChecksum
 .text          0x9d01e2c0      0xce4 build/default/production/_ext/93166211/MPFS2.o
                0x9d01e2c0                MPFSInit
                0x9d01e368                MPFSOpen
                0x9d01e5a8                MPFSOpenID
                0x9d01e68c                MPFSClose
                0x9d01e6c8                MPFSGet
                0x9d01e7a8                MPFSGetArray
                0x9d01e8b4                MPFSGetLong
                0x9d01e8dc                MPFSSeek
                0x9d01eb44                MPFSGetTimestamp
                0x9d01ebbc                MPFSGetMicrotime
                0x9d01ec34                MPFSGetFlags
                0x9d01ecac                MPFSGetSize
                0x9d01ed24                MPFSGetBytesRem
                0x9d01ed84                MPFSGetStartAddr
                0x9d01edfc                MPFSGetEndAddr
                0x9d01ee80                MPFSGetFilename
                0x9d01ef3c                MPFSGetPosition
                0x9d01ef80                MPFSGetID
 .text          0x9d01efa4      0xcc0 build/default/production/_ext/388820833/WFDriverRaw_24G.o
                0x9d01efa4                RawCalculateChecksum
                0x9d01f008                AllocateMgmtTxBuffer
                0x9d01f0a8                DeallocateMgmtRxBuffer
                0x9d01f0e8                AllocateDataTxBuffer
                0x9d01f1b8                SendRAWDataFrame
                0x9d01f240                SendRAWManagementFrame
                0x9d01f28c                DeallocateDataRxBuffer
                0x9d01f2f4                RawMountRxBuffer
                0x9d01f378                RawToRawCopy
                0x9d01f410                PushRawWindow
                0x9d01f45c                PopRawWindow
                0x9d01f4b0                ScratchMount
                0x9d01f520                ScratchUnmount
                0x9d01f56c                RawRead
                0x9d01f5e0                RawWrite
                0x9d01f7dc                RawSetIndex
                0x9d01f934                RawGetIndex
                0x9d01f994                RawGetByte
                0x9d01fa38                RawSetByte
 .text          0x9d01fc64      0xc74 build/default/production/_ext/93166211/SPIFlash.o
                0x9d01fc64                SPIFlashInit
                0x9d01fee8                SPIFlashReadArray
                0x9d0200b8                SPIFlashBeginWrite
                0x9d0200c0                SPIFlashWrite
                0x9d0202bc                SPIFlashWriteArray
                0x9d020630                SPIFlashEraseSector
 .text          0x9d0208d8      0xb94 build/default/production/_ext/1472/EPRI_UARTLayer.o
                0x9d0208d8                EPRI_UART_init
                0x9d020930                EPRI_UART_write
                0x9d0209c8                UART2_ISR
                0x9d020a7c                MCISend
                0x9d020b94                MCISendAsync
                0x9d020c70                MCI_IsSending
                0x9d020c7c                ChecksumDecode
                0x9d020d10                MakeChecksum
                0x9d020e18                rxMessageHandler
                0x9d021140                rxbuffer_initialize
                0x9d021164                MCI_Sync_Callback
                0x9d021338                UARTLockCallback
                0x9d021340                MCI_Wait_Callback
                0x9d02140c                Message_Timeout_Callback

.text._vfprintf_cdnopsuxX
                0x9d02146c      0xad0
 .text._vfprintf_cdnopsuxX
                0x9d02146c      0xad0 c:/program files (x86)/microchip/xc32/v1.40/bin/bin/../../lib/gcc/pic32mx/4.8.3/../../../../pic32mx/lib\libc.a(doprnt_cdnopsuxX.eo)
                0x9d02146c                _vfprintf_0
                0x9d02146c                _vfprintf_s
                0x9d02146c                _vfprintf_cdnopsuxX
                0x9d02146c                _vfprintf_cdnopuxX

.text           0x9d021f3c     0x14cc
 .text          0x9d021f3c      0xa8c build/default/production/_ext/1472/Main.o
                0x9d021f3c                _mon_putc
                0x9d021f74                _general_exception_handler
                0x9d021f84                main
                0x9d0228dc                DisplayIPValue
                0x9d022930                SaveAppConfig
                0x9d02298c                RestoreWifiConfig
 .text          0x9d0229c8      0xa40 build/default/production/_ext/93166211/ZeroconfLinkLocal.o
                0x9d0229c8                zcll_rand
                0x9d0229e4                ARPAction
                0x9d022a00                FindARPPktType
                0x9d022a50                ZeroconfARPPktNotify
                0x9d022b78                ZeroconfLLInitialize
                0x9d022bc0                ZeroconfLLProcess

.text._vfscanf_cdfFnopsuxX
                0x9d023408      0xa28
 .text._vfscanf_cdfFnopsuxX
                0x9d023408      0xa28 c:/program files (x86)/microchip/xc32/v1.40/bin/bin/../../lib/gcc/pic32mx/4.8.3/../../../../pic32mx/lib\libc.a(doscan_cdfFnopsuxX.eo)
                0x9d023408                _vfscanf_cdfFnopsuxX

.text           0x9d023e30     0x2f64
 .text          0x9d023e30      0xa10 build/default/production/_ext/93166211/DNS.o
                0x9d023e30                DNSBeginUsage
                0x9d023e5c                DNSEndUsage
                0x9d023eac                DNSResolve
                0x9d023f20                DNSIsResolved
 .text          0x9d024840      0x994 build/default/production/_ext/93166211/UDP.o
                0x9d024840                UDPInit
                0x9d02488c                UDPOpenEx
                0x9d0249f8                UDPTask
                0x9d024bbc                UDPIsOpened
                0x9d024be8                UDPClose
                0x9d024c24                UDPSetTxBuffer
                0x9d024c50                UDPSetRxBuffer
                0x9d024c80                UDPIsPutReady
                0x9d024ce0                UDPPut
                0x9d024d34                UDPPutArray
                0x9d024da0                UDPPutString
                0x9d024dd4                UDPFlush
                0x9d024e80                UDPIsGetReady
                0x9d024edc                UDPGet
                0x9d024f38                UDPGetArray
                0x9d024fa0                UDPDiscard
                0x9d024fec                UDPProcess
 .text          0x9d0251d4      0x970 build/default/production/_ext/388820833/WFDriverCom_24G.o
                0x9d0251d4                WiFiTask
                0x9d0252d8                WFProcess
                0x9d025468                SignalDHCPSuccessful
                0x9d025478                SetDhcpProgressState
                0x9d0254b0                SignalWiFiConnectionChanged
                0x9d0254c0                Read8BitWFRegister
                0x9d025500                Write8BitWFRegister
                0x9d02553c                Read16BitWFRegister
                0x9d025588                Write16BitWFRegister
                0x9d0255d0                WriteWFArray
                0x9d025634                ReadWFArray
                0x9d0256a8                WFEintHandler
                0x9d025780                ReenablePowerSaveMode
                0x9d02578c                WFHardwareInit
 .text          0x9d025b44      0x960 build/default/production/_ext/388820833/WFConnectionAlgorithm.o
                0x9d025b44                WF_CASetElements
                0x9d025c74                WF_CASetElementsN
                0x9d025cec                WF_CAGetElements
                0x9d025d70                WF_CASetScanType
                0x9d025d98                WF_CAGetScanType
                0x9d025dc0                WF_CASetMinChannelTime
                0x9d025df8                WF_CAGetMinChannelTime
                0x9d025e40                WF_CASetMaxChannelTime
                0x9d025e78                WF_CAGetMaxChannelTime
                0x9d025ec0                WF_CASetProbeDelay
                0x9d025ef8                WF_CAGetProbeDelay
                0x9d025f40                WF_CASetScanCount
                0x9d025f68                WF_CAGetScanCount
                0x9d025f90                WF_CASetRssi
                0x9d025fb8                WF_CAGetRssi
                0x9d025fe0                WF_CASetConnectionProfileList
                0x9d026000                WF_CAGetConnectionProfileList
                0x9d026020                WF_CASetListRetryCount
                0x9d026048                WF_CAGetListRetryCount
                0x9d026070                WF_CASetEventNotificationAction
                0x9d026078                WF_CAGetEventNotificationAction
                0x9d026084                WF_CASetBeaconTimeoutAction
                0x9d0260ac                WF_CAGetBeaconTimeoutAction
                0x9d0260d4                WF_CASetDeauthAction
                0x9d0260fc                WF_CAGetDeauthAction
                0x9d026124                WF_CASetChannelList
                0x9d02614c                WF_CAGetChannelList
                0x9d0261c0                WF_CASetListenInterval
                0x9d0261f8                WF_CASetDtimInterval
                0x9d026230                WF_CAGetListenInterval
                0x9d026278                WF_CASetBeaconPeriod
                0x9d0262b0                WF_CAGetBeaconPeriod
                0x9d0262f8                WF_CAGetDtimInterval
                0x9d026340                WF_CASetBeaconTimeout
                0x9d026368                WF_CAGetBeaconTimeout
                0x9d026390                GetEventNotificationMask
                0x9d026478                WF_DisableModuleConnectionManager
 .text          0x9d0264a4      0x8f0 build/default/production/_ext/93166211/Helpers.o
                0x9d0264a4                LFSRSeedRand
                0x9d0264f0                LFSRRand
                0x9d02652c                GenerateRandomDWORD
                0x9d026704                StringToIPAddress
                0x9d0268e8                uitoa
                0x9d02697c                hexatob
                0x9d0269ec                btohexa_high
                0x9d026a08                btohexa_low
                0x9d026a24                stricmppgm2ram
                0x9d026ac4                swaps
                0x9d026ae0                swapl
                0x9d026b20                CalcIPChecksum
                0x9d026ba8                strupr
                0x9d026bf0                FormatNetBIOSName
                0x9d026c7c                strnchr
                0x9d026cbc                strncpy_m

.text._vfscanf_cdnopsuxX
                0x9d026d94      0x84c
 .text._vfscanf_cdnopsuxX
                0x9d026d94      0x84c c:/program files (x86)/microchip/xc32/v1.40/bin/bin/../../lib/gcc/pic32mx/4.8.3/../../../../pic32mx/lib\libc.a(doscan_cdnopsuxX.eo)
                0x9d026d94                _vfscanf_cdnopsuxX

.text._vfscanf_cdnopuxX
                0x9d0275e0      0x84c
 .text._vfscanf_cdnopuxX
                0x9d0275e0      0x84c c:/program files (x86)/microchip/xc32/v1.40/bin/bin/../../lib/gcc/pic32mx/4.8.3/../../../../pic32mx/lib\libc.a(doscan_cdnopuxX.eo)
                0x9d0275e0                _vfscanf_cdnopuxX

.rodata         0x9d027e2c      0x7d4
 .rodata        0x9d027e2c      0x7d4 c:/program files (x86)/microchip/xc32/v1.40/bin/bin/../../lib/gcc/pic32mx/4.8.3/../../../../pic32mx/lib\libmchp_peripheral_32MX575F256L.a(int_tbl_lib.o)
                0x9d027e2c                __IntSrcTbl
                0x9d028348                __IntVectorTbl

.text           0x9d028600      0x78c
 .text          0x9d028600      0x78c build/default/production/_ext/388820833/WFDebugStrings.o
                0x9d028600                WF_OutputConnectionContext
                0x9d0286f0                WF_OutputConnectionDebugMsg
                0x9d028aac                WF_OutputConnectionInfo
                0x9d028c80                ValidateConfig
                0x9d028c88                WF_AssertionFailed
                0x9d028d1c                WF_DisplayModuleAssertInfo

.rodata         0x9d028d8c      0x788
 .rodata        0x9d028d8c      0x788 build/default/production/_ext/1472/OpenADRClient.o

.text           0x9d029514     0x1b1c
 .text          0x9d029514      0x724 build/default/production/_ext/388820833/WFParamMsg_24G.o
                0x9d029514                WFEnableMRF24WB0MMode
                0x9d029540                WFEnableDebugPrint
                0x9d029568                WF_SetLinkDownThreshold
                0x9d029590                WF_SetTxMode
                0x9d0295b8                WF_GetTxMode
                0x9d0295dc                WFEnableBroadcastProbeResponse
                0x9d029608                WF_GetDeviceInfo
                0x9d029680                WF_SetMacAddress
                0x9d0296a4                WF_GetMacAddress
                0x9d0296c8                WF_MulticastSetConfig
                0x9d0297d8                WF_MulticastGetConfig
                0x9d029890                WF_SetTxDataConfirm
                0x9d0298b8                WF_GetTxDataConfirm
                0x9d0298dc                WF_SetRegionalDomain
                0x9d029904                WF_GetRegionalDomain
                0x9d029928                WF_SetRtsThreshold
                0x9d029980                WF_YieldPassphrase2Host
                0x9d0299ac                WF_SetPSK
                0x9d0299d0                WF_GetRtsThreshold
                0x9d029a14                WF_SetMultiCastFilter
                0x9d029ae0                WF_EnableSWMultiCastFilter
                0x9d029b0c                WF_GetMacStats
                0x9d029b7c                SendSetParamMsg
                0x9d029bcc                SendGetParamMsg
 .text          0x9d029c38      0x70c build/default/production/_ext/388820833/WFConnectionProfile.o
                0x9d029c38                WF_CPCreate
                0x9d029c98                WF_CPDelete
                0x9d029ce0                WF_CPGetIds
                0x9d029d38                WF_CPSetElements
                0x9d029d90                WF_CPGetElements
                0x9d029dc0                WF_CPSetSsidType
                0x9d029dec                WF_CPGetSsidType
                0x9d029e1c                WF_CPSetSsid
                0x9d029e7c                WF_CPGetSsid
                0x9d029ef4                WF_CPSetBssid
                0x9d029f1c                WF_CPGetBssid
                0x9d029f4c                WF_CPSetNetworkType
                0x9d029f78                WF_CPGetNetworkType
                0x9d029fa8                WF_CPSetWepKeyType
                0x9d029fd4                WF_CPGetWepKeyType
                0x9d02a004                WF_CPGetWPSCredentials
                0x9d02a034                WF_CPUpdatePMK
                0x9d02a05c                WF_CPSetSecurity
                0x9d02a0ec                WF_CPGetSecurity
                0x9d02a1b4                WF_CPSetDefaultWepKeyIndex
                0x9d02a1e0                WF_CPGetDefaultWepKeyIndex
                0x9d02a210                WF_CPSetAdHocBehavior
                0x9d02a23c                WF_CPGetAdHocBehavior
 .text          0x9d02a344      0x6a4 build/default/production/_ext/388820833/WFEasyConfig.o
                0x9d02a344                WFEasyConfigInit
                0x9d02a380                WFEasyConfigMgr
                0x9d02a6e0                WFInitScan
                0x9d02a6f0                WFStartScan
                0x9d02a740                WFRetrieveScanResult
                0x9d02a790                WFScanEventHandler
                0x9d02a7ac                WFDisplayScanMgr
 .text          0x9d02a9e8      0x648 build/default/production/_ext/93166211/ARP.o
                0x9d02a9e8                ARPRegisterCallbacks
                0x9d02aa48                ARPDeRegisterCallbacks
                0x9d02aa84                ARPProcessRxPkt
                0x9d02ab5c                ARPSendPkt
                0x9d02aca8                ARPInit
                0x9d02acd8                ARPProcess
                0x9d02ae6c                ARPResolve
                0x9d02af68                ARPIsResolved
                0x9d02afec                SwapARPPacket

.rodata         0x9d02b030      0x5a8
 .rodata        0x9d02b030      0x5a8 build/default/production/_ext/1472/CustomHTTPApp.o
                0x9d02b3a0                HTML_UP_ARROW
                0x9d02b3a4                HTML_DOWN_ARROW

.text           0x9d02b5d8      0x574
 .text          0x9d02b5d8      0x574 build/default/production/_ext/1472/TimeMonitor.o
                0x9d02b5d8                TimeMonitorInit
                0x9d02b6b4                TimeMonitorRegisterI
                0x9d02b768                TimeMonitorChangeTimeI
                0x9d02b7fc                TimeMonitorCancelI
                0x9d02b868                T2InterruptServiceRoutine
                0x9d02baf4                TimeMonitorEnableInterrupt
                0x9d02bb20                TimeMonitorDisableInterrupt

.rodata         0x9d02bb4c      0x520
 .rodata        0x9d02bb4c      0x520 build/default/production/_ext/93166211/HTTP2.o

.text           0x9d02c06c      0x4b8
 .text          0x9d02c06c      0x4b8 build/default/production/_ext/1472/i2c_master.o
                0x9d02c06c                I2CSendByteJK
                0x9d02c0dc                InitI2C
                0x9d02c16c                ReadI2C
                0x9d02c308                WriteI2CByte
                0x9d02c3d4                StartTransfer
                0x9d02c45c                TransmitOneByte
                0x9d02c4f0                StopTransfer

.text.dp32mul   0x9d02c524      0x4b8
 .text.dp32mul  0x9d02c524      0x4b8 c:/program files (x86)/microchip/xc32/v1.40/bin/bin/../../lib/gcc/pic32mx/4.8.3/../../../../pic32mx/lib\libm.a(dp32div.o)
                0x9d02c524                dpdiv
                0x9d02c524                __divdf3

.text           0x9d02c9dc      0xd48
 .text          0x9d02c9dc      0x48c build/default/production/_ext/1472/WF_Config.o
                0x9d02c9dc                WF_Connect
                0x9d02ccac                WF_ProcessEvent
 .text          0x9d02ce68      0x464 c:/program files (x86)/microchip/xc32/v1.40/bin/bin/../../lib/gcc/pic32mx/4.8.3\libgcc.a(_umoddi3.o)
                0x9d02ce68                __umoddi3
 .text          0x9d02d2cc      0x458 c:/program files (x86)/microchip/xc32/v1.40/bin/bin/../../lib/gcc/pic32mx/4.8.3\libgcc.a(_udivdi3.o)
                0x9d02d2cc                __udivdi3

.text.dp32subadd
                0x9d02d724      0x430
 .text.dp32subadd
                0x9d02d724      0x430 c:/program files (x86)/microchip/xc32/v1.40/bin/bin/../../lib/gcc/pic32mx/4.8.3/../../../../pic32mx/lib\libm.a(dp32subadd.o)
                0x9d02d724                dpsub
                0x9d02d724                __subdf3
                0x9d02d72c                __adddf3
                0x9d02d72c                dpadd

.text           0x9d02db54      0x3f0
 .text          0x9d02db54      0x3f0 build/default/production/_ext/93166211/NBNS.o
                0x9d02db54                NBNSTask

.text.__strtod  0x9d02df44      0x3d0
 .text.__strtod
                0x9d02df44      0x3d0 c:/program files (x86)/microchip/xc32/v1.40/bin/bin/../../lib/gcc/pic32mx/4.8.3/../../../../pic32mx/lib\libm.a(__strtod.o)
                0x9d02df44                __strtod

.text           0x9d02e314      0x70c
 .text          0x9d02e314      0x38c build/default/production/_ext/93166211/DNSs.o
                0x9d02e314                DNSServerTask
 .text          0x9d02e6a0      0x380 build/default/production/_ext/93166211/StackTsk.o
                0x9d02e6a0                StackInit
                0x9d02e754                StackTask
                0x9d02e9bc                StackApplications
                0x9d02ea00                RenewDhcp

.text.__strtof  0x9d02ea20      0x358
 .text.__strtof
                0x9d02ea20      0x358 c:/program files (x86)/microchip/xc32/v1.40/bin/bin/../../lib/gcc/pic32mx/4.8.3/../../../../pic32mx/lib\libm.a(__strtof.o)
                0x9d02ea20                __strtof

.text           0x9d02ed78      0x33c
 .text          0x9d02ed78      0x33c build/default/production/_ext/388820833/WFMgmtMsg_24G.o
                0x9d02ed78                SendMgmtMsg
                0x9d02ee54                SignalMgmtConfirmReceivedEvent
                0x9d02ee64                WaitForMgmtResponse
                0x9d02efc8                WaitForMgmtResponseAndReadData
                0x9d02f080                WFSetFuncState

.text.dp32mul   0x9d02f0b4      0x32c
 .text.dp32mul  0x9d02f0b4      0x32c c:/program files (x86)/microchip/xc32/v1.40/bin/bin/../../lib/gcc/pic32mx/4.8.3/../../../../pic32mx/lib\libm.a(dp32mul.o)
                0x9d02f0b4                __muldf3
                0x9d02f0b4                dpmul

.text           0x9d02f3e0      0x5e8
 .text          0x9d02f3e0      0x300 build/default/production/_ext/1472/INTiMain.o
                0x9d02f3e0                INTiRegisterUART2RxCallbackFunction
                0x9d02f3e8                INTiRegisterSPI3CallbackFunction
                0x9d02f3f0                UART2InterruptServiceRoutine
                0x9d02f510                SPI3InterruptServiceRoutine
                0x9d02f668                SPI3EnableInterrupts
                0x9d02f6b4                SPI3DisableInterrupts
 .text          0x9d02f6e0      0x2e8 build/default/production/_ext/388820833/WF_Eint.o
                0x9d02f6e0                WF_EintIsDisabled
                0x9d02f714                WF_EintIsPending
                0x9d02f76c                _WFInterrupt
                0x9d02f8bc                WF_EintEnable
                0x9d02f908                WF_EintDisable
                0x9d02f934                WF_EintInit

.text.asctime   0x9d02f9c8      0x2e4
 .text.asctime  0x9d02f9c8      0x2e4 c:/program files (x86)/microchip/xc32/v1.40/bin/bin/../../lib/gcc/pic32mx/4.8.3/../../../../pic32mx/lib\libc.a(ctime.o)
                0x9d02f9c8                asctime

.text           0x9d02fcac      0x598
 .text          0x9d02fcac      0x2d4 build/default/production/_ext/388820833/WFEventHandler.o
                0x9d02fcac                WFProcessMgmtIndicateMsg
 .text          0x9d02ff80      0x2c4 build/default/production/_ext/93166211/Announce.o
                0x9d02ff80                AnnounceIP
                0x9d03008c                DiscoveryTask

.text.strtoull  0x9d030244      0x2b0
 .text.strtoull
                0x9d030244      0x2b0 c:/program files (x86)/microchip/xc32/v1.40/bin/bin/../../lib/gcc/pic32mx/4.8.3/../../../../pic32mx/lib\libc.a(strtoll.o)
                0x9d030244                strtoull

.text           0x9d0304f4      0x534
 .text          0x9d0304f4      0x2a8 build/default/production/_ext/388820833/WFConnectionManager.o
                0x9d0304f4                WF_CMConnect
                0x9d030540                WF_CMDisconnect
                0x9d0305b0                WF_CMGetConnectionState
                0x9d030644                WFisConnected
                0x9d03064c                SetLogicalConnectionState
                0x9d030654                WF_CMCheckConnectionState
                0x9d0306c8                WF_CMGetConnectContext
                0x9d0306ec                WF_ConvPassphrase2Key
 .text          0x9d03079c      0x28c build/default/production/_ext/93166211/IP.o
                0x9d03079c                IPGetHeader
                0x9d0308f8                IPPutHeader
                0x9d0309c0                IPSetRxBuffer

.text.fpsubadd  0x9d030a28      0x278
 .text.fpsubadd
                0x9d030a28      0x278 c:/program files (x86)/microchip/xc32/v1.40/bin/bin/../../lib/gcc/pic32mx/4.8.3/../../../../pic32mx/lib\libm.a(fp32subadd.o)
                0x9d030a28                __subsf3
                0x9d030a28                fpsub
                0x9d030a30                __addsf3
                0x9d030a30                fpadd

.text           0x9d030ca0      0x6bc
 .text          0x9d030ca0      0x248 build/default/production/_ext/93166211/Tick.o
                0x9d030ca0                TickInit
                0x9d030d88                TickGet
                0x9d030dc8                TickGetDiv256
                0x9d030e08                TickGetDiv64K
                0x9d030e48                TickConvertToMilliseconds
                0x9d030e78                _T1Interrupt
 .text          0x9d030ee8      0x23c build/default/production/_ext/1472/LinkLayerMessaging.o
                0x9d030ee8                SendSendNextCommandToSlot
                0x9d030f28                SendQueryGetAvailableSlotNumbers
                0x9d030f50                SendQueryGetSGDSlotNumber
                0x9d030f78                SendQueryMaximumPayloadLength
                0x9d030fa0                SendResponseMaximumPayloadLength
                0x9d030fe0                SendRequestDifferentPowerMode
                0x9d031020                SendRequestDifferentBitRate
                0x9d03105c                LinkLayerAckHandler
                0x9d031080                LinkLayerNakHandler
                0x9d03108c                LinkLayerMessageHandler
 .text          0x9d031124      0x238 build/default/production/_ext/388820833/WFPowerSave.o
                0x9d031124                WFConfigureLowPowerMode
                0x9d03118c                WF_PsPollEnable
                0x9d031204                isSleepNeeded
                0x9d03120c                ClearSleepNeeded
                0x9d031214                SetSleepNeeded
                0x9d031220                SetAppPowerSaveMode
                0x9d031228                GetAppPowerSaveMode
                0x9d031230                WF_PsPollDisable
                0x9d031270                WF_GetPowerSaveState
                0x9d03127c                WFisPsPollEnabled
                0x9d031290                WFIsPsPollActive
                0x9d031298                EnsureWFisAwake
                0x9d0312e4                WF_HibernateEnable
                0x9d031354                SetPowerSaveState

.text.fp32div   0x9d03135c      0x230
 .text.fp32div  0x9d03135c      0x230 c:/program files (x86)/microchip/xc32/v1.40/bin/bin/../../lib/gcc/pic32mx/4.8.3/../../../../pic32mx/lib\libm.a(fp32div.o)
                0x9d03135c                fpdiv
                0x9d03135c                __divsf3

.text.mktime    0x9d03158c      0x1e0
 .text.mktime   0x9d03158c      0x1e0 c:/program files (x86)/microchip/xc32/v1.40/bin/bin/../../lib/gcc/pic32mx/4.8.3/../../../../pic32mx/lib\libc.a(mktime.o)
                0x9d03158c                mktime

.rodata         0x9d03176c      0x1bc
 .rodata        0x9d03176c      0x1bc build/default/production/_ext/388820833/WFConsoleMsgs.o
                0x9d03176c                helpCmd
                0x9d031774                helpHelp
                0x9d031788                getwfverCmd
                0x9d031794                getwfverHelp
                0x9d0317b0                resetCmd
                0x9d0317b8                resetHelp
                0x9d0317c8                clsCmd
                0x9d0317cc                clsHelp
                0x9d0317dc                wpsPinCmd
                0x9d0317e4                wpsPinHelp
                0x9d031838                wpsPushButtonCmd
                0x9d031840                wpsPushButtonHelp
                0x9d031874                wpsCredCmd
                0x9d03187c                wpsCredHelp
                0x9d031894                seeDocHelp
                0x9d0318a8                pingCmd
                0x9d0318b0                pingHelp
                0x9d0318c4                g_consoleCmd
                0x9d031924                g_numCmds

.text.fp32mul   0x9d031928      0x1bc
 .text.fp32mul  0x9d031928      0x1bc c:/program files (x86)/microchip/xc32/v1.40/bin/bin/../../lib/gcc/pic32mx/4.8.3/../../../../pic32mx/lib\libm.a(fp32mul.o)
                0x9d031928                __mulsf3
                0x9d031928                fpmul

.text.gmtime    0x9d031ae4      0x1bc
 .text.gmtime   0x9d031ae4      0x1bc c:/program files (x86)/microchip/xc32/v1.40/bin/bin/../../lib/gcc/pic32mx/4.8.3/../../../../pic32mx/lib\libc.a(ctime.o)
                0x9d031ae4                gmtime

.text.strtoll   0x9d031ca0      0x1b8
 .text.strtoll  0x9d031ca0      0x1b8 c:/program files (x86)/microchip/xc32/v1.40/bin/bin/../../lib/gcc/pic32mx/4.8.3/../../../../pic32mx/lib\libc.a(strtoll.o)
                0x9d031ca0                strtoll

.text.libm      0x9d031e58      0x1ac
 .text.libm     0x9d031e58      0x1ac c:/program files (x86)/microchip/xc32/v1.40/bin/bin/../../lib/gcc/pic32mx/4.8.3/../../../../pic32mx/lib\libm.a(fpsqrt32.o)
                0x9d031e58                __mchp_sqrtf
                0x9d031e58                fpsqrt

.text.__ldexp   0x9d032004      0x1a8
 .text.__ldexp  0x9d032004      0x1a8 c:/program files (x86)/microchip/xc32/v1.40/bin/bin/../../lib/gcc/pic32mx/4.8.3/../../../../pic32mx/lib\libe.a(_ldexp.o)
                0x9d032004                __ldexp

.text           0x9d0321ac      0x4dc
 .text          0x9d0321ac      0x1a4 build/default/production/_ext/388820833/WF_Spi.o
                0x9d0321ac                WF_SpiInit
                0x9d032208                WF_SpiEnableChipSelect
                0x9d032220                WF_SpiDisableChipSelect
                0x9d032248                WFSpiTxRx
 .text          0x9d032350      0x1a0 c:/program files (x86)/microchip/xc32/v1.40/bin/bin/../../lib/gcc/pic32mx/4.8.3/../../../../pic32mx/lib\libpic32.a(strcpy.o)
                0x9d032350                strcpy
 .text          0x9d0324f0      0x198 build/default/production/_ext/1472/UARTiMain.o
                0x9d0324f0                UARTiConfigure
                0x9d03256c                UARTiDisable
                0x9d032588                UARTiWriteString
                0x9d032630                UARTiWriteBinaryData

.text._filbuf   0x9d032688      0x188
 .text._filbuf  0x9d032688      0x188 c:/program files (x86)/microchip/xc32/v1.40/bin/bin/../../lib/gcc/pic32mx/4.8.3/../../../../pic32mx/lib\libc.a(filbuf.o)
                0x9d032688                _filbuf

.text           0x9d032810      0x2d0
 .text          0x9d032810      0x168 c:/program files (x86)/microchip/xc32/v1.40/bin/bin/../../lib/gcc/pic32mx/4.8.3/../../../../pic32mx/lib\libpic32.a(memcpy.o)
                0x9d032810                memcpy
 .text          0x9d032978      0x168 c:/program files (x86)/microchip/xc32/v1.40/bin/bin/../../lib/gcc/pic32mx/4.8.3/../../../../pic32mx/lib\libpic32.a(strlen.o)
                0x9d032978                strlen

.text.read      0x9d032ae0      0x158
 .text.read     0x9d032ae0      0x158 c:/program files (x86)/microchip/xc32/v1.40/bin/bin/../../lib/gcc/pic32mx/4.8.3/../../../../pic32mx/lib\libpic32.a(read.o)
                0x9d032ae0                read

.text.fputc     0x9d032c38      0x144
 .text.fputc    0x9d032c38      0x144 c:/program files (x86)/microchip/xc32/v1.40/bin/bin/../../lib/gcc/pic32mx/4.8.3/../../../../pic32mx/lib\libc.a(_fputc_simple.o)
                0x9d032c38                fputc

.text           0x9d032d7c      0x278
 .text          0x9d032d7c      0x140 build/default/production/_ext/1472/RESTAPI.o
                0x9d032d7c                parseEventName
 .text          0x9d032ebc      0x138 build/default/production/_ext/388820833/WFConsoleMsgs.o
                0x9d032ebc                ConvertASCIIHexToBinary
                0x9d032fac                HexToBin

.text._flsbuf   0x9d032ff4      0x12c
 .text._flsbuf  0x9d032ff4      0x12c c:/program files (x86)/microchip/xc32/v1.40/bin/bin/../../lib/gcc/pic32mx/4.8.3/../../../../pic32mx/lib\libc.a(_flsbuf_simple.o)
                0x9d032ff4                _flsbuf

.text           0x9d033120      0x344
 .text          0x9d033120      0x120 c:/program files (x86)/microchip/xc32/v1.40/bin/bin/../../lib/gcc/pic32mx/4.8.3/../../../../pic32mx/lib\libpic32.a(strcmp.o)
                0x9d033120                strcmp
 .text          0x9d033240      0x114 build/default/production/_ext/388820833/WFScan.o
                0x9d033240                WF_Scan
                0x9d0332c8                WF_ScanGetResult
 .text          0x9d033354      0x110 build/default/production/_ext/1472/debugging.o
                0x9d033354                dlogadd
                0x9d0333f4                dlogdisp

.rodata         0x9d033464      0x210
 .rodata        0x9d033464      0x10c build/default/production/_ext/388820833/WFMgmtMsg_24G.o
 .rodata        0x9d033570      0x104 c:/program files (x86)/microchip/xc32/v1.40/bin/bin/../../lib/gcc/pic32mx/4.8.3/../../../../pic32mx/lib\libc.a(ctype.o)
                0x9d033570                _ctype

.text.fgetc     0x9d033674      0x104
 .text.fgetc    0x9d033674      0x104 c:/program files (x86)/microchip/xc32/v1.40/bin/bin/../../lib/gcc/pic32mx/4.8.3/../../../../pic32mx/lib\libc.a(fgetc.o)
                0x9d033674                fgetc

.text.__ldexpf  0x9d033778      0x104
 .text.__ldexpf
                0x9d033778      0x104 c:/program files (x86)/microchip/xc32/v1.40/bin/bin/../../lib/gcc/pic32mx/4.8.3/../../../../pic32mx/lib\libe.a(_ldexpf.o)
                0x9d033778                __ldexpf

.text.dptofp    0x9d03387c      0x100
 .text.dptofp   0x9d03387c      0x100 c:/program files (x86)/microchip/xc32/v1.40/bin/bin/../../lib/gcc/pic32mx/4.8.3/../../../../pic32mx/lib\libm.a(dptofp.o)
                0x9d03387c                __truncdfsf2
                0x9d03387c                dptofp

.text.libm      0x9d03397c       0xfc
 .text.libm     0x9d03397c       0xfc c:/program files (x86)/microchip/xc32/v1.40/bin/bin/../../lib/gcc/pic32mx/4.8.3/../../../../pic32mx/lib\libm.a(fpexsqrt32.o)
                0x9d03397c                fpexsqrt

.text           0x9d033a78       0xf4
 .text          0x9d033a78       0xf4 build/default/production/_ext/93166211/ICMP.o
                0x9d033a78                ICMPProcess

.rodata         0x9d033b6c       0xe8
 .rodata        0x9d033b6c       0xe8 build/default/production/_ext/93166211/ZeroconfMulticastDNS.o

.text           0x9d033c54       0xe4
 .text          0x9d033c54       0xe4 build/default/production/_ext/93166211/Reboot.o
                0x9d033c54                RebootTask

.text.general_exception
                0x9d033d38       0xdc
 .text.general_exception
                0x9d033d38       0xdc c:/program files (x86)/microchip/xc32/v1.40/bin/bin/../../lib/gcc/pic32mx/4.8.3/../../../../pic32mx/lib\libpic32.a(general-exception.o)
                0x9d033d38                _general_exception_context

.text           0x9d033e14      0x1a4
 .text          0x9d033e14       0xd4 build/default/production/_ext/388820833/WFConsoleMsgHandler.o
                0x9d033e14                convertAsciiToHexInPlace
 .text          0x9d033ee8       0xd0 build/default/production/_ext/388820833/WFTxPower.o
                0x9d033ee8                WF_TxPowerSetMax
                0x9d033f48                WF_TxPowerGetMax
                0x9d033f80                WF_TxPowerGetFactoryMax

.text.strtok    0x9d033fb8       0xd0
 .text.strtok   0x9d033fb8       0xd0 c:/program files (x86)/microchip/xc32/v1.40/bin/bin/../../lib/gcc/pic32mx/4.8.3/../../../../pic32mx/lib\libc.a(strtok.o)
                0x9d033fb8                strtok

.rodata         0x9d034088      0x198
 .rodata        0x9d034088       0xd0 c:/program files (x86)/microchip/xc32/v1.40/bin/bin/../../lib/gcc/pic32mx/4.8.3/../../../../pic32mx/lib\libc.a(doprnt_cdnopsuxX.eo)
 .rodata        0x9d034158       0xc8 build/default/production/_ext/1472/i2c_master.o

.text           0x9d034220       0xb4
 .text          0x9d034220       0xb4 build/default/production/_ext/388820833/WFInit.o
                0x9d034220                WF_Init

.text.libm      0x9d0342d4       0xb4
 .text.libm     0x9d0342d4       0xb4 c:/program files (x86)/microchip/xc32/v1.40/bin/bin/../../lib/gcc/pic32mx/4.8.3/../../../../pic32mx/lib\libm.a(fpfloo32.o)
                0x9d0342d4                floorf
                0x9d0342d4                fpfloor

.rodata         0x9d034388       0xb0
 .rodata        0x9d034388       0xb0 build/default/production/_ext/1472/WF_Config.o

.text.libm      0x9d034438       0xb0
 .text.libm     0x9d034438       0xb0 c:/program files (x86)/microchip/xc32/v1.40/bin/bin/../../lib/gcc/pic32mx/4.8.3/../../../../pic32mx/lib\libm.a(fpceil32.o)
                0x9d034438                ceilf
                0x9d034438                fpceil

.text.atol      0x9d0344e8       0xac
 .text.atol     0x9d0344e8       0xac c:/program files (x86)/microchip/xc32/v1.40/bin/bin/../../lib/gcc/pic32mx/4.8.3/../../../../pic32mx/lib\libc.a(atol.o)
                0x9d0344e8                atol

.text.fptodp    0x9d034594       0xac
 .text.fptodp   0x9d034594       0xac c:/program files (x86)/microchip/xc32/v1.40/bin/bin/../../lib/gcc/pic32mx/4.8.3/../../../../pic32mx/lib\libm.a(fptodp.o)
                0x9d034594                fptodp
                0x9d034594                __extendsfdf2

.text           0x9d034640       0xa8
 .text          0x9d034640       0xa8 c:/program files (x86)/microchip/xc32/v1.40/bin/bin/../../lib/gcc/pic32mx/4.8.3/../../../../pic32mx/lib\libpic32.a(memset.o)
                0x9d034640                memset

.text.atoi      0x9d0346e8       0xa8
 .text.atoi     0x9d0346e8       0xa8 c:/program files (x86)/microchip/xc32/v1.40/bin/bin/../../lib/gcc/pic32mx/4.8.3/../../../../pic32mx/lib\libc.a(atoi.o)
                0x9d0346e8                atoi

.text.range     0x9d034790      0x1f8
 .text.range    0x9d034790       0xa8 c:/program files (x86)/microchip/xc32/v1.40/bin/bin/../../lib/gcc/pic32mx/4.8.3/../../../../pic32mx/lib\libc.a(doscan_cdfFnopsuxX.eo)
 .text.range    0x9d034838       0xa8 c:/program files (x86)/microchip/xc32/v1.40/bin/bin/../../lib/gcc/pic32mx/4.8.3/../../../../pic32mx/lib\libc.a(doscan_cdnopsuxX.eo)
 .text.range    0x9d0348e0       0xa8 c:/program files (x86)/microchip/xc32/v1.40/bin/bin/../../lib/gcc/pic32mx/4.8.3/../../../../pic32mx/lib\libc.a(doscan_cdnopuxX.eo)

.text.fflush    0x9d034988       0xa0
 .text.fflush   0x9d034988       0xa0 c:/program files (x86)/microchip/xc32/v1.40/bin/bin/../../lib/gcc/pic32mx/4.8.3/../../../../pic32mx/lib\libc.a(fflush.o)
                0x9d034988                fflush

.text.fpcmp     0x9d034a28       0x9c
 .text.fpcmp    0x9d034a28       0x9c c:/program files (x86)/microchip/xc32/v1.40/bin/bin/../../lib/gcc/pic32mx/4.8.3/../../../../pic32mx/lib\libm.a(fpcmp.o)
                0x9d034a28                __eqsf2
                0x9d034a28                __lesf2
                0x9d034a28                __gtsf2
                0x9d034a28                __nesf2
                0x9d034a28                fpcmp
                0x9d034a28                __gesf2
                0x9d034a28                __ltsf2

.text.write     0x9d034ac4       0x9c
 .text.write    0x9d034ac4       0x9c c:/program files (x86)/microchip/xc32/v1.40/bin/bin/../../lib/gcc/pic32mx/4.8.3/../../../../pic32mx/lib\libpic32.a(write.o)
                0x9d034ac4                write

.text           0x9d034b60      0x1c8
 .text          0x9d034b60       0x98 build/default/production/_ext/93166211/Delay.o
                0x9d034b60                DelayMs
                0x9d034bb0                Delay10us
 .text          0x9d034bf8       0x98 build/default/production/_ext/1472/Assert.o
                0x9d034bf8                Assert
                0x9d034c68                AssertInt
 .text          0x9d034c90       0x98 c:/program files (x86)/microchip/xc32/v1.40/bin/bin/../../lib/gcc/pic32mx/4.8.3/../../../../pic32mx/lib\libpic32.a(memcmp.o)
                0x9d034c90                memcmp

.rodata         0x9d034d28       0x90
 .rodata        0x9d034d28       0x90 build/default/production/_ext/1472/Main.o

.text.strstr    0x9d034db8       0x90
 .text.strstr   0x9d034db8       0x90 c:/program files (x86)/microchip/xc32/v1.40/bin/bin/../../lib/gcc/pic32mx/4.8.3/../../../../pic32mx/lib\libc.a(strstr.o)
                0x9d034db8                strstr

.text           0x9d034e48      0x10c
 .text          0x9d034e48       0x88 build/default/production/_ext/1472/MCI_Common.o
                0x9d034e48                MCISendNeutral
                0x9d034e70                DL_Ack
                0x9d034e90                DL_Nak
                0x9d034eb4                App_Ack
 .text          0x9d034ed0       0x84 build/default/production/_ext/93166211/ZeroconfHelper.o
                0x9d034ed0                zgzc_wait_for

.text.UARTEnable
                0x9d034f54       0x80
 .text.UARTEnable
                0x9d034f54       0x80 c:/program files (x86)/microchip/xc32/v1.40/bin/bin/../../lib/gcc/pic32mx/4.8.3/../../../../pic32mx/lib\libmchp_peripheral_32MX575F256L.a(uart_lib.o)
                0x9d034f54                UARTEnable

.text.fptoli    0x9d034fd4       0x80
 .text.fptoli   0x9d034fd4       0x80 c:/program files (x86)/microchip/xc32/v1.40/bin/bin/../../lib/gcc/pic32mx/4.8.3/../../../../pic32mx/lib\libm.a(fptoli.o)
                0x9d034fd4                fptoli
                0x9d034fd4                fptosi
                0x9d034fd4                __fixsfsi

.text.SoftReset
                0x9d035054       0x7c
 .text.SoftReset
                0x9d035054       0x7c c:/program files (x86)/microchip/xc32/v1.40/bin/bin/../../lib/gcc/pic32mx/4.8.3/../../../../pic32mx/lib\libmchp_peripheral_32MX575F256L.a(soft_reset_lib.o)
                0x9d035054                SoftReset

.text.fptoul    0x9d0350d0       0x7c
 .text.fptoul   0x9d0350d0       0x7c c:/program files (x86)/microchip/xc32/v1.40/bin/bin/../../lib/gcc/pic32mx/4.8.3/../../../../pic32mx/lib\libm.a(fptoul.o)
                0x9d0350d0                fptoul
                0x9d0350d0                fptoui
                0x9d0350d0                __fixunssfsi

.text.litodp    0x9d03514c       0x78
 .text.litodp   0x9d03514c       0x78 c:/program files (x86)/microchip/xc32/v1.40/bin/bin/../../lib/gcc/pic32mx/4.8.3/../../../../pic32mx/lib\libm.a(litodp.o)
                0x9d03514c                __floatsidf
                0x9d03514c                litodp

.text.IdleI2C2  0x9d0351c4       0x74
 .text.IdleI2C2
                0x9d0351c4       0x74 c:/program files (x86)/microchip/xc32/v1.40/bin/bin/../../lib/gcc/pic32mx/4.8.3/../../../../pic32mx/lib\libmchp_peripheral_32MX575F256L.a(idle_i2c2_lib_legacy.o)
                0x9d0351c4                IdleI2C2

.text.strncpy   0x9d035238       0x74
 .text.strncpy  0x9d035238       0x74 c:/program files (x86)/microchip/xc32/v1.40/bin/bin/../../lib/gcc/pic32mx/4.8.3/../../../../pic32mx/lib\libc.a(strncpy.o)
                0x9d035238                strncpy

.text.ungetc    0x9d0352ac       0x74
 .text.ungetc   0x9d0352ac       0x74 c:/program files (x86)/microchip/xc32/v1.40/bin/bin/../../lib/gcc/pic32mx/4.8.3/../../../../pic32mx/lib\libc.a(ungetc.o)
                0x9d0352ac                ungetc

.text.strncmp   0x9d035320       0x70
 .text.strncmp  0x9d035320       0x70 c:/program files (x86)/microchip/xc32/v1.40/bin/bin/../../lib/gcc/pic32mx/4.8.3/../../../../pic32mx/lib\libc.a(strncmp.o)
                0x9d035320                strncmp

.text.strcspn   0x9d035390       0x70
 .text.strcspn  0x9d035390       0x70 c:/program files (x86)/microchip/xc32/v1.40/bin/bin/../../lib/gcc/pic32mx/4.8.3/../../../../pic32mx/lib\libc.a(strcspn.o)
                0x9d035390                strcspn

.text.strspn    0x9d035400       0x70
 .text.strspn   0x9d035400       0x70 c:/program files (x86)/microchip/xc32/v1.40/bin/bin/../../lib/gcc/pic32mx/4.8.3/../../../../pic32mx/lib\libc.a(strspn.o)
                0x9d035400                strspn

.rodata         0x9d035470       0x68
 .rodata        0x9d035470       0x68 build/default/production/_ext/1472/RESTAPI.o

.text.sqrtf     0x9d0354d8       0x68
 .text.sqrtf    0x9d0354d8       0x68 c:/program files (x86)/microchip/xc32/v1.40/bin/bin/../../lib/gcc/pic32mx/4.8.3/../../../../pic32mx/lib\libm.a(w_sqrtf.o)
                0x9d0354d8                sqrtf

.text.dylen.part.0
                0x9d035540       0x68
 .text.dylen.part.0
                0x9d035540       0x68 c:/program files (x86)/microchip/xc32/v1.40/bin/bin/../../lib/gcc/pic32mx/4.8.3/../../../../pic32mx/lib\libc.a(ctime.o)

.text.strrchr   0x9d0355a8       0x68
 .text.strrchr  0x9d0355a8       0x68 c:/program files (x86)/microchip/xc32/v1.40/bin/bin/../../lib/gcc/pic32mx/4.8.3/../../../../pic32mx/lib\libc.a(strrchr.o)
                0x9d0355a8                strrchr

.text._sprintf_cdnopsuxX
                0x9d035610       0x68
 .text._sprintf_cdnopsuxX
                0x9d035610       0x68 c:/program files (x86)/microchip/xc32/v1.40/bin/bin/../../lib/gcc/pic32mx/4.8.3/../../../../pic32mx/lib\libc.a(sprintf_cdnopsuxX.eo)
                0x9d035610                _sprintf_cdnopuxX
                0x9d035610                _sprintf_cdnopsuxX

.text.sitofp    0x9d035678       0x60
 .text.sitofp   0x9d035678       0x60 c:/program files (x86)/microchip/xc32/v1.40/bin/bin/../../lib/gcc/pic32mx/4.8.3/../../../../pic32mx/lib\libm.a(sitofp.o)
                0x9d035678                sitofp
                0x9d035678                litofp
                0x9d035678                __floatsisf

.text.fputs     0x9d0356d8       0x60
 .text.fputs    0x9d0356d8       0x60 c:/program files (x86)/microchip/xc32/v1.40/bin/bin/../../lib/gcc/pic32mx/4.8.3/../../../../pic32mx/lib\libc.a(puts.o)
                0x9d0356d8                fputs

.text.wspace    0x9d035738      0x120
 .text.wspace   0x9d035738       0x60 c:/program files (x86)/microchip/xc32/v1.40/bin/bin/../../lib/gcc/pic32mx/4.8.3/../../../../pic32mx/lib\libc.a(doscan_cdfFnopsuxX.eo)
 .text.wspace   0x9d035798       0x60 c:/program files (x86)/microchip/xc32/v1.40/bin/bin/../../lib/gcc/pic32mx/4.8.3/../../../../pic32mx/lib\libc.a(doscan_cdnopsuxX.eo)
 .text.wspace   0x9d0357f8       0x60 c:/program files (x86)/microchip/xc32/v1.40/bin/bin/../../lib/gcc/pic32mx/4.8.3/../../../../pic32mx/lib\libc.a(doscan_cdnopuxX.eo)

.text.UARTSetDataRate
                0x9d035858       0x5c
 .text.UARTSetDataRate
                0x9d035858       0x5c c:/program files (x86)/microchip/xc32/v1.40/bin/bin/../../lib/gcc/pic32mx/4.8.3/../../../../pic32mx/lib\libmchp_peripheral_32MX575F256L.a(uart_lib.o)
                0x9d035858                UARTSetDataRate

.text.main_entry
                0x9d0358b4       0x54
 .text.main_entry
                0x9d0358b4       0x54 c:/program files (x86)/microchip/xc32/v1.40/bin/bin/../../lib/gcc/pic32mx/4.8.3/../../../../pic32mx/lib/./proc/32MX575F256L/crt0_mips32r2.o
                0x9d0358e8                __crt0_exit

.rodata         0x9d035908       0xa8
 .rodata        0x9d035908       0x54 build/default/production/_ext/388820833/WFEasyConfig.o
 .rodata        0x9d03595c       0x54 build/default/production/_ext/1472/debugging.o

.text.I2CBusIsIdle
                0x9d0359b0       0x54
 .text.I2CBusIsIdle
                0x9d0359b0       0x54 c:/program files (x86)/microchip/xc32/v1.40/bin/bin/../../lib/gcc/pic32mx/4.8.3/../../../../pic32mx/lib\libmchp_peripheral_32MX575F256L.a(I2CBusIsIdle.o)
                0x9d0359b0                I2CBusIsIdle

.text._sscanf_cdfFnopsuxX
                0x9d035a04       0x54
 .text._sscanf_cdfFnopsuxX
                0x9d035a04       0x54 c:/program files (x86)/microchip/xc32/v1.40/bin/bin/../../lib/gcc/pic32mx/4.8.3/../../../../pic32mx/lib\libc.a(sscanf_cdfFnopsuxX.eo)
                0x9d035a04                _sscanf_cdnopuxX
                0x9d035a04                _sscanf_cdnopsuxX
                0x9d035a04                _sscanf_cdfFnopsuxX

.rodata         0x9d035a58       0x4c
 .rodata        0x9d035a58       0x4c build/default/production/_ext/388820833/WFDriverRaw_24G.o
                0x9d035a98                g_RawAccessOutOfBoundsMask

.text.putsUART1
                0x9d035aa4       0x4c
 .text.putsUART1
                0x9d035aa4       0x4c c:/program files (x86)/microchip/xc32/v1.40/bin/bin/../../lib/gcc/pic32mx/4.8.3/../../../../pic32mx/lib\libmchp_peripheral_32MX575F256L.a(puts_uartx_lib_legacy.o)
                0x9d035aa4                putsUART1

.text.putsUART2
                0x9d035af0       0x4c
 .text.putsUART2
                0x9d035af0       0x4c c:/program files (x86)/microchip/xc32/v1.40/bin/bin/../../lib/gcc/pic32mx/4.8.3/../../../../pic32mx/lib\libmchp_peripheral_32MX575F256L.a(puts_uartx_lib_legacy.o)
                0x9d035af0                putsUART2

.text           0x9d035b3c       0x4c
 .text          0x9d035b3c       0x4c c:/program files (x86)/microchip/xc32/v1.40/bin/bin/../../lib/gcc/pic32mx/4.8.3\libgcc.a(floatunsisf.o)
                0x9d035b3c                __floatunsisf

.rodata         0x9d035b88       0x4c
 .rodata        0x9d035b88       0x4c c:/program files (x86)/microchip/xc32/v1.40/bin/bin/../../lib/gcc/pic32mx/4.8.3/../../../../pic32mx/lib\libc.a(ctime.o)

.text.I2CSetFrequency
                0x9d035bd4       0x48
 .text.I2CSetFrequency
                0x9d035bd4       0x48 c:/program files (x86)/microchip/xc32/v1.40/bin/bin/../../lib/gcc/pic32mx/4.8.3/../../../../pic32mx/lib\libmchp_peripheral_32MX575F256L.a(I2CSetFrequency.o)
                0x9d035bd4                I2CSetFrequency

.text._bootstrap_exception_handler
                0x9d035c1c       0x48
 .text._bootstrap_exception_handler
                0x9d035c1c       0x48 c:/program files (x86)/microchip/xc32/v1.40/bin/bin/../../lib/gcc/pic32mx/4.8.3/../../../../pic32mx/lib\libpic32.a(default-bootstrap-exception-handler.o)
                0x9d035c1c                _bootstrap_exception_handler

.vector_default
                0x9d035c64       0x48
 .vector_default
                0x9d035c64       0x48 c:/program files (x86)/microchip/xc32/v1.40/bin/bin/../../lib/gcc/pic32mx/4.8.3/../../../../pic32mx/lib\libpic32.a(defaultinterrupt.o)
                0x9d035c64                _DefaultInterrupt

.rodata         0x9d035cac       0x48
 .rodata        0x9d035cac       0x48 c:/program files (x86)/microchip/xc32/v1.40/bin/bin/../../lib/gcc/pic32mx/4.8.3/../../../../pic32mx/lib\libm.a(__strtod.o)

.text           0x9d035cf4       0x44
 .text          0x9d035cf4       0x44 c:/program files (x86)/microchip/xc32/v1.40/bin/bin/../../lib/gcc/pic32mx/4.8.3/../../../../pic32mx/lib\pic32_software_reset.o
                0x9d035cf4                __pic32_software_reset

.text.I2CGetStatus
                0x9d035d38       0x44
 .text.I2CGetStatus
                0x9d035d38       0x44 c:/program files (x86)/microchip/xc32/v1.40/bin/bin/../../lib/gcc/pic32mx/4.8.3/../../../../pic32mx/lib\libmchp_peripheral_32MX575F256L.a(I2CGetStatus.o)
                0x9d035d38                I2CGetStatus

.text.ctime     0x9d035d7c       0x44
 .text.ctime    0x9d035d7c       0x44 c:/program files (x86)/microchip/xc32/v1.40/bin/bin/../../lib/gcc/pic32mx/4.8.3/../../../../pic32mx/lib\libc.a(ctime.o)
                0x9d035d7c                ctime

.text.puts      0x9d035dc0       0x44
 .text.puts     0x9d035dc0       0x44 c:/program files (x86)/microchip/xc32/v1.40/bin/bin/../../lib/gcc/pic32mx/4.8.3/../../../../pic32mx/lib\libc.a(puts.o)
                0x9d035dc0                puts

.text.strcat    0x9d035e04       0x44
 .text.strcat   0x9d035e04       0x44 c:/program files (x86)/microchip/xc32/v1.40/bin/bin/../../lib/gcc/pic32mx/4.8.3/../../../../pic32mx/lib\libc.a(strcat.o)
                0x9d035e04                strcat

.text.INTSetVectorPriority
                0x9d035e48       0x40
 .text.INTSetVectorPriority
                0x9d035e48       0x40 c:/program files (x86)/microchip/xc32/v1.40/bin/bin/../../lib/gcc/pic32mx/4.8.3/../../../../pic32mx/lib\libmchp_peripheral_32MX575F256L.a(int_tbl_lib.o)
                0x9d035e48                INTSetVectorPriority

.text.INTSetVectorSubPriority
                0x9d035e88       0x40
 .text.INTSetVectorSubPriority
                0x9d035e88       0x40 c:/program files (x86)/microchip/xc32/v1.40/bin/bin/../../lib/gcc/pic32mx/4.8.3/../../../../pic32mx/lib\libmchp_peripheral_32MX575F256L.a(int_tbl_lib.o)
                0x9d035e88                INTSetVectorSubPriority

.text.UARTGetDataRate
                0x9d035ec8       0x40
 .text.UARTGetDataRate
                0x9d035ec8       0x40 c:/program files (x86)/microchip/xc32/v1.40/bin/bin/../../lib/gcc/pic32mx/4.8.3/../../../../pic32mx/lib\libmchp_peripheral_32MX575F256L.a(uart_lib.o)
                0x9d035ec8                UARTGetDataRate

.text._printf_cdnopsuxX
                0x9d035f08       0x40
 .text._printf_cdnopsuxX
                0x9d035f08       0x40 c:/program files (x86)/microchip/xc32/v1.40/bin/bin/../../lib/gcc/pic32mx/4.8.3/../../../../pic32mx/lib\libc.a(printf_cdnopsuxX.eo)
                0x9d035f08                _printf_cdnopsuxX
                0x9d035f08                _printf_cdnopuxX
                0x9d035f08                _printf_0
                0x9d035f08                _printf_s

.text           0x9d035f48       0x80
 .text          0x9d035f48       0x40 c:/program files (x86)/microchip/xc32/v1.40/bin/bin/../../lib/gcc/pic32mx/4.8.3\libgcc.a(_lshrdi3.o)
                0x9d035f48                __lshrdi3
 .text          0x9d035f88       0x40 c:/program files (x86)/microchip/xc32/v1.40/bin/bin/../../lib/gcc/pic32mx/4.8.3\libgcc.a(_ashldi3.o)
                0x9d035f88                __ashldi3

.rodata         0x9d035fc8       0x3c
 .rodata        0x9d035fc8       0x3c build/default/production/_ext/388820833/WFMac_24G.o

.text.INTEnable
                0x9d036004       0x3c
 .text.INTEnable
                0x9d036004       0x3c c:/program files (x86)/microchip/xc32/v1.40/bin/bin/../../lib/gcc/pic32mx/4.8.3/../../../../pic32mx/lib\libmchp_peripheral_32MX575F256L.a(int_tbl_lib.o)
                0x9d036004                INTEnable

.text.UARTConfigure
                0x9d036040       0x3c
 .text.UARTConfigure
                0x9d036040       0x3c c:/program files (x86)/microchip/xc32/v1.40/bin/bin/../../lib/gcc/pic32mx/4.8.3/../../../../pic32mx/lib\libmchp_peripheral_32MX575F256L.a(uart_lib.o)
                0x9d036040                UARTConfigure

.text.UARTSetAddress
                0x9d03607c       0x3c
 .text.UARTSetAddress
                0x9d03607c       0x3c c:/program files (x86)/microchip/xc32/v1.40/bin/bin/../../lib/gcc/pic32mx/4.8.3/../../../../pic32mx/lib\libmchp_peripheral_32MX575F256L.a(uart_lib.o)
                0x9d03607c                UARTSetAddress

.text.localtime
                0x9d0360b8       0x3c
 .text.localtime
                0x9d0360b8       0x3c c:/program files (x86)/microchip/xc32/v1.40/bin/bin/../../lib/gcc/pic32mx/4.8.3/../../../../pic32mx/lib\libc.a(ctime.o)
                0x9d0360b8                localtime

.text.INTEnableSystemMultiVectoredInt
                0x9d0360f4       0x34
 .text.INTEnableSystemMultiVectoredInt
                0x9d0360f4       0x34 c:/program files (x86)/microchip/xc32/v1.40/bin/bin/../../lib/gcc/pic32mx/4.8.3/../../../../pic32mx/lib\libmchp_peripheral_32MX575F256L.a(int_enable_mv_int_lib.o)
                0x9d0360f4                INTEnableSystemMultiVectoredInt

.text.UARTWatchForAddress
                0x9d036128       0x34
 .text.UARTWatchForAddress
                0x9d036128       0x34 c:/program files (x86)/microchip/xc32/v1.40/bin/bin/../../lib/gcc/pic32mx/4.8.3/../../../../pic32mx/lib\libmchp_peripheral_32MX575F256L.a(uart_lib.o)
                0x9d036128                UARTWatchForAddress

.text.I2CReceiverEnable
                0x9d03615c       0x34
 .text.I2CReceiverEnable
                0x9d03615c       0x34 c:/program files (x86)/microchip/xc32/v1.40/bin/bin/../../lib/gcc/pic32mx/4.8.3/../../../../pic32mx/lib\libmchp_peripheral_32MX575F256L.a(I2CReceiverEnable.o)
                0x9d03615c                I2CReceiverEnable

.rodata         0x9d036190       0x30
 .rodata        0x9d036190       0x30 build/default/production/_ext/1472/Assert.o

.text.INTGetVectorPriority
                0x9d0361c0       0x30
 .text.INTGetVectorPriority
                0x9d0361c0       0x30 c:/program files (x86)/microchip/xc32/v1.40/bin/bin/../../lib/gcc/pic32mx/4.8.3/../../../../pic32mx/lib\libmchp_peripheral_32MX575F256L.a(int_tbl_lib.o)
                0x9d0361c0                INTGetVectorPriority

.text.INTGetVectorSubPriority
                0x9d0361f0       0x30
 .text.INTGetVectorSubPriority
                0x9d0361f0       0x30 c:/program files (x86)/microchip/xc32/v1.40/bin/bin/../../lib/gcc/pic32mx/4.8.3/../../../../pic32mx/lib\libmchp_peripheral_32MX575F256L.a(int_tbl_lib.o)
                0x9d0361f0                INTGetVectorSubPriority

.text.I2CRepeatStart
                0x9d036220       0x30
 .text.I2CRepeatStart
                0x9d036220       0x30 c:/program files (x86)/microchip/xc32/v1.40/bin/bin/../../lib/gcc/pic32mx/4.8.3/../../../../pic32mx/lib\libmchp_peripheral_32MX575F256L.a(I2CRepeatStart.o)
                0x9d036220                I2CRepeatStart

.text.I2CStart  0x9d036250       0x30
 .text.I2CStart
                0x9d036250       0x30 c:/program files (x86)/microchip/xc32/v1.40/bin/bin/../../lib/gcc/pic32mx/4.8.3/../../../../pic32mx/lib\libmchp_peripheral_32MX575F256L.a(I2CStart.o)
                0x9d036250                I2CStart

.text.INTClearFlag
                0x9d036280       0x2c
 .text.INTClearFlag
                0x9d036280       0x2c c:/program files (x86)/microchip/xc32/v1.40/bin/bin/../../lib/gcc/pic32mx/4.8.3/../../../../pic32mx/lib\libmchp_peripheral_32MX575F256L.a(int_tbl_lib.o)
                0x9d036280                INTClearFlag

.text.INTSetFlag
                0x9d0362ac       0x2c
 .text.INTSetFlag
                0x9d0362ac       0x2c c:/program files (x86)/microchip/xc32/v1.40/bin/bin/../../lib/gcc/pic32mx/4.8.3/../../../../pic32mx/lib\libmchp_peripheral_32MX575F256L.a(int_tbl_lib.o)
                0x9d0362ac                INTSetFlag

.text.INTGetFlag
                0x9d0362d8       0x2c
 .text.INTGetFlag
                0x9d0362d8       0x2c c:/program files (x86)/microchip/xc32/v1.40/bin/bin/../../lib/gcc/pic32mx/4.8.3/../../../../pic32mx/lib\libmchp_peripheral_32MX575F256L.a(int_tbl_lib.o)
                0x9d0362d8                INTGetFlag

.text.INTGetEnable
                0x9d036304       0x2c
 .text.INTGetEnable
                0x9d036304       0x2c c:/program files (x86)/microchip/xc32/v1.40/bin/bin/../../lib/gcc/pic32mx/4.8.3/../../../../pic32mx/lib\libmchp_peripheral_32MX575F256L.a(int_tbl_lib.o)
                0x9d036304                INTGetEnable

.text.strchr    0x9d036330       0x2c
 .text.strchr   0x9d036330       0x2c c:/program files (x86)/microchip/xc32/v1.40/bin/bin/../../lib/gcc/pic32mx/4.8.3/../../../../pic32mx/lib\libc.a(strchr.o)
                0x9d036330                strchr

.text.UARTSetFifoMode
                0x9d03635c       0x28
 .text.UARTSetFifoMode
                0x9d03635c       0x28 c:/program files (x86)/microchip/xc32/v1.40/bin/bin/../../lib/gcc/pic32mx/4.8.3/../../../../pic32mx/lib\libmchp_peripheral_32MX575F256L.a(uart_lib.o)
                0x9d03635c                UARTSetFifoMode

.text.UARTSetLineControl
                0x9d036384       0x28
 .text.UARTSetLineControl
                0x9d036384       0x28 c:/program files (x86)/microchip/xc32/v1.40/bin/bin/../../lib/gcc/pic32mx/4.8.3/../../../../pic32mx/lib\libmchp_peripheral_32MX575F256L.a(uart_lib.o)
                0x9d036384                UARTSetLineControl

.text.I2CEnable
                0x9d0363ac       0x28
 .text.I2CEnable
                0x9d0363ac       0x28 c:/program files (x86)/microchip/xc32/v1.40/bin/bin/../../lib/gcc/pic32mx/4.8.3/../../../../pic32mx/lib\libmchp_peripheral_32MX575F256L.a(I2CEnable.o)
                0x9d0363ac                I2CEnable

.text.strtod    0x9d0363d4       0x28
 .text.strtod   0x9d0363d4       0x28 c:/program files (x86)/microchip/xc32/v1.40/bin/bin/../../lib/gcc/pic32mx/4.8.3/../../../../pic32mx/lib\libc.a(strtod.o)
                0x9d0363d4                strtod

.rodata         0x9d0363fc       0x24
 .rodata        0x9d0363fc       0x24 build/default/production/_ext/1472/TimeMonitor.o

.text           0x9d036420       0x24
 .text          0x9d036420       0x24 build/default/production/_ext/1472/app_UCM.o
                0x9d036420                AppTaskInit
                0x9d03643c                AppTaskLoop

.rodata         0x9d036444       0x24
 .rodata        0x9d036444       0x24 build/default/production/_ext/1472/BasicDR.o

.text.I2CByteWasAcknowledged
                0x9d036468       0x24
 .text.I2CByteWasAcknowledged
                0x9d036468       0x24 c:/program files (x86)/microchip/xc32/v1.40/bin/bin/../../lib/gcc/pic32mx/4.8.3/../../../../pic32mx/lib\libmchp_peripheral_32MX575F256L.a(I2CByteWasAcknowledged.o)
                0x9d036468                I2CByteWasAcknowledged

.text.I2CStop   0x9d03648c       0x24
 .text.I2CStop  0x9d03648c       0x24 c:/program files (x86)/microchip/xc32/v1.40/bin/bin/../../lib/gcc/pic32mx/4.8.3/../../../../pic32mx/lib\libmchp_peripheral_32MX575F256L.a(I2CStop.o)
                0x9d03648c                I2CStop

.text.I2CTransmissionHasCompleted
                0x9d0364b0       0x24
 .text.I2CTransmissionHasCompleted
                0x9d0364b0       0x24 c:/program files (x86)/microchip/xc32/v1.40/bin/bin/../../lib/gcc/pic32mx/4.8.3/../../../../pic32mx/lib\libmchp_peripheral_32MX575F256L.a(I2CTransmissionHasCompleted.o)
                0x9d0364b0                I2CTransmissionHasCompleted

.text.I2CTransmitterIsReady
                0x9d0364d4       0x24
 .text.I2CTransmitterIsReady
                0x9d0364d4       0x24 c:/program files (x86)/microchip/xc32/v1.40/bin/bin/../../lib/gcc/pic32mx/4.8.3/../../../../pic32mx/lib\libmchp_peripheral_32MX575F256L.a(I2CTransmitterIsReady.o)
                0x9d0364d4                I2CTransmitterIsReady

.text.tolower   0x9d0364f8       0x24
 .text.tolower  0x9d0364f8       0x24 c:/program files (x86)/microchip/xc32/v1.40/bin/bin/../../lib/gcc/pic32mx/4.8.3/../../../../pic32mx/lib\libc.a(ctypef.o)
                0x9d0364f8                tolower

.text.toupper   0x9d03651c       0x24
 .text.toupper  0x9d03651c       0x24 c:/program files (x86)/microchip/xc32/v1.40/bin/bin/../../lib/gcc/pic32mx/4.8.3/../../../../pic32mx/lib\libc.a(ctypef.o)
                0x9d03651c                toupper

.rodata         0x9d036540       0x20
 .rodata        0x9d036540       0x20 build/default/production/_ext/93166211/ARP.o

.text.I2CGetByte
                0x9d036560       0x20
 .text.I2CGetByte
                0x9d036560       0x20 c:/program files (x86)/microchip/xc32/v1.40/bin/bin/../../lib/gcc/pic32mx/4.8.3/../../../../pic32mx/lib\libmchp_peripheral_32MX575F256L.a(I2CGetByte.o)
                0x9d036560                I2CGetByte

.text.I2CReceivedDataIsAvailable
                0x9d036580       0x20
 .text.I2CReceivedDataIsAvailable
                0x9d036580       0x20 c:/program files (x86)/microchip/xc32/v1.40/bin/bin/../../lib/gcc/pic32mx/4.8.3/../../../../pic32mx/lib\libmchp_peripheral_32MX575F256L.a(I2CReceivedDataIsAvailable.o)
                0x9d036580                I2CReceivedDataIsAvailable

.text.atoll     0x9d0365a0       0x20
 .text.atoll    0x9d0365a0       0x20 c:/program files (x86)/microchip/xc32/v1.40/bin/bin/../../lib/gcc/pic32mx/4.8.3/../../../../pic32mx/lib\libc.a(atoll.o)
                0x9d0365a0                atoll

.text.putchar   0x9d0365c0       0x20
 .text.putchar  0x9d0365c0       0x20 c:/program files (x86)/microchip/xc32/v1.40/bin/bin/../../lib/gcc/pic32mx/4.8.3/../../../../pic32mx/lib\libc.a(putchar.o)
                0x9d0365c0                putchar

.rodata         0x9d0365e0       0x38
 .rodata        0x9d0365e0       0x1c build/default/production/_ext/93166211/Announce.o
 .rodata        0x9d0365fc       0x1c build/default/production/_ext/93166211/DHCP.o

.text.INTRestoreInterrupts
                0x9d036618       0x1c
 .text.INTRestoreInterrupts
                0x9d036618       0x1c c:/program files (x86)/microchip/xc32/v1.40/bin/bin/../../lib/gcc/pic32mx/4.8.3/../../../../pic32mx/lib\libmchp_peripheral_32MX575F256L.a(int_restore_interrupts_lib.o)
                0x9d036618                INTRestoreInterrupts

.text.atof      0x9d036634       0x1c
 .text.atof     0x9d036634       0x1c c:/program files (x86)/microchip/xc32/v1.40/bin/bin/../../lib/gcc/pic32mx/4.8.3/../../../../pic32mx/lib\libc.a(atof.o)
                0x9d036634                atof

.text.strtof    0x9d036650       0x1c
 .text.strtof   0x9d036650       0x1c c:/program files (x86)/microchip/xc32/v1.40/bin/bin/../../lib/gcc/pic32mx/4.8.3/../../../../pic32mx/lib\libc.a(strtof.o)
                0x9d036650                strtof

.text.strtodf   0x9d03666c       0x1c
 .text.strtodf  0x9d03666c       0x1c c:/program files (x86)/microchip/xc32/v1.40/bin/bin/../../lib/gcc/pic32mx/4.8.3/../../../../pic32mx/lib\libc.a(strtof.o)
                0x9d03666c                strtodf

.text._dstrtod  0x9d036688       0x1c
 .text._dstrtod
                0x9d036688       0x1c c:/program files (x86)/microchip/xc32/v1.40/bin/bin/../../lib/gcc/pic32mx/4.8.3/../../../../pic32mx/lib\libc.a(strtod.o)
                0x9d036688                _dstrtod

.text.negdf2    0x9d0366a4       0x1c
 .text.negdf2   0x9d0366a4       0x1c c:/program files (x86)/microchip/xc32/v1.40/bin/bin/../../lib/gcc/pic32mx/4.8.3/../../../../pic32mx/lib\libm.a(negdf2.o)
                0x9d0366a4                __negdf2

.text.CheKseg0CacheOff
                0x9d0366c0       0x18
 .text.CheKseg0CacheOff
                0x9d0366c0       0x18 c:/program files (x86)/microchip/xc32/v1.40/bin/bin/../../lib/gcc/pic32mx/4.8.3/../../../../pic32mx/lib\libmchp_peripheral_32MX575F256L.a(pcache.o)
                0x9d0366c0                CheKseg0CacheOff

.text.CheKseg0CacheOn
                0x9d0366d8       0x18
 .text.CheKseg0CacheOn
                0x9d0366d8       0x18 c:/program files (x86)/microchip/xc32/v1.40/bin/bin/../../lib/gcc/pic32mx/4.8.3/../../../../pic32mx/lib\libmchp_peripheral_32MX575F256L.a(pcache.o)
                0x9d0366d8                CheKseg0CacheOn

.rodata         0x9d0366f0       0x18
 .rodata        0x9d0366f0       0x18 c:/program files (x86)/microchip/xc32/v1.40/bin/bin/../../lib/gcc/pic32mx/4.8.3/../../../../pic32mx/lib\libmchp_peripheral_32MX575F256L.a(uart_lib.o)
                0x9d0366f0                uartReg

.text           0x9d036708       0x18
 .text          0x9d036708       0x18 c:/program files (x86)/microchip/xc32/v1.40/bin/bin/../../lib/gcc/pic32mx/4.8.3/../../../../pic32mx/lib\libpic32.a(default-nmi-handler.o)
                0x9d036708                _nmi_handler

.text.isalnum   0x9d036720       0x18
 .text.isalnum  0x9d036720       0x18 c:/program files (x86)/microchip/xc32/v1.40/bin/bin/../../lib/gcc/pic32mx/4.8.3/../../../../pic32mx/lib\libc.a(ctypef.o)
                0x9d036720                isalnum

.text.isalpha   0x9d036738       0x18
 .text.isalpha  0x9d036738       0x18 c:/program files (x86)/microchip/xc32/v1.40/bin/bin/../../lib/gcc/pic32mx/4.8.3/../../../../pic32mx/lib\libc.a(ctypef.o)
                0x9d036738                isalpha

.text.iscntrl   0x9d036750       0x18
 .text.iscntrl  0x9d036750       0x18 c:/program files (x86)/microchip/xc32/v1.40/bin/bin/../../lib/gcc/pic32mx/4.8.3/../../../../pic32mx/lib\libc.a(ctypef.o)
                0x9d036750                iscntrl

.text.isdigit   0x9d036768       0x18
 .text.isdigit  0x9d036768       0x18 c:/program files (x86)/microchip/xc32/v1.40/bin/bin/../../lib/gcc/pic32mx/4.8.3/../../../../pic32mx/lib\libc.a(ctypef.o)
                0x9d036768                isdigit

.text.isgraph   0x9d036780       0x18
 .text.isgraph  0x9d036780       0x18 c:/program files (x86)/microchip/xc32/v1.40/bin/bin/../../lib/gcc/pic32mx/4.8.3/../../../../pic32mx/lib\libc.a(ctypef.o)
                0x9d036780                isgraph

.text.islower   0x9d036798       0x18
 .text.islower  0x9d036798       0x18 c:/program files (x86)/microchip/xc32/v1.40/bin/bin/../../lib/gcc/pic32mx/4.8.3/../../../../pic32mx/lib\libc.a(ctypef.o)
                0x9d036798                islower

.text.isprint   0x9d0367b0       0x18
 .text.isprint  0x9d0367b0       0x18 c:/program files (x86)/microchip/xc32/v1.40/bin/bin/../../lib/gcc/pic32mx/4.8.3/../../../../pic32mx/lib\libc.a(ctypef.o)
                0x9d0367b0                isprint

.text.ispunct   0x9d0367c8       0x18
 .text.ispunct  0x9d0367c8       0x18 c:/program files (x86)/microchip/xc32/v1.40/bin/bin/../../lib/gcc/pic32mx/4.8.3/../../../../pic32mx/lib\libc.a(ctypef.o)
                0x9d0367c8                ispunct

.text.isspace   0x9d0367e0       0x18
 .text.isspace  0x9d0367e0       0x18 c:/program files (x86)/microchip/xc32/v1.40/bin/bin/../../lib/gcc/pic32mx/4.8.3/../../../../pic32mx/lib\libc.a(ctypef.o)
                0x9d0367e0                isspace

.text.isupper   0x9d0367f8       0x18
 .text.isupper  0x9d0367f8       0x18 c:/program files (x86)/microchip/xc32/v1.40/bin/bin/../../lib/gcc/pic32mx/4.8.3/../../../../pic32mx/lib\libc.a(ctypef.o)
                0x9d0367f8                isupper

.text.isxdigit  0x9d036810       0x18
 .text.isxdigit
                0x9d036810       0x18 c:/program files (x86)/microchip/xc32/v1.40/bin/bin/../../lib/gcc/pic32mx/4.8.3/../../../../pic32mx/lib\libc.a(ctypef.o)
                0x9d036810                isxdigit

.rodata         0x9d036828       0x40
 .rodata        0x9d036828       0x18 c:/program files (x86)/microchip/xc32/v1.40/bin/bin/../../lib/gcc/pic32mx/4.8.3/../../../../pic32mx/lib\libm.a(__strtof.o)
 .rodata        0x9d036840       0x14 build/default/production/_ext/93166211/TCP.o
                0x9d036840                TCPSocketInitializer
 .rodata        0x9d036854       0x14 c:/program files (x86)/microchip/xc32/v1.40/bin/bin/../../lib/gcc/pic32mx/4.8.3/../../../../pic32mx/lib\libmchp_peripheral_32MX575F256L.a(I2CPrivate.o)
                0x9d036854                i2cBase

.text.negsf2    0x9d036868       0x14
 .text.negsf2   0x9d036868       0x14 c:/program files (x86)/microchip/xc32/v1.40/bin/bin/../../lib/gcc/pic32mx/4.8.3/../../../../pic32mx/lib\libm.a(negsf2.o)
                0x9d036868                __negsf2

.rodata         0x9d03687c       0x20
 .rodata        0x9d03687c        0x8 build/default/production/_ext/93166211/DNSs.o
 .rodata        0x9d036884        0x8 build/default/production/_ext/93166211/MPFS2.o
 .rodata        0x9d03688c        0x8 build/default/production/_ext/388820833/WF_pbkdf2.o
 .rodata        0x9d036894        0x8 build/default/production/_ext/388820833/WFInit.o

.text.INTDisableInterrupts
                0x9d03689c        0x8
 .text.INTDisableInterrupts
                0x9d03689c        0x8 c:/program files (x86)/microchip/xc32/v1.40/bin/bin/../../lib/gcc/pic32mx/4.8.3/../../../../pic32mx/lib\libmchp_peripheral_32MX575F256L.a(int_disable_interrupts_lib.o)
                0x9d03689c                INTDisableInterrupts

.text.INTEnableInterrupts
                0x9d0368a4        0x8
 .text.INTEnableInterrupts
                0x9d0368a4        0x8 c:/program files (x86)/microchip/xc32/v1.40/bin/bin/../../lib/gcc/pic32mx/4.8.3/../../../../pic32mx/lib\libmchp_peripheral_32MX575F256L.a(int_enable_interrupts_lib.o)
                0x9d0368a4                INTEnableInterrupts

.text._on_reset
                0x9d0368ac        0x8
 .text._on_reset
                0x9d0368ac        0x8 c:/program files (x86)/microchip/xc32/v1.40/bin/bin/../../lib/gcc/pic32mx/4.8.3/../../../../pic32mx/lib\libpic32.a(default-on-reset.o)
                0x9d0368ac                _on_reset

.text._on_bootstrap
                0x9d0368b4        0x8
 .text._on_bootstrap
                0x9d0368b4        0x8 c:/program files (x86)/microchip/xc32/v1.40/bin/bin/../../lib/gcc/pic32mx/4.8.3/../../../../pic32mx/lib\libpic32.a(default-on-bootstrap.o)
                0x9d0368b4                _on_bootstrap

.text.isascii   0x9d0368bc        0x8
 .text.isascii  0x9d0368bc        0x8 c:/program files (x86)/microchip/xc32/v1.40/bin/bin/../../lib/gcc/pic32mx/4.8.3/../../../../pic32mx/lib\libc.a(ctypef.o)
                0x9d0368bc                isascii

.text.toascii   0x9d0368c4        0x8
 .text.toascii  0x9d0368c4        0x8 c:/program files (x86)/microchip/xc32/v1.40/bin/bin/../../lib/gcc/pic32mx/4.8.3/../../../../pic32mx/lib\libc.a(ctypef.o)
                0x9d0368c4                toascii

.text._tolower  0x9d0368cc        0x8
 .text._tolower
                0x9d0368cc        0x8 c:/program files (x86)/microchip/xc32/v1.40/bin/bin/../../lib/gcc/pic32mx/4.8.3/../../../../pic32mx/lib\libc.a(ctypef.o)
                0x9d0368cc                _tolower

.text._toupper  0x9d0368d4        0x8
 .text._toupper
                0x9d0368d4        0x8 c:/program files (x86)/microchip/xc32/v1.40/bin/bin/../../lib/gcc/pic32mx/4.8.3/../../../../pic32mx/lib\libc.a(ctypef.o)
                0x9d0368d4                _toupper

.rodata         0x9d0368dc        0x4
 .rodata        0x9d0368dc        0x4 build/default/production/_ext/388820833/WFConsoleMsgHandler.o

.text           0x00000000        0x0
 .text          0x00000000        0x0 c:/program files (x86)/microchip/xc32/v1.40/bin/bin/../../lib/gcc/pic32mx/4.8.3/../../../../pic32mx/lib\libe.a(_ldexpf.o)

.text           0x00000000        0x0
 .text          0x00000000        0x0 c:/program files (x86)/microchip/xc32/v1.40/bin/bin/../../lib/gcc/pic32mx/4.8.3/../../../../pic32mx/lib\libe.a(_ldexp.o)

.text           0x00000000        0x0
 .text          0x00000000        0x0 c:/program files (x86)/microchip/xc32/v1.40/bin/bin/../../lib/gcc/pic32mx/4.8.3/../../../../pic32mx/lib\libm.a(negsf2.o)

.text           0x00000000        0x0
 .text          0x00000000        0x0 c:/program files (x86)/microchip/xc32/v1.40/bin/bin/../../lib/gcc/pic32mx/4.8.3/../../../../pic32mx/lib\libm.a(negdf2.o)

.text           0x00000000        0x0
 .text          0x00000000        0x0 c:/program files (x86)/microchip/xc32/v1.40/bin/bin/../../lib/gcc/pic32mx/4.8.3/../../../../pic32mx/lib\libm.a(litodp.o)

.text           0x00000000        0x0
 .text          0x00000000        0x0 c:/program files (x86)/microchip/xc32/v1.40/bin/bin/../../lib/gcc/pic32mx/4.8.3/../../../../pic32mx/lib\libm.a(dp32subadd.o)

.text           0x00000000        0x0
 .text          0x00000000        0x0 c:/program files (x86)/microchip/xc32/v1.40/bin/bin/../../lib/gcc/pic32mx/4.8.3/../../../../pic32mx/lib\libm.a(dp32mul.o)

.text           0x00000000        0x0
 .text          0x00000000        0x0 c:/program files (x86)/microchip/xc32/v1.40/bin/bin/../../lib/gcc/pic32mx/4.8.3/../../../../pic32mx/lib\libm.a(dp32div.o)

.text           0x00000000        0x0
 .text          0x00000000        0x0 c:/program files (x86)/microchip/xc32/v1.40/bin/bin/../../lib/gcc/pic32mx/4.8.3/../../../../pic32mx/lib\libm.a(__strtof.o)

.text           0x00000000        0x0
 .text          0x00000000        0x0 c:/program files (x86)/microchip/xc32/v1.40/bin/bin/../../lib/gcc/pic32mx/4.8.3/../../../../pic32mx/lib\libm.a(__strtod.o)

.text           0x00000000        0x0
 .text          0x00000000        0x0 c:/program files (x86)/microchip/xc32/v1.40/bin/bin/../../lib/gcc/pic32mx/4.8.3/../../../../pic32mx/lib\libm.a(fptodp.o)

.text           0x00000000        0x0
 .text          0x00000000        0x0 c:/program files (x86)/microchip/xc32/v1.40/bin/bin/../../lib/gcc/pic32mx/4.8.3/../../../../pic32mx/lib\libm.a(dptofp.o)

.text           0x00000000        0x0
 .text          0x00000000        0x0 c:/program files (x86)/microchip/xc32/v1.40/bin/bin/../../lib/gcc/pic32mx/4.8.3/../../../../pic32mx/lib\libpic32.a(xc32_uart.o)

.text           0x00000000        0x0
 .text          0x00000000        0x0 c:/program files (x86)/microchip/xc32/v1.40/bin/bin/../../lib/gcc/pic32mx/4.8.3/../../../../pic32mx/lib\libpic32.a(write.o)

.text           0x00000000        0x0
 .text          0x00000000        0x0 c:/program files (x86)/microchip/xc32/v1.40/bin/bin/../../lib/gcc/pic32mx/4.8.3/../../../../pic32mx/lib\libpic32.a(read.o)

.text           0x00000000        0x0
 .text          0x00000000        0x0 c:/program files (x86)/microchip/xc32/v1.40/bin/bin/../../lib/gcc/pic32mx/4.8.3/../../../../pic32mx/lib\libc.a(fflush.o)

.text           0x00000000        0x0
 .text          0x00000000        0x0 c:/program files (x86)/microchip/xc32/v1.40/bin/bin/../../lib/gcc/pic32mx/4.8.3/../../../../pic32mx/lib\libc.a(filbuf.o)

.text           0x00000000        0x0
 .text          0x00000000        0x0 c:/program files (x86)/microchip/xc32/v1.40/bin/bin/../../lib/gcc/pic32mx/4.8.3/../../../../pic32mx/lib\libc.a(ungetc.o)

.text           0x00000000        0x0
 .text          0x00000000        0x0 c:/program files (x86)/microchip/xc32/v1.40/bin/bin/../../lib/gcc/pic32mx/4.8.3/../../../../pic32mx/lib\libc.a(strtod.o)

.text           0x00000000        0x0
 .text          0x00000000        0x0 c:/program files (x86)/microchip/xc32/v1.40/bin/bin/../../lib/gcc/pic32mx/4.8.3/../../../../pic32mx/lib\libc.a(fgetc.o)

.text           0x00000000        0x0
 .text          0x00000000        0x0 c:/program files (x86)/microchip/xc32/v1.40/bin/bin/../../lib/gcc/pic32mx/4.8.3/../../../../pic32mx/lib\libc.a(_flsbuf_simple.o)

.text           0x00000000        0x0
 .text          0x00000000        0x0 c:/program files (x86)/microchip/xc32/v1.40/bin/bin/../../lib/gcc/pic32mx/4.8.3/../../../../pic32mx/lib\libc.a(doscan_cdnopuxX.eo)

.text           0x00000000        0x0
 .text          0x00000000        0x0 c:/program files (x86)/microchip/xc32/v1.40/bin/bin/../../lib/gcc/pic32mx/4.8.3/../../../../pic32mx/lib\libc.a(doscan_cdnopsuxX.eo)

.text           0x00000000        0x0
 .text          0x00000000        0x0 c:/program files (x86)/microchip/xc32/v1.40/bin/bin/../../lib/gcc/pic32mx/4.8.3/../../../../pic32mx/lib\libc.a(doscan_cdfFnopsuxX.eo)

.text           0x00000000        0x0
 .text          0x00000000        0x0 c:/program files (x86)/microchip/xc32/v1.40/bin/bin/../../lib/gcc/pic32mx/4.8.3/../../../../pic32mx/lib\libc.a(doprnt_cdnopsuxX.eo)

.text           0x00000000        0x0
 .text          0x00000000        0x0 c:/program files (x86)/microchip/xc32/v1.40/bin/bin/../../lib/gcc/pic32mx/4.8.3/../../../../pic32mx/lib\libc.a(strtof.o)

.text           0x00000000        0x0
 .text          0x00000000        0x0 c:/program files (x86)/microchip/xc32/v1.40/bin/bin/../../lib/gcc/pic32mx/4.8.3/../../../../pic32mx/lib\libc.a(strspn.o)

.text           0x00000000        0x0
 .text          0x00000000        0x0 c:/program files (x86)/microchip/xc32/v1.40/bin/bin/../../lib/gcc/pic32mx/4.8.3/../../../../pic32mx/lib\libc.a(strcspn.o)

.text           0x00000000        0x0
 .text          0x00000000        0x0 c:/program files (x86)/microchip/xc32/v1.40/bin/bin/../../lib/gcc/pic32mx/4.8.3/../../../../pic32mx/lib\libc.a(ctypef.o)

.text           0x00000000        0x0
 .text          0x00000000        0x0 c:/program files (x86)/microchip/xc32/v1.40/bin/bin/../../lib/gcc/pic32mx/4.8.3/../../../../pic32mx/lib\libc.a(_fputc_simple.o)

.text           0x00000000        0x0
 .text          0x00000000        0x0 c:/program files (x86)/microchip/xc32/v1.40/bin/bin/../../lib/gcc/pic32mx/4.8.3/../../../../pic32mx/lib\libc.a(_iob.o)

.text           0x00000000        0x0
 .text          0x00000000        0x0 c:/program files (x86)/microchip/xc32/v1.40/bin/bin/../../lib/gcc/pic32mx/4.8.3/../../../../pic32mx/lib\libc.a(sscanf_cdfFnopsuxX.eo)

.text           0x00000000        0x0
 .text          0x00000000        0x0 c:/program files (x86)/microchip/xc32/v1.40/bin/bin/../../lib/gcc/pic32mx/4.8.3/../../../../pic32mx/lib\libc.a(sprintf_cdnopsuxX.eo)

.text           0x00000000        0x0
 .text          0x00000000        0x0 c:/program files (x86)/microchip/xc32/v1.40/bin/bin/../../lib/gcc/pic32mx/4.8.3/../../../../pic32mx/lib\libc.a(printf_cdnopsuxX.eo)

.text           0x00000000        0x0
 .text          0x00000000        0x0 c:/program files (x86)/microchip/xc32/v1.40/bin/bin/../../lib/gcc/pic32mx/4.8.3/../../../../pic32mx/lib\libc.a(atof.o)

.text           0x00000000        0x0
 .text          0x00000000        0x0 c:/program files (x86)/microchip/xc32/v1.40/bin/bin/../../lib/gcc/pic32mx/4.8.3/../../../../pic32mx/lib\libc.a(strtoll.o)

.text           0x00000000        0x0
 .text          0x00000000        0x0 c:/program files (x86)/microchip/xc32/v1.40/bin/bin/../../lib/gcc/pic32mx/4.8.3/../../../../pic32mx/lib\libc.a(strtok.o)

.text           0x00000000        0x0
 .text          0x00000000        0x0 c:/program files (x86)/microchip/xc32/v1.40/bin/bin/../../lib/gcc/pic32mx/4.8.3/../../../../pic32mx/lib\libc.a(strstr.o)

.text           0x00000000        0x0
 .text          0x00000000        0x0 c:/program files (x86)/microchip/xc32/v1.40/bin/bin/../../lib/gcc/pic32mx/4.8.3/../../../../pic32mx/lib\libc.a(strrchr.o)

.text           0x00000000        0x0
 .text          0x00000000        0x0 c:/program files (x86)/microchip/xc32/v1.40/bin/bin/../../lib/gcc/pic32mx/4.8.3/../../../../pic32mx/lib\libc.a(strncpy.o)

.text           0x00000000        0x0
 .text          0x00000000        0x0 c:/program files (x86)/microchip/xc32/v1.40/bin/bin/../../lib/gcc/pic32mx/4.8.3/../../../../pic32mx/lib\libc.a(strncmp.o)

.text           0x00000000        0x0
 .text          0x00000000        0x0 c:/program files (x86)/microchip/xc32/v1.40/bin/bin/../../lib/gcc/pic32mx/4.8.3/../../../../pic32mx/lib\libc.a(strchr.o)

.text           0x00000000        0x0
 .text          0x00000000        0x0 c:/program files (x86)/microchip/xc32/v1.40/bin/bin/../../lib/gcc/pic32mx/4.8.3/../../../../pic32mx/lib\libc.a(strcat.o)

.text           0x00000000        0x0
 .text          0x00000000        0x0 c:/program files (x86)/microchip/xc32/v1.40/bin/bin/../../lib/gcc/pic32mx/4.8.3/../../../../pic32mx/lib\libc.a(puts.o)

.text           0x00000000        0x0
 .text          0x00000000        0x0 c:/program files (x86)/microchip/xc32/v1.40/bin/bin/../../lib/gcc/pic32mx/4.8.3/../../../../pic32mx/lib\libc.a(putchar.o)

.text           0x00000000        0x0
 .text          0x00000000        0x0 c:/program files (x86)/microchip/xc32/v1.40/bin/bin/../../lib/gcc/pic32mx/4.8.3/../../../../pic32mx/lib\libc.a(mktime.o)

.text           0x00000000        0x0
 .text          0x00000000        0x0 c:/program files (x86)/microchip/xc32/v1.40/bin/bin/../../lib/gcc/pic32mx/4.8.3/../../../../pic32mx/lib\libc.a(errno.o)

.text           0x00000000        0x0
 .text          0x00000000        0x0 c:/program files (x86)/microchip/xc32/v1.40/bin/bin/../../lib/gcc/pic32mx/4.8.3/../../../../pic32mx/lib\libc.a(ctype.o)

.text           0x00000000        0x0
 .text          0x00000000        0x0 c:/program files (x86)/microchip/xc32/v1.40/bin/bin/../../lib/gcc/pic32mx/4.8.3/../../../../pic32mx/lib\libc.a(ctime.o)

.text           0x00000000        0x0
 .text          0x00000000        0x0 c:/program files (x86)/microchip/xc32/v1.40/bin/bin/../../lib/gcc/pic32mx/4.8.3/../../../../pic32mx/lib\libc.a(atoll.o)

.text           0x00000000        0x0
 .text          0x00000000        0x0 c:/program files (x86)/microchip/xc32/v1.40/bin/bin/../../lib/gcc/pic32mx/4.8.3/../../../../pic32mx/lib\libc.a(atol.o)

.text           0x00000000        0x0
 .text          0x00000000        0x0 c:/program files (x86)/microchip/xc32/v1.40/bin/bin/../../lib/gcc/pic32mx/4.8.3/../../../../pic32mx/lib\libc.a(atoi.o)

.text           0x00000000        0x0
 .text          0x00000000        0x0 c:/program files (x86)/microchip/xc32/v1.40/bin/bin/../../lib/gcc/pic32mx/4.8.3/../../../../pic32mx/lib\libm.a(fpexsqrt32.o)

.text           0x00000000        0x0
 .text          0x00000000        0x0 c:/program files (x86)/microchip/xc32/v1.40/bin/bin/../../lib/gcc/pic32mx/4.8.3/../../../../pic32mx/lib\libm.a(s_lib_ver.o)

.text           0x00000000        0x0
 .text          0x00000000        0x0 c:/program files (x86)/microchip/xc32/v1.40/bin/bin/../../lib/gcc/pic32mx/4.8.3/../../../../pic32mx/lib\libm.a(fpsqrt32.o)

.text           0x00000000        0x0
 .text          0x00000000        0x0 c:/program files (x86)/microchip/xc32/v1.40/bin/bin/../../lib/gcc/pic32mx/4.8.3/../../../../pic32mx/lib\libm.a(w_sqrtf.o)

.text           0x00000000        0x0
 .text          0x00000000        0x0 c:/program files (x86)/microchip/xc32/v1.40/bin/bin/../../lib/gcc/pic32mx/4.8.3/../../../../pic32mx/lib\libm.a(sitofp.o)

.text           0x00000000        0x0
 .text          0x00000000        0x0 c:/program files (x86)/microchip/xc32/v1.40/bin/bin/../../lib/gcc/pic32mx/4.8.3/../../../../pic32mx/lib\libm.a(fptoul.o)

.text           0x00000000        0x0
 .text          0x00000000        0x0 c:/program files (x86)/microchip/xc32/v1.40/bin/bin/../../lib/gcc/pic32mx/4.8.3/../../../../pic32mx/lib\libm.a(fptoli.o)

.text           0x00000000        0x0
 .text          0x00000000        0x0 c:/program files (x86)/microchip/xc32/v1.40/bin/bin/../../lib/gcc/pic32mx/4.8.3/../../../../pic32mx/lib\libm.a(fpfloo32.o)

.text           0x00000000        0x0
 .text          0x00000000        0x0 c:/program files (x86)/microchip/xc32/v1.40/bin/bin/../../lib/gcc/pic32mx/4.8.3/../../../../pic32mx/lib\libm.a(fpcmp.o)

.text           0x00000000        0x0
 .text          0x00000000        0x0 c:/program files (x86)/microchip/xc32/v1.40/bin/bin/../../lib/gcc/pic32mx/4.8.3/../../../../pic32mx/lib\libm.a(fpceil32.o)

.text           0x00000000        0x0
 .text          0x00000000        0x0 c:/program files (x86)/microchip/xc32/v1.40/bin/bin/../../lib/gcc/pic32mx/4.8.3/../../../../pic32mx/lib\libm.a(fp32subadd.o)

.text           0x00000000        0x0
 .text          0x00000000        0x0 c:/program files (x86)/microchip/xc32/v1.40/bin/bin/../../lib/gcc/pic32mx/4.8.3/../../../../pic32mx/lib\libm.a(fp32mul.o)

.text           0x00000000        0x0
 .text          0x00000000        0x0 c:/program files (x86)/microchip/xc32/v1.40/bin/bin/../../lib/gcc/pic32mx/4.8.3/../../../../pic32mx/lib\libm.a(fp32div.o)

.text           0x00000000        0x0
 .text          0x00000000        0x0 c:/program files (x86)/microchip/xc32/v1.40/bin/bin/../../lib/gcc/pic32mx/4.8.3/../../../../pic32mx/lib\libpic32.a(defaultinterrupt.o)

.text           0x00000000        0x0
 .text          0x00000000        0x0 c:/program files (x86)/microchip/xc32/v1.40/bin/bin/../../lib/gcc/pic32mx/4.8.3/../../../../pic32mx/lib\libpic32.a(vector51.o)

.text           0x00000000        0x0
 .text          0x00000000        0x0 c:/program files (x86)/microchip/xc32/v1.40/bin/bin/../../lib/gcc/pic32mx/4.8.3/../../../../pic32mx/lib\libpic32.a(vector50.o)

.text           0x00000000        0x0
 .text          0x00000000        0x0 c:/program files (x86)/microchip/xc32/v1.40/bin/bin/../../lib/gcc/pic32mx/4.8.3/../../../../pic32mx/lib\libpic32.a(vector49.o)

.text           0x00000000        0x0
 .text          0x00000000        0x0 c:/program files (x86)/microchip/xc32/v1.40/bin/bin/../../lib/gcc/pic32mx/4.8.3/../../../../pic32mx/lib\libpic32.a(vector48.o)

.text           0x00000000        0x0
 .text          0x00000000        0x0 c:/program files (x86)/microchip/xc32/v1.40/bin/bin/../../lib/gcc/pic32mx/4.8.3/../../../../pic32mx/lib\libpic32.a(vector47.o)

.text           0x00000000        0x0
 .text          0x00000000        0x0 c:/program files (x86)/microchip/xc32/v1.40/bin/bin/../../lib/gcc/pic32mx/4.8.3/../../../../pic32mx/lib\libpic32.a(vector46.o)

.text           0x00000000        0x0
 .text          0x00000000        0x0 c:/program files (x86)/microchip/xc32/v1.40/bin/bin/../../lib/gcc/pic32mx/4.8.3/../../../../pic32mx/lib\libpic32.a(vector45.o)

.text           0x00000000        0x0
 .text          0x00000000        0x0 c:/program files (x86)/microchip/xc32/v1.40/bin/bin/../../lib/gcc/pic32mx/4.8.3/../../../../pic32mx/lib\libpic32.a(vector44.o)

.text           0x00000000        0x0
 .text          0x00000000        0x0 c:/program files (x86)/microchip/xc32/v1.40/bin/bin/../../lib/gcc/pic32mx/4.8.3/../../../../pic32mx/lib\libpic32.a(vector43.o)

.text           0x00000000        0x0
 .text          0x00000000        0x0 c:/program files (x86)/microchip/xc32/v1.40/bin/bin/../../lib/gcc/pic32mx/4.8.3/../../../../pic32mx/lib\libpic32.a(vector42.o)

.text           0x00000000        0x0
 .text          0x00000000        0x0 c:/program files (x86)/microchip/xc32/v1.40/bin/bin/../../lib/gcc/pic32mx/4.8.3/../../../../pic32mx/lib\libpic32.a(vector41.o)

.text           0x00000000        0x0
 .text          0x00000000        0x0 c:/program files (x86)/microchip/xc32/v1.40/bin/bin/../../lib/gcc/pic32mx/4.8.3/../../../../pic32mx/lib\libpic32.a(vector40.o)

.text           0x00000000        0x0
 .text          0x00000000        0x0 c:/program files (x86)/microchip/xc32/v1.40/bin/bin/../../lib/gcc/pic32mx/4.8.3/../../../../pic32mx/lib\libpic32.a(vector39.o)

.text           0x00000000        0x0
 .text          0x00000000        0x0 c:/program files (x86)/microchip/xc32/v1.40/bin/bin/../../lib/gcc/pic32mx/4.8.3/../../../../pic32mx/lib\libpic32.a(vector38.o)

.text           0x00000000        0x0
 .text          0x00000000        0x0 c:/program files (x86)/microchip/xc32/v1.40/bin/bin/../../lib/gcc/pic32mx/4.8.3/../../../../pic32mx/lib\libpic32.a(vector37.o)

.text           0x00000000        0x0
 .text          0x00000000        0x0 c:/program files (x86)/microchip/xc32/v1.40/bin/bin/../../lib/gcc/pic32mx/4.8.3/../../../../pic32mx/lib\libpic32.a(vector36.o)

.text           0x00000000        0x0
 .text          0x00000000        0x0 c:/program files (x86)/microchip/xc32/v1.40/bin/bin/../../lib/gcc/pic32mx/4.8.3/../../../../pic32mx/lib\libpic32.a(vector35.o)

.text           0x00000000        0x0
 .text          0x00000000        0x0 c:/program files (x86)/microchip/xc32/v1.40/bin/bin/../../lib/gcc/pic32mx/4.8.3/../../../../pic32mx/lib\libpic32.a(vector34.o)

.text           0x00000000        0x0
 .text          0x00000000        0x0 c:/program files (x86)/microchip/xc32/v1.40/bin/bin/../../lib/gcc/pic32mx/4.8.3/../../../../pic32mx/lib\libpic32.a(vector33.o)

.text           0x00000000        0x0
 .text          0x00000000        0x0 c:/program files (x86)/microchip/xc32/v1.40/bin/bin/../../lib/gcc/pic32mx/4.8.3/../../../../pic32mx/lib\libpic32.a(vector31.o)

.text           0x00000000        0x0
 .text          0x00000000        0x0 c:/program files (x86)/microchip/xc32/v1.40/bin/bin/../../lib/gcc/pic32mx/4.8.3/../../../../pic32mx/lib\libpic32.a(vector30.o)

.text           0x00000000        0x0
 .text          0x00000000        0x0 c:/program files (x86)/microchip/xc32/v1.40/bin/bin/../../lib/gcc/pic32mx/4.8.3/../../../../pic32mx/lib\libpic32.a(vector29.o)

.text           0x00000000        0x0
 .text          0x00000000        0x0 c:/program files (x86)/microchip/xc32/v1.40/bin/bin/../../lib/gcc/pic32mx/4.8.3/../../../../pic32mx/lib\libpic32.a(vector28.o)

.text           0x00000000        0x0
 .text          0x00000000        0x0 c:/program files (x86)/microchip/xc32/v1.40/bin/bin/../../lib/gcc/pic32mx/4.8.3/../../../../pic32mx/lib\libpic32.a(vector27.o)

.text           0x00000000        0x0
 .text          0x00000000        0x0 c:/program files (x86)/microchip/xc32/v1.40/bin/bin/../../lib/gcc/pic32mx/4.8.3/../../../../pic32mx/lib\libpic32.a(vector26.o)

.text           0x00000000        0x0
 .text          0x00000000        0x0 c:/program files (x86)/microchip/xc32/v1.40/bin/bin/../../lib/gcc/pic32mx/4.8.3/../../../../pic32mx/lib\libpic32.a(vector25.o)

.text           0x00000000        0x0
 .text          0x00000000        0x0 c:/program files (x86)/microchip/xc32/v1.40/bin/bin/../../lib/gcc/pic32mx/4.8.3/../../../../pic32mx/lib\libpic32.a(vector23.o)

.text           0x00000000        0x0
 .text          0x00000000        0x0 c:/program files (x86)/microchip/xc32/v1.40/bin/bin/../../lib/gcc/pic32mx/4.8.3/../../../../pic32mx/lib\libpic32.a(vector22.o)

.text           0x00000000        0x0
 .text          0x00000000        0x0 c:/program files (x86)/microchip/xc32/v1.40/bin/bin/../../lib/gcc/pic32mx/4.8.3/../../../../pic32mx/lib\libpic32.a(vector21.o)

.text           0x00000000        0x0
 .text          0x00000000        0x0 c:/program files (x86)/microchip/xc32/v1.40/bin/bin/../../lib/gcc/pic32mx/4.8.3/../../../../pic32mx/lib\libpic32.a(vector20.o)

.text           0x00000000        0x0
 .text          0x00000000        0x0 c:/program files (x86)/microchip/xc32/v1.40/bin/bin/../../lib/gcc/pic32mx/4.8.3/../../../../pic32mx/lib\libpic32.a(vector19.o)

.text           0x00000000        0x0
 .text          0x00000000        0x0 c:/program files (x86)/microchip/xc32/v1.40/bin/bin/../../lib/gcc/pic32mx/4.8.3/../../../../pic32mx/lib\libpic32.a(vector18.o)

.text           0x00000000        0x0
 .text          0x00000000        0x0 c:/program files (x86)/microchip/xc32/v1.40/bin/bin/../../lib/gcc/pic32mx/4.8.3/../../../../pic32mx/lib\libpic32.a(vector17.o)

.text           0x00000000        0x0
 .text          0x00000000        0x0 c:/program files (x86)/microchip/xc32/v1.40/bin/bin/../../lib/gcc/pic32mx/4.8.3/../../../../pic32mx/lib\libpic32.a(vector16.o)

.text           0x00000000        0x0
 .text          0x00000000        0x0 c:/program files (x86)/microchip/xc32/v1.40/bin/bin/../../lib/gcc/pic32mx/4.8.3/../../../../pic32mx/lib\libpic32.a(vector14.o)

.text           0x00000000        0x0
 .text          0x00000000        0x0 c:/program files (x86)/microchip/xc32/v1.40/bin/bin/../../lib/gcc/pic32mx/4.8.3/../../../../pic32mx/lib\libpic32.a(vector13.o)

.text           0x00000000        0x0
 .text          0x00000000        0x0 c:/program files (x86)/microchip/xc32/v1.40/bin/bin/../../lib/gcc/pic32mx/4.8.3/../../../../pic32mx/lib\libpic32.a(vector12.o)

.text           0x00000000        0x0
 .text          0x00000000        0x0 c:/program files (x86)/microchip/xc32/v1.40/bin/bin/../../lib/gcc/pic32mx/4.8.3/../../../../pic32mx/lib\libpic32.a(vector11.o)

.text           0x00000000        0x0
 .text          0x00000000        0x0 c:/program files (x86)/microchip/xc32/v1.40/bin/bin/../../lib/gcc/pic32mx/4.8.3/../../../../pic32mx/lib\libpic32.a(vector10.o)

.text           0x00000000        0x0
 .text          0x00000000        0x0 c:/program files (x86)/microchip/xc32/v1.40/bin/bin/../../lib/gcc/pic32mx/4.8.3/../../../../pic32mx/lib\libpic32.a(vector9.o)

.text           0x00000000        0x0
 .text          0x00000000        0x0 c:/program files (x86)/microchip/xc32/v1.40/bin/bin/../../lib/gcc/pic32mx/4.8.3/../../../../pic32mx/lib\libpic32.a(vector7.o)

.text           0x00000000        0x0
 .text          0x00000000        0x0 c:/program files (x86)/microchip/xc32/v1.40/bin/bin/../../lib/gcc/pic32mx/4.8.3/../../../../pic32mx/lib\libpic32.a(vector6.o)

.text           0x00000000        0x0
 .text          0x00000000        0x0 c:/program files (x86)/microchip/xc32/v1.40/bin/bin/../../lib/gcc/pic32mx/4.8.3/../../../../pic32mx/lib\libpic32.a(vector5.o)

.text           0x00000000        0x0
 .text          0x00000000        0x0 c:/program files (x86)/microchip/xc32/v1.40/bin/bin/../../lib/gcc/pic32mx/4.8.3/../../../../pic32mx/lib\libpic32.a(vector3.o)

.text           0x00000000        0x0
 .text          0x00000000        0x0 c:/program files (x86)/microchip/xc32/v1.40/bin/bin/../../lib/gcc/pic32mx/4.8.3/../../../../pic32mx/lib\libpic32.a(vector2.o)

.text           0x00000000        0x0
 .text          0x00000000        0x0 c:/program files (x86)/microchip/xc32/v1.40/bin/bin/../../lib/gcc/pic32mx/4.8.3/../../../../pic32mx/lib\libpic32.a(vector1.o)

.text           0x00000000        0x0
 .text          0x00000000        0x0 c:/program files (x86)/microchip/xc32/v1.40/bin/bin/../../lib/gcc/pic32mx/4.8.3/../../../../pic32mx/lib\libpic32.a(vector0.o)

.text           0x00000000        0x0
 .text          0x00000000        0x0 c:/program files (x86)/microchip/xc32/v1.40/bin/bin/../../lib/gcc/pic32mx/4.8.3/../../../../pic32mx/lib\libpic32.a(general-exception.o)

.text           0x00000000        0x0
 .text          0x00000000        0x0 c:/program files (x86)/microchip/xc32/v1.40/bin/bin/../../lib/gcc/pic32mx/4.8.3/../../../../pic32mx/lib\libpic32.a(default-on-bootstrap.o)

.text           0x00000000        0x0
 .text          0x00000000        0x0 c:/program files (x86)/microchip/xc32/v1.40/bin/bin/../../lib/gcc/pic32mx/4.8.3/../../../../pic32mx/lib\libpic32.a(default-on-reset.o)

.text           0x00000000        0x0
 .text          0x00000000        0x0 c:/program files (x86)/microchip/xc32/v1.40/bin/bin/../../lib/gcc/pic32mx/4.8.3/../../../../pic32mx/lib\libpic32.a(default-bootstrap-exception-handler.o)

.text           0x00000000        0x0
 .text          0x00000000        0x0 c:/program files (x86)/microchip/xc32/v1.40/bin/bin/../../lib/gcc/pic32mx/4.8.3/../../../../pic32mx/lib\libmchp_peripheral_32MX575F256L.a(int_enable_interrupts_lib.o)

.text           0x00000000        0x0
 .text          0x00000000        0x0 c:/program files (x86)/microchip/xc32/v1.40/bin/bin/../../lib/gcc/pic32mx/4.8.3/../../../../pic32mx/lib\libmchp_peripheral_32MX575F256L.a(I2CTransmitterIsReady.o)

.text           0x00000000        0x0
 .text          0x00000000        0x0 c:/program files (x86)/microchip/xc32/v1.40/bin/bin/../../lib/gcc/pic32mx/4.8.3/../../../../pic32mx/lib\libmchp_peripheral_32MX575F256L.a(I2CTransmissionHasCompleted.o)

.text           0x00000000        0x0
 .text          0x00000000        0x0 c:/program files (x86)/microchip/xc32/v1.40/bin/bin/../../lib/gcc/pic32mx/4.8.3/../../../../pic32mx/lib\libmchp_peripheral_32MX575F256L.a(I2CStop.o)

.text           0x00000000        0x0
 .text          0x00000000        0x0 c:/program files (x86)/microchip/xc32/v1.40/bin/bin/../../lib/gcc/pic32mx/4.8.3/../../../../pic32mx/lib\libmchp_peripheral_32MX575F256L.a(I2CStart.o)

.text           0x00000000        0x0
 .text          0x00000000        0x0 c:/program files (x86)/microchip/xc32/v1.40/bin/bin/../../lib/gcc/pic32mx/4.8.3/../../../../pic32mx/lib\libmchp_peripheral_32MX575F256L.a(I2CSetFrequency.o)

.text           0x00000000        0x0
 .text          0x00000000        0x0 c:/program files (x86)/microchip/xc32/v1.40/bin/bin/../../lib/gcc/pic32mx/4.8.3/../../../../pic32mx/lib\libmchp_peripheral_32MX575F256L.a(I2CRepeatStart.o)

.text           0x00000000        0x0
 .text          0x00000000        0x0 c:/program files (x86)/microchip/xc32/v1.40/bin/bin/../../lib/gcc/pic32mx/4.8.3/../../../../pic32mx/lib\libmchp_peripheral_32MX575F256L.a(I2CReceiverEnable.o)

.text           0x00000000        0x0
 .text          0x00000000        0x0 c:/program files (x86)/microchip/xc32/v1.40/bin/bin/../../lib/gcc/pic32mx/4.8.3/../../../../pic32mx/lib\libmchp_peripheral_32MX575F256L.a(I2CReceivedDataIsAvailable.o)

.text           0x00000000        0x0
 .text          0x00000000        0x0 c:/program files (x86)/microchip/xc32/v1.40/bin/bin/../../lib/gcc/pic32mx/4.8.3/../../../../pic32mx/lib\libmchp_peripheral_32MX575F256L.a(I2CGetStatus.o)

.text           0x00000000        0x0
 .text          0x00000000        0x0 c:/program files (x86)/microchip/xc32/v1.40/bin/bin/../../lib/gcc/pic32mx/4.8.3/../../../../pic32mx/lib\libmchp_peripheral_32MX575F256L.a(I2CGetByte.o)

.text           0x00000000        0x0
 .text          0x00000000        0x0 c:/program files (x86)/microchip/xc32/v1.40/bin/bin/../../lib/gcc/pic32mx/4.8.3/../../../../pic32mx/lib\libmchp_peripheral_32MX575F256L.a(I2CEnable.o)

.text           0x00000000        0x0
 .text          0x00000000        0x0 c:/program files (x86)/microchip/xc32/v1.40/bin/bin/../../lib/gcc/pic32mx/4.8.3/../../../../pic32mx/lib\libmchp_peripheral_32MX575F256L.a(I2CByteWasAcknowledged.o)

.text           0x00000000        0x0
 .text          0x00000000        0x0 c:/program files (x86)/microchip/xc32/v1.40/bin/bin/../../lib/gcc/pic32mx/4.8.3/../../../../pic32mx/lib\libmchp_peripheral_32MX575F256L.a(I2CBusIsIdle.o)

.text           0x00000000        0x0
 .text          0x00000000        0x0 c:/program files (x86)/microchip/xc32/v1.40/bin/bin/../../lib/gcc/pic32mx/4.8.3/../../../../pic32mx/lib\libmchp_peripheral_32MX575F256L.a(I2CPrivate.o)

.text           0x00000000        0x0
 .text          0x00000000        0x0 c:/program files (x86)/microchip/xc32/v1.40/bin/bin/../../lib/gcc/pic32mx/4.8.3/../../../../pic32mx/lib\libmchp_peripheral_32MX575F256L.a(idle_i2c2_lib_legacy.o)

.text           0x00000000        0x0
 .text          0x00000000        0x0 c:/program files (x86)/microchip/xc32/v1.40/bin/bin/../../lib/gcc/pic32mx/4.8.3/../../../../pic32mx/lib\libmchp_peripheral_32MX575F256L.a(puts_uartx_lib_legacy.o)

.text           0x00000000        0x0
 .text          0x00000000        0x0 c:/program files (x86)/microchip/xc32/v1.40/bin/bin/../../lib/gcc/pic32mx/4.8.3/../../../../pic32mx/lib\libmchp_peripheral_32MX575F256L.a(uart_lib.o)

.text           0x00000000        0x0
 .text          0x00000000        0x0 c:/program files (x86)/microchip/xc32/v1.40/bin/bin/../../lib/gcc/pic32mx/4.8.3/../../../../pic32mx/lib\libmchp_peripheral_32MX575F256L.a(int_tbl_lib.o)

.text           0x00000000        0x0
 .text          0x00000000        0x0 c:/program files (x86)/microchip/xc32/v1.40/bin/bin/../../lib/gcc/pic32mx/4.8.3/../../../../pic32mx/lib\libmchp_peripheral_32MX575F256L.a(int_enable_mv_int_lib.o)

.text           0x00000000        0x0
 .text          0x00000000        0x0 c:/program files (x86)/microchip/xc32/v1.40/bin/bin/../../lib/gcc/pic32mx/4.8.3/../../../../pic32mx/lib\libmchp_peripheral_32MX575F256L.a(int_restore_interrupts_lib.o)

.text           0x00000000        0x0
 .text          0x00000000        0x0 c:/program files (x86)/microchip/xc32/v1.40/bin/bin/../../lib/gcc/pic32mx/4.8.3/../../../../pic32mx/lib\libmchp_peripheral_32MX575F256L.a(int_disable_interrupts_lib.o)

.text           0x00000000        0x0
 .text          0x00000000        0x0 c:/program files (x86)/microchip/xc32/v1.40/bin/bin/../../lib/gcc/pic32mx/4.8.3/../../../../pic32mx/lib\libmchp_peripheral_32MX575F256L.a(pcache.o)

.text           0x00000000        0x0
 .text          0x00000000        0x0 c:/program files (x86)/microchip/xc32/v1.40/bin/bin/../../lib/gcc/pic32mx/4.8.3/../../../../pic32mx/lib\libmchp_peripheral_32MX575F256L.a(soft_reset_lib.o)

.text           0x00000000        0x0
 .text          0x00000000        0x0 c:/program files (x86)/microchip/xc32/v1.40/bin/bin/../../lib/gcc/pic32mx/4.8.3/../../../../pic32mx/lib/./proc/32MX575F256L\processor.o

.text           0x00000000        0x0
 .text          0x00000000        0x0 c:/program files (x86)/microchip/xc32/v1.40/bin/bin/../../lib/gcc/pic32mx/4.8.3/../../../../pic32mx/lib/./proc/32MX575F256L\default_isr_vectors.o

.text           0x00000000        0x0
 .text          0x00000000        0x0 build/default/production/_ext/1472/EPRI_SPILayer.o

.text           0x00000000        0x0
 .text          0x00000000        0x0 build/default/production/_ext/1472/WifiGDemoMPFSImg.o

.text           0x00000000        0x0
 .text          0x00000000        0x0 build/default/production/_ext/388820833/WFDataTxRx.o

.text           0x00000000        0x0
 .text          0x00000000        0x0 build/default/production/_ext/388820833/WFConsoleIwpriv.o

.text           0x00000000        0x0
 .text          0x00000000        0x0 build/default/production/_ext/388820833/WFConsoleIwconfig.o

.text           0x00000000        0x0
 .text          0x00000000        0x0 build/default/production/_ext/388820833/WFConsoleIfconfig.o

.text           0x00000000        0x0
 .text          0x00000000        0x0 build/default/production/_ext/388820833/WFConsole.o

.rodata         0x9d0368e0        0x1
 .rodata        0x9d0368e0        0x1 build/default/production/_ext/93166211/ZeroconfLinkLocal.o
                0x9d0368e0                g_zcll_dhcp_client

.text           0x00000000        0x0
 .text          0x00000000        0x0 build/default/production/_ext/93166211/UDPPerformanceTest.o

.text           0x00000000        0x0
 .text          0x00000000        0x0 build/default/production/_ext/93166211/UART2TCPBridge.o

.text           0x00000000        0x0
 .text          0x00000000        0x0 build/default/production/_ext/93166211/TFTPc.o

.text           0x00000000        0x0
 .text          0x00000000        0x0 build/default/production/_ext/93166211/Telnet.o

.text           0x00000000        0x0
 .text          0x00000000        0x0 build/default/production/_ext/93166211/TCPPerformanceTest.o

.text           0x00000000        0x0
 .text          0x00000000        0x0 build/default/production/_ext/93166211/SSL.o

.text           0x00000000        0x0
 .text          0x00000000        0x0 build/default/production/_ext/93166211/SPIRAM.o

.text           0x00000000        0x0
 .text          0x00000000        0x0 build/default/production/_ext/93166211/SPIEEPROM.o

.text           0x00000000        0x0
 .text          0x00000000        0x0 build/default/production/_ext/93166211/SNTP.o

.text           0x00000000        0x0
 .text          0x00000000        0x0 build/default/production/_ext/93166211/SNMPv3USM.o

.text           0x00000000        0x0
 .text          0x00000000        0x0 build/default/production/_ext/93166211/SNMPv3.o

.text           0x00000000        0x0
 .text          0x00000000        0x0 build/default/production/_ext/93166211/SNMP.o

.text           0x00000000        0x0
 .text          0x00000000        0x0 build/default/production/_ext/93166211/SMTP.o

.text           0x00000000        0x0
 .text          0x00000000        0x0 build/default/production/_ext/93166211/RSA.o

.text           0x00000000        0x0
 .text          0x00000000        0x0 build/default/production/_ext/93166211/Random.o

.text           0x00000000        0x0
 .text          0x00000000        0x0 build/default/production/_ext/93166211/LCDBlocking.o

.text           0x00000000        0x0
 .text          0x00000000        0x0 build/default/production/_ext/93166211/Hashes.o

.text           0x00000000        0x0
 .text          0x00000000        0x0 build/default/production/_ext/93166211/FTP.o

.text           0x00000000        0x0
 .text          0x00000000        0x0 build/default/production/_ext/93166211/FileSystem.o

.text           0x00000000        0x0
 .text          0x00000000        0x0 build/default/production/_ext/93166211/DynDNS.o

.text           0x00000000        0x0
 .text          0x00000000        0x0 build/default/production/_ext/93166211/BigInt_helper_PIC32.o

.text           0x00000000        0x0
 .text          0x00000000        0x0 build/default/production/_ext/93166211/BigInt.o

.text           0x00000000        0x0
 .text          0x00000000        0x0 build/default/production/_ext/93166211/BerkeleyAPI.o

.text           0x00000000        0x0
 .text          0x00000000        0x0 build/default/production/_ext/93166211/AutoIP.o

.text           0x00000000        0x0
 .text          0x00000000        0x0 build/default/production/_ext/93166211/ARCFOUR.o

.text           0x00000000        0x0
 .text          0x00000000        0x0 c:/program files (x86)/microchip/xc32/v1.40/bin/bin/../../lib/gcc/pic32mx/4.8.3/../../../../pic32mx/lib\debug-exception-return.o

.text           0x00000000        0x0
 .text          0x00000000        0x0 c:/program files (x86)/microchip/xc32/v1.40/bin/bin/../../lib/gcc/pic32mx/4.8.3/../../../../pic32mx/lib/./proc/32MX575F256L/crt0_mips32r2.o
